
ROS_mega.elf:     file format elf32-avr

Sections:
Idx Name          Size      VMA       LMA       File off  Algn
  0 .data         00000124  00800200  00003596  0000362a  2**0
                  CONTENTS, ALLOC, LOAD, DATA
  1 .text         00003596  00000000  00000000  00000094  2**1
                  CONTENTS, ALLOC, LOAD, READONLY, CODE
  2 .bss          000003d6  00800324  00800324  0000374e  2**0
                  ALLOC
  3 .stab         000033cc  00000000  00000000  00003750  2**2
                  CONTENTS, READONLY, DEBUGGING
  4 .stabstr      00000edd  00000000  00000000  00006b1c  2**0
                  CONTENTS, READONLY, DEBUGGING

Disassembly of section .text:

00000000 <__vectors>:
       0:	0c 94 04 01 	jmp	0x208	; 0x208 <__ctors_end>
       4:	0c 94 4d 13 	jmp	0x269a	; 0x269a <__vector_1>
       8:	0c 94 7e 13 	jmp	0x26fc	; 0x26fc <__vector_2>
       c:	0c 94 af 13 	jmp	0x275e	; 0x275e <__vector_3>
      10:	0c 94 e0 13 	jmp	0x27c0	; 0x27c0 <__vector_4>
      14:	0c 94 11 14 	jmp	0x2822	; 0x2822 <__vector_5>
      18:	0c 94 42 14 	jmp	0x2884	; 0x2884 <__vector_6>
      1c:	0c 94 73 14 	jmp	0x28e6	; 0x28e6 <__vector_7>
      20:	0c 94 a4 14 	jmp	0x2948	; 0x2948 <__vector_8>
      24:	0c 94 35 01 	jmp	0x26a	; 0x26a <__bad_interrupt>
      28:	0c 94 35 01 	jmp	0x26a	; 0x26a <__bad_interrupt>
      2c:	0c 94 35 01 	jmp	0x26a	; 0x26a <__bad_interrupt>
      30:	0c 94 35 01 	jmp	0x26a	; 0x26a <__bad_interrupt>
      34:	0c 94 35 01 	jmp	0x26a	; 0x26a <__bad_interrupt>
      38:	0c 94 35 01 	jmp	0x26a	; 0x26a <__bad_interrupt>
      3c:	0c 94 ca 08 	jmp	0x1194	; 0x1194 <__vector_15>
      40:	0c 94 35 01 	jmp	0x26a	; 0x26a <__bad_interrupt>
      44:	0c 94 d2 19 	jmp	0x33a4	; 0x33a4 <__vector_17>
      48:	0c 94 35 01 	jmp	0x26a	; 0x26a <__bad_interrupt>
      4c:	0c 94 35 01 	jmp	0x26a	; 0x26a <__bad_interrupt>
      50:	0c 94 35 01 	jmp	0x26a	; 0x26a <__bad_interrupt>
      54:	0c 94 35 01 	jmp	0x26a	; 0x26a <__bad_interrupt>
      58:	0c 94 35 01 	jmp	0x26a	; 0x26a <__bad_interrupt>
      5c:	0c 94 1e 15 	jmp	0x2a3c	; 0x2a3c <__vector_23>
      60:	0c 94 35 01 	jmp	0x26a	; 0x26a <__bad_interrupt>
      64:	0c 94 b4 0f 	jmp	0x1f68	; 0x1f68 <__vector_25>
      68:	0c 94 35 01 	jmp	0x26a	; 0x26a <__bad_interrupt>
      6c:	0c 94 35 01 	jmp	0x26a	; 0x26a <__bad_interrupt>
      70:	0c 94 35 01 	jmp	0x26a	; 0x26a <__bad_interrupt>
      74:	0c 94 35 01 	jmp	0x26a	; 0x26a <__bad_interrupt>
      78:	0c 94 35 01 	jmp	0x26a	; 0x26a <__bad_interrupt>
      7c:	0c 94 35 01 	jmp	0x26a	; 0x26a <__bad_interrupt>
      80:	0c 94 a5 19 	jmp	0x334a	; 0x334a <__vector_32>
      84:	0c 94 35 01 	jmp	0x26a	; 0x26a <__bad_interrupt>
      88:	0c 94 35 01 	jmp	0x26a	; 0x26a <__bad_interrupt>
      8c:	0c 94 35 01 	jmp	0x26a	; 0x26a <__bad_interrupt>
      90:	0c 94 e0 0f 	jmp	0x1fc0	; 0x1fc0 <__vector_36>
      94:	0c 94 35 01 	jmp	0x26a	; 0x26a <__bad_interrupt>
      98:	0c 94 35 01 	jmp	0x26a	; 0x26a <__bad_interrupt>
      9c:	0c 94 35 01 	jmp	0x26a	; 0x26a <__bad_interrupt>
      a0:	0c 94 35 01 	jmp	0x26a	; 0x26a <__bad_interrupt>
      a4:	0c 94 35 01 	jmp	0x26a	; 0x26a <__bad_interrupt>
      a8:	0c 94 78 19 	jmp	0x32f0	; 0x32f0 <__vector_42>
      ac:	0c 94 35 01 	jmp	0x26a	; 0x26a <__bad_interrupt>
      b0:	0c 94 35 01 	jmp	0x26a	; 0x26a <__bad_interrupt>
      b4:	0c 94 35 01 	jmp	0x26a	; 0x26a <__bad_interrupt>
      b8:	0c 94 35 01 	jmp	0x26a	; 0x26a <__bad_interrupt>
      bc:	0c 94 4b 19 	jmp	0x3296	; 0x3296 <__vector_47>
      c0:	0c 94 35 01 	jmp	0x26a	; 0x26a <__bad_interrupt>
      c4:	0c 94 35 01 	jmp	0x26a	; 0x26a <__bad_interrupt>
      c8:	0c 94 35 01 	jmp	0x26a	; 0x26a <__bad_interrupt>
      cc:	0c 94 0c 10 	jmp	0x2018	; 0x2018 <__vector_51>
      d0:	0c 94 35 01 	jmp	0x26a	; 0x26a <__bad_interrupt>
      d4:	0c 94 35 01 	jmp	0x26a	; 0x26a <__bad_interrupt>
      d8:	0c 94 38 10 	jmp	0x2070	; 0x2070 <__vector_54>
      dc:	0c 94 35 01 	jmp	0x26a	; 0x26a <__bad_interrupt>
      e0:	0c 94 35 01 	jmp	0x26a	; 0x26a <__bad_interrupt>

000000e4 <port_to_mode_PGM>:
      e4:	00 00 21 00 24 00 27 00 2a 00 2d 00 30 00 33 00     ..!.$.'.*.-.0.3.
      f4:	01 01 00 00 04 01 07 01 0a 01                       ..........

000000fe <port_to_output_PGM>:
      fe:	00 00 22 00 25 00 28 00 2b 00 2e 00 31 00 34 00     ..".%.(.+...1.4.
     10e:	02 01 00 00 05 01 08 01 0b 01                       ..........

00000118 <port_to_input_PGM>:
     118:	00 00 20 00 23 00 26 00 29 00 2c 00 2f 00 32 00     .. .#.&.).,./.2.
     128:	00 01 00 00 03 01 06 01 09 01                       ..........

00000132 <digital_pin_to_port_PGM>:
     132:	05 05 05 05 07 05 08 08 08 08 02 02 02 02 0a 0a     ................
     142:	08 08 04 04 04 04 01 01 01 01 01 01 01 01 03 03     ................
     152:	03 03 03 03 03 03 04 07 07 07 0c 0c 0c 0c 0c 0c     ................
     162:	0c 0c 02 02 02 02 06 06 06 06 06 06 06 06 0b 0b     ................
     172:	0b 0b 0b 0b 0b 0b                                   ......

00000178 <digital_pin_to_bit_mask_PGM>:
     178:	01 02 10 20 20 08 08 10 20 40 10 20 40 80 02 01     ...  ... @. @...
     188:	02 01 08 04 02 01 01 02 04 08 10 20 40 80 80 40     ........... @..@
     198:	20 10 08 04 02 01 80 04 02 01 80 40 20 10 08 04      ..........@ ...
     1a8:	02 01 08 04 02 01 01 02 04 08 10 20 40 80 01 02     ........... @...
     1b8:	04 08 10 20 40 80                                   ... @.

000001be <digital_pin_to_timer_PGM>:
     1be:	00 00 09 0a 02 08 0b 0c 0d 07 06 03 04 01 00 00     ................
	...
     1ea:	10 0f 0e 00 00 00 00 00 00 00 00 00 00 00 00 00     ................
	...

00000204 <__ctors_start>:
     204:	60 0f       	add	r22, r16
     206:	ca 11       	cpse	r28, r10

00000208 <__ctors_end>:
     208:	11 24       	eor	r1, r1
     20a:	1f be       	out	0x3f, r1	; 63
     20c:	cf ef       	ldi	r28, 0xFF	; 255
     20e:	d1 e2       	ldi	r29, 0x21	; 33
     210:	de bf       	out	0x3e, r29	; 62
     212:	cd bf       	out	0x3d, r28	; 61
     214:	00 e0       	ldi	r16, 0x00	; 0
     216:	0c bf       	out	0x3c, r16	; 60

00000218 <__do_copy_data>:
     218:	13 e0       	ldi	r17, 0x03	; 3
     21a:	a0 e0       	ldi	r26, 0x00	; 0
     21c:	b2 e0       	ldi	r27, 0x02	; 2
     21e:	e6 e9       	ldi	r30, 0x96	; 150
     220:	f5 e3       	ldi	r31, 0x35	; 53
     222:	00 e0       	ldi	r16, 0x00	; 0
     224:	0b bf       	out	0x3b, r16	; 59
     226:	02 c0       	rjmp	.+4      	; 0x22c <__do_copy_data+0x14>
     228:	07 90       	elpm	r0, Z+
     22a:	0d 92       	st	X+, r0
     22c:	a4 32       	cpi	r26, 0x24	; 36
     22e:	b1 07       	cpc	r27, r17
     230:	d9 f7       	brne	.-10     	; 0x228 <__do_copy_data+0x10>

00000232 <__do_clear_bss>:
     232:	16 e0       	ldi	r17, 0x06	; 6
     234:	a4 e2       	ldi	r26, 0x24	; 36
     236:	b3 e0       	ldi	r27, 0x03	; 3
     238:	01 c0       	rjmp	.+2      	; 0x23c <.do_clear_bss_start>

0000023a <.do_clear_bss_loop>:
     23a:	1d 92       	st	X+, r1

0000023c <.do_clear_bss_start>:
     23c:	aa 3f       	cpi	r26, 0xFA	; 250
     23e:	b1 07       	cpc	r27, r17
     240:	e1 f7       	brne	.-8      	; 0x23a <.do_clear_bss_loop>

00000242 <__do_global_ctors>:
     242:	12 e0       	ldi	r17, 0x02	; 2
     244:	c8 e0       	ldi	r28, 0x08	; 8
     246:	d2 e0       	ldi	r29, 0x02	; 2
     248:	00 e0       	ldi	r16, 0x00	; 0
     24a:	06 c0       	rjmp	.+12     	; 0x258 <__do_global_ctors+0x16>
     24c:	22 97       	sbiw	r28, 0x02	; 2
     24e:	01 09       	sbc	r16, r1
     250:	fe 01       	movw	r30, r28
     252:	0b bf       	out	0x3b, r16	; 59
     254:	0e 94 c5 1a 	call	0x358a	; 0x358a <__tablejump_elpm__>
     258:	c4 30       	cpi	r28, 0x04	; 4
     25a:	d1 07       	cpc	r29, r17
     25c:	80 e0       	ldi	r24, 0x00	; 0
     25e:	08 07       	cpc	r16, r24
     260:	a9 f7       	brne	.-22     	; 0x24c <__do_global_ctors+0xa>
     262:	0e 94 5b 0d 	call	0x1ab6	; 0x1ab6 <main>
     266:	0c 94 c9 1a 	jmp	0x3592	; 0x3592 <_exit>

0000026a <__bad_interrupt>:
     26a:	0c 94 00 00 	jmp	0	; 0x0 <__vectors>

0000026e <_fpadd_parts>:
     26e:	a0 e0       	ldi	r26, 0x00	; 0
     270:	b0 e0       	ldi	r27, 0x00	; 0
     272:	ed e3       	ldi	r30, 0x3D	; 61
     274:	f1 e0       	ldi	r31, 0x01	; 1
     276:	0c 94 92 1a 	jmp	0x3524	; 0x3524 <__prologue_saves__+0x8>
     27a:	fc 01       	movw	r30, r24
     27c:	ea 01       	movw	r28, r20
     27e:	80 81       	ld	r24, Z
     280:	82 30       	cpi	r24, 0x02	; 2
     282:	08 f4       	brcc	.+2      	; 0x286 <_fpadd_parts+0x18>
     284:	38 c1       	rjmp	.+624    	; 0x4f6 <_fpadd_parts+0x288>
     286:	db 01       	movw	r26, r22
     288:	9c 91       	ld	r25, X
     28a:	92 30       	cpi	r25, 0x02	; 2
     28c:	08 f4       	brcc	.+2      	; 0x290 <_fpadd_parts+0x22>
     28e:	30 c1       	rjmp	.+608    	; 0x4f0 <_fpadd_parts+0x282>
     290:	84 30       	cpi	r24, 0x04	; 4
     292:	59 f4       	brne	.+22     	; 0x2aa <_fpadd_parts+0x3c>
     294:	94 30       	cpi	r25, 0x04	; 4
     296:	09 f0       	breq	.+2      	; 0x29a <_fpadd_parts+0x2c>
     298:	2e c1       	rjmp	.+604    	; 0x4f6 <_fpadd_parts+0x288>
     29a:	91 81       	ldd	r25, Z+1	; 0x01
     29c:	11 96       	adiw	r26, 0x01	; 1
     29e:	8c 91       	ld	r24, X
     2a0:	11 97       	sbiw	r26, 0x01	; 1
     2a2:	98 17       	cp	r25, r24
     2a4:	09 f0       	breq	.+2      	; 0x2a8 <_fpadd_parts+0x3a>
     2a6:	21 c1       	rjmp	.+578    	; 0x4ea <_fpadd_parts+0x27c>
     2a8:	26 c1       	rjmp	.+588    	; 0x4f6 <_fpadd_parts+0x288>
     2aa:	94 30       	cpi	r25, 0x04	; 4
     2ac:	09 f4       	brne	.+2      	; 0x2b0 <_fpadd_parts+0x42>
     2ae:	20 c1       	rjmp	.+576    	; 0x4f0 <_fpadd_parts+0x282>
     2b0:	92 30       	cpi	r25, 0x02	; 2
     2b2:	b1 f4       	brne	.+44     	; 0x2e0 <_fpadd_parts+0x72>
     2b4:	82 30       	cpi	r24, 0x02	; 2
     2b6:	09 f0       	breq	.+2      	; 0x2ba <_fpadd_parts+0x4c>
     2b8:	1e c1       	rjmp	.+572    	; 0x4f6 <_fpadd_parts+0x288>
     2ba:	ca 01       	movw	r24, r20
     2bc:	af 01       	movw	r20, r30
     2be:	28 e0       	ldi	r18, 0x08	; 8
     2c0:	da 01       	movw	r26, r20
     2c2:	0d 90       	ld	r0, X+
     2c4:	ad 01       	movw	r20, r26
     2c6:	dc 01       	movw	r26, r24
     2c8:	0d 92       	st	X+, r0
     2ca:	cd 01       	movw	r24, r26
     2cc:	21 50       	subi	r18, 0x01	; 1
     2ce:	c1 f7       	brne	.-16     	; 0x2c0 <_fpadd_parts+0x52>
     2d0:	db 01       	movw	r26, r22
     2d2:	11 96       	adiw	r26, 0x01	; 1
     2d4:	8c 91       	ld	r24, X
     2d6:	11 97       	sbiw	r26, 0x01	; 1
     2d8:	91 81       	ldd	r25, Z+1	; 0x01
     2da:	89 23       	and	r24, r25
     2dc:	89 83       	std	Y+1, r24	; 0x01
     2de:	0a c1       	rjmp	.+532    	; 0x4f4 <_fpadd_parts+0x286>
     2e0:	82 30       	cpi	r24, 0x02	; 2
     2e2:	09 f4       	brne	.+2      	; 0x2e6 <_fpadd_parts+0x78>
     2e4:	05 c1       	rjmp	.+522    	; 0x4f0 <_fpadd_parts+0x282>
     2e6:	c2 80       	ldd	r12, Z+2	; 0x02
     2e8:	d3 80       	ldd	r13, Z+3	; 0x03
     2ea:	db 01       	movw	r26, r22
     2ec:	12 96       	adiw	r26, 0x02	; 2
     2ee:	6d 90       	ld	r6, X+
     2f0:	7c 90       	ld	r7, X
     2f2:	13 97       	sbiw	r26, 0x03	; 3
     2f4:	24 81       	ldd	r18, Z+4	; 0x04
     2f6:	35 81       	ldd	r19, Z+5	; 0x05
     2f8:	46 81       	ldd	r20, Z+6	; 0x06
     2fa:	57 81       	ldd	r21, Z+7	; 0x07
     2fc:	14 96       	adiw	r26, 0x04	; 4
     2fe:	ed 90       	ld	r14, X+
     300:	fd 90       	ld	r15, X+
     302:	0d 91       	ld	r16, X+
     304:	1c 91       	ld	r17, X
     306:	17 97       	sbiw	r26, 0x07	; 7
     308:	c6 01       	movw	r24, r12
     30a:	86 19       	sub	r24, r6
     30c:	97 09       	sbc	r25, r7
     30e:	5c 01       	movw	r10, r24
     310:	97 ff       	sbrs	r25, 7
     312:	04 c0       	rjmp	.+8      	; 0x31c <_fpadd_parts+0xae>
     314:	aa 24       	eor	r10, r10
     316:	bb 24       	eor	r11, r11
     318:	a8 1a       	sub	r10, r24
     31a:	b9 0a       	sbc	r11, r25
     31c:	b0 e2       	ldi	r27, 0x20	; 32
     31e:	ab 16       	cp	r10, r27
     320:	b1 04       	cpc	r11, r1
     322:	0c f0       	brlt	.+2      	; 0x326 <_fpadd_parts+0xb8>
     324:	61 c0       	rjmp	.+194    	; 0x3e8 <_fpadd_parts+0x17a>
     326:	18 16       	cp	r1, r24
     328:	19 06       	cpc	r1, r25
     32a:	6c f5       	brge	.+90     	; 0x386 <_fpadd_parts+0x118>
     32c:	37 01       	movw	r6, r14
     32e:	48 01       	movw	r8, r16
     330:	0a 2c       	mov	r0, r10
     332:	04 c0       	rjmp	.+8      	; 0x33c <_fpadd_parts+0xce>
     334:	96 94       	lsr	r9
     336:	87 94       	ror	r8
     338:	77 94       	ror	r7
     33a:	67 94       	ror	r6
     33c:	0a 94       	dec	r0
     33e:	d2 f7       	brpl	.-12     	; 0x334 <_fpadd_parts+0xc6>
     340:	81 e0       	ldi	r24, 0x01	; 1
     342:	90 e0       	ldi	r25, 0x00	; 0
     344:	a0 e0       	ldi	r26, 0x00	; 0
     346:	b0 e0       	ldi	r27, 0x00	; 0
     348:	0a 2c       	mov	r0, r10
     34a:	04 c0       	rjmp	.+8      	; 0x354 <_fpadd_parts+0xe6>
     34c:	88 0f       	add	r24, r24
     34e:	99 1f       	adc	r25, r25
     350:	aa 1f       	adc	r26, r26
     352:	bb 1f       	adc	r27, r27
     354:	0a 94       	dec	r0
     356:	d2 f7       	brpl	.-12     	; 0x34c <_fpadd_parts+0xde>
     358:	01 97       	sbiw	r24, 0x01	; 1
     35a:	a1 09       	sbc	r26, r1
     35c:	b1 09       	sbc	r27, r1
     35e:	8e 21       	and	r24, r14
     360:	9f 21       	and	r25, r15
     362:	a0 23       	and	r26, r16
     364:	b1 23       	and	r27, r17
     366:	ee 24       	eor	r14, r14
     368:	ff 24       	eor	r15, r15
     36a:	87 01       	movw	r16, r14
     36c:	e3 94       	inc	r14
     36e:	00 97       	sbiw	r24, 0x00	; 0
     370:	a1 05       	cpc	r26, r1
     372:	b1 05       	cpc	r27, r1
     374:	19 f4       	brne	.+6      	; 0x37c <_fpadd_parts+0x10e>
     376:	ee 24       	eor	r14, r14
     378:	ff 24       	eor	r15, r15
     37a:	87 01       	movw	r16, r14
     37c:	e6 28       	or	r14, r6
     37e:	f7 28       	or	r15, r7
     380:	08 29       	or	r16, r8
     382:	19 29       	or	r17, r9
     384:	3c c0       	rjmp	.+120    	; 0x3fe <_fpadd_parts+0x190>
     386:	00 97       	sbiw	r24, 0x00	; 0
     388:	d1 f1       	breq	.+116    	; 0x3fe <_fpadd_parts+0x190>
     38a:	ca 0c       	add	r12, r10
     38c:	db 1c       	adc	r13, r11
     38e:	39 01       	movw	r6, r18
     390:	4a 01       	movw	r8, r20
     392:	0a 2c       	mov	r0, r10
     394:	04 c0       	rjmp	.+8      	; 0x39e <_fpadd_parts+0x130>
     396:	96 94       	lsr	r9
     398:	87 94       	ror	r8
     39a:	77 94       	ror	r7
     39c:	67 94       	ror	r6
     39e:	0a 94       	dec	r0
     3a0:	d2 f7       	brpl	.-12     	; 0x396 <_fpadd_parts+0x128>
     3a2:	81 e0       	ldi	r24, 0x01	; 1
     3a4:	90 e0       	ldi	r25, 0x00	; 0
     3a6:	a0 e0       	ldi	r26, 0x00	; 0
     3a8:	b0 e0       	ldi	r27, 0x00	; 0
     3aa:	0a 2c       	mov	r0, r10
     3ac:	04 c0       	rjmp	.+8      	; 0x3b6 <_fpadd_parts+0x148>
     3ae:	88 0f       	add	r24, r24
     3b0:	99 1f       	adc	r25, r25
     3b2:	aa 1f       	adc	r26, r26
     3b4:	bb 1f       	adc	r27, r27
     3b6:	0a 94       	dec	r0
     3b8:	d2 f7       	brpl	.-12     	; 0x3ae <_fpadd_parts+0x140>
     3ba:	01 97       	sbiw	r24, 0x01	; 1
     3bc:	a1 09       	sbc	r26, r1
     3be:	b1 09       	sbc	r27, r1
     3c0:	82 23       	and	r24, r18
     3c2:	93 23       	and	r25, r19
     3c4:	a4 23       	and	r26, r20
     3c6:	b5 23       	and	r27, r21
     3c8:	21 e0       	ldi	r18, 0x01	; 1
     3ca:	30 e0       	ldi	r19, 0x00	; 0
     3cc:	40 e0       	ldi	r20, 0x00	; 0
     3ce:	50 e0       	ldi	r21, 0x00	; 0
     3d0:	00 97       	sbiw	r24, 0x00	; 0
     3d2:	a1 05       	cpc	r26, r1
     3d4:	b1 05       	cpc	r27, r1
     3d6:	19 f4       	brne	.+6      	; 0x3de <_fpadd_parts+0x170>
     3d8:	20 e0       	ldi	r18, 0x00	; 0
     3da:	30 e0       	ldi	r19, 0x00	; 0
     3dc:	a9 01       	movw	r20, r18
     3de:	26 29       	or	r18, r6
     3e0:	37 29       	or	r19, r7
     3e2:	48 29       	or	r20, r8
     3e4:	59 29       	or	r21, r9
     3e6:	0b c0       	rjmp	.+22     	; 0x3fe <_fpadd_parts+0x190>
     3e8:	6c 14       	cp	r6, r12
     3ea:	7d 04       	cpc	r7, r13
     3ec:	24 f4       	brge	.+8      	; 0x3f6 <_fpadd_parts+0x188>
     3ee:	ee 24       	eor	r14, r14
     3f0:	ff 24       	eor	r15, r15
     3f2:	87 01       	movw	r16, r14
     3f4:	04 c0       	rjmp	.+8      	; 0x3fe <_fpadd_parts+0x190>
     3f6:	63 01       	movw	r12, r6
     3f8:	20 e0       	ldi	r18, 0x00	; 0
     3fa:	30 e0       	ldi	r19, 0x00	; 0
     3fc:	a9 01       	movw	r20, r18
     3fe:	81 81       	ldd	r24, Z+1	; 0x01
     400:	fb 01       	movw	r30, r22
     402:	91 81       	ldd	r25, Z+1	; 0x01
     404:	89 17       	cp	r24, r25
     406:	09 f4       	brne	.+2      	; 0x40a <_fpadd_parts+0x19c>
     408:	45 c0       	rjmp	.+138    	; 0x494 <_fpadd_parts+0x226>
     40a:	88 23       	and	r24, r24
     40c:	49 f0       	breq	.+18     	; 0x420 <_fpadd_parts+0x1b2>
     40e:	d8 01       	movw	r26, r16
     410:	c7 01       	movw	r24, r14
     412:	82 1b       	sub	r24, r18
     414:	93 0b       	sbc	r25, r19
     416:	a4 0b       	sbc	r26, r20
     418:	b5 0b       	sbc	r27, r21
     41a:	9c 01       	movw	r18, r24
     41c:	ad 01       	movw	r20, r26
     41e:	04 c0       	rjmp	.+8      	; 0x428 <_fpadd_parts+0x1ba>
     420:	2e 19       	sub	r18, r14
     422:	3f 09       	sbc	r19, r15
     424:	40 0b       	sbc	r20, r16
     426:	51 0b       	sbc	r21, r17
     428:	57 fd       	sbrc	r21, 7
     42a:	04 c0       	rjmp	.+8      	; 0x434 <_fpadd_parts+0x1c6>
     42c:	19 82       	std	Y+1, r1	; 0x01
     42e:	db 82       	std	Y+3, r13	; 0x03
     430:	ca 82       	std	Y+2, r12	; 0x02
     432:	0b c0       	rjmp	.+22     	; 0x44a <_fpadd_parts+0x1dc>
     434:	81 e0       	ldi	r24, 0x01	; 1
     436:	89 83       	std	Y+1, r24	; 0x01
     438:	db 82       	std	Y+3, r13	; 0x03
     43a:	ca 82       	std	Y+2, r12	; 0x02
     43c:	50 95       	com	r21
     43e:	40 95       	com	r20
     440:	30 95       	com	r19
     442:	21 95       	neg	r18
     444:	3f 4f       	sbci	r19, 0xFF	; 255
     446:	4f 4f       	sbci	r20, 0xFF	; 255
     448:	5f 4f       	sbci	r21, 0xFF	; 255
     44a:	2c 83       	std	Y+4, r18	; 0x04
     44c:	3d 83       	std	Y+5, r19	; 0x05
     44e:	4e 83       	std	Y+6, r20	; 0x06
     450:	5f 83       	std	Y+7, r21	; 0x07
     452:	0d c0       	rjmp	.+26     	; 0x46e <_fpadd_parts+0x200>
     454:	88 0f       	add	r24, r24
     456:	99 1f       	adc	r25, r25
     458:	aa 1f       	adc	r26, r26
     45a:	bb 1f       	adc	r27, r27
     45c:	8c 83       	std	Y+4, r24	; 0x04
     45e:	9d 83       	std	Y+5, r25	; 0x05
     460:	ae 83       	std	Y+6, r26	; 0x06
     462:	bf 83       	std	Y+7, r27	; 0x07
     464:	8a 81       	ldd	r24, Y+2	; 0x02
     466:	9b 81       	ldd	r25, Y+3	; 0x03
     468:	01 97       	sbiw	r24, 0x01	; 1
     46a:	9b 83       	std	Y+3, r25	; 0x03
     46c:	8a 83       	std	Y+2, r24	; 0x02
     46e:	8c 81       	ldd	r24, Y+4	; 0x04
     470:	9d 81       	ldd	r25, Y+5	; 0x05
     472:	ae 81       	ldd	r26, Y+6	; 0x06
     474:	bf 81       	ldd	r27, Y+7	; 0x07
     476:	9c 01       	movw	r18, r24
     478:	ad 01       	movw	r20, r26
     47a:	21 50       	subi	r18, 0x01	; 1
     47c:	30 40       	sbci	r19, 0x00	; 0
     47e:	40 40       	sbci	r20, 0x00	; 0
     480:	50 40       	sbci	r21, 0x00	; 0
     482:	2f 3f       	cpi	r18, 0xFF	; 255
     484:	ef ef       	ldi	r30, 0xFF	; 255
     486:	3e 07       	cpc	r19, r30
     488:	ef ef       	ldi	r30, 0xFF	; 255
     48a:	4e 07       	cpc	r20, r30
     48c:	ef e3       	ldi	r30, 0x3F	; 63
     48e:	5e 07       	cpc	r21, r30
     490:	08 f3       	brcs	.-62     	; 0x454 <_fpadd_parts+0x1e6>
     492:	0b c0       	rjmp	.+22     	; 0x4aa <_fpadd_parts+0x23c>
     494:	89 83       	std	Y+1, r24	; 0x01
     496:	db 82       	std	Y+3, r13	; 0x03
     498:	ca 82       	std	Y+2, r12	; 0x02
     49a:	2e 0d       	add	r18, r14
     49c:	3f 1d       	adc	r19, r15
     49e:	40 1f       	adc	r20, r16
     4a0:	51 1f       	adc	r21, r17
     4a2:	2c 83       	std	Y+4, r18	; 0x04
     4a4:	3d 83       	std	Y+5, r19	; 0x05
     4a6:	4e 83       	std	Y+6, r20	; 0x06
     4a8:	5f 83       	std	Y+7, r21	; 0x07
     4aa:	83 e0       	ldi	r24, 0x03	; 3
     4ac:	88 83       	st	Y, r24
     4ae:	2c 81       	ldd	r18, Y+4	; 0x04
     4b0:	3d 81       	ldd	r19, Y+5	; 0x05
     4b2:	4e 81       	ldd	r20, Y+6	; 0x06
     4b4:	5f 81       	ldd	r21, Y+7	; 0x07
     4b6:	57 ff       	sbrs	r21, 7
     4b8:	1d c0       	rjmp	.+58     	; 0x4f4 <_fpadd_parts+0x286>
     4ba:	da 01       	movw	r26, r20
     4bc:	c9 01       	movw	r24, r18
     4be:	81 70       	andi	r24, 0x01	; 1
     4c0:	90 70       	andi	r25, 0x00	; 0
     4c2:	a0 70       	andi	r26, 0x00	; 0
     4c4:	b0 70       	andi	r27, 0x00	; 0
     4c6:	56 95       	lsr	r21
     4c8:	47 95       	ror	r20
     4ca:	37 95       	ror	r19
     4cc:	27 95       	ror	r18
     4ce:	82 2b       	or	r24, r18
     4d0:	93 2b       	or	r25, r19
     4d2:	a4 2b       	or	r26, r20
     4d4:	b5 2b       	or	r27, r21
     4d6:	8c 83       	std	Y+4, r24	; 0x04
     4d8:	9d 83       	std	Y+5, r25	; 0x05
     4da:	ae 83       	std	Y+6, r26	; 0x06
     4dc:	bf 83       	std	Y+7, r27	; 0x07
     4de:	8a 81       	ldd	r24, Y+2	; 0x02
     4e0:	9b 81       	ldd	r25, Y+3	; 0x03
     4e2:	01 96       	adiw	r24, 0x01	; 1
     4e4:	9b 83       	std	Y+3, r25	; 0x03
     4e6:	8a 83       	std	Y+2, r24	; 0x02
     4e8:	05 c0       	rjmp	.+10     	; 0x4f4 <_fpadd_parts+0x286>
     4ea:	e0 e0       	ldi	r30, 0x00	; 0
     4ec:	f2 e0       	ldi	r31, 0x02	; 2
     4ee:	03 c0       	rjmp	.+6      	; 0x4f6 <_fpadd_parts+0x288>
     4f0:	fb 01       	movw	r30, r22
     4f2:	01 c0       	rjmp	.+2      	; 0x4f6 <_fpadd_parts+0x288>
     4f4:	fe 01       	movw	r30, r28
     4f6:	cf 01       	movw	r24, r30
     4f8:	cd b7       	in	r28, 0x3d	; 61
     4fa:	de b7       	in	r29, 0x3e	; 62
     4fc:	ee e0       	ldi	r30, 0x0E	; 14
     4fe:	0c 94 ae 1a 	jmp	0x355c	; 0x355c <__epilogue_restores__+0x8>

00000502 <__addsf3>:
     502:	a0 e2       	ldi	r26, 0x20	; 32
     504:	b0 e0       	ldi	r27, 0x00	; 0
     506:	e7 e8       	ldi	r30, 0x87	; 135
     508:	f2 e0       	ldi	r31, 0x02	; 2
     50a:	0c 94 9a 1a 	jmp	0x3534	; 0x3534 <__prologue_saves__+0x18>
     50e:	69 83       	std	Y+1, r22	; 0x01
     510:	7a 83       	std	Y+2, r23	; 0x02
     512:	8b 83       	std	Y+3, r24	; 0x03
     514:	9c 83       	std	Y+4, r25	; 0x04
     516:	2d 83       	std	Y+5, r18	; 0x05
     518:	3e 83       	std	Y+6, r19	; 0x06
     51a:	4f 83       	std	Y+7, r20	; 0x07
     51c:	58 87       	std	Y+8, r21	; 0x08
     51e:	89 e0       	ldi	r24, 0x09	; 9
     520:	e8 2e       	mov	r14, r24
     522:	f1 2c       	mov	r15, r1
     524:	ec 0e       	add	r14, r28
     526:	fd 1e       	adc	r15, r29
     528:	ce 01       	movw	r24, r28
     52a:	01 96       	adiw	r24, 0x01	; 1
     52c:	b7 01       	movw	r22, r14
     52e:	0e 94 c9 07 	call	0xf92	; 0xf92 <__unpack_f>
     532:	8e 01       	movw	r16, r28
     534:	0f 5e       	subi	r16, 0xEF	; 239
     536:	1f 4f       	sbci	r17, 0xFF	; 255
     538:	ce 01       	movw	r24, r28
     53a:	05 96       	adiw	r24, 0x05	; 5
     53c:	b8 01       	movw	r22, r16
     53e:	0e 94 c9 07 	call	0xf92	; 0xf92 <__unpack_f>
     542:	c7 01       	movw	r24, r14
     544:	b8 01       	movw	r22, r16
     546:	ae 01       	movw	r20, r28
     548:	47 5e       	subi	r20, 0xE7	; 231
     54a:	5f 4f       	sbci	r21, 0xFF	; 255
     54c:	0e 94 37 01 	call	0x26e	; 0x26e <_fpadd_parts>
     550:	0e 94 fb 06 	call	0xdf6	; 0xdf6 <__pack_f>
     554:	a0 96       	adiw	r28, 0x20	; 32
     556:	e6 e0       	ldi	r30, 0x06	; 6
     558:	0c 94 b6 1a 	jmp	0x356c	; 0x356c <__epilogue_restores__+0x18>

0000055c <__subsf3>:
     55c:	a0 e2       	ldi	r26, 0x20	; 32
     55e:	b0 e0       	ldi	r27, 0x00	; 0
     560:	e4 eb       	ldi	r30, 0xB4	; 180
     562:	f2 e0       	ldi	r31, 0x02	; 2
     564:	0c 94 9a 1a 	jmp	0x3534	; 0x3534 <__prologue_saves__+0x18>
     568:	69 83       	std	Y+1, r22	; 0x01
     56a:	7a 83       	std	Y+2, r23	; 0x02
     56c:	8b 83       	std	Y+3, r24	; 0x03
     56e:	9c 83       	std	Y+4, r25	; 0x04
     570:	2d 83       	std	Y+5, r18	; 0x05
     572:	3e 83       	std	Y+6, r19	; 0x06
     574:	4f 83       	std	Y+7, r20	; 0x07
     576:	58 87       	std	Y+8, r21	; 0x08
     578:	8e 01       	movw	r16, r28
     57a:	07 5f       	subi	r16, 0xF7	; 247
     57c:	1f 4f       	sbci	r17, 0xFF	; 255
     57e:	ce 01       	movw	r24, r28
     580:	01 96       	adiw	r24, 0x01	; 1
     582:	b8 01       	movw	r22, r16
     584:	0e 94 c9 07 	call	0xf92	; 0xf92 <__unpack_f>
     588:	91 e1       	ldi	r25, 0x11	; 17
     58a:	e9 2e       	mov	r14, r25
     58c:	f1 2c       	mov	r15, r1
     58e:	ec 0e       	add	r14, r28
     590:	fd 1e       	adc	r15, r29
     592:	ce 01       	movw	r24, r28
     594:	05 96       	adiw	r24, 0x05	; 5
     596:	b7 01       	movw	r22, r14
     598:	0e 94 c9 07 	call	0xf92	; 0xf92 <__unpack_f>
     59c:	8a 89       	ldd	r24, Y+18	; 0x12
     59e:	91 e0       	ldi	r25, 0x01	; 1
     5a0:	89 27       	eor	r24, r25
     5a2:	8a 8b       	std	Y+18, r24	; 0x12
     5a4:	c8 01       	movw	r24, r16
     5a6:	b7 01       	movw	r22, r14
     5a8:	ae 01       	movw	r20, r28
     5aa:	47 5e       	subi	r20, 0xE7	; 231
     5ac:	5f 4f       	sbci	r21, 0xFF	; 255
     5ae:	0e 94 37 01 	call	0x26e	; 0x26e <_fpadd_parts>
     5b2:	0e 94 fb 06 	call	0xdf6	; 0xdf6 <__pack_f>
     5b6:	a0 96       	adiw	r28, 0x20	; 32
     5b8:	e6 e0       	ldi	r30, 0x06	; 6
     5ba:	0c 94 b6 1a 	jmp	0x356c	; 0x356c <__epilogue_restores__+0x18>

000005be <__mulsf3>:
     5be:	a0 e2       	ldi	r26, 0x20	; 32
     5c0:	b0 e0       	ldi	r27, 0x00	; 0
     5c2:	e5 ee       	ldi	r30, 0xE5	; 229
     5c4:	f2 e0       	ldi	r31, 0x02	; 2
     5c6:	0c 94 8e 1a 	jmp	0x351c	; 0x351c <__prologue_saves__>
     5ca:	69 83       	std	Y+1, r22	; 0x01
     5cc:	7a 83       	std	Y+2, r23	; 0x02
     5ce:	8b 83       	std	Y+3, r24	; 0x03
     5d0:	9c 83       	std	Y+4, r25	; 0x04
     5d2:	2d 83       	std	Y+5, r18	; 0x05
     5d4:	3e 83       	std	Y+6, r19	; 0x06
     5d6:	4f 83       	std	Y+7, r20	; 0x07
     5d8:	58 87       	std	Y+8, r21	; 0x08
     5da:	ce 01       	movw	r24, r28
     5dc:	01 96       	adiw	r24, 0x01	; 1
     5de:	be 01       	movw	r22, r28
     5e0:	67 5f       	subi	r22, 0xF7	; 247
     5e2:	7f 4f       	sbci	r23, 0xFF	; 255
     5e4:	0e 94 c9 07 	call	0xf92	; 0xf92 <__unpack_f>
     5e8:	ce 01       	movw	r24, r28
     5ea:	05 96       	adiw	r24, 0x05	; 5
     5ec:	be 01       	movw	r22, r28
     5ee:	6f 5e       	subi	r22, 0xEF	; 239
     5f0:	7f 4f       	sbci	r23, 0xFF	; 255
     5f2:	0e 94 c9 07 	call	0xf92	; 0xf92 <__unpack_f>
     5f6:	99 85       	ldd	r25, Y+9	; 0x09
     5f8:	92 30       	cpi	r25, 0x02	; 2
     5fa:	78 f0       	brcs	.+30     	; 0x61a <__mulsf3+0x5c>
     5fc:	89 89       	ldd	r24, Y+17	; 0x11
     5fe:	82 30       	cpi	r24, 0x02	; 2
     600:	c0 f0       	brcs	.+48     	; 0x632 <__mulsf3+0x74>
     602:	94 30       	cpi	r25, 0x04	; 4
     604:	19 f4       	brne	.+6      	; 0x60c <__mulsf3+0x4e>
     606:	82 30       	cpi	r24, 0x02	; 2
     608:	41 f4       	brne	.+16     	; 0x61a <__mulsf3+0x5c>
     60a:	cb c0       	rjmp	.+406    	; 0x7a2 <__mulsf3+0x1e4>
     60c:	84 30       	cpi	r24, 0x04	; 4
     60e:	19 f4       	brne	.+6      	; 0x616 <__mulsf3+0x58>
     610:	92 30       	cpi	r25, 0x02	; 2
     612:	79 f4       	brne	.+30     	; 0x632 <__mulsf3+0x74>
     614:	c6 c0       	rjmp	.+396    	; 0x7a2 <__mulsf3+0x1e4>
     616:	92 30       	cpi	r25, 0x02	; 2
     618:	51 f4       	brne	.+20     	; 0x62e <__mulsf3+0x70>
     61a:	81 e0       	ldi	r24, 0x01	; 1
     61c:	2a 85       	ldd	r18, Y+10	; 0x0a
     61e:	9a 89       	ldd	r25, Y+18	; 0x12
     620:	29 17       	cp	r18, r25
     622:	09 f4       	brne	.+2      	; 0x626 <__mulsf3+0x68>
     624:	80 e0       	ldi	r24, 0x00	; 0
     626:	8a 87       	std	Y+10, r24	; 0x0a
     628:	ce 01       	movw	r24, r28
     62a:	09 96       	adiw	r24, 0x09	; 9
     62c:	bc c0       	rjmp	.+376    	; 0x7a6 <__mulsf3+0x1e8>
     62e:	82 30       	cpi	r24, 0x02	; 2
     630:	51 f4       	brne	.+20     	; 0x646 <__mulsf3+0x88>
     632:	81 e0       	ldi	r24, 0x01	; 1
     634:	2a 85       	ldd	r18, Y+10	; 0x0a
     636:	9a 89       	ldd	r25, Y+18	; 0x12
     638:	29 17       	cp	r18, r25
     63a:	09 f4       	brne	.+2      	; 0x63e <__mulsf3+0x80>
     63c:	80 e0       	ldi	r24, 0x00	; 0
     63e:	8a 8b       	std	Y+18, r24	; 0x12
     640:	ce 01       	movw	r24, r28
     642:	41 96       	adiw	r24, 0x11	; 17
     644:	b0 c0       	rjmp	.+352    	; 0x7a6 <__mulsf3+0x1e8>
     646:	6d 84       	ldd	r6, Y+13	; 0x0d
     648:	7e 84       	ldd	r7, Y+14	; 0x0e
     64a:	8f 84       	ldd	r8, Y+15	; 0x0f
     64c:	98 88       	ldd	r9, Y+16	; 0x10
     64e:	ed 88       	ldd	r14, Y+21	; 0x15
     650:	fe 88       	ldd	r15, Y+22	; 0x16
     652:	0f 89       	ldd	r16, Y+23	; 0x17
     654:	18 8d       	ldd	r17, Y+24	; 0x18
     656:	e0 e2       	ldi	r30, 0x20	; 32
     658:	f0 e0       	ldi	r31, 0x00	; 0
     65a:	80 e0       	ldi	r24, 0x00	; 0
     65c:	90 e0       	ldi	r25, 0x00	; 0
     65e:	dc 01       	movw	r26, r24
     660:	aa 24       	eor	r10, r10
     662:	bb 24       	eor	r11, r11
     664:	65 01       	movw	r12, r10
     666:	20 e0       	ldi	r18, 0x00	; 0
     668:	30 e0       	ldi	r19, 0x00	; 0
     66a:	a9 01       	movw	r20, r18
     66c:	b3 01       	movw	r22, r6
     66e:	61 70       	andi	r22, 0x01	; 1
     670:	70 70       	andi	r23, 0x00	; 0
     672:	61 15       	cp	r22, r1
     674:	71 05       	cpc	r23, r1
     676:	d1 f0       	breq	.+52     	; 0x6ac <__mulsf3+0xee>
     678:	2e 0d       	add	r18, r14
     67a:	3f 1d       	adc	r19, r15
     67c:	40 1f       	adc	r20, r16
     67e:	51 1f       	adc	r21, r17
     680:	15 01       	movw	r2, r10
     682:	26 01       	movw	r4, r12
     684:	28 0e       	add	r2, r24
     686:	39 1e       	adc	r3, r25
     688:	4a 1e       	adc	r4, r26
     68a:	5b 1e       	adc	r5, r27
     68c:	81 e0       	ldi	r24, 0x01	; 1
     68e:	90 e0       	ldi	r25, 0x00	; 0
     690:	a0 e0       	ldi	r26, 0x00	; 0
     692:	b0 e0       	ldi	r27, 0x00	; 0
     694:	2e 15       	cp	r18, r14
     696:	3f 05       	cpc	r19, r15
     698:	40 07       	cpc	r20, r16
     69a:	51 07       	cpc	r21, r17
     69c:	18 f0       	brcs	.+6      	; 0x6a4 <__mulsf3+0xe6>
     69e:	80 e0       	ldi	r24, 0x00	; 0
     6a0:	90 e0       	ldi	r25, 0x00	; 0
     6a2:	dc 01       	movw	r26, r24
     6a4:	82 0d       	add	r24, r2
     6a6:	93 1d       	adc	r25, r3
     6a8:	a4 1d       	adc	r26, r4
     6aa:	b5 1d       	adc	r27, r5
     6ac:	aa 0c       	add	r10, r10
     6ae:	bb 1c       	adc	r11, r11
     6b0:	cc 1c       	adc	r12, r12
     6b2:	dd 1c       	adc	r13, r13
     6b4:	17 ff       	sbrs	r17, 7
     6b6:	09 c0       	rjmp	.+18     	; 0x6ca <__mulsf3+0x10c>
     6b8:	61 e0       	ldi	r22, 0x01	; 1
     6ba:	26 2e       	mov	r2, r22
     6bc:	31 2c       	mov	r3, r1
     6be:	41 2c       	mov	r4, r1
     6c0:	51 2c       	mov	r5, r1
     6c2:	a2 28       	or	r10, r2
     6c4:	b3 28       	or	r11, r3
     6c6:	c4 28       	or	r12, r4
     6c8:	d5 28       	or	r13, r5
     6ca:	31 97       	sbiw	r30, 0x01	; 1
     6cc:	49 f0       	breq	.+18     	; 0x6e0 <__mulsf3+0x122>
     6ce:	ee 0c       	add	r14, r14
     6d0:	ff 1c       	adc	r15, r15
     6d2:	00 1f       	adc	r16, r16
     6d4:	11 1f       	adc	r17, r17
     6d6:	96 94       	lsr	r9
     6d8:	87 94       	ror	r8
     6da:	77 94       	ror	r7
     6dc:	67 94       	ror	r6
     6de:	c6 cf       	rjmp	.-116    	; 0x66c <__mulsf3+0xae>
     6e0:	6b 89       	ldd	r22, Y+19	; 0x13
     6e2:	7c 89       	ldd	r23, Y+20	; 0x14
     6e4:	eb 85       	ldd	r30, Y+11	; 0x0b
     6e6:	fc 85       	ldd	r31, Y+12	; 0x0c
     6e8:	6e 0f       	add	r22, r30
     6ea:	7f 1f       	adc	r23, r31
     6ec:	6e 5f       	subi	r22, 0xFE	; 254
     6ee:	7f 4f       	sbci	r23, 0xFF	; 255
     6f0:	7c 8f       	std	Y+28, r23	; 0x1c
     6f2:	6b 8f       	std	Y+27, r22	; 0x1b
     6f4:	61 e0       	ldi	r22, 0x01	; 1
     6f6:	ea 85       	ldd	r30, Y+10	; 0x0a
     6f8:	7a 89       	ldd	r23, Y+18	; 0x12
     6fa:	e7 17       	cp	r30, r23
     6fc:	09 f4       	brne	.+2      	; 0x700 <__mulsf3+0x142>
     6fe:	60 e0       	ldi	r22, 0x00	; 0
     700:	6a 8f       	std	Y+26, r22	; 0x1a
     702:	6b 8d       	ldd	r22, Y+27	; 0x1b
     704:	7c 8d       	ldd	r23, Y+28	; 0x1c
     706:	10 c0       	rjmp	.+32     	; 0x728 <__mulsf3+0x16a>
     708:	fc 01       	movw	r30, r24
     70a:	e1 70       	andi	r30, 0x01	; 1
     70c:	f0 70       	andi	r31, 0x00	; 0
     70e:	30 97       	sbiw	r30, 0x00	; 0
     710:	29 f0       	breq	.+10     	; 0x71c <__mulsf3+0x15e>
     712:	56 95       	lsr	r21
     714:	47 95       	ror	r20
     716:	37 95       	ror	r19
     718:	27 95       	ror	r18
     71a:	50 68       	ori	r21, 0x80	; 128
     71c:	b6 95       	lsr	r27
     71e:	a7 95       	ror	r26
     720:	97 95       	ror	r25
     722:	87 95       	ror	r24
     724:	6f 5f       	subi	r22, 0xFF	; 255
     726:	7f 4f       	sbci	r23, 0xFF	; 255
     728:	b7 fd       	sbrc	r27, 7
     72a:	ee cf       	rjmp	.-36     	; 0x708 <__mulsf3+0x14a>
     72c:	0c c0       	rjmp	.+24     	; 0x746 <__mulsf3+0x188>
     72e:	88 0f       	add	r24, r24
     730:	99 1f       	adc	r25, r25
     732:	aa 1f       	adc	r26, r26
     734:	bb 1f       	adc	r27, r27
     736:	57 fd       	sbrc	r21, 7
     738:	81 60       	ori	r24, 0x01	; 1
     73a:	22 0f       	add	r18, r18
     73c:	33 1f       	adc	r19, r19
     73e:	44 1f       	adc	r20, r20
     740:	55 1f       	adc	r21, r21
     742:	61 50       	subi	r22, 0x01	; 1
     744:	70 40       	sbci	r23, 0x00	; 0
     746:	80 30       	cpi	r24, 0x00	; 0
     748:	e0 e0       	ldi	r30, 0x00	; 0
     74a:	9e 07       	cpc	r25, r30
     74c:	e0 e0       	ldi	r30, 0x00	; 0
     74e:	ae 07       	cpc	r26, r30
     750:	e0 e4       	ldi	r30, 0x40	; 64
     752:	be 07       	cpc	r27, r30
     754:	60 f3       	brcs	.-40     	; 0x72e <__mulsf3+0x170>
     756:	6b 8f       	std	Y+27, r22	; 0x1b
     758:	7c 8f       	std	Y+28, r23	; 0x1c
     75a:	6f e7       	ldi	r22, 0x7F	; 127
     75c:	e6 2e       	mov	r14, r22
     75e:	f1 2c       	mov	r15, r1
     760:	01 2d       	mov	r16, r1
     762:	11 2d       	mov	r17, r1
     764:	e8 22       	and	r14, r24
     766:	f9 22       	and	r15, r25
     768:	0a 23       	and	r16, r26
     76a:	1b 23       	and	r17, r27
     76c:	60 e4       	ldi	r22, 0x40	; 64
     76e:	e6 16       	cp	r14, r22
     770:	f1 04       	cpc	r15, r1
     772:	01 05       	cpc	r16, r1
     774:	11 05       	cpc	r17, r1
     776:	61 f4       	brne	.+24     	; 0x790 <__mulsf3+0x1d2>
     778:	87 fd       	sbrc	r24, 7
     77a:	0a c0       	rjmp	.+20     	; 0x790 <__mulsf3+0x1d2>
     77c:	21 15       	cp	r18, r1
     77e:	31 05       	cpc	r19, r1
     780:	41 05       	cpc	r20, r1
     782:	51 05       	cpc	r21, r1
     784:	29 f0       	breq	.+10     	; 0x790 <__mulsf3+0x1d2>
     786:	80 5c       	subi	r24, 0xC0	; 192
     788:	9f 4f       	sbci	r25, 0xFF	; 255
     78a:	af 4f       	sbci	r26, 0xFF	; 255
     78c:	bf 4f       	sbci	r27, 0xFF	; 255
     78e:	80 78       	andi	r24, 0x80	; 128
     790:	8d 8f       	std	Y+29, r24	; 0x1d
     792:	9e 8f       	std	Y+30, r25	; 0x1e
     794:	af 8f       	std	Y+31, r26	; 0x1f
     796:	b8 a3       	std	Y+32, r27	; 0x20
     798:	83 e0       	ldi	r24, 0x03	; 3
     79a:	89 8f       	std	Y+25, r24	; 0x19
     79c:	ce 01       	movw	r24, r28
     79e:	49 96       	adiw	r24, 0x19	; 25
     7a0:	02 c0       	rjmp	.+4      	; 0x7a6 <__mulsf3+0x1e8>
     7a2:	80 e0       	ldi	r24, 0x00	; 0
     7a4:	92 e0       	ldi	r25, 0x02	; 2
     7a6:	0e 94 fb 06 	call	0xdf6	; 0xdf6 <__pack_f>
     7aa:	a0 96       	adiw	r28, 0x20	; 32
     7ac:	e2 e1       	ldi	r30, 0x12	; 18
     7ae:	0c 94 aa 1a 	jmp	0x3554	; 0x3554 <__epilogue_restores__>

000007b2 <__divsf3>:
     7b2:	a8 e1       	ldi	r26, 0x18	; 24
     7b4:	b0 e0       	ldi	r27, 0x00	; 0
     7b6:	ef ed       	ldi	r30, 0xDF	; 223
     7b8:	f3 e0       	ldi	r31, 0x03	; 3
     7ba:	0c 94 96 1a 	jmp	0x352c	; 0x352c <__prologue_saves__+0x10>
     7be:	69 83       	std	Y+1, r22	; 0x01
     7c0:	7a 83       	std	Y+2, r23	; 0x02
     7c2:	8b 83       	std	Y+3, r24	; 0x03
     7c4:	9c 83       	std	Y+4, r25	; 0x04
     7c6:	2d 83       	std	Y+5, r18	; 0x05
     7c8:	3e 83       	std	Y+6, r19	; 0x06
     7ca:	4f 83       	std	Y+7, r20	; 0x07
     7cc:	58 87       	std	Y+8, r21	; 0x08
     7ce:	8e 01       	movw	r16, r28
     7d0:	07 5f       	subi	r16, 0xF7	; 247
     7d2:	1f 4f       	sbci	r17, 0xFF	; 255
     7d4:	ce 01       	movw	r24, r28
     7d6:	01 96       	adiw	r24, 0x01	; 1
     7d8:	b8 01       	movw	r22, r16
     7da:	0e 94 c9 07 	call	0xf92	; 0xf92 <__unpack_f>
     7de:	81 e1       	ldi	r24, 0x11	; 17
     7e0:	e8 2e       	mov	r14, r24
     7e2:	f1 2c       	mov	r15, r1
     7e4:	ec 0e       	add	r14, r28
     7e6:	fd 1e       	adc	r15, r29
     7e8:	ce 01       	movw	r24, r28
     7ea:	05 96       	adiw	r24, 0x05	; 5
     7ec:	b7 01       	movw	r22, r14
     7ee:	0e 94 c9 07 	call	0xf92	; 0xf92 <__unpack_f>
     7f2:	99 85       	ldd	r25, Y+9	; 0x09
     7f4:	92 30       	cpi	r25, 0x02	; 2
     7f6:	08 f4       	brcc	.+2      	; 0x7fa <__divsf3+0x48>
     7f8:	83 c0       	rjmp	.+262    	; 0x900 <__divsf3+0x14e>
     7fa:	89 89       	ldd	r24, Y+17	; 0x11
     7fc:	82 30       	cpi	r24, 0x02	; 2
     7fe:	08 f4       	brcc	.+2      	; 0x802 <__divsf3+0x50>
     800:	7b c0       	rjmp	.+246    	; 0x8f8 <__divsf3+0x146>
     802:	2a 85       	ldd	r18, Y+10	; 0x0a
     804:	3a 89       	ldd	r19, Y+18	; 0x12
     806:	23 27       	eor	r18, r19
     808:	2a 87       	std	Y+10, r18	; 0x0a
     80a:	94 30       	cpi	r25, 0x04	; 4
     80c:	11 f0       	breq	.+4      	; 0x812 <__divsf3+0x60>
     80e:	92 30       	cpi	r25, 0x02	; 2
     810:	21 f4       	brne	.+8      	; 0x81a <__divsf3+0x68>
     812:	98 17       	cp	r25, r24
     814:	09 f0       	breq	.+2      	; 0x818 <__divsf3+0x66>
     816:	6c c0       	rjmp	.+216    	; 0x8f0 <__divsf3+0x13e>
     818:	71 c0       	rjmp	.+226    	; 0x8fc <__divsf3+0x14a>
     81a:	84 30       	cpi	r24, 0x04	; 4
     81c:	39 f4       	brne	.+14     	; 0x82c <__divsf3+0x7a>
     81e:	1d 86       	std	Y+13, r1	; 0x0d
     820:	1e 86       	std	Y+14, r1	; 0x0e
     822:	1f 86       	std	Y+15, r1	; 0x0f
     824:	18 8a       	std	Y+16, r1	; 0x10
     826:	1c 86       	std	Y+12, r1	; 0x0c
     828:	1b 86       	std	Y+11, r1	; 0x0b
     82a:	6a c0       	rjmp	.+212    	; 0x900 <__divsf3+0x14e>
     82c:	82 30       	cpi	r24, 0x02	; 2
     82e:	19 f4       	brne	.+6      	; 0x836 <__divsf3+0x84>
     830:	84 e0       	ldi	r24, 0x04	; 4
     832:	89 87       	std	Y+9, r24	; 0x09
     834:	65 c0       	rjmp	.+202    	; 0x900 <__divsf3+0x14e>
     836:	8b 85       	ldd	r24, Y+11	; 0x0b
     838:	9c 85       	ldd	r25, Y+12	; 0x0c
     83a:	2b 89       	ldd	r18, Y+19	; 0x13
     83c:	3c 89       	ldd	r19, Y+20	; 0x14
     83e:	82 1b       	sub	r24, r18
     840:	93 0b       	sbc	r25, r19
     842:	9c 87       	std	Y+12, r25	; 0x0c
     844:	8b 87       	std	Y+11, r24	; 0x0b
     846:	2d 85       	ldd	r18, Y+13	; 0x0d
     848:	3e 85       	ldd	r19, Y+14	; 0x0e
     84a:	4f 85       	ldd	r20, Y+15	; 0x0f
     84c:	58 89       	ldd	r21, Y+16	; 0x10
     84e:	ed 88       	ldd	r14, Y+21	; 0x15
     850:	fe 88       	ldd	r15, Y+22	; 0x16
     852:	0f 89       	ldd	r16, Y+23	; 0x17
     854:	18 8d       	ldd	r17, Y+24	; 0x18
     856:	2e 15       	cp	r18, r14
     858:	3f 05       	cpc	r19, r15
     85a:	40 07       	cpc	r20, r16
     85c:	51 07       	cpc	r21, r17
     85e:	38 f4       	brcc	.+14     	; 0x86e <__divsf3+0xbc>
     860:	22 0f       	add	r18, r18
     862:	33 1f       	adc	r19, r19
     864:	44 1f       	adc	r20, r20
     866:	55 1f       	adc	r21, r21
     868:	01 97       	sbiw	r24, 0x01	; 1
     86a:	9c 87       	std	Y+12, r25	; 0x0c
     86c:	8b 87       	std	Y+11, r24	; 0x0b
     86e:	6f e1       	ldi	r22, 0x1F	; 31
     870:	70 e0       	ldi	r23, 0x00	; 0
     872:	a1 2c       	mov	r10, r1
     874:	b1 2c       	mov	r11, r1
     876:	c1 2c       	mov	r12, r1
     878:	a0 e4       	ldi	r26, 0x40	; 64
     87a:	da 2e       	mov	r13, r26
     87c:	80 e0       	ldi	r24, 0x00	; 0
     87e:	90 e0       	ldi	r25, 0x00	; 0
     880:	dc 01       	movw	r26, r24
     882:	2e 15       	cp	r18, r14
     884:	3f 05       	cpc	r19, r15
     886:	40 07       	cpc	r20, r16
     888:	51 07       	cpc	r21, r17
     88a:	40 f0       	brcs	.+16     	; 0x89c <__divsf3+0xea>
     88c:	8a 29       	or	r24, r10
     88e:	9b 29       	or	r25, r11
     890:	ac 29       	or	r26, r12
     892:	bd 29       	or	r27, r13
     894:	2e 19       	sub	r18, r14
     896:	3f 09       	sbc	r19, r15
     898:	40 0b       	sbc	r20, r16
     89a:	51 0b       	sbc	r21, r17
     89c:	d6 94       	lsr	r13
     89e:	c7 94       	ror	r12
     8a0:	b7 94       	ror	r11
     8a2:	a7 94       	ror	r10
     8a4:	22 0f       	add	r18, r18
     8a6:	33 1f       	adc	r19, r19
     8a8:	44 1f       	adc	r20, r20
     8aa:	55 1f       	adc	r21, r21
     8ac:	61 50       	subi	r22, 0x01	; 1
     8ae:	70 40       	sbci	r23, 0x00	; 0
     8b0:	41 f7       	brne	.-48     	; 0x882 <__divsf3+0xd0>
     8b2:	6f e7       	ldi	r22, 0x7F	; 127
     8b4:	e6 2e       	mov	r14, r22
     8b6:	f1 2c       	mov	r15, r1
     8b8:	01 2d       	mov	r16, r1
     8ba:	11 2d       	mov	r17, r1
     8bc:	e8 22       	and	r14, r24
     8be:	f9 22       	and	r15, r25
     8c0:	0a 23       	and	r16, r26
     8c2:	1b 23       	and	r17, r27
     8c4:	60 e4       	ldi	r22, 0x40	; 64
     8c6:	e6 16       	cp	r14, r22
     8c8:	f1 04       	cpc	r15, r1
     8ca:	01 05       	cpc	r16, r1
     8cc:	11 05       	cpc	r17, r1
     8ce:	61 f4       	brne	.+24     	; 0x8e8 <__divsf3+0x136>
     8d0:	87 fd       	sbrc	r24, 7
     8d2:	0a c0       	rjmp	.+20     	; 0x8e8 <__divsf3+0x136>
     8d4:	21 15       	cp	r18, r1
     8d6:	31 05       	cpc	r19, r1
     8d8:	41 05       	cpc	r20, r1
     8da:	51 05       	cpc	r21, r1
     8dc:	29 f0       	breq	.+10     	; 0x8e8 <__divsf3+0x136>
     8de:	80 5c       	subi	r24, 0xC0	; 192
     8e0:	9f 4f       	sbci	r25, 0xFF	; 255
     8e2:	af 4f       	sbci	r26, 0xFF	; 255
     8e4:	bf 4f       	sbci	r27, 0xFF	; 255
     8e6:	80 78       	andi	r24, 0x80	; 128
     8e8:	8d 87       	std	Y+13, r24	; 0x0d
     8ea:	9e 87       	std	Y+14, r25	; 0x0e
     8ec:	af 87       	std	Y+15, r26	; 0x0f
     8ee:	b8 8b       	std	Y+16, r27	; 0x10
     8f0:	8e 01       	movw	r16, r28
     8f2:	07 5f       	subi	r16, 0xF7	; 247
     8f4:	1f 4f       	sbci	r17, 0xFF	; 255
     8f6:	04 c0       	rjmp	.+8      	; 0x900 <__divsf3+0x14e>
     8f8:	87 01       	movw	r16, r14
     8fa:	02 c0       	rjmp	.+4      	; 0x900 <__divsf3+0x14e>
     8fc:	00 e0       	ldi	r16, 0x00	; 0
     8fe:	12 e0       	ldi	r17, 0x02	; 2
     900:	c8 01       	movw	r24, r16
     902:	0e 94 fb 06 	call	0xdf6	; 0xdf6 <__pack_f>
     906:	68 96       	adiw	r28, 0x18	; 24
     908:	ea e0       	ldi	r30, 0x0A	; 10
     90a:	0c 94 b2 1a 	jmp	0x3564	; 0x3564 <__epilogue_restores__+0x10>

0000090e <__eqsf2>:
     90e:	a8 e1       	ldi	r26, 0x18	; 24
     910:	b0 e0       	ldi	r27, 0x00	; 0
     912:	ed e8       	ldi	r30, 0x8D	; 141
     914:	f4 e0       	ldi	r31, 0x04	; 4
     916:	0c 94 9a 1a 	jmp	0x3534	; 0x3534 <__prologue_saves__+0x18>
     91a:	69 83       	std	Y+1, r22	; 0x01
     91c:	7a 83       	std	Y+2, r23	; 0x02
     91e:	8b 83       	std	Y+3, r24	; 0x03
     920:	9c 83       	std	Y+4, r25	; 0x04
     922:	2d 83       	std	Y+5, r18	; 0x05
     924:	3e 83       	std	Y+6, r19	; 0x06
     926:	4f 83       	std	Y+7, r20	; 0x07
     928:	58 87       	std	Y+8, r21	; 0x08
     92a:	8e 01       	movw	r16, r28
     92c:	07 5f       	subi	r16, 0xF7	; 247
     92e:	1f 4f       	sbci	r17, 0xFF	; 255
     930:	ce 01       	movw	r24, r28
     932:	01 96       	adiw	r24, 0x01	; 1
     934:	b8 01       	movw	r22, r16
     936:	0e 94 c9 07 	call	0xf92	; 0xf92 <__unpack_f>
     93a:	81 e1       	ldi	r24, 0x11	; 17
     93c:	e8 2e       	mov	r14, r24
     93e:	f1 2c       	mov	r15, r1
     940:	ec 0e       	add	r14, r28
     942:	fd 1e       	adc	r15, r29
     944:	ce 01       	movw	r24, r28
     946:	05 96       	adiw	r24, 0x05	; 5
     948:	b7 01       	movw	r22, r14
     94a:	0e 94 c9 07 	call	0xf92	; 0xf92 <__unpack_f>
     94e:	89 85       	ldd	r24, Y+9	; 0x09
     950:	82 30       	cpi	r24, 0x02	; 2
     952:	40 f0       	brcs	.+16     	; 0x964 <__eqsf2+0x56>
     954:	89 89       	ldd	r24, Y+17	; 0x11
     956:	82 30       	cpi	r24, 0x02	; 2
     958:	28 f0       	brcs	.+10     	; 0x964 <__eqsf2+0x56>
     95a:	c8 01       	movw	r24, r16
     95c:	b7 01       	movw	r22, r14
     95e:	0e 94 32 08 	call	0x1064	; 0x1064 <__fpcmp_parts_f>
     962:	01 c0       	rjmp	.+2      	; 0x966 <__eqsf2+0x58>
     964:	81 e0       	ldi	r24, 0x01	; 1
     966:	68 96       	adiw	r28, 0x18	; 24
     968:	e6 e0       	ldi	r30, 0x06	; 6
     96a:	0c 94 b6 1a 	jmp	0x356c	; 0x356c <__epilogue_restores__+0x18>

0000096e <__gtsf2>:
     96e:	a8 e1       	ldi	r26, 0x18	; 24
     970:	b0 e0       	ldi	r27, 0x00	; 0
     972:	ed eb       	ldi	r30, 0xBD	; 189
     974:	f4 e0       	ldi	r31, 0x04	; 4
     976:	0c 94 9a 1a 	jmp	0x3534	; 0x3534 <__prologue_saves__+0x18>
     97a:	69 83       	std	Y+1, r22	; 0x01
     97c:	7a 83       	std	Y+2, r23	; 0x02
     97e:	8b 83       	std	Y+3, r24	; 0x03
     980:	9c 83       	std	Y+4, r25	; 0x04
     982:	2d 83       	std	Y+5, r18	; 0x05
     984:	3e 83       	std	Y+6, r19	; 0x06
     986:	4f 83       	std	Y+7, r20	; 0x07
     988:	58 87       	std	Y+8, r21	; 0x08
     98a:	8e 01       	movw	r16, r28
     98c:	07 5f       	subi	r16, 0xF7	; 247
     98e:	1f 4f       	sbci	r17, 0xFF	; 255
     990:	ce 01       	movw	r24, r28
     992:	01 96       	adiw	r24, 0x01	; 1
     994:	b8 01       	movw	r22, r16
     996:	0e 94 c9 07 	call	0xf92	; 0xf92 <__unpack_f>
     99a:	81 e1       	ldi	r24, 0x11	; 17
     99c:	e8 2e       	mov	r14, r24
     99e:	f1 2c       	mov	r15, r1
     9a0:	ec 0e       	add	r14, r28
     9a2:	fd 1e       	adc	r15, r29
     9a4:	ce 01       	movw	r24, r28
     9a6:	05 96       	adiw	r24, 0x05	; 5
     9a8:	b7 01       	movw	r22, r14
     9aa:	0e 94 c9 07 	call	0xf92	; 0xf92 <__unpack_f>
     9ae:	89 85       	ldd	r24, Y+9	; 0x09
     9b0:	82 30       	cpi	r24, 0x02	; 2
     9b2:	40 f0       	brcs	.+16     	; 0x9c4 <__gtsf2+0x56>
     9b4:	89 89       	ldd	r24, Y+17	; 0x11
     9b6:	82 30       	cpi	r24, 0x02	; 2
     9b8:	28 f0       	brcs	.+10     	; 0x9c4 <__gtsf2+0x56>
     9ba:	c8 01       	movw	r24, r16
     9bc:	b7 01       	movw	r22, r14
     9be:	0e 94 32 08 	call	0x1064	; 0x1064 <__fpcmp_parts_f>
     9c2:	01 c0       	rjmp	.+2      	; 0x9c6 <__gtsf2+0x58>
     9c4:	8f ef       	ldi	r24, 0xFF	; 255
     9c6:	68 96       	adiw	r28, 0x18	; 24
     9c8:	e6 e0       	ldi	r30, 0x06	; 6
     9ca:	0c 94 b6 1a 	jmp	0x356c	; 0x356c <__epilogue_restores__+0x18>

000009ce <__gesf2>:
     9ce:	a8 e1       	ldi	r26, 0x18	; 24
     9d0:	b0 e0       	ldi	r27, 0x00	; 0
     9d2:	ed ee       	ldi	r30, 0xED	; 237
     9d4:	f4 e0       	ldi	r31, 0x04	; 4
     9d6:	0c 94 9a 1a 	jmp	0x3534	; 0x3534 <__prologue_saves__+0x18>
     9da:	69 83       	std	Y+1, r22	; 0x01
     9dc:	7a 83       	std	Y+2, r23	; 0x02
     9de:	8b 83       	std	Y+3, r24	; 0x03
     9e0:	9c 83       	std	Y+4, r25	; 0x04
     9e2:	2d 83       	std	Y+5, r18	; 0x05
     9e4:	3e 83       	std	Y+6, r19	; 0x06
     9e6:	4f 83       	std	Y+7, r20	; 0x07
     9e8:	58 87       	std	Y+8, r21	; 0x08
     9ea:	8e 01       	movw	r16, r28
     9ec:	07 5f       	subi	r16, 0xF7	; 247
     9ee:	1f 4f       	sbci	r17, 0xFF	; 255
     9f0:	ce 01       	movw	r24, r28
     9f2:	01 96       	adiw	r24, 0x01	; 1
     9f4:	b8 01       	movw	r22, r16
     9f6:	0e 94 c9 07 	call	0xf92	; 0xf92 <__unpack_f>
     9fa:	81 e1       	ldi	r24, 0x11	; 17
     9fc:	e8 2e       	mov	r14, r24
     9fe:	f1 2c       	mov	r15, r1
     a00:	ec 0e       	add	r14, r28
     a02:	fd 1e       	adc	r15, r29
     a04:	ce 01       	movw	r24, r28
     a06:	05 96       	adiw	r24, 0x05	; 5
     a08:	b7 01       	movw	r22, r14
     a0a:	0e 94 c9 07 	call	0xf92	; 0xf92 <__unpack_f>
     a0e:	89 85       	ldd	r24, Y+9	; 0x09
     a10:	82 30       	cpi	r24, 0x02	; 2
     a12:	40 f0       	brcs	.+16     	; 0xa24 <__gesf2+0x56>
     a14:	89 89       	ldd	r24, Y+17	; 0x11
     a16:	82 30       	cpi	r24, 0x02	; 2
     a18:	28 f0       	brcs	.+10     	; 0xa24 <__gesf2+0x56>
     a1a:	c8 01       	movw	r24, r16
     a1c:	b7 01       	movw	r22, r14
     a1e:	0e 94 32 08 	call	0x1064	; 0x1064 <__fpcmp_parts_f>
     a22:	01 c0       	rjmp	.+2      	; 0xa26 <__gesf2+0x58>
     a24:	8f ef       	ldi	r24, 0xFF	; 255
     a26:	68 96       	adiw	r28, 0x18	; 24
     a28:	e6 e0       	ldi	r30, 0x06	; 6
     a2a:	0c 94 b6 1a 	jmp	0x356c	; 0x356c <__epilogue_restores__+0x18>

00000a2e <__ltsf2>:
     a2e:	a8 e1       	ldi	r26, 0x18	; 24
     a30:	b0 e0       	ldi	r27, 0x00	; 0
     a32:	ed e1       	ldi	r30, 0x1D	; 29
     a34:	f5 e0       	ldi	r31, 0x05	; 5
     a36:	0c 94 9a 1a 	jmp	0x3534	; 0x3534 <__prologue_saves__+0x18>
     a3a:	69 83       	std	Y+1, r22	; 0x01
     a3c:	7a 83       	std	Y+2, r23	; 0x02
     a3e:	8b 83       	std	Y+3, r24	; 0x03
     a40:	9c 83       	std	Y+4, r25	; 0x04
     a42:	2d 83       	std	Y+5, r18	; 0x05
     a44:	3e 83       	std	Y+6, r19	; 0x06
     a46:	4f 83       	std	Y+7, r20	; 0x07
     a48:	58 87       	std	Y+8, r21	; 0x08
     a4a:	8e 01       	movw	r16, r28
     a4c:	07 5f       	subi	r16, 0xF7	; 247
     a4e:	1f 4f       	sbci	r17, 0xFF	; 255
     a50:	ce 01       	movw	r24, r28
     a52:	01 96       	adiw	r24, 0x01	; 1
     a54:	b8 01       	movw	r22, r16
     a56:	0e 94 c9 07 	call	0xf92	; 0xf92 <__unpack_f>
     a5a:	81 e1       	ldi	r24, 0x11	; 17
     a5c:	e8 2e       	mov	r14, r24
     a5e:	f1 2c       	mov	r15, r1
     a60:	ec 0e       	add	r14, r28
     a62:	fd 1e       	adc	r15, r29
     a64:	ce 01       	movw	r24, r28
     a66:	05 96       	adiw	r24, 0x05	; 5
     a68:	b7 01       	movw	r22, r14
     a6a:	0e 94 c9 07 	call	0xf92	; 0xf92 <__unpack_f>
     a6e:	89 85       	ldd	r24, Y+9	; 0x09
     a70:	82 30       	cpi	r24, 0x02	; 2
     a72:	40 f0       	brcs	.+16     	; 0xa84 <__ltsf2+0x56>
     a74:	89 89       	ldd	r24, Y+17	; 0x11
     a76:	82 30       	cpi	r24, 0x02	; 2
     a78:	28 f0       	brcs	.+10     	; 0xa84 <__ltsf2+0x56>
     a7a:	c8 01       	movw	r24, r16
     a7c:	b7 01       	movw	r22, r14
     a7e:	0e 94 32 08 	call	0x1064	; 0x1064 <__fpcmp_parts_f>
     a82:	01 c0       	rjmp	.+2      	; 0xa86 <__ltsf2+0x58>
     a84:	81 e0       	ldi	r24, 0x01	; 1
     a86:	68 96       	adiw	r28, 0x18	; 24
     a88:	e6 e0       	ldi	r30, 0x06	; 6
     a8a:	0c 94 b6 1a 	jmp	0x356c	; 0x356c <__epilogue_restores__+0x18>

00000a8e <__lesf2>:
     a8e:	a8 e1       	ldi	r26, 0x18	; 24
     a90:	b0 e0       	ldi	r27, 0x00	; 0
     a92:	ed e4       	ldi	r30, 0x4D	; 77
     a94:	f5 e0       	ldi	r31, 0x05	; 5
     a96:	0c 94 9a 1a 	jmp	0x3534	; 0x3534 <__prologue_saves__+0x18>
     a9a:	69 83       	std	Y+1, r22	; 0x01
     a9c:	7a 83       	std	Y+2, r23	; 0x02
     a9e:	8b 83       	std	Y+3, r24	; 0x03
     aa0:	9c 83       	std	Y+4, r25	; 0x04
     aa2:	2d 83       	std	Y+5, r18	; 0x05
     aa4:	3e 83       	std	Y+6, r19	; 0x06
     aa6:	4f 83       	std	Y+7, r20	; 0x07
     aa8:	58 87       	std	Y+8, r21	; 0x08
     aaa:	8e 01       	movw	r16, r28
     aac:	07 5f       	subi	r16, 0xF7	; 247
     aae:	1f 4f       	sbci	r17, 0xFF	; 255
     ab0:	ce 01       	movw	r24, r28
     ab2:	01 96       	adiw	r24, 0x01	; 1
     ab4:	b8 01       	movw	r22, r16
     ab6:	0e 94 c9 07 	call	0xf92	; 0xf92 <__unpack_f>
     aba:	81 e1       	ldi	r24, 0x11	; 17
     abc:	e8 2e       	mov	r14, r24
     abe:	f1 2c       	mov	r15, r1
     ac0:	ec 0e       	add	r14, r28
     ac2:	fd 1e       	adc	r15, r29
     ac4:	ce 01       	movw	r24, r28
     ac6:	05 96       	adiw	r24, 0x05	; 5
     ac8:	b7 01       	movw	r22, r14
     aca:	0e 94 c9 07 	call	0xf92	; 0xf92 <__unpack_f>
     ace:	89 85       	ldd	r24, Y+9	; 0x09
     ad0:	82 30       	cpi	r24, 0x02	; 2
     ad2:	40 f0       	brcs	.+16     	; 0xae4 <__lesf2+0x56>
     ad4:	89 89       	ldd	r24, Y+17	; 0x11
     ad6:	82 30       	cpi	r24, 0x02	; 2
     ad8:	28 f0       	brcs	.+10     	; 0xae4 <__lesf2+0x56>
     ada:	c8 01       	movw	r24, r16
     adc:	b7 01       	movw	r22, r14
     ade:	0e 94 32 08 	call	0x1064	; 0x1064 <__fpcmp_parts_f>
     ae2:	01 c0       	rjmp	.+2      	; 0xae6 <__lesf2+0x58>
     ae4:	81 e0       	ldi	r24, 0x01	; 1
     ae6:	68 96       	adiw	r28, 0x18	; 24
     ae8:	e6 e0       	ldi	r30, 0x06	; 6
     aea:	0c 94 b6 1a 	jmp	0x356c	; 0x356c <__epilogue_restores__+0x18>

00000aee <__floatsisf>:
     aee:	a8 e0       	ldi	r26, 0x08	; 8
     af0:	b0 e0       	ldi	r27, 0x00	; 0
     af2:	ed e7       	ldi	r30, 0x7D	; 125
     af4:	f5 e0       	ldi	r31, 0x05	; 5
     af6:	0c 94 9a 1a 	jmp	0x3534	; 0x3534 <__prologue_saves__+0x18>
     afa:	7b 01       	movw	r14, r22
     afc:	8c 01       	movw	r16, r24
     afe:	83 e0       	ldi	r24, 0x03	; 3
     b00:	89 83       	std	Y+1, r24	; 0x01
     b02:	d8 01       	movw	r26, r16
     b04:	c7 01       	movw	r24, r14
     b06:	88 27       	eor	r24, r24
     b08:	b7 fd       	sbrc	r27, 7
     b0a:	83 95       	inc	r24
     b0c:	99 27       	eor	r25, r25
     b0e:	aa 27       	eor	r26, r26
     b10:	bb 27       	eor	r27, r27
     b12:	28 2f       	mov	r18, r24
     b14:	8a 83       	std	Y+2, r24	; 0x02
     b16:	e1 14       	cp	r14, r1
     b18:	f1 04       	cpc	r15, r1
     b1a:	01 05       	cpc	r16, r1
     b1c:	11 05       	cpc	r17, r1
     b1e:	19 f4       	brne	.+6      	; 0xb26 <__floatsisf+0x38>
     b20:	82 e0       	ldi	r24, 0x02	; 2
     b22:	89 83       	std	Y+1, r24	; 0x01
     b24:	37 c0       	rjmp	.+110    	; 0xb94 <__floatsisf+0xa6>
     b26:	8e e1       	ldi	r24, 0x1E	; 30
     b28:	90 e0       	ldi	r25, 0x00	; 0
     b2a:	9c 83       	std	Y+4, r25	; 0x04
     b2c:	8b 83       	std	Y+3, r24	; 0x03
     b2e:	22 23       	and	r18, r18
     b30:	89 f0       	breq	.+34     	; 0xb54 <__floatsisf+0x66>
     b32:	80 e0       	ldi	r24, 0x00	; 0
     b34:	e8 16       	cp	r14, r24
     b36:	80 e0       	ldi	r24, 0x00	; 0
     b38:	f8 06       	cpc	r15, r24
     b3a:	80 e0       	ldi	r24, 0x00	; 0
     b3c:	08 07       	cpc	r16, r24
     b3e:	80 e8       	ldi	r24, 0x80	; 128
     b40:	18 07       	cpc	r17, r24
     b42:	69 f1       	breq	.+90     	; 0xb9e <__floatsisf+0xb0>
     b44:	10 95       	com	r17
     b46:	00 95       	com	r16
     b48:	f0 94       	com	r15
     b4a:	e0 94       	com	r14
     b4c:	e1 1c       	adc	r14, r1
     b4e:	f1 1c       	adc	r15, r1
     b50:	01 1d       	adc	r16, r1
     b52:	11 1d       	adc	r17, r1
     b54:	ed 82       	std	Y+5, r14	; 0x05
     b56:	fe 82       	std	Y+6, r15	; 0x06
     b58:	0f 83       	std	Y+7, r16	; 0x07
     b5a:	18 87       	std	Y+8, r17	; 0x08
     b5c:	c8 01       	movw	r24, r16
     b5e:	b7 01       	movw	r22, r14
     b60:	0e 94 a1 06 	call	0xd42	; 0xd42 <__clzsi2>
     b64:	9c 01       	movw	r18, r24
     b66:	21 50       	subi	r18, 0x01	; 1
     b68:	30 40       	sbci	r19, 0x00	; 0
     b6a:	12 16       	cp	r1, r18
     b6c:	13 06       	cpc	r1, r19
     b6e:	94 f4       	brge	.+36     	; 0xb94 <__floatsisf+0xa6>
     b70:	02 2e       	mov	r0, r18
     b72:	04 c0       	rjmp	.+8      	; 0xb7c <__floatsisf+0x8e>
     b74:	ee 0c       	add	r14, r14
     b76:	ff 1c       	adc	r15, r15
     b78:	00 1f       	adc	r16, r16
     b7a:	11 1f       	adc	r17, r17
     b7c:	0a 94       	dec	r0
     b7e:	d2 f7       	brpl	.-12     	; 0xb74 <__floatsisf+0x86>
     b80:	ed 82       	std	Y+5, r14	; 0x05
     b82:	fe 82       	std	Y+6, r15	; 0x06
     b84:	0f 83       	std	Y+7, r16	; 0x07
     b86:	18 87       	std	Y+8, r17	; 0x08
     b88:	8e e1       	ldi	r24, 0x1E	; 30
     b8a:	90 e0       	ldi	r25, 0x00	; 0
     b8c:	82 1b       	sub	r24, r18
     b8e:	93 0b       	sbc	r25, r19
     b90:	9c 83       	std	Y+4, r25	; 0x04
     b92:	8b 83       	std	Y+3, r24	; 0x03
     b94:	ce 01       	movw	r24, r28
     b96:	01 96       	adiw	r24, 0x01	; 1
     b98:	0e 94 fb 06 	call	0xdf6	; 0xdf6 <__pack_f>
     b9c:	04 c0       	rjmp	.+8      	; 0xba6 <__floatsisf+0xb8>
     b9e:	60 e0       	ldi	r22, 0x00	; 0
     ba0:	70 e0       	ldi	r23, 0x00	; 0
     ba2:	80 e0       	ldi	r24, 0x00	; 0
     ba4:	9f ec       	ldi	r25, 0xCF	; 207
     ba6:	28 96       	adiw	r28, 0x08	; 8
     ba8:	e6 e0       	ldi	r30, 0x06	; 6
     baa:	0c 94 b6 1a 	jmp	0x356c	; 0x356c <__epilogue_restores__+0x18>

00000bae <__fixsfsi>:
     bae:	ac e0       	ldi	r26, 0x0C	; 12
     bb0:	b0 e0       	ldi	r27, 0x00	; 0
     bb2:	ed ed       	ldi	r30, 0xDD	; 221
     bb4:	f5 e0       	ldi	r31, 0x05	; 5
     bb6:	0c 94 9e 1a 	jmp	0x353c	; 0x353c <__prologue_saves__+0x20>
     bba:	69 83       	std	Y+1, r22	; 0x01
     bbc:	7a 83       	std	Y+2, r23	; 0x02
     bbe:	8b 83       	std	Y+3, r24	; 0x03
     bc0:	9c 83       	std	Y+4, r25	; 0x04
     bc2:	ce 01       	movw	r24, r28
     bc4:	01 96       	adiw	r24, 0x01	; 1
     bc6:	be 01       	movw	r22, r28
     bc8:	6b 5f       	subi	r22, 0xFB	; 251
     bca:	7f 4f       	sbci	r23, 0xFF	; 255
     bcc:	0e 94 c9 07 	call	0xf92	; 0xf92 <__unpack_f>
     bd0:	8d 81       	ldd	r24, Y+5	; 0x05
     bd2:	82 30       	cpi	r24, 0x02	; 2
     bd4:	81 f1       	breq	.+96     	; 0xc36 <__fixsfsi+0x88>
     bd6:	82 30       	cpi	r24, 0x02	; 2
     bd8:	70 f1       	brcs	.+92     	; 0xc36 <__fixsfsi+0x88>
     bda:	84 30       	cpi	r24, 0x04	; 4
     bdc:	21 f4       	brne	.+8      	; 0xbe6 <__fixsfsi+0x38>
     bde:	8e 81       	ldd	r24, Y+6	; 0x06
     be0:	88 23       	and	r24, r24
     be2:	69 f1       	breq	.+90     	; 0xc3e <__fixsfsi+0x90>
     be4:	0a c0       	rjmp	.+20     	; 0xbfa <__fixsfsi+0x4c>
     be6:	2f 81       	ldd	r18, Y+7	; 0x07
     be8:	38 85       	ldd	r19, Y+8	; 0x08
     bea:	37 fd       	sbrc	r19, 7
     bec:	24 c0       	rjmp	.+72     	; 0xc36 <__fixsfsi+0x88>
     bee:	6e 81       	ldd	r22, Y+6	; 0x06
     bf0:	2f 31       	cpi	r18, 0x1F	; 31
     bf2:	31 05       	cpc	r19, r1
     bf4:	3c f0       	brlt	.+14     	; 0xc04 <__fixsfsi+0x56>
     bf6:	66 23       	and	r22, r22
     bf8:	11 f1       	breq	.+68     	; 0xc3e <__fixsfsi+0x90>
     bfa:	20 e0       	ldi	r18, 0x00	; 0
     bfc:	30 e0       	ldi	r19, 0x00	; 0
     bfe:	40 e0       	ldi	r20, 0x00	; 0
     c00:	50 e8       	ldi	r21, 0x80	; 128
     c02:	21 c0       	rjmp	.+66     	; 0xc46 <__fixsfsi+0x98>
     c04:	8e e1       	ldi	r24, 0x1E	; 30
     c06:	90 e0       	ldi	r25, 0x00	; 0
     c08:	82 1b       	sub	r24, r18
     c0a:	93 0b       	sbc	r25, r19
     c0c:	29 85       	ldd	r18, Y+9	; 0x09
     c0e:	3a 85       	ldd	r19, Y+10	; 0x0a
     c10:	4b 85       	ldd	r20, Y+11	; 0x0b
     c12:	5c 85       	ldd	r21, Y+12	; 0x0c
     c14:	04 c0       	rjmp	.+8      	; 0xc1e <__fixsfsi+0x70>
     c16:	56 95       	lsr	r21
     c18:	47 95       	ror	r20
     c1a:	37 95       	ror	r19
     c1c:	27 95       	ror	r18
     c1e:	8a 95       	dec	r24
     c20:	d2 f7       	brpl	.-12     	; 0xc16 <__fixsfsi+0x68>
     c22:	66 23       	and	r22, r22
     c24:	81 f0       	breq	.+32     	; 0xc46 <__fixsfsi+0x98>
     c26:	50 95       	com	r21
     c28:	40 95       	com	r20
     c2a:	30 95       	com	r19
     c2c:	21 95       	neg	r18
     c2e:	3f 4f       	sbci	r19, 0xFF	; 255
     c30:	4f 4f       	sbci	r20, 0xFF	; 255
     c32:	5f 4f       	sbci	r21, 0xFF	; 255
     c34:	08 c0       	rjmp	.+16     	; 0xc46 <__fixsfsi+0x98>
     c36:	20 e0       	ldi	r18, 0x00	; 0
     c38:	30 e0       	ldi	r19, 0x00	; 0
     c3a:	a9 01       	movw	r20, r18
     c3c:	04 c0       	rjmp	.+8      	; 0xc46 <__fixsfsi+0x98>
     c3e:	2f ef       	ldi	r18, 0xFF	; 255
     c40:	3f ef       	ldi	r19, 0xFF	; 255
     c42:	4f ef       	ldi	r20, 0xFF	; 255
     c44:	5f e7       	ldi	r21, 0x7F	; 127
     c46:	b9 01       	movw	r22, r18
     c48:	ca 01       	movw	r24, r20
     c4a:	2c 96       	adiw	r28, 0x0c	; 12
     c4c:	e2 e0       	ldi	r30, 0x02	; 2
     c4e:	0c 94 ba 1a 	jmp	0x3574	; 0x3574 <__epilogue_restores__+0x20>

00000c52 <__floatunsisf>:
     c52:	a8 e0       	ldi	r26, 0x08	; 8
     c54:	b0 e0       	ldi	r27, 0x00	; 0
     c56:	ef e2       	ldi	r30, 0x2F	; 47
     c58:	f6 e0       	ldi	r31, 0x06	; 6
     c5a:	0c 94 98 1a 	jmp	0x3530	; 0x3530 <__prologue_saves__+0x14>
     c5e:	7b 01       	movw	r14, r22
     c60:	8c 01       	movw	r16, r24
     c62:	1a 82       	std	Y+2, r1	; 0x02
     c64:	61 15       	cp	r22, r1
     c66:	71 05       	cpc	r23, r1
     c68:	81 05       	cpc	r24, r1
     c6a:	91 05       	cpc	r25, r1
     c6c:	19 f4       	brne	.+6      	; 0xc74 <__floatunsisf+0x22>
     c6e:	82 e0       	ldi	r24, 0x02	; 2
     c70:	89 83       	std	Y+1, r24	; 0x01
     c72:	5f c0       	rjmp	.+190    	; 0xd32 <__floatunsisf+0xe0>
     c74:	83 e0       	ldi	r24, 0x03	; 3
     c76:	89 83       	std	Y+1, r24	; 0x01
     c78:	8e e1       	ldi	r24, 0x1E	; 30
     c7a:	c8 2e       	mov	r12, r24
     c7c:	d1 2c       	mov	r13, r1
     c7e:	dc 82       	std	Y+4, r13	; 0x04
     c80:	cb 82       	std	Y+3, r12	; 0x03
     c82:	ed 82       	std	Y+5, r14	; 0x05
     c84:	fe 82       	std	Y+6, r15	; 0x06
     c86:	0f 83       	std	Y+7, r16	; 0x07
     c88:	18 87       	std	Y+8, r17	; 0x08
     c8a:	c8 01       	movw	r24, r16
     c8c:	b7 01       	movw	r22, r14
     c8e:	0e 94 a1 06 	call	0xd42	; 0xd42 <__clzsi2>
     c92:	fc 01       	movw	r30, r24
     c94:	31 97       	sbiw	r30, 0x01	; 1
     c96:	f7 ff       	sbrs	r31, 7
     c98:	3a c0       	rjmp	.+116    	; 0xd0e <__floatunsisf+0xbc>
     c9a:	aa 27       	eor	r26, r26
     c9c:	bb 27       	eor	r27, r27
     c9e:	ae 1b       	sub	r26, r30
     ca0:	bf 0b       	sbc	r27, r31
     ca2:	21 e0       	ldi	r18, 0x01	; 1
     ca4:	30 e0       	ldi	r19, 0x00	; 0
     ca6:	40 e0       	ldi	r20, 0x00	; 0
     ca8:	50 e0       	ldi	r21, 0x00	; 0
     caa:	0a 2e       	mov	r0, r26
     cac:	04 c0       	rjmp	.+8      	; 0xcb6 <__floatunsisf+0x64>
     cae:	22 0f       	add	r18, r18
     cb0:	33 1f       	adc	r19, r19
     cb2:	44 1f       	adc	r20, r20
     cb4:	55 1f       	adc	r21, r21
     cb6:	0a 94       	dec	r0
     cb8:	d2 f7       	brpl	.-12     	; 0xcae <__floatunsisf+0x5c>
     cba:	21 50       	subi	r18, 0x01	; 1
     cbc:	30 40       	sbci	r19, 0x00	; 0
     cbe:	40 40       	sbci	r20, 0x00	; 0
     cc0:	50 40       	sbci	r21, 0x00	; 0
     cc2:	2e 21       	and	r18, r14
     cc4:	3f 21       	and	r19, r15
     cc6:	40 23       	and	r20, r16
     cc8:	51 23       	and	r21, r17
     cca:	61 e0       	ldi	r22, 0x01	; 1
     ccc:	70 e0       	ldi	r23, 0x00	; 0
     cce:	80 e0       	ldi	r24, 0x00	; 0
     cd0:	90 e0       	ldi	r25, 0x00	; 0
     cd2:	21 15       	cp	r18, r1
     cd4:	31 05       	cpc	r19, r1
     cd6:	41 05       	cpc	r20, r1
     cd8:	51 05       	cpc	r21, r1
     cda:	19 f4       	brne	.+6      	; 0xce2 <__floatunsisf+0x90>
     cdc:	60 e0       	ldi	r22, 0x00	; 0
     cde:	70 e0       	ldi	r23, 0x00	; 0
     ce0:	cb 01       	movw	r24, r22
     ce2:	04 c0       	rjmp	.+8      	; 0xcec <__floatunsisf+0x9a>
     ce4:	16 95       	lsr	r17
     ce6:	07 95       	ror	r16
     ce8:	f7 94       	ror	r15
     cea:	e7 94       	ror	r14
     cec:	aa 95       	dec	r26
     cee:	d2 f7       	brpl	.-12     	; 0xce4 <__floatunsisf+0x92>
     cf0:	e6 2a       	or	r14, r22
     cf2:	f7 2a       	or	r15, r23
     cf4:	08 2b       	or	r16, r24
     cf6:	19 2b       	or	r17, r25
     cf8:	ed 82       	std	Y+5, r14	; 0x05
     cfa:	fe 82       	std	Y+6, r15	; 0x06
     cfc:	0f 83       	std	Y+7, r16	; 0x07
     cfe:	18 87       	std	Y+8, r17	; 0x08
     d00:	8e e1       	ldi	r24, 0x1E	; 30
     d02:	90 e0       	ldi	r25, 0x00	; 0
     d04:	8e 1b       	sub	r24, r30
     d06:	9f 0b       	sbc	r25, r31
     d08:	9c 83       	std	Y+4, r25	; 0x04
     d0a:	8b 83       	std	Y+3, r24	; 0x03
     d0c:	12 c0       	rjmp	.+36     	; 0xd32 <__floatunsisf+0xe0>
     d0e:	30 97       	sbiw	r30, 0x00	; 0
     d10:	81 f0       	breq	.+32     	; 0xd32 <__floatunsisf+0xe0>
     d12:	0e 2e       	mov	r0, r30
     d14:	04 c0       	rjmp	.+8      	; 0xd1e <__floatunsisf+0xcc>
     d16:	ee 0c       	add	r14, r14
     d18:	ff 1c       	adc	r15, r15
     d1a:	00 1f       	adc	r16, r16
     d1c:	11 1f       	adc	r17, r17
     d1e:	0a 94       	dec	r0
     d20:	d2 f7       	brpl	.-12     	; 0xd16 <__floatunsisf+0xc4>
     d22:	ed 82       	std	Y+5, r14	; 0x05
     d24:	fe 82       	std	Y+6, r15	; 0x06
     d26:	0f 83       	std	Y+7, r16	; 0x07
     d28:	18 87       	std	Y+8, r17	; 0x08
     d2a:	ce 1a       	sub	r12, r30
     d2c:	df 0a       	sbc	r13, r31
     d2e:	dc 82       	std	Y+4, r13	; 0x04
     d30:	cb 82       	std	Y+3, r12	; 0x03
     d32:	ce 01       	movw	r24, r28
     d34:	01 96       	adiw	r24, 0x01	; 1
     d36:	0e 94 fb 06 	call	0xdf6	; 0xdf6 <__pack_f>
     d3a:	28 96       	adiw	r28, 0x08	; 8
     d3c:	e8 e0       	ldi	r30, 0x08	; 8
     d3e:	0c 94 b4 1a 	jmp	0x3568	; 0x3568 <__epilogue_restores__+0x14>

00000d42 <__clzsi2>:
     d42:	af 92       	push	r10
     d44:	bf 92       	push	r11
     d46:	cf 92       	push	r12
     d48:	df 92       	push	r13
     d4a:	ef 92       	push	r14
     d4c:	ff 92       	push	r15
     d4e:	0f 93       	push	r16
     d50:	1f 93       	push	r17
     d52:	7b 01       	movw	r14, r22
     d54:	8c 01       	movw	r16, r24
     d56:	80 e0       	ldi	r24, 0x00	; 0
     d58:	e8 16       	cp	r14, r24
     d5a:	80 e0       	ldi	r24, 0x00	; 0
     d5c:	f8 06       	cpc	r15, r24
     d5e:	81 e0       	ldi	r24, 0x01	; 1
     d60:	08 07       	cpc	r16, r24
     d62:	80 e0       	ldi	r24, 0x00	; 0
     d64:	18 07       	cpc	r17, r24
     d66:	58 f4       	brcc	.+22     	; 0xd7e <__clzsi2+0x3c>
     d68:	ef ef       	ldi	r30, 0xFF	; 255
     d6a:	ee 16       	cp	r14, r30
     d6c:	f1 04       	cpc	r15, r1
     d6e:	01 05       	cpc	r16, r1
     d70:	11 05       	cpc	r17, r1
     d72:	09 f0       	breq	.+2      	; 0xd76 <__clzsi2+0x34>
     d74:	90 f4       	brcc	.+36     	; 0xd9a <__clzsi2+0x58>
     d76:	80 e0       	ldi	r24, 0x00	; 0
     d78:	90 e0       	ldi	r25, 0x00	; 0
     d7a:	dc 01       	movw	r26, r24
     d7c:	17 c0       	rjmp	.+46     	; 0xdac <__clzsi2+0x6a>
     d7e:	f0 e0       	ldi	r31, 0x00	; 0
     d80:	ef 16       	cp	r14, r31
     d82:	f0 e0       	ldi	r31, 0x00	; 0
     d84:	ff 06       	cpc	r15, r31
     d86:	f0 e0       	ldi	r31, 0x00	; 0
     d88:	0f 07       	cpc	r16, r31
     d8a:	f1 e0       	ldi	r31, 0x01	; 1
     d8c:	1f 07       	cpc	r17, r31
     d8e:	50 f4       	brcc	.+20     	; 0xda4 <__clzsi2+0x62>
     d90:	80 e1       	ldi	r24, 0x10	; 16
     d92:	90 e0       	ldi	r25, 0x00	; 0
     d94:	a0 e0       	ldi	r26, 0x00	; 0
     d96:	b0 e0       	ldi	r27, 0x00	; 0
     d98:	09 c0       	rjmp	.+18     	; 0xdac <__clzsi2+0x6a>
     d9a:	88 e0       	ldi	r24, 0x08	; 8
     d9c:	90 e0       	ldi	r25, 0x00	; 0
     d9e:	a0 e0       	ldi	r26, 0x00	; 0
     da0:	b0 e0       	ldi	r27, 0x00	; 0
     da2:	04 c0       	rjmp	.+8      	; 0xdac <__clzsi2+0x6a>
     da4:	88 e1       	ldi	r24, 0x18	; 24
     da6:	90 e0       	ldi	r25, 0x00	; 0
     da8:	a0 e0       	ldi	r26, 0x00	; 0
     daa:	b0 e0       	ldi	r27, 0x00	; 0
     dac:	20 e2       	ldi	r18, 0x20	; 32
     dae:	30 e0       	ldi	r19, 0x00	; 0
     db0:	40 e0       	ldi	r20, 0x00	; 0
     db2:	50 e0       	ldi	r21, 0x00	; 0
     db4:	28 1b       	sub	r18, r24
     db6:	39 0b       	sbc	r19, r25
     db8:	4a 0b       	sbc	r20, r26
     dba:	5b 0b       	sbc	r21, r27
     dbc:	57 01       	movw	r10, r14
     dbe:	68 01       	movw	r12, r16
     dc0:	04 c0       	rjmp	.+8      	; 0xdca <__clzsi2+0x88>
     dc2:	d6 94       	lsr	r13
     dc4:	c7 94       	ror	r12
     dc6:	b7 94       	ror	r11
     dc8:	a7 94       	ror	r10
     dca:	8a 95       	dec	r24
     dcc:	d2 f7       	brpl	.-12     	; 0xdc2 <__clzsi2+0x80>
     dce:	d6 01       	movw	r26, r12
     dd0:	c5 01       	movw	r24, r10
     dd2:	88 5f       	subi	r24, 0xF8	; 248
     dd4:	9d 4f       	sbci	r25, 0xFD	; 253
     dd6:	fc 01       	movw	r30, r24
     dd8:	80 81       	ld	r24, Z
     dda:	28 1b       	sub	r18, r24
     ddc:	31 09       	sbc	r19, r1
     dde:	41 09       	sbc	r20, r1
     de0:	51 09       	sbc	r21, r1
     de2:	c9 01       	movw	r24, r18
     de4:	1f 91       	pop	r17
     de6:	0f 91       	pop	r16
     de8:	ff 90       	pop	r15
     dea:	ef 90       	pop	r14
     dec:	df 90       	pop	r13
     dee:	cf 90       	pop	r12
     df0:	bf 90       	pop	r11
     df2:	af 90       	pop	r10
     df4:	08 95       	ret

00000df6 <__pack_f>:
     df6:	ef 92       	push	r14
     df8:	ff 92       	push	r15
     dfa:	0f 93       	push	r16
     dfc:	1f 93       	push	r17
     dfe:	cf 93       	push	r28
     e00:	df 93       	push	r29
     e02:	fc 01       	movw	r30, r24
     e04:	24 81       	ldd	r18, Z+4	; 0x04
     e06:	35 81       	ldd	r19, Z+5	; 0x05
     e08:	46 81       	ldd	r20, Z+6	; 0x06
     e0a:	57 81       	ldd	r21, Z+7	; 0x07
     e0c:	61 81       	ldd	r22, Z+1	; 0x01
     e0e:	80 81       	ld	r24, Z
     e10:	82 30       	cpi	r24, 0x02	; 2
     e12:	20 f4       	brcc	.+8      	; 0xe1c <__pack_f+0x26>
     e14:	40 61       	ori	r20, 0x10	; 16
     e16:	ef ef       	ldi	r30, 0xFF	; 255
     e18:	f0 e0       	ldi	r31, 0x00	; 0
     e1a:	a3 c0       	rjmp	.+326    	; 0xf62 <__pack_f+0x16c>
     e1c:	84 30       	cpi	r24, 0x04	; 4
     e1e:	09 f4       	brne	.+2      	; 0xe22 <__pack_f+0x2c>
     e20:	9b c0       	rjmp	.+310    	; 0xf58 <__pack_f+0x162>
     e22:	82 30       	cpi	r24, 0x02	; 2
     e24:	09 f4       	brne	.+2      	; 0xe28 <__pack_f+0x32>
     e26:	92 c0       	rjmp	.+292    	; 0xf4c <__pack_f+0x156>
     e28:	21 15       	cp	r18, r1
     e2a:	31 05       	cpc	r19, r1
     e2c:	41 05       	cpc	r20, r1
     e2e:	51 05       	cpc	r21, r1
     e30:	09 f4       	brne	.+2      	; 0xe34 <__pack_f+0x3e>
     e32:	8f c0       	rjmp	.+286    	; 0xf52 <__pack_f+0x15c>
     e34:	02 80       	ldd	r0, Z+2	; 0x02
     e36:	f3 81       	ldd	r31, Z+3	; 0x03
     e38:	e0 2d       	mov	r30, r0
     e3a:	8f ef       	ldi	r24, 0xFF	; 255
     e3c:	e2 38       	cpi	r30, 0x82	; 130
     e3e:	f8 07       	cpc	r31, r24
     e40:	0c f0       	brlt	.+2      	; 0xe44 <__pack_f+0x4e>
     e42:	5a c0       	rjmp	.+180    	; 0xef8 <__pack_f+0x102>
     e44:	c2 e8       	ldi	r28, 0x82	; 130
     e46:	df ef       	ldi	r29, 0xFF	; 255
     e48:	ce 1b       	sub	r28, r30
     e4a:	df 0b       	sbc	r29, r31
     e4c:	ca 31       	cpi	r28, 0x1A	; 26
     e4e:	d1 05       	cpc	r29, r1
     e50:	6c f5       	brge	.+90     	; 0xeac <__pack_f+0xb6>
     e52:	79 01       	movw	r14, r18
     e54:	8a 01       	movw	r16, r20
     e56:	0c 2e       	mov	r0, r28
     e58:	04 c0       	rjmp	.+8      	; 0xe62 <__pack_f+0x6c>
     e5a:	16 95       	lsr	r17
     e5c:	07 95       	ror	r16
     e5e:	f7 94       	ror	r15
     e60:	e7 94       	ror	r14
     e62:	0a 94       	dec	r0
     e64:	d2 f7       	brpl	.-12     	; 0xe5a <__pack_f+0x64>
     e66:	81 e0       	ldi	r24, 0x01	; 1
     e68:	90 e0       	ldi	r25, 0x00	; 0
     e6a:	a0 e0       	ldi	r26, 0x00	; 0
     e6c:	b0 e0       	ldi	r27, 0x00	; 0
     e6e:	0c 2e       	mov	r0, r28
     e70:	04 c0       	rjmp	.+8      	; 0xe7a <__pack_f+0x84>
     e72:	88 0f       	add	r24, r24
     e74:	99 1f       	adc	r25, r25
     e76:	aa 1f       	adc	r26, r26
     e78:	bb 1f       	adc	r27, r27
     e7a:	0a 94       	dec	r0
     e7c:	d2 f7       	brpl	.-12     	; 0xe72 <__pack_f+0x7c>
     e7e:	01 97       	sbiw	r24, 0x01	; 1
     e80:	a1 09       	sbc	r26, r1
     e82:	b1 09       	sbc	r27, r1
     e84:	82 23       	and	r24, r18
     e86:	93 23       	and	r25, r19
     e88:	a4 23       	and	r26, r20
     e8a:	b5 23       	and	r27, r21
     e8c:	21 e0       	ldi	r18, 0x01	; 1
     e8e:	30 e0       	ldi	r19, 0x00	; 0
     e90:	40 e0       	ldi	r20, 0x00	; 0
     e92:	50 e0       	ldi	r21, 0x00	; 0
     e94:	00 97       	sbiw	r24, 0x00	; 0
     e96:	a1 05       	cpc	r26, r1
     e98:	b1 05       	cpc	r27, r1
     e9a:	19 f4       	brne	.+6      	; 0xea2 <__pack_f+0xac>
     e9c:	20 e0       	ldi	r18, 0x00	; 0
     e9e:	30 e0       	ldi	r19, 0x00	; 0
     ea0:	a9 01       	movw	r20, r18
     ea2:	2e 29       	or	r18, r14
     ea4:	3f 29       	or	r19, r15
     ea6:	40 2b       	or	r20, r16
     ea8:	51 2b       	or	r21, r17
     eaa:	03 c0       	rjmp	.+6      	; 0xeb2 <__pack_f+0xbc>
     eac:	20 e0       	ldi	r18, 0x00	; 0
     eae:	30 e0       	ldi	r19, 0x00	; 0
     eb0:	a9 01       	movw	r20, r18
     eb2:	da 01       	movw	r26, r20
     eb4:	c9 01       	movw	r24, r18
     eb6:	8f 77       	andi	r24, 0x7F	; 127
     eb8:	90 70       	andi	r25, 0x00	; 0
     eba:	a0 70       	andi	r26, 0x00	; 0
     ebc:	b0 70       	andi	r27, 0x00	; 0
     ebe:	80 34       	cpi	r24, 0x40	; 64
     ec0:	91 05       	cpc	r25, r1
     ec2:	a1 05       	cpc	r26, r1
     ec4:	b1 05       	cpc	r27, r1
     ec6:	39 f4       	brne	.+14     	; 0xed6 <__pack_f+0xe0>
     ec8:	27 ff       	sbrs	r18, 7
     eca:	09 c0       	rjmp	.+18     	; 0xede <__pack_f+0xe8>
     ecc:	20 5c       	subi	r18, 0xC0	; 192
     ece:	3f 4f       	sbci	r19, 0xFF	; 255
     ed0:	4f 4f       	sbci	r20, 0xFF	; 255
     ed2:	5f 4f       	sbci	r21, 0xFF	; 255
     ed4:	04 c0       	rjmp	.+8      	; 0xede <__pack_f+0xe8>
     ed6:	21 5c       	subi	r18, 0xC1	; 193
     ed8:	3f 4f       	sbci	r19, 0xFF	; 255
     eda:	4f 4f       	sbci	r20, 0xFF	; 255
     edc:	5f 4f       	sbci	r21, 0xFF	; 255
     ede:	e1 e0       	ldi	r30, 0x01	; 1
     ee0:	f0 e0       	ldi	r31, 0x00	; 0
     ee2:	20 30       	cpi	r18, 0x00	; 0
     ee4:	80 e0       	ldi	r24, 0x00	; 0
     ee6:	38 07       	cpc	r19, r24
     ee8:	80 e0       	ldi	r24, 0x00	; 0
     eea:	48 07       	cpc	r20, r24
     eec:	80 e4       	ldi	r24, 0x40	; 64
     eee:	58 07       	cpc	r21, r24
     ef0:	28 f5       	brcc	.+74     	; 0xf3c <__pack_f+0x146>
     ef2:	e0 e0       	ldi	r30, 0x00	; 0
     ef4:	f0 e0       	ldi	r31, 0x00	; 0
     ef6:	22 c0       	rjmp	.+68     	; 0xf3c <__pack_f+0x146>
     ef8:	e0 38       	cpi	r30, 0x80	; 128
     efa:	f1 05       	cpc	r31, r1
     efc:	6c f5       	brge	.+90     	; 0xf58 <__pack_f+0x162>
     efe:	e1 58       	subi	r30, 0x81	; 129
     f00:	ff 4f       	sbci	r31, 0xFF	; 255
     f02:	da 01       	movw	r26, r20
     f04:	c9 01       	movw	r24, r18
     f06:	8f 77       	andi	r24, 0x7F	; 127
     f08:	90 70       	andi	r25, 0x00	; 0
     f0a:	a0 70       	andi	r26, 0x00	; 0
     f0c:	b0 70       	andi	r27, 0x00	; 0
     f0e:	80 34       	cpi	r24, 0x40	; 64
     f10:	91 05       	cpc	r25, r1
     f12:	a1 05       	cpc	r26, r1
     f14:	b1 05       	cpc	r27, r1
     f16:	39 f4       	brne	.+14     	; 0xf26 <__pack_f+0x130>
     f18:	27 ff       	sbrs	r18, 7
     f1a:	09 c0       	rjmp	.+18     	; 0xf2e <__pack_f+0x138>
     f1c:	20 5c       	subi	r18, 0xC0	; 192
     f1e:	3f 4f       	sbci	r19, 0xFF	; 255
     f20:	4f 4f       	sbci	r20, 0xFF	; 255
     f22:	5f 4f       	sbci	r21, 0xFF	; 255
     f24:	04 c0       	rjmp	.+8      	; 0xf2e <__pack_f+0x138>
     f26:	21 5c       	subi	r18, 0xC1	; 193
     f28:	3f 4f       	sbci	r19, 0xFF	; 255
     f2a:	4f 4f       	sbci	r20, 0xFF	; 255
     f2c:	5f 4f       	sbci	r21, 0xFF	; 255
     f2e:	57 ff       	sbrs	r21, 7
     f30:	05 c0       	rjmp	.+10     	; 0xf3c <__pack_f+0x146>
     f32:	56 95       	lsr	r21
     f34:	47 95       	ror	r20
     f36:	37 95       	ror	r19
     f38:	27 95       	ror	r18
     f3a:	31 96       	adiw	r30, 0x01	; 1
     f3c:	87 e0       	ldi	r24, 0x07	; 7
     f3e:	56 95       	lsr	r21
     f40:	47 95       	ror	r20
     f42:	37 95       	ror	r19
     f44:	27 95       	ror	r18
     f46:	8a 95       	dec	r24
     f48:	d1 f7       	brne	.-12     	; 0xf3e <__pack_f+0x148>
     f4a:	0b c0       	rjmp	.+22     	; 0xf62 <__pack_f+0x16c>
     f4c:	e0 e0       	ldi	r30, 0x00	; 0
     f4e:	f0 e0       	ldi	r31, 0x00	; 0
     f50:	05 c0       	rjmp	.+10     	; 0xf5c <__pack_f+0x166>
     f52:	e0 e0       	ldi	r30, 0x00	; 0
     f54:	f0 e0       	ldi	r31, 0x00	; 0
     f56:	05 c0       	rjmp	.+10     	; 0xf62 <__pack_f+0x16c>
     f58:	ef ef       	ldi	r30, 0xFF	; 255
     f5a:	f0 e0       	ldi	r31, 0x00	; 0
     f5c:	20 e0       	ldi	r18, 0x00	; 0
     f5e:	30 e0       	ldi	r19, 0x00	; 0
     f60:	a9 01       	movw	r20, r18
     f62:	8e 2f       	mov	r24, r30
     f64:	87 95       	ror	r24
     f66:	88 27       	eor	r24, r24
     f68:	87 95       	ror	r24
     f6a:	94 2f       	mov	r25, r20
     f6c:	9f 77       	andi	r25, 0x7F	; 127
     f6e:	67 95       	ror	r22
     f70:	66 27       	eor	r22, r22
     f72:	67 95       	ror	r22
     f74:	e6 95       	lsr	r30
     f76:	e2 2e       	mov	r14, r18
     f78:	a9 2f       	mov	r26, r25
     f7a:	a8 2b       	or	r26, r24
     f7c:	fe 2f       	mov	r31, r30
     f7e:	f6 2b       	or	r31, r22
     f80:	62 2f       	mov	r22, r18
     f82:	73 2f       	mov	r23, r19
     f84:	8a 2f       	mov	r24, r26
     f86:	9f 2f       	mov	r25, r31
     f88:	cd b7       	in	r28, 0x3d	; 61
     f8a:	de b7       	in	r29, 0x3e	; 62
     f8c:	e6 e0       	ldi	r30, 0x06	; 6
     f8e:	0c 94 b6 1a 	jmp	0x356c	; 0x356c <__epilogue_restores__+0x18>

00000f92 <__unpack_f>:
     f92:	dc 01       	movw	r26, r24
     f94:	fb 01       	movw	r30, r22
     f96:	2c 91       	ld	r18, X
     f98:	11 96       	adiw	r26, 0x01	; 1
     f9a:	3c 91       	ld	r19, X
     f9c:	11 97       	sbiw	r26, 0x01	; 1
     f9e:	12 96       	adiw	r26, 0x02	; 2
     fa0:	8c 91       	ld	r24, X
     fa2:	12 97       	sbiw	r26, 0x02	; 2
     fa4:	48 2f       	mov	r20, r24
     fa6:	4f 77       	andi	r20, 0x7F	; 127
     fa8:	50 e0       	ldi	r21, 0x00	; 0
     faa:	98 2f       	mov	r25, r24
     fac:	99 1f       	adc	r25, r25
     fae:	99 27       	eor	r25, r25
     fb0:	99 1f       	adc	r25, r25
     fb2:	13 96       	adiw	r26, 0x03	; 3
     fb4:	6c 91       	ld	r22, X
     fb6:	13 97       	sbiw	r26, 0x03	; 3
     fb8:	86 2f       	mov	r24, r22
     fba:	88 0f       	add	r24, r24
     fbc:	89 2b       	or	r24, r25
     fbe:	90 e0       	ldi	r25, 0x00	; 0
     fc0:	66 1f       	adc	r22, r22
     fc2:	66 27       	eor	r22, r22
     fc4:	66 1f       	adc	r22, r22
     fc6:	61 83       	std	Z+1, r22	; 0x01
     fc8:	00 97       	sbiw	r24, 0x00	; 0
     fca:	39 f5       	brne	.+78     	; 0x101a <__unpack_f+0x88>
     fcc:	21 15       	cp	r18, r1
     fce:	31 05       	cpc	r19, r1
     fd0:	41 05       	cpc	r20, r1
     fd2:	51 05       	cpc	r21, r1
     fd4:	11 f4       	brne	.+4      	; 0xfda <__unpack_f+0x48>
     fd6:	82 e0       	ldi	r24, 0x02	; 2
     fd8:	29 c0       	rjmp	.+82     	; 0x102c <__unpack_f+0x9a>
     fda:	82 e8       	ldi	r24, 0x82	; 130
     fdc:	9f ef       	ldi	r25, 0xFF	; 255
     fde:	93 83       	std	Z+3, r25	; 0x03
     fe0:	82 83       	std	Z+2, r24	; 0x02
     fe2:	67 e0       	ldi	r22, 0x07	; 7
     fe4:	22 0f       	add	r18, r18
     fe6:	33 1f       	adc	r19, r19
     fe8:	44 1f       	adc	r20, r20
     fea:	55 1f       	adc	r21, r21
     fec:	6a 95       	dec	r22
     fee:	d1 f7       	brne	.-12     	; 0xfe4 <__unpack_f+0x52>
     ff0:	83 e0       	ldi	r24, 0x03	; 3
     ff2:	80 83       	st	Z, r24
     ff4:	09 c0       	rjmp	.+18     	; 0x1008 <__unpack_f+0x76>
     ff6:	22 0f       	add	r18, r18
     ff8:	33 1f       	adc	r19, r19
     ffa:	44 1f       	adc	r20, r20
     ffc:	55 1f       	adc	r21, r21
     ffe:	82 81       	ldd	r24, Z+2	; 0x02
    1000:	93 81       	ldd	r25, Z+3	; 0x03
    1002:	01 97       	sbiw	r24, 0x01	; 1
    1004:	93 83       	std	Z+3, r25	; 0x03
    1006:	82 83       	std	Z+2, r24	; 0x02
    1008:	20 30       	cpi	r18, 0x00	; 0
    100a:	80 e0       	ldi	r24, 0x00	; 0
    100c:	38 07       	cpc	r19, r24
    100e:	80 e0       	ldi	r24, 0x00	; 0
    1010:	48 07       	cpc	r20, r24
    1012:	80 e4       	ldi	r24, 0x40	; 64
    1014:	58 07       	cpc	r21, r24
    1016:	78 f3       	brcs	.-34     	; 0xff6 <__unpack_f+0x64>
    1018:	20 c0       	rjmp	.+64     	; 0x105a <__unpack_f+0xc8>
    101a:	8f 3f       	cpi	r24, 0xFF	; 255
    101c:	91 05       	cpc	r25, r1
    101e:	79 f4       	brne	.+30     	; 0x103e <__unpack_f+0xac>
    1020:	21 15       	cp	r18, r1
    1022:	31 05       	cpc	r19, r1
    1024:	41 05       	cpc	r20, r1
    1026:	51 05       	cpc	r21, r1
    1028:	19 f4       	brne	.+6      	; 0x1030 <__unpack_f+0x9e>
    102a:	84 e0       	ldi	r24, 0x04	; 4
    102c:	80 83       	st	Z, r24
    102e:	08 95       	ret
    1030:	44 ff       	sbrs	r20, 4
    1032:	03 c0       	rjmp	.+6      	; 0x103a <__unpack_f+0xa8>
    1034:	81 e0       	ldi	r24, 0x01	; 1
    1036:	80 83       	st	Z, r24
    1038:	10 c0       	rjmp	.+32     	; 0x105a <__unpack_f+0xc8>
    103a:	10 82       	st	Z, r1
    103c:	0e c0       	rjmp	.+28     	; 0x105a <__unpack_f+0xc8>
    103e:	8f 57       	subi	r24, 0x7F	; 127
    1040:	90 40       	sbci	r25, 0x00	; 0
    1042:	93 83       	std	Z+3, r25	; 0x03
    1044:	82 83       	std	Z+2, r24	; 0x02
    1046:	83 e0       	ldi	r24, 0x03	; 3
    1048:	80 83       	st	Z, r24
    104a:	87 e0       	ldi	r24, 0x07	; 7
    104c:	22 0f       	add	r18, r18
    104e:	33 1f       	adc	r19, r19
    1050:	44 1f       	adc	r20, r20
    1052:	55 1f       	adc	r21, r21
    1054:	8a 95       	dec	r24
    1056:	d1 f7       	brne	.-12     	; 0x104c <__unpack_f+0xba>
    1058:	50 64       	ori	r21, 0x40	; 64
    105a:	24 83       	std	Z+4, r18	; 0x04
    105c:	35 83       	std	Z+5, r19	; 0x05
    105e:	46 83       	std	Z+6, r20	; 0x06
    1060:	57 83       	std	Z+7, r21	; 0x07
    1062:	08 95       	ret

00001064 <__fpcmp_parts_f>:
    1064:	fc 01       	movw	r30, r24
    1066:	db 01       	movw	r26, r22
    1068:	90 81       	ld	r25, Z
    106a:	92 30       	cpi	r25, 0x02	; 2
    106c:	08 f4       	brcc	.+2      	; 0x1070 <__fpcmp_parts_f+0xc>
    106e:	49 c0       	rjmp	.+146    	; 0x1102 <__fpcmp_parts_f+0x9e>
    1070:	8c 91       	ld	r24, X
    1072:	82 30       	cpi	r24, 0x02	; 2
    1074:	08 f4       	brcc	.+2      	; 0x1078 <__fpcmp_parts_f+0x14>
    1076:	45 c0       	rjmp	.+138    	; 0x1102 <__fpcmp_parts_f+0x9e>
    1078:	94 30       	cpi	r25, 0x04	; 4
    107a:	51 f4       	brne	.+20     	; 0x1090 <__fpcmp_parts_f+0x2c>
    107c:	61 81       	ldd	r22, Z+1	; 0x01
    107e:	84 30       	cpi	r24, 0x04	; 4
    1080:	b1 f5       	brne	.+108    	; 0x10ee <__fpcmp_parts_f+0x8a>
    1082:	11 96       	adiw	r26, 0x01	; 1
    1084:	2c 91       	ld	r18, X
    1086:	11 97       	sbiw	r26, 0x01	; 1
    1088:	30 e0       	ldi	r19, 0x00	; 0
    108a:	26 1b       	sub	r18, r22
    108c:	31 09       	sbc	r19, r1
    108e:	41 c0       	rjmp	.+130    	; 0x1112 <__fpcmp_parts_f+0xae>
    1090:	84 30       	cpi	r24, 0x04	; 4
    1092:	21 f0       	breq	.+8      	; 0x109c <__fpcmp_parts_f+0x38>
    1094:	92 30       	cpi	r25, 0x02	; 2
    1096:	41 f4       	brne	.+16     	; 0x10a8 <__fpcmp_parts_f+0x44>
    1098:	82 30       	cpi	r24, 0x02	; 2
    109a:	b1 f1       	breq	.+108    	; 0x1108 <__fpcmp_parts_f+0xa4>
    109c:	11 96       	adiw	r26, 0x01	; 1
    109e:	8c 91       	ld	r24, X
    10a0:	11 97       	sbiw	r26, 0x01	; 1
    10a2:	88 23       	and	r24, r24
    10a4:	a1 f1       	breq	.+104    	; 0x110e <__fpcmp_parts_f+0xaa>
    10a6:	2d c0       	rjmp	.+90     	; 0x1102 <__fpcmp_parts_f+0x9e>
    10a8:	61 81       	ldd	r22, Z+1	; 0x01
    10aa:	82 30       	cpi	r24, 0x02	; 2
    10ac:	01 f1       	breq	.+64     	; 0x10ee <__fpcmp_parts_f+0x8a>
    10ae:	11 96       	adiw	r26, 0x01	; 1
    10b0:	8c 91       	ld	r24, X
    10b2:	11 97       	sbiw	r26, 0x01	; 1
    10b4:	68 17       	cp	r22, r24
    10b6:	d9 f4       	brne	.+54     	; 0x10ee <__fpcmp_parts_f+0x8a>
    10b8:	22 81       	ldd	r18, Z+2	; 0x02
    10ba:	33 81       	ldd	r19, Z+3	; 0x03
    10bc:	12 96       	adiw	r26, 0x02	; 2
    10be:	8d 91       	ld	r24, X+
    10c0:	9c 91       	ld	r25, X
    10c2:	13 97       	sbiw	r26, 0x03	; 3
    10c4:	82 17       	cp	r24, r18
    10c6:	93 07       	cpc	r25, r19
    10c8:	94 f0       	brlt	.+36     	; 0x10ee <__fpcmp_parts_f+0x8a>
    10ca:	28 17       	cp	r18, r24
    10cc:	39 07       	cpc	r19, r25
    10ce:	bc f0       	brlt	.+46     	; 0x10fe <__fpcmp_parts_f+0x9a>
    10d0:	24 81       	ldd	r18, Z+4	; 0x04
    10d2:	35 81       	ldd	r19, Z+5	; 0x05
    10d4:	46 81       	ldd	r20, Z+6	; 0x06
    10d6:	57 81       	ldd	r21, Z+7	; 0x07
    10d8:	14 96       	adiw	r26, 0x04	; 4
    10da:	8d 91       	ld	r24, X+
    10dc:	9d 91       	ld	r25, X+
    10de:	0d 90       	ld	r0, X+
    10e0:	bc 91       	ld	r27, X
    10e2:	a0 2d       	mov	r26, r0
    10e4:	82 17       	cp	r24, r18
    10e6:	93 07       	cpc	r25, r19
    10e8:	a4 07       	cpc	r26, r20
    10ea:	b5 07       	cpc	r27, r21
    10ec:	18 f4       	brcc	.+6      	; 0x10f4 <__fpcmp_parts_f+0x90>
    10ee:	66 23       	and	r22, r22
    10f0:	41 f0       	breq	.+16     	; 0x1102 <__fpcmp_parts_f+0x9e>
    10f2:	0d c0       	rjmp	.+26     	; 0x110e <__fpcmp_parts_f+0xaa>
    10f4:	28 17       	cp	r18, r24
    10f6:	39 07       	cpc	r19, r25
    10f8:	4a 07       	cpc	r20, r26
    10fa:	5b 07       	cpc	r21, r27
    10fc:	28 f4       	brcc	.+10     	; 0x1108 <__fpcmp_parts_f+0xa4>
    10fe:	66 23       	and	r22, r22
    1100:	31 f0       	breq	.+12     	; 0x110e <__fpcmp_parts_f+0xaa>
    1102:	21 e0       	ldi	r18, 0x01	; 1
    1104:	30 e0       	ldi	r19, 0x00	; 0
    1106:	05 c0       	rjmp	.+10     	; 0x1112 <__fpcmp_parts_f+0xae>
    1108:	20 e0       	ldi	r18, 0x00	; 0
    110a:	30 e0       	ldi	r19, 0x00	; 0
    110c:	02 c0       	rjmp	.+4      	; 0x1112 <__fpcmp_parts_f+0xae>
    110e:	2f ef       	ldi	r18, 0xFF	; 255
    1110:	3f ef       	ldi	r19, 0xFF	; 255
    1112:	c9 01       	movw	r24, r18
    1114:	08 95       	ret

00001116 <_ZN11FlexiTimer29_overflowEv>:
    1116:	80 91 2a 03 	lds	r24, 0x032A
    111a:	90 91 2b 03 	lds	r25, 0x032B
    111e:	a0 91 2c 03 	lds	r26, 0x032C
    1122:	b0 91 2d 03 	lds	r27, 0x032D
    1126:	01 96       	adiw	r24, 0x01	; 1
    1128:	a1 1d       	adc	r26, r1
    112a:	b1 1d       	adc	r27, r1
    112c:	80 93 2a 03 	sts	0x032A, r24
    1130:	90 93 2b 03 	sts	0x032B, r25
    1134:	a0 93 2c 03 	sts	0x032C, r26
    1138:	b0 93 2d 03 	sts	0x032D, r27
    113c:	20 91 2a 03 	lds	r18, 0x032A
    1140:	30 91 2b 03 	lds	r19, 0x032B
    1144:	40 91 2c 03 	lds	r20, 0x032C
    1148:	50 91 2d 03 	lds	r21, 0x032D
    114c:	80 91 24 03 	lds	r24, 0x0324
    1150:	90 91 25 03 	lds	r25, 0x0325
    1154:	a0 91 26 03 	lds	r26, 0x0326
    1158:	b0 91 27 03 	lds	r27, 0x0327
    115c:	28 17       	cp	r18, r24
    115e:	39 07       	cpc	r19, r25
    1160:	4a 07       	cpc	r20, r26
    1162:	5b 07       	cpc	r21, r27
    1164:	b0 f0       	brcs	.+44     	; 0x1192 <_ZN11FlexiTimer29_overflowEv+0x7c>
    1166:	80 91 2e 03 	lds	r24, 0x032E
    116a:	88 23       	and	r24, r24
    116c:	91 f4       	brne	.+36     	; 0x1192 <_ZN11FlexiTimer29_overflowEv+0x7c>
    116e:	81 e0       	ldi	r24, 0x01	; 1
    1170:	80 93 2e 03 	sts	0x032E, r24
    1174:	10 92 2a 03 	sts	0x032A, r1
    1178:	10 92 2b 03 	sts	0x032B, r1
    117c:	10 92 2c 03 	sts	0x032C, r1
    1180:	10 92 2d 03 	sts	0x032D, r1
    1184:	e0 91 28 03 	lds	r30, 0x0328
    1188:	f0 91 29 03 	lds	r31, 0x0329
    118c:	19 95       	eicall
    118e:	10 92 2e 03 	sts	0x032E, r1
    1192:	08 95       	ret

00001194 <__vector_15>:
    1194:	1f 92       	push	r1
    1196:	0f 92       	push	r0
    1198:	0f b6       	in	r0, 0x3f	; 63
    119a:	0f 92       	push	r0
    119c:	0b b6       	in	r0, 0x3b	; 59
    119e:	0f 92       	push	r0
    11a0:	11 24       	eor	r1, r1
    11a2:	2f 93       	push	r18
    11a4:	3f 93       	push	r19
    11a6:	4f 93       	push	r20
    11a8:	5f 93       	push	r21
    11aa:	6f 93       	push	r22
    11ac:	7f 93       	push	r23
    11ae:	8f 93       	push	r24
    11b0:	9f 93       	push	r25
    11b2:	af 93       	push	r26
    11b4:	bf 93       	push	r27
    11b6:	ef 93       	push	r30
    11b8:	ff 93       	push	r31
    11ba:	0e 94 8b 08 	call	0x1116	; 0x1116 <_ZN11FlexiTimer29_overflowEv>
    11be:	ff 91       	pop	r31
    11c0:	ef 91       	pop	r30
    11c2:	bf 91       	pop	r27
    11c4:	af 91       	pop	r26
    11c6:	9f 91       	pop	r25
    11c8:	8f 91       	pop	r24
    11ca:	7f 91       	pop	r23
    11cc:	6f 91       	pop	r22
    11ce:	5f 91       	pop	r21
    11d0:	4f 91       	pop	r20
    11d2:	3f 91       	pop	r19
    11d4:	2f 91       	pop	r18
    11d6:	0f 90       	pop	r0
    11d8:	0b be       	out	0x3b, r0	; 59
    11da:	0f 90       	pop	r0
    11dc:	0f be       	out	0x3f, r0	; 63
    11de:	0f 90       	pop	r0
    11e0:	1f 90       	pop	r1
    11e2:	18 95       	reti

000011e4 <_ZN3PIDC1EP10PID_params>:
    11e4:	fc 01       	movw	r30, r24
    11e6:	71 83       	std	Z+1, r23	; 0x01
    11e8:	60 83       	st	Z, r22
    11ea:	08 95       	ret

000011ec <_ZN3PID8setInputEd>:
    11ec:	fc 01       	movw	r30, r24
    11ee:	01 90       	ld	r0, Z+
    11f0:	f0 81       	ld	r31, Z
    11f2:	e0 2d       	mov	r30, r0
    11f4:	44 83       	std	Z+4, r20	; 0x04
    11f6:	55 83       	std	Z+5, r21	; 0x05
    11f8:	66 83       	std	Z+6, r22	; 0x06
    11fa:	77 83       	std	Z+7, r23	; 0x07
    11fc:	08 95       	ret

000011fe <_ZN3PID9getOutputEv>:
    11fe:	fc 01       	movw	r30, r24
    1200:	01 90       	ld	r0, Z+
    1202:	f0 81       	ld	r31, Z
    1204:	e0 2d       	mov	r30, r0
    1206:	20 85       	ldd	r18, Z+8	; 0x08
    1208:	31 85       	ldd	r19, Z+9	; 0x09
    120a:	42 85       	ldd	r20, Z+10	; 0x0a
    120c:	53 85       	ldd	r21, Z+11	; 0x0b
    120e:	b9 01       	movw	r22, r18
    1210:	ca 01       	movw	r24, r20
    1212:	08 95       	ret

00001214 <_ZN3PID7processEd>:
    1214:	6f 92       	push	r6
    1216:	7f 92       	push	r7
    1218:	8f 92       	push	r8
    121a:	9f 92       	push	r9
    121c:	af 92       	push	r10
    121e:	bf 92       	push	r11
    1220:	cf 92       	push	r12
    1222:	df 92       	push	r13
    1224:	ef 92       	push	r14
    1226:	ff 92       	push	r15
    1228:	0f 93       	push	r16
    122a:	1f 93       	push	r17
    122c:	cf 93       	push	r28
    122e:	df 93       	push	r29
    1230:	fc 01       	movw	r30, r24
    1232:	3a 01       	movw	r6, r20
    1234:	4b 01       	movw	r8, r22
    1236:	c0 81       	ld	r28, Z
    1238:	d1 81       	ldd	r29, Z+1	; 0x01
    123a:	68 81       	ld	r22, Y
    123c:	79 81       	ldd	r23, Y+1	; 0x01
    123e:	8a 81       	ldd	r24, Y+2	; 0x02
    1240:	9b 81       	ldd	r25, Y+3	; 0x03
    1242:	2c 81       	ldd	r18, Y+4	; 0x04
    1244:	3d 81       	ldd	r19, Y+5	; 0x05
    1246:	4e 81       	ldd	r20, Y+6	; 0x06
    1248:	5f 81       	ldd	r21, Y+7	; 0x07
    124a:	0e 94 ae 02 	call	0x55c	; 0x55c <__subsf3>
    124e:	6c 8b       	std	Y+20, r22	; 0x14
    1250:	7d 8b       	std	Y+21, r23	; 0x15
    1252:	8e 8b       	std	Y+22, r24	; 0x16
    1254:	9f 8b       	std	Y+23, r25	; 0x17
    1256:	a4 01       	movw	r20, r8
    1258:	93 01       	movw	r18, r6
    125a:	0e 94 df 02 	call	0x5be	; 0x5be <__mulsf3>
    125e:	2c 85       	ldd	r18, Y+12	; 0x0c
    1260:	3d 85       	ldd	r19, Y+13	; 0x0d
    1262:	4e 85       	ldd	r20, Y+14	; 0x0e
    1264:	5f 85       	ldd	r21, Y+15	; 0x0f
    1266:	0e 94 81 02 	call	0x502	; 0x502 <__addsf3>
    126a:	5b 01       	movw	r10, r22
    126c:	6c 01       	movw	r12, r24
    126e:	6c 87       	std	Y+12, r22	; 0x0c
    1270:	7d 87       	std	Y+13, r23	; 0x0d
    1272:	8e 87       	std	Y+14, r24	; 0x0e
    1274:	9f 87       	std	Y+15, r25	; 0x0f
    1276:	ec a0       	ldd	r14, Y+36	; 0x24
    1278:	fd a0       	ldd	r15, Y+37	; 0x25
    127a:	0e a1       	ldd	r16, Y+38	; 0x26
    127c:	1f a1       	ldd	r17, Y+39	; 0x27
    127e:	a8 01       	movw	r20, r16
    1280:	97 01       	movw	r18, r14
    1282:	0e 94 b7 04 	call	0x96e	; 0x96e <__gtsf2>
    1286:	18 16       	cp	r1, r24
    1288:	64 f0       	brlt	.+24     	; 0x12a2 <_ZN3PID7processEd+0x8e>
    128a:	17 fb       	bst	r17, 7
    128c:	10 95       	com	r17
    128e:	17 f9       	bld	r17, 7
    1290:	10 95       	com	r17
    1292:	c6 01       	movw	r24, r12
    1294:	b5 01       	movw	r22, r10
    1296:	a8 01       	movw	r20, r16
    1298:	97 01       	movw	r18, r14
    129a:	0e 94 17 05 	call	0xa2e	; 0xa2e <__ltsf2>
    129e:	88 23       	and	r24, r24
    12a0:	24 f4       	brge	.+8      	; 0x12aa <_ZN3PID7processEd+0x96>
    12a2:	ec 86       	std	Y+12, r14	; 0x0c
    12a4:	fd 86       	std	Y+13, r15	; 0x0d
    12a6:	0e 87       	std	Y+14, r16	; 0x0e
    12a8:	1f 87       	std	Y+15, r17	; 0x0f
    12aa:	ac 88       	ldd	r10, Y+20	; 0x14
    12ac:	bd 88       	ldd	r11, Y+21	; 0x15
    12ae:	ce 88       	ldd	r12, Y+22	; 0x16
    12b0:	df 88       	ldd	r13, Y+23	; 0x17
    12b2:	c6 01       	movw	r24, r12
    12b4:	b5 01       	movw	r22, r10
    12b6:	28 8d       	ldd	r18, Y+24	; 0x18
    12b8:	39 8d       	ldd	r19, Y+25	; 0x19
    12ba:	4a 8d       	ldd	r20, Y+26	; 0x1a
    12bc:	5b 8d       	ldd	r21, Y+27	; 0x1b
    12be:	0e 94 df 02 	call	0x5be	; 0x5be <__mulsf3>
    12c2:	7b 01       	movw	r14, r22
    12c4:	8c 01       	movw	r16, r24
    12c6:	6c 8d       	ldd	r22, Y+28	; 0x1c
    12c8:	7d 8d       	ldd	r23, Y+29	; 0x1d
    12ca:	8e 8d       	ldd	r24, Y+30	; 0x1e
    12cc:	9f 8d       	ldd	r25, Y+31	; 0x1f
    12ce:	2c 85       	ldd	r18, Y+12	; 0x0c
    12d0:	3d 85       	ldd	r19, Y+13	; 0x0d
    12d2:	4e 85       	ldd	r20, Y+14	; 0x0e
    12d4:	5f 85       	ldd	r21, Y+15	; 0x0f
    12d6:	0e 94 df 02 	call	0x5be	; 0x5be <__mulsf3>
    12da:	9b 01       	movw	r18, r22
    12dc:	ac 01       	movw	r20, r24
    12de:	c8 01       	movw	r24, r16
    12e0:	b7 01       	movw	r22, r14
    12e2:	0e 94 81 02 	call	0x502	; 0x502 <__addsf3>
    12e6:	7b 01       	movw	r14, r22
    12e8:	8c 01       	movw	r16, r24
    12ea:	c6 01       	movw	r24, r12
    12ec:	b5 01       	movw	r22, r10
    12ee:	28 89       	ldd	r18, Y+16	; 0x10
    12f0:	39 89       	ldd	r19, Y+17	; 0x11
    12f2:	4a 89       	ldd	r20, Y+18	; 0x12
    12f4:	5b 89       	ldd	r21, Y+19	; 0x13
    12f6:	0e 94 ae 02 	call	0x55c	; 0x55c <__subsf3>
    12fa:	28 a1       	ldd	r18, Y+32	; 0x20
    12fc:	39 a1       	ldd	r19, Y+33	; 0x21
    12fe:	4a a1       	ldd	r20, Y+34	; 0x22
    1300:	5b a1       	ldd	r21, Y+35	; 0x23
    1302:	0e 94 df 02 	call	0x5be	; 0x5be <__mulsf3>
    1306:	a4 01       	movw	r20, r8
    1308:	93 01       	movw	r18, r6
    130a:	0e 94 d9 03 	call	0x7b2	; 0x7b2 <__divsf3>
    130e:	9b 01       	movw	r18, r22
    1310:	ac 01       	movw	r20, r24
    1312:	c8 01       	movw	r24, r16
    1314:	b7 01       	movw	r22, r14
    1316:	0e 94 81 02 	call	0x502	; 0x502 <__addsf3>
    131a:	68 87       	std	Y+8, r22	; 0x08
    131c:	79 87       	std	Y+9, r23	; 0x09
    131e:	8a 87       	std	Y+10, r24	; 0x0a
    1320:	9b 87       	std	Y+11, r25	; 0x0b
    1322:	a8 8a       	std	Y+16, r10	; 0x10
    1324:	b9 8a       	std	Y+17, r11	; 0x11
    1326:	ca 8a       	std	Y+18, r12	; 0x12
    1328:	db 8a       	std	Y+19, r13	; 0x13
    132a:	df 91       	pop	r29
    132c:	cf 91       	pop	r28
    132e:	1f 91       	pop	r17
    1330:	0f 91       	pop	r16
    1332:	ff 90       	pop	r15
    1334:	ef 90       	pop	r14
    1336:	df 90       	pop	r13
    1338:	cf 90       	pop	r12
    133a:	bf 90       	pop	r11
    133c:	af 90       	pop	r10
    133e:	9f 90       	pop	r9
    1340:	8f 90       	pop	r8
    1342:	7f 90       	pop	r7
    1344:	6f 90       	pop	r6
    1346:	08 95       	ret

00001348 <_ZN7Battery3setEP10CD74HC4067hh>:
    1348:	cf 93       	push	r28
    134a:	df 93       	push	r29
    134c:	ec 01       	movw	r28, r24
    134e:	61 15       	cp	r22, r1
    1350:	71 05       	cpc	r23, r1
    1352:	11 f4       	brne	.+4      	; 0x1358 <_ZN7Battery3setEP10CD74HC4067hh+0x10>
    1354:	18 82       	st	Y, r1
    1356:	04 c0       	rjmp	.+8      	; 0x1360 <_ZN7Battery3setEP10CD74HC4067hh+0x18>
    1358:	81 e0       	ldi	r24, 0x01	; 1
    135a:	88 83       	st	Y, r24
    135c:	7a 83       	std	Y+2, r23	; 0x02
    135e:	69 83       	std	Y+1, r22	; 0x01
    1360:	44 23       	and	r20, r20
    1362:	b9 f0       	breq	.+46     	; 0x1392 <_ZN7Battery3setEP10CD74HC4067hh+0x4a>
    1364:	22 23       	and	r18, r18
    1366:	a9 f0       	breq	.+42     	; 0x1392 <_ZN7Battery3setEP10CD74HC4067hh+0x4a>
    1368:	4b 83       	std	Y+3, r20	; 0x03
    136a:	2c 83       	std	Y+4, r18	; 0x04
    136c:	88 81       	ld	r24, Y
    136e:	88 23       	and	r24, r24
    1370:	81 f4       	brne	.+32     	; 0x1392 <_ZN7Battery3setEP10CD74HC4067hh+0x4a>
    1372:	84 2f       	mov	r24, r20
    1374:	60 e0       	ldi	r22, 0x00	; 0
    1376:	0e 94 56 16 	call	0x2cac	; 0x2cac <pinMode>
    137a:	8c 81       	ldd	r24, Y+4	; 0x04
    137c:	60 e0       	ldi	r22, 0x00	; 0
    137e:	0e 94 56 16 	call	0x2cac	; 0x2cac <pinMode>
    1382:	8b 81       	ldd	r24, Y+3	; 0x03
    1384:	60 e0       	ldi	r22, 0x00	; 0
    1386:	0e 94 7c 16 	call	0x2cf8	; 0x2cf8 <digitalWrite>
    138a:	8c 81       	ldd	r24, Y+4	; 0x04
    138c:	60 e0       	ldi	r22, 0x00	; 0
    138e:	0e 94 7c 16 	call	0x2cf8	; 0x2cf8 <digitalWrite>
    1392:	df 91       	pop	r29
    1394:	cf 91       	pop	r28
    1396:	08 95       	ret

00001398 <_ZN7BatteryC1Ehh>:
    1398:	36 2f       	mov	r19, r22
    139a:	24 2f       	mov	r18, r20
    139c:	60 e0       	ldi	r22, 0x00	; 0
    139e:	70 e0       	ldi	r23, 0x00	; 0
    13a0:	43 2f       	mov	r20, r19
    13a2:	0e 94 a4 09 	call	0x1348	; 0x1348 <_ZN7Battery3setEP10CD74HC4067hh>
    13a6:	08 95       	ret

000013a8 <_ZN7BatteryC1Ev>:
    13a8:	df 93       	push	r29
    13aa:	cf 93       	push	r28
    13ac:	00 d0       	rcall	.+0      	; 0x13ae <_ZN7BatteryC1Ev+0x6>
    13ae:	0f 92       	push	r0
    13b0:	0f 92       	push	r0
    13b2:	cd b7       	in	r28, 0x3d	; 61
    13b4:	de b7       	in	r29, 0x3e	; 62
    13b6:	ce 01       	movw	r24, r28
    13b8:	01 96       	adiw	r24, 0x01	; 1
    13ba:	60 e0       	ldi	r22, 0x00	; 0
    13bc:	40 e0       	ldi	r20, 0x00	; 0
    13be:	0e 94 cc 09 	call	0x1398	; 0x1398 <_ZN7BatteryC1Ehh>
    13c2:	0f 90       	pop	r0
    13c4:	0f 90       	pop	r0
    13c6:	0f 90       	pop	r0
    13c8:	0f 90       	pop	r0
    13ca:	0f 90       	pop	r0
    13cc:	cf 91       	pop	r28
    13ce:	df 91       	pop	r29
    13d0:	08 95       	ret

000013d2 <_ZN4Gyro8getValueEv>:
    13d2:	0f 93       	push	r16
    13d4:	1f 93       	push	r17
    13d6:	cf 93       	push	r28
    13d8:	df 93       	push	r29
    13da:	ec 01       	movw	r28, r24
    13dc:	8a 81       	ldd	r24, Y+2	; 0x02
    13de:	88 23       	and	r24, r24
    13e0:	61 f0       	breq	.+24     	; 0x13fa <_ZN4Gyro8getValueEv+0x28>
    13e2:	88 81       	ld	r24, Y
    13e4:	99 81       	ldd	r25, Y+1	; 0x01
    13e6:	6b 81       	ldd	r22, Y+3	; 0x03
    13e8:	0e 94 c9 0c 	call	0x1992	; 0x1992 <_ZN10CD74HC40677readADCEh>
    13ec:	8c 01       	movw	r16, r24
    13ee:	88 81       	ld	r24, Y
    13f0:	99 81       	ldd	r25, Y+1	; 0x01
    13f2:	6c 81       	ldd	r22, Y+4	; 0x04
    13f4:	0e 94 c9 0c 	call	0x1992	; 0x1992 <_ZN10CD74HC40677readADCEh>
    13f8:	07 c0       	rjmp	.+14     	; 0x1408 <_ZN4Gyro8getValueEv+0x36>
    13fa:	8b 81       	ldd	r24, Y+3	; 0x03
    13fc:	0e 94 22 16 	call	0x2c44	; 0x2c44 <analogRead>
    1400:	8c 01       	movw	r16, r24
    1402:	8c 81       	ldd	r24, Y+4	; 0x04
    1404:	0e 94 22 16 	call	0x2c44	; 0x2c44 <analogRead>
    1408:	08 1b       	sub	r16, r24
    140a:	19 0b       	sbc	r17, r25
    140c:	b8 01       	movw	r22, r16
    140e:	88 27       	eor	r24, r24
    1410:	77 fd       	sbrc	r23, 7
    1412:	80 95       	com	r24
    1414:	98 2f       	mov	r25, r24
    1416:	0e 94 77 05 	call	0xaee	; 0xaee <__floatsisf>
    141a:	29 85       	ldd	r18, Y+9	; 0x09
    141c:	3a 85       	ldd	r19, Y+10	; 0x0a
    141e:	4b 85       	ldd	r20, Y+11	; 0x0b
    1420:	5c 85       	ldd	r21, Y+12	; 0x0c
    1422:	0e 94 df 02 	call	0x5be	; 0x5be <__mulsf3>
    1426:	2d 81       	ldd	r18, Y+5	; 0x05
    1428:	3e 81       	ldd	r19, Y+6	; 0x06
    142a:	4f 81       	ldd	r20, Y+7	; 0x07
    142c:	58 85       	ldd	r21, Y+8	; 0x08
    142e:	0e 94 ae 02 	call	0x55c	; 0x55c <__subsf3>
    1432:	df 91       	pop	r29
    1434:	cf 91       	pop	r28
    1436:	1f 91       	pop	r17
    1438:	0f 91       	pop	r16
    143a:	08 95       	ret

0000143c <_ZN4Gyro6updateEP9gyro_dataf>:
    143c:	cf 92       	push	r12
    143e:	df 92       	push	r13
    1440:	ef 92       	push	r14
    1442:	ff 92       	push	r15
    1444:	0f 93       	push	r16
    1446:	1f 93       	push	r17
    1448:	6b 01       	movw	r12, r22
    144a:	79 01       	movw	r14, r18
    144c:	8a 01       	movw	r16, r20
    144e:	0e 94 e9 09 	call	0x13d2	; 0x13d2 <_ZN4Gyro8getValueEv>
    1452:	f6 01       	movw	r30, r12
    1454:	60 83       	st	Z, r22
    1456:	71 83       	std	Z+1, r23	; 0x01
    1458:	82 83       	std	Z+2, r24	; 0x02
    145a:	93 83       	std	Z+3, r25	; 0x03
    145c:	a8 01       	movw	r20, r16
    145e:	97 01       	movw	r18, r14
    1460:	0e 94 df 02 	call	0x5be	; 0x5be <__mulsf3>
    1464:	9b 01       	movw	r18, r22
    1466:	ac 01       	movw	r20, r24
    1468:	f6 01       	movw	r30, r12
    146a:	64 81       	ldd	r22, Z+4	; 0x04
    146c:	75 81       	ldd	r23, Z+5	; 0x05
    146e:	86 81       	ldd	r24, Z+6	; 0x06
    1470:	97 81       	ldd	r25, Z+7	; 0x07
    1472:	0e 94 81 02 	call	0x502	; 0x502 <__addsf3>
    1476:	f6 01       	movw	r30, r12
    1478:	64 83       	std	Z+4, r22	; 0x04
    147a:	75 83       	std	Z+5, r23	; 0x05
    147c:	86 83       	std	Z+6, r24	; 0x06
    147e:	97 83       	std	Z+7, r25	; 0x07
    1480:	1f 91       	pop	r17
    1482:	0f 91       	pop	r16
    1484:	ff 90       	pop	r15
    1486:	ef 90       	pop	r14
    1488:	df 90       	pop	r13
    148a:	cf 90       	pop	r12
    148c:	08 95       	ret

0000148e <_ZN4Gyro9calibrateEjb>:
    148e:	af 92       	push	r10
    1490:	bf 92       	push	r11
    1492:	cf 92       	push	r12
    1494:	df 92       	push	r13
    1496:	ef 92       	push	r14
    1498:	ff 92       	push	r15
    149a:	0f 93       	push	r16
    149c:	1f 93       	push	r17
    149e:	cf 93       	push	r28
    14a0:	df 93       	push	r29
    14a2:	ec 01       	movw	r28, r24
    14a4:	7b 01       	movw	r14, r22
    14a6:	44 23       	and	r20, r20
    14a8:	09 f0       	breq	.+2      	; 0x14ac <_ZN4Gyro9calibrateEjb+0x1e>
    14aa:	56 c0       	rjmp	.+172    	; 0x1558 <_ZN4Gyro9calibrateEjb+0xca>
    14ac:	80 e0       	ldi	r24, 0x00	; 0
    14ae:	90 e0       	ldi	r25, 0x00	; 0
    14b0:	a0 e0       	ldi	r26, 0x00	; 0
    14b2:	b0 e0       	ldi	r27, 0x00	; 0
    14b4:	8d 83       	std	Y+5, r24	; 0x05
    14b6:	9e 83       	std	Y+6, r25	; 0x06
    14b8:	af 83       	std	Y+7, r26	; 0x07
    14ba:	b8 87       	std	Y+8, r27	; 0x08
    14bc:	cc 24       	eor	r12, r12
    14be:	dd 24       	eor	r13, r13
    14c0:	3a c0       	rjmp	.+116    	; 0x1536 <_ZN4Gyro9calibrateEjb+0xa8>
    14c2:	8a 81       	ldd	r24, Y+2	; 0x02
    14c4:	88 23       	and	r24, r24
    14c6:	61 f0       	breq	.+24     	; 0x14e0 <_ZN4Gyro9calibrateEjb+0x52>
    14c8:	88 81       	ld	r24, Y
    14ca:	99 81       	ldd	r25, Y+1	; 0x01
    14cc:	6b 81       	ldd	r22, Y+3	; 0x03
    14ce:	0e 94 c9 0c 	call	0x1992	; 0x1992 <_ZN10CD74HC40677readADCEh>
    14d2:	8c 01       	movw	r16, r24
    14d4:	88 81       	ld	r24, Y
    14d6:	99 81       	ldd	r25, Y+1	; 0x01
    14d8:	6c 81       	ldd	r22, Y+4	; 0x04
    14da:	0e 94 c9 0c 	call	0x1992	; 0x1992 <_ZN10CD74HC40677readADCEh>
    14de:	07 c0       	rjmp	.+14     	; 0x14ee <_ZN4Gyro9calibrateEjb+0x60>
    14e0:	8b 81       	ldd	r24, Y+3	; 0x03
    14e2:	0e 94 22 16 	call	0x2c44	; 0x2c44 <analogRead>
    14e6:	8c 01       	movw	r16, r24
    14e8:	8c 81       	ldd	r24, Y+4	; 0x04
    14ea:	0e 94 22 16 	call	0x2c44	; 0x2c44 <analogRead>
    14ee:	08 1b       	sub	r16, r24
    14f0:	19 0b       	sbc	r17, r25
    14f2:	b8 01       	movw	r22, r16
    14f4:	88 27       	eor	r24, r24
    14f6:	77 fd       	sbrc	r23, 7
    14f8:	80 95       	com	r24
    14fa:	98 2f       	mov	r25, r24
    14fc:	0e 94 77 05 	call	0xaee	; 0xaee <__floatsisf>
    1500:	29 85       	ldd	r18, Y+9	; 0x09
    1502:	3a 85       	ldd	r19, Y+10	; 0x0a
    1504:	4b 85       	ldd	r20, Y+11	; 0x0b
    1506:	5c 85       	ldd	r21, Y+12	; 0x0c
    1508:	0e 94 df 02 	call	0x5be	; 0x5be <__mulsf3>
    150c:	9b 01       	movw	r18, r22
    150e:	ac 01       	movw	r20, r24
    1510:	6d 81       	ldd	r22, Y+5	; 0x05
    1512:	7e 81       	ldd	r23, Y+6	; 0x06
    1514:	8f 81       	ldd	r24, Y+7	; 0x07
    1516:	98 85       	ldd	r25, Y+8	; 0x08
    1518:	0e 94 81 02 	call	0x502	; 0x502 <__addsf3>
    151c:	6d 83       	std	Y+5, r22	; 0x05
    151e:	7e 83       	std	Y+6, r23	; 0x06
    1520:	8f 83       	std	Y+7, r24	; 0x07
    1522:	98 87       	std	Y+8, r25	; 0x08
    1524:	61 e0       	ldi	r22, 0x01	; 1
    1526:	70 e0       	ldi	r23, 0x00	; 0
    1528:	80 e0       	ldi	r24, 0x00	; 0
    152a:	90 e0       	ldi	r25, 0x00	; 0
    152c:	0e 94 9a 15 	call	0x2b34	; 0x2b34 <delay>
    1530:	08 94       	sec
    1532:	c1 1c       	adc	r12, r1
    1534:	d1 1c       	adc	r13, r1
    1536:	ce 14       	cp	r12, r14
    1538:	df 04       	cpc	r13, r15
    153a:	18 f2       	brcs	.-122    	; 0x14c2 <_ZN4Gyro9calibrateEjb+0x34>
    153c:	b7 01       	movw	r22, r14
    153e:	80 e0       	ldi	r24, 0x00	; 0
    1540:	90 e0       	ldi	r25, 0x00	; 0
    1542:	0e 94 29 06 	call	0xc52	; 0xc52 <__floatunsisf>
    1546:	9b 01       	movw	r18, r22
    1548:	ac 01       	movw	r20, r24
    154a:	6d 81       	ldd	r22, Y+5	; 0x05
    154c:	7e 81       	ldd	r23, Y+6	; 0x06
    154e:	8f 81       	ldd	r24, Y+7	; 0x07
    1550:	98 85       	ldd	r25, Y+8	; 0x08
    1552:	0e 94 d9 03 	call	0x7b2	; 0x7b2 <__divsf3>
    1556:	4f c0       	rjmp	.+158    	; 0x15f6 <_ZN4Gyro9calibrateEjb+0x168>
    1558:	80 e0       	ldi	r24, 0x00	; 0
    155a:	90 e0       	ldi	r25, 0x00	; 0
    155c:	0e 94 29 06 	call	0xc52	; 0xc52 <__floatunsisf>
    1560:	5b 01       	movw	r10, r22
    1562:	6c 01       	movw	r12, r24
    1564:	08 94       	sec
    1566:	e1 08       	sbc	r14, r1
    1568:	f1 08       	sbc	r15, r1
    156a:	b7 01       	movw	r22, r14
    156c:	80 e0       	ldi	r24, 0x00	; 0
    156e:	90 e0       	ldi	r25, 0x00	; 0
    1570:	0e 94 29 06 	call	0xc52	; 0xc52 <__floatunsisf>
    1574:	a6 01       	movw	r20, r12
    1576:	95 01       	movw	r18, r10
    1578:	0e 94 d9 03 	call	0x7b2	; 0x7b2 <__divsf3>
    157c:	9b 01       	movw	r18, r22
    157e:	ac 01       	movw	r20, r24
    1580:	6d 81       	ldd	r22, Y+5	; 0x05
    1582:	7e 81       	ldd	r23, Y+6	; 0x06
    1584:	8f 81       	ldd	r24, Y+7	; 0x07
    1586:	98 85       	ldd	r25, Y+8	; 0x08
    1588:	0e 94 df 02 	call	0x5be	; 0x5be <__mulsf3>
    158c:	6d 83       	std	Y+5, r22	; 0x05
    158e:	7e 83       	std	Y+6, r23	; 0x06
    1590:	8f 83       	std	Y+7, r24	; 0x07
    1592:	98 87       	std	Y+8, r25	; 0x08
    1594:	8a 81       	ldd	r24, Y+2	; 0x02
    1596:	88 23       	and	r24, r24
    1598:	61 f0       	breq	.+24     	; 0x15b2 <_ZN4Gyro9calibrateEjb+0x124>
    159a:	88 81       	ld	r24, Y
    159c:	99 81       	ldd	r25, Y+1	; 0x01
    159e:	6b 81       	ldd	r22, Y+3	; 0x03
    15a0:	0e 94 c9 0c 	call	0x1992	; 0x1992 <_ZN10CD74HC40677readADCEh>
    15a4:	8c 01       	movw	r16, r24
    15a6:	88 81       	ld	r24, Y
    15a8:	99 81       	ldd	r25, Y+1	; 0x01
    15aa:	6c 81       	ldd	r22, Y+4	; 0x04
    15ac:	0e 94 c9 0c 	call	0x1992	; 0x1992 <_ZN10CD74HC40677readADCEh>
    15b0:	07 c0       	rjmp	.+14     	; 0x15c0 <_ZN4Gyro9calibrateEjb+0x132>
    15b2:	8b 81       	ldd	r24, Y+3	; 0x03
    15b4:	0e 94 22 16 	call	0x2c44	; 0x2c44 <analogRead>
    15b8:	8c 01       	movw	r16, r24
    15ba:	8c 81       	ldd	r24, Y+4	; 0x04
    15bc:	0e 94 22 16 	call	0x2c44	; 0x2c44 <analogRead>
    15c0:	08 1b       	sub	r16, r24
    15c2:	19 0b       	sbc	r17, r25
    15c4:	b8 01       	movw	r22, r16
    15c6:	88 27       	eor	r24, r24
    15c8:	77 fd       	sbrc	r23, 7
    15ca:	80 95       	com	r24
    15cc:	98 2f       	mov	r25, r24
    15ce:	0e 94 77 05 	call	0xaee	; 0xaee <__floatsisf>
    15d2:	29 85       	ldd	r18, Y+9	; 0x09
    15d4:	3a 85       	ldd	r19, Y+10	; 0x0a
    15d6:	4b 85       	ldd	r20, Y+11	; 0x0b
    15d8:	5c 85       	ldd	r21, Y+12	; 0x0c
    15da:	0e 94 df 02 	call	0x5be	; 0x5be <__mulsf3>
    15de:	a6 01       	movw	r20, r12
    15e0:	95 01       	movw	r18, r10
    15e2:	0e 94 d9 03 	call	0x7b2	; 0x7b2 <__divsf3>
    15e6:	9b 01       	movw	r18, r22
    15e8:	ac 01       	movw	r20, r24
    15ea:	6d 81       	ldd	r22, Y+5	; 0x05
    15ec:	7e 81       	ldd	r23, Y+6	; 0x06
    15ee:	8f 81       	ldd	r24, Y+7	; 0x07
    15f0:	98 85       	ldd	r25, Y+8	; 0x08
    15f2:	0e 94 81 02 	call	0x502	; 0x502 <__addsf3>
    15f6:	6d 83       	std	Y+5, r22	; 0x05
    15f8:	7e 83       	std	Y+6, r23	; 0x06
    15fa:	8f 83       	std	Y+7, r24	; 0x07
    15fc:	98 87       	std	Y+8, r25	; 0x08
    15fe:	df 91       	pop	r29
    1600:	cf 91       	pop	r28
    1602:	1f 91       	pop	r17
    1604:	0f 91       	pop	r16
    1606:	ff 90       	pop	r15
    1608:	ef 90       	pop	r14
    160a:	df 90       	pop	r13
    160c:	cf 90       	pop	r12
    160e:	bf 90       	pop	r11
    1610:	af 90       	pop	r10
    1612:	08 95       	ret

00001614 <_ZN4GyroC1Ehhf>:
    1614:	ef 92       	push	r14
    1616:	ff 92       	push	r15
    1618:	0f 93       	push	r16
    161a:	1f 93       	push	r17
    161c:	7c 01       	movw	r14, r24
    161e:	86 2f       	mov	r24, r22
    1620:	f7 01       	movw	r30, r14
    1622:	63 83       	std	Z+3, r22	; 0x03
    1624:	44 83       	std	Z+4, r20	; 0x04
    1626:	01 87       	std	Z+9, r16	; 0x09
    1628:	12 87       	std	Z+10, r17	; 0x0a
    162a:	23 87       	std	Z+11, r18	; 0x0b
    162c:	34 87       	std	Z+12, r19	; 0x0c
    162e:	12 82       	std	Z+2, r1	; 0x02
    1630:	60 e0       	ldi	r22, 0x00	; 0
    1632:	0e 94 56 16 	call	0x2cac	; 0x2cac <pinMode>
    1636:	f7 01       	movw	r30, r14
    1638:	84 81       	ldd	r24, Z+4	; 0x04
    163a:	60 e0       	ldi	r22, 0x00	; 0
    163c:	0e 94 56 16 	call	0x2cac	; 0x2cac <pinMode>
    1640:	f7 01       	movw	r30, r14
    1642:	83 81       	ldd	r24, Z+3	; 0x03
    1644:	60 e0       	ldi	r22, 0x00	; 0
    1646:	0e 94 7c 16 	call	0x2cf8	; 0x2cf8 <digitalWrite>
    164a:	f7 01       	movw	r30, r14
    164c:	84 81       	ldd	r24, Z+4	; 0x04
    164e:	60 e0       	ldi	r22, 0x00	; 0
    1650:	0e 94 7c 16 	call	0x2cf8	; 0x2cf8 <digitalWrite>
    1654:	1f 91       	pop	r17
    1656:	0f 91       	pop	r16
    1658:	ff 90       	pop	r15
    165a:	ef 90       	pop	r14
    165c:	08 95       	ret

0000165e <_ZN10Sabertooth5resetEv>:
    165e:	fc 01       	movw	r30, r24
    1660:	a0 81       	ld	r26, Z
    1662:	b1 81       	ldd	r27, Z+1	; 0x01
    1664:	12 96       	adiw	r26, 0x02	; 2
    1666:	2d 91       	ld	r18, X+
    1668:	3c 91       	ld	r19, X
    166a:	13 97       	sbiw	r26, 0x03	; 3
    166c:	6a ea       	ldi	r22, 0xAA	; 170
    166e:	f9 01       	movw	r30, r18
    1670:	19 95       	eicall
    1672:	08 95       	ret

00001674 <_ZN10Sabertooth10sendPacketEhh>:
    1674:	ef 92       	push	r14
    1676:	ff 92       	push	r15
    1678:	0f 93       	push	r16
    167a:	1f 93       	push	r17
    167c:	8c 01       	movw	r16, r24
    167e:	f6 2e       	mov	r15, r22
    1680:	e4 2e       	mov	r14, r20
    1682:	dc 01       	movw	r26, r24
    1684:	ed 91       	ld	r30, X+
    1686:	fc 91       	ld	r31, X
    1688:	11 97       	sbiw	r26, 0x01	; 1
    168a:	02 80       	ldd	r0, Z+2	; 0x02
    168c:	f3 81       	ldd	r31, Z+3	; 0x03
    168e:	e0 2d       	mov	r30, r0
    1690:	15 96       	adiw	r26, 0x05	; 5
    1692:	6c 91       	ld	r22, X
    1694:	19 95       	eicall
    1696:	d8 01       	movw	r26, r16
    1698:	ed 91       	ld	r30, X+
    169a:	fc 91       	ld	r31, X
    169c:	02 80       	ldd	r0, Z+2	; 0x02
    169e:	f3 81       	ldd	r31, Z+3	; 0x03
    16a0:	e0 2d       	mov	r30, r0
    16a2:	c8 01       	movw	r24, r16
    16a4:	6f 2d       	mov	r22, r15
    16a6:	19 95       	eicall
    16a8:	d8 01       	movw	r26, r16
    16aa:	ed 91       	ld	r30, X+
    16ac:	fc 91       	ld	r31, X
    16ae:	02 80       	ldd	r0, Z+2	; 0x02
    16b0:	f3 81       	ldd	r31, Z+3	; 0x03
    16b2:	e0 2d       	mov	r30, r0
    16b4:	c8 01       	movw	r24, r16
    16b6:	6e 2d       	mov	r22, r14
    16b8:	19 95       	eicall
    16ba:	d8 01       	movw	r26, r16
    16bc:	ed 91       	ld	r30, X+
    16be:	fc 91       	ld	r31, X
    16c0:	11 97       	sbiw	r26, 0x01	; 1
    16c2:	15 96       	adiw	r26, 0x05	; 5
    16c4:	8c 91       	ld	r24, X
    16c6:	f8 0e       	add	r15, r24
    16c8:	fe 0c       	add	r15, r14
    16ca:	bf e7       	ldi	r27, 0x7F	; 127
    16cc:	fb 22       	and	r15, r27
    16ce:	02 80       	ldd	r0, Z+2	; 0x02
    16d0:	f3 81       	ldd	r31, Z+3	; 0x03
    16d2:	e0 2d       	mov	r30, r0
    16d4:	c8 01       	movw	r24, r16
    16d6:	6f 2d       	mov	r22, r15
    16d8:	19 95       	eicall
    16da:	1f 91       	pop	r17
    16dc:	0f 91       	pop	r16
    16de:	ff 90       	pop	r15
    16e0:	ef 90       	pop	r14
    16e2:	08 95       	ret

000016e4 <_ZN10Sabertooth13setMotorSpeedEhh>:
    16e4:	47 fd       	sbrc	r20, 7
    16e6:	4f e7       	ldi	r20, 0x7F	; 127
    16e8:	0e 94 3a 0b 	call	0x1674	; 0x1674 <_ZN10Sabertooth10sendPacketEhh>
    16ec:	08 95       	ret

000016ee <_ZN10Sabertooth10setM1SpeedEa>:
    16ee:	fc 01       	movw	r30, r24
    16f0:	26 2f       	mov	r18, r22
    16f2:	33 27       	eor	r19, r19
    16f4:	27 fd       	sbrc	r18, 7
    16f6:	30 95       	com	r19
    16f8:	31 87       	std	Z+9, r19	; 0x09
    16fa:	20 87       	std	Z+8, r18	; 0x08
    16fc:	67 fd       	sbrc	r22, 7
    16fe:	03 c0       	rjmp	.+6      	; 0x1706 <_ZN10Sabertooth10setM1SpeedEa+0x18>
    1700:	60 e0       	ldi	r22, 0x00	; 0
    1702:	42 2f       	mov	r20, r18
    1704:	05 c0       	rjmp	.+10     	; 0x1710 <_ZN10Sabertooth10setM1SpeedEa+0x22>
    1706:	44 27       	eor	r20, r20
    1708:	55 27       	eor	r21, r21
    170a:	42 1b       	sub	r20, r18
    170c:	53 0b       	sbc	r21, r19
    170e:	61 e0       	ldi	r22, 0x01	; 1
    1710:	0e 94 72 0b 	call	0x16e4	; 0x16e4 <_ZN10Sabertooth13setMotorSpeedEhh>
    1714:	08 95       	ret

00001716 <_ZN10Sabertooth10setM2SpeedEa>:
    1716:	fc 01       	movw	r30, r24
    1718:	26 2f       	mov	r18, r22
    171a:	33 27       	eor	r19, r19
    171c:	27 fd       	sbrc	r18, 7
    171e:	30 95       	com	r19
    1720:	37 83       	std	Z+7, r19	; 0x07
    1722:	26 83       	std	Z+6, r18	; 0x06
    1724:	67 fd       	sbrc	r22, 7
    1726:	03 c0       	rjmp	.+6      	; 0x172e <_ZN10Sabertooth10setM2SpeedEa+0x18>
    1728:	64 e0       	ldi	r22, 0x04	; 4
    172a:	42 2f       	mov	r20, r18
    172c:	05 c0       	rjmp	.+10     	; 0x1738 <_ZN10Sabertooth10setM2SpeedEa+0x22>
    172e:	44 27       	eor	r20, r20
    1730:	55 27       	eor	r21, r21
    1732:	42 1b       	sub	r20, r18
    1734:	53 0b       	sbc	r21, r19
    1736:	65 e0       	ldi	r22, 0x05	; 5
    1738:	0e 94 72 0b 	call	0x16e4	; 0x16e4 <_ZN10Sabertooth13setMotorSpeedEhh>
    173c:	08 95       	ret

0000173e <_ZN10Sabertooth8setSpeedEaa>:
    173e:	ef 92       	push	r14
    1740:	ff 92       	push	r15
    1742:	0f 93       	push	r16
    1744:	1f 93       	push	r17
    1746:	8c 01       	movw	r16, r24
    1748:	f6 2e       	mov	r15, r22
    174a:	e4 2e       	mov	r14, r20
    174c:	0e 94 2f 0b 	call	0x165e	; 0x165e <_ZN10Sabertooth5resetEv>
    1750:	c8 01       	movw	r24, r16
    1752:	6f 2d       	mov	r22, r15
    1754:	0e 94 8b 0b 	call	0x1716	; 0x1716 <_ZN10Sabertooth10setM2SpeedEa>
    1758:	c8 01       	movw	r24, r16
    175a:	6e 2d       	mov	r22, r14
    175c:	0e 94 77 0b 	call	0x16ee	; 0x16ee <_ZN10Sabertooth10setM1SpeedEa>
    1760:	1f 91       	pop	r17
    1762:	0f 91       	pop	r16
    1764:	ff 90       	pop	r15
    1766:	ef 90       	pop	r14
    1768:	08 95       	ret

0000176a <_ZN10Sabertooth8setSpeedEaabb>:
    176a:	0f 93       	push	r16
    176c:	dc 01       	movw	r26, r24
    176e:	22 23       	and	r18, r18
    1770:	19 f4       	brne	.+6      	; 0x1778 <_ZN10Sabertooth8setSpeedEaabb+0xe>
    1772:	ef ef       	ldi	r30, 0xFF	; 255
    1774:	ff ef       	ldi	r31, 0xFF	; 255
    1776:	02 c0       	rjmp	.+4      	; 0x177c <_ZN10Sabertooth8setSpeedEaabb+0x12>
    1778:	e1 e0       	ldi	r30, 0x01	; 1
    177a:	f0 e0       	ldi	r31, 0x00	; 0
    177c:	00 23       	and	r16, r16
    177e:	19 f4       	brne	.+6      	; 0x1786 <_ZN10Sabertooth8setSpeedEaabb+0x1c>
    1780:	2f ef       	ldi	r18, 0xFF	; 255
    1782:	3f ef       	ldi	r19, 0xFF	; 255
    1784:	02 c0       	rjmp	.+4      	; 0x178a <_ZN10Sabertooth8setSpeedEaabb+0x20>
    1786:	21 e0       	ldi	r18, 0x01	; 1
    1788:	30 e0       	ldi	r19, 0x00	; 0
    178a:	86 2f       	mov	r24, r22
    178c:	99 27       	eor	r25, r25
    178e:	87 fd       	sbrc	r24, 7
    1790:	90 95       	com	r25
    1792:	e8 9f       	mul	r30, r24
    1794:	b0 01       	movw	r22, r0
    1796:	e9 9f       	mul	r30, r25
    1798:	70 0d       	add	r23, r0
    179a:	f8 9f       	mul	r31, r24
    179c:	70 0d       	add	r23, r0
    179e:	11 24       	eor	r1, r1
    17a0:	84 2f       	mov	r24, r20
    17a2:	99 27       	eor	r25, r25
    17a4:	87 fd       	sbrc	r24, 7
    17a6:	90 95       	com	r25
    17a8:	28 9f       	mul	r18, r24
    17aa:	a0 01       	movw	r20, r0
    17ac:	29 9f       	mul	r18, r25
    17ae:	50 0d       	add	r21, r0
    17b0:	38 9f       	mul	r19, r24
    17b2:	50 0d       	add	r21, r0
    17b4:	11 24       	eor	r1, r1
    17b6:	cd 01       	movw	r24, r26
    17b8:	0e 94 9f 0b 	call	0x173e	; 0x173e <_ZN10Sabertooth8setSpeedEaa>
    17bc:	0f 91       	pop	r16
    17be:	08 95       	ret

000017c0 <_ZN10Sabertooth8setSpeedEP10motor_data>:
    17c0:	0f 93       	push	r16
    17c2:	fb 01       	movw	r30, r22
    17c4:	20 81       	ld	r18, Z
    17c6:	31 81       	ldd	r19, Z+1	; 0x01
    17c8:	4f ef       	ldi	r20, 0xFF	; 255
    17ca:	21 38       	cpi	r18, 0x81	; 129
    17cc:	34 07       	cpc	r19, r20
    17ce:	14 f4       	brge	.+4      	; 0x17d4 <_ZN10Sabertooth8setSpeedEP10motor_data+0x14>
    17d0:	61 e8       	ldi	r22, 0x81	; 129
    17d2:	06 c0       	rjmp	.+12     	; 0x17e0 <_ZN10Sabertooth8setSpeedEP10motor_data+0x20>
    17d4:	b9 01       	movw	r22, r18
    17d6:	20 38       	cpi	r18, 0x80	; 128
    17d8:	31 05       	cpc	r19, r1
    17da:	14 f0       	brlt	.+4      	; 0x17e0 <_ZN10Sabertooth8setSpeedEP10motor_data+0x20>
    17dc:	6f e7       	ldi	r22, 0x7F	; 127
    17de:	70 e0       	ldi	r23, 0x00	; 0
    17e0:	22 81       	ldd	r18, Z+2	; 0x02
    17e2:	33 81       	ldd	r19, Z+3	; 0x03
    17e4:	4f ef       	ldi	r20, 0xFF	; 255
    17e6:	21 38       	cpi	r18, 0x81	; 129
    17e8:	34 07       	cpc	r19, r20
    17ea:	14 f4       	brge	.+4      	; 0x17f0 <_ZN10Sabertooth8setSpeedEP10motor_data+0x30>
    17ec:	41 e8       	ldi	r20, 0x81	; 129
    17ee:	06 c0       	rjmp	.+12     	; 0x17fc <_ZN10Sabertooth8setSpeedEP10motor_data+0x3c>
    17f0:	a9 01       	movw	r20, r18
    17f2:	20 38       	cpi	r18, 0x80	; 128
    17f4:	31 05       	cpc	r19, r1
    17f6:	14 f0       	brlt	.+4      	; 0x17fc <_ZN10Sabertooth8setSpeedEP10motor_data+0x3c>
    17f8:	4f e7       	ldi	r20, 0x7F	; 127
    17fa:	50 e0       	ldi	r21, 0x00	; 0
    17fc:	24 81       	ldd	r18, Z+4	; 0x04
    17fe:	05 81       	ldd	r16, Z+5	; 0x05
    1800:	0e 94 b5 0b 	call	0x176a	; 0x176a <_ZN10Sabertooth8setSpeedEaabb>
    1804:	0f 91       	pop	r16
    1806:	08 95       	ret

00001808 <_ZN10Sabertooth5writeEh>:
    1808:	0f 93       	push	r16
    180a:	1f 93       	push	r17
    180c:	cf 93       	push	r28
    180e:	df 93       	push	r29
    1810:	dc 01       	movw	r26, r24
    1812:	12 96       	adiw	r26, 0x02	; 2
    1814:	8c 91       	ld	r24, X
    1816:	12 97       	sbiw	r26, 0x02	; 2
    1818:	88 23       	and	r24, r24
    181a:	09 f0       	breq	.+2      	; 0x181e <_ZN10Sabertooth5writeEh+0x16>
    181c:	51 c0       	rjmp	.+162    	; 0x18c0 <_ZN10Sabertooth5writeEh+0xb8>
    181e:	1f b7       	in	r17, 0x3f	; 63
    1820:	f8 94       	cli
    1822:	1b 96       	adiw	r26, 0x0b	; 11
    1824:	ed 91       	ld	r30, X+
    1826:	fc 91       	ld	r31, X
    1828:	1c 97       	sbiw	r26, 0x0c	; 12
    182a:	90 81       	ld	r25, Z
    182c:	1a 96       	adiw	r26, 0x0a	; 10
    182e:	8c 91       	ld	r24, X
    1830:	1a 97       	sbiw	r26, 0x0a	; 10
    1832:	80 95       	com	r24
    1834:	89 23       	and	r24, r25
    1836:	80 83       	st	Z, r24
    1838:	87 e7       	ldi	r24, 0x77	; 119
    183a:	90 e0       	ldi	r25, 0x00	; 0
    183c:	20 e0       	ldi	r18, 0x00	; 0
    183e:	01 97       	sbiw	r24, 0x01	; 1
    1840:	2f ef       	ldi	r18, 0xFF	; 255
    1842:	8f 3f       	cpi	r24, 0xFF	; 255
    1844:	92 07       	cpc	r25, r18
    1846:	d9 f7       	brne	.-10     	; 0x183e <_ZN10Sabertooth5writeEh+0x36>
    1848:	31 e0       	ldi	r19, 0x01	; 1
    184a:	40 e0       	ldi	r20, 0x00	; 0
    184c:	50 e0       	ldi	r21, 0x00	; 0
    184e:	70 e0       	ldi	r23, 0x00	; 0
    1850:	c2 e7       	ldi	r28, 0x72	; 114
    1852:	d0 e0       	ldi	r29, 0x00	; 0
    1854:	00 e0       	ldi	r16, 0x00	; 0
    1856:	83 2f       	mov	r24, r19
    1858:	90 e0       	ldi	r25, 0x00	; 0
    185a:	86 23       	and	r24, r22
    185c:	97 23       	and	r25, r23
    185e:	1b 96       	adiw	r26, 0x0b	; 11
    1860:	ed 91       	ld	r30, X+
    1862:	fc 91       	ld	r31, X
    1864:	1c 97       	sbiw	r26, 0x0c	; 12
    1866:	1a 96       	adiw	r26, 0x0a	; 10
    1868:	2c 91       	ld	r18, X
    186a:	1a 97       	sbiw	r26, 0x0a	; 10
    186c:	89 2b       	or	r24, r25
    186e:	21 f0       	breq	.+8      	; 0x1878 <_ZN10Sabertooth5writeEh+0x70>
    1870:	80 81       	ld	r24, Z
    1872:	82 2b       	or	r24, r18
    1874:	80 83       	st	Z, r24
    1876:	04 c0       	rjmp	.+8      	; 0x1880 <_ZN10Sabertooth5writeEh+0x78>
    1878:	80 81       	ld	r24, Z
    187a:	20 95       	com	r18
    187c:	28 23       	and	r18, r24
    187e:	20 83       	st	Z, r18
    1880:	ce 01       	movw	r24, r28
    1882:	20 2f       	mov	r18, r16
    1884:	01 97       	sbiw	r24, 0x01	; 1
    1886:	2f ef       	ldi	r18, 0xFF	; 255
    1888:	8f 3f       	cpi	r24, 0xFF	; 255
    188a:	92 07       	cpc	r25, r18
    188c:	d9 f7       	brne	.-10     	; 0x1884 <_ZN10Sabertooth5writeEh+0x7c>
    188e:	33 0f       	add	r19, r19
    1890:	4f 5f       	subi	r20, 0xFF	; 255
    1892:	5f 4f       	sbci	r21, 0xFF	; 255
    1894:	48 30       	cpi	r20, 0x08	; 8
    1896:	51 05       	cpc	r21, r1
    1898:	f1 f6       	brne	.-68     	; 0x1856 <_ZN10Sabertooth5writeEh+0x4e>
    189a:	1b 96       	adiw	r26, 0x0b	; 11
    189c:	ed 91       	ld	r30, X+
    189e:	fc 91       	ld	r31, X
    18a0:	1c 97       	sbiw	r26, 0x0c	; 12
    18a2:	80 81       	ld	r24, Z
    18a4:	1a 96       	adiw	r26, 0x0a	; 10
    18a6:	9c 91       	ld	r25, X
    18a8:	89 2b       	or	r24, r25
    18aa:	80 83       	st	Z, r24
    18ac:	1f bf       	out	0x3f, r17	; 63
    18ae:	82 e7       	ldi	r24, 0x72	; 114
    18b0:	90 e0       	ldi	r25, 0x00	; 0
    18b2:	20 e0       	ldi	r18, 0x00	; 0
    18b4:	01 97       	sbiw	r24, 0x01	; 1
    18b6:	2f ef       	ldi	r18, 0xFF	; 255
    18b8:	8f 3f       	cpi	r24, 0xFF	; 255
    18ba:	92 07       	cpc	r25, r18
    18bc:	d9 f7       	brne	.-10     	; 0x18b4 <_ZN10Sabertooth5writeEh+0xac>
    18be:	0b c0       	rjmp	.+22     	; 0x18d6 <_ZN10Sabertooth5writeEh+0xce>
    18c0:	13 96       	adiw	r26, 0x03	; 3
    18c2:	ed 91       	ld	r30, X+
    18c4:	fc 91       	ld	r31, X
    18c6:	14 97       	sbiw	r26, 0x04	; 4
    18c8:	a0 81       	ld	r26, Z
    18ca:	b1 81       	ldd	r27, Z+1	; 0x01
    18cc:	2d 91       	ld	r18, X+
    18ce:	3c 91       	ld	r19, X
    18d0:	cf 01       	movw	r24, r30
    18d2:	f9 01       	movw	r30, r18
    18d4:	19 95       	eicall
    18d6:	df 91       	pop	r29
    18d8:	cf 91       	pop	r28
    18da:	1f 91       	pop	r17
    18dc:	0f 91       	pop	r16
    18de:	08 95       	ret

000018e0 <_ZN10SabertoothC1EhP14HardwareSerial>:
    18e0:	0f 93       	push	r16
    18e2:	1f 93       	push	r17
    18e4:	8c 01       	movw	r16, r24
    18e6:	ca 01       	movw	r24, r20
    18e8:	2d e0       	ldi	r18, 0x0D	; 13
    18ea:	33 e0       	ldi	r19, 0x03	; 3
    18ec:	f8 01       	movw	r30, r16
    18ee:	31 83       	std	Z+1, r19	; 0x01
    18f0:	20 83       	st	Z, r18
    18f2:	54 83       	std	Z+4, r21	; 0x04
    18f4:	43 83       	std	Z+3, r20	; 0x03
    18f6:	65 83       	std	Z+5, r22	; 0x05
    18f8:	21 e0       	ldi	r18, 0x01	; 1
    18fa:	22 83       	std	Z+2, r18	; 0x02
    18fc:	40 e0       	ldi	r20, 0x00	; 0
    18fe:	5b e4       	ldi	r21, 0x4B	; 75
    1900:	60 e0       	ldi	r22, 0x00	; 0
    1902:	70 e0       	ldi	r23, 0x00	; 0
    1904:	0e 94 64 10 	call	0x20c8	; 0x20c8 <_ZN14HardwareSerial5beginEl>
    1908:	c8 01       	movw	r24, r16
    190a:	0e 94 2f 0b 	call	0x165e	; 0x165e <_ZN10Sabertooth5resetEv>
    190e:	1f 91       	pop	r17
    1910:	0f 91       	pop	r16
    1912:	08 95       	ret

00001914 <_ZN10CD74HC40676setMuxEh>:
    1914:	af 92       	push	r10
    1916:	bf 92       	push	r11
    1918:	cf 92       	push	r12
    191a:	df 92       	push	r13
    191c:	ef 92       	push	r14
    191e:	ff 92       	push	r15
    1920:	0f 93       	push	r16
    1922:	1f 93       	push	r17
    1924:	df 93       	push	r29
    1926:	cf 93       	push	r28
    1928:	0f 92       	push	r0
    192a:	cd b7       	in	r28, 0x3d	; 61
    192c:	de b7       	in	r29, 0x3e	; 62
    192e:	8c 01       	movw	r16, r24
    1930:	96 2f       	mov	r25, r22
    1932:	60 31       	cpi	r22, 0x10	; 16
    1934:	08 f0       	brcs	.+2      	; 0x1938 <_ZN10CD74HC40676setMuxEh+0x24>
    1936:	9f e0       	ldi	r25, 0x0F	; 15
    1938:	f8 01       	movw	r30, r16
    193a:	85 81       	ldd	r24, Z+5	; 0x05
    193c:	98 17       	cp	r25, r24
    193e:	d9 f0       	breq	.+54     	; 0x1976 <_ZN10CD74HC40676setMuxEh+0x62>
    1940:	78 01       	movw	r14, r16
    1942:	aa 24       	eor	r10, r10
    1944:	bb 24       	eor	r11, r11
    1946:	c9 2e       	mov	r12, r25
    1948:	dd 24       	eor	r13, r13
    194a:	b6 01       	movw	r22, r12
    194c:	0a 2c       	mov	r0, r10
    194e:	02 c0       	rjmp	.+4      	; 0x1954 <_ZN10CD74HC40676setMuxEh+0x40>
    1950:	75 95       	asr	r23
    1952:	67 95       	ror	r22
    1954:	0a 94       	dec	r0
    1956:	e2 f7       	brpl	.-8      	; 0x1950 <_ZN10CD74HC40676setMuxEh+0x3c>
    1958:	61 70       	andi	r22, 0x01	; 1
    195a:	f7 01       	movw	r30, r14
    195c:	81 91       	ld	r24, Z+
    195e:	7f 01       	movw	r14, r30
    1960:	99 83       	std	Y+1, r25	; 0x01
    1962:	0e 94 7c 16 	call	0x2cf8	; 0x2cf8 <digitalWrite>
    1966:	08 94       	sec
    1968:	a1 1c       	adc	r10, r1
    196a:	b1 1c       	adc	r11, r1
    196c:	99 81       	ldd	r25, Y+1	; 0x01
    196e:	f4 e0       	ldi	r31, 0x04	; 4
    1970:	af 16       	cp	r10, r31
    1972:	b1 04       	cpc	r11, r1
    1974:	51 f7       	brne	.-44     	; 0x194a <_ZN10CD74HC40676setMuxEh+0x36>
    1976:	f8 01       	movw	r30, r16
    1978:	95 83       	std	Z+5, r25	; 0x05
    197a:	0f 90       	pop	r0
    197c:	cf 91       	pop	r28
    197e:	df 91       	pop	r29
    1980:	1f 91       	pop	r17
    1982:	0f 91       	pop	r16
    1984:	ff 90       	pop	r15
    1986:	ef 90       	pop	r14
    1988:	df 90       	pop	r13
    198a:	cf 90       	pop	r12
    198c:	bf 90       	pop	r11
    198e:	af 90       	pop	r10
    1990:	08 95       	ret

00001992 <_ZN10CD74HC40677readADCEh>:
    1992:	0f 93       	push	r16
    1994:	1f 93       	push	r17
    1996:	8c 01       	movw	r16, r24
    1998:	0e 94 8a 0c 	call	0x1914	; 0x1914 <_ZN10CD74HC40676setMuxEh>
    199c:	f8 01       	movw	r30, r16
    199e:	84 81       	ldd	r24, Z+4	; 0x04
    19a0:	0e 94 22 16 	call	0x2c44	; 0x2c44 <analogRead>
    19a4:	1f 91       	pop	r17
    19a6:	0f 91       	pop	r16
    19a8:	08 95       	ret

000019aa <_ZN7Encoder5countEP12encoder_data>:
    19aa:	cf 93       	push	r28
    19ac:	df 93       	push	r29
    19ae:	ec 01       	movw	r28, r24
    19b0:	28 81       	ld	r18, Y
    19b2:	39 81       	ldd	r19, Y+1	; 0x01
    19b4:	4a 81       	ldd	r20, Y+2	; 0x02
    19b6:	5b 81       	ldd	r21, Y+3	; 0x03
    19b8:	88 89       	ldd	r24, Y+16	; 0x10
    19ba:	88 23       	and	r24, r24
    19bc:	29 f0       	breq	.+10     	; 0x19c8 <_ZN7Encoder5countEP12encoder_data+0x1e>
    19be:	81 e0       	ldi	r24, 0x01	; 1
    19c0:	90 e0       	ldi	r25, 0x00	; 0
    19c2:	a0 e0       	ldi	r26, 0x00	; 0
    19c4:	b0 e0       	ldi	r27, 0x00	; 0
    19c6:	04 c0       	rjmp	.+8      	; 0x19d0 <_ZN7Encoder5countEP12encoder_data+0x26>
    19c8:	8f ef       	ldi	r24, 0xFF	; 255
    19ca:	9f ef       	ldi	r25, 0xFF	; 255
    19cc:	af ef       	ldi	r26, 0xFF	; 255
    19ce:	bf ef       	ldi	r27, 0xFF	; 255
    19d0:	82 0f       	add	r24, r18
    19d2:	93 1f       	adc	r25, r19
    19d4:	a4 1f       	adc	r26, r20
    19d6:	b5 1f       	adc	r27, r21
    19d8:	88 83       	st	Y, r24
    19da:	99 83       	std	Y+1, r25	; 0x01
    19dc:	aa 83       	std	Y+2, r26	; 0x02
    19de:	bb 83       	std	Y+3, r27	; 0x03
    19e0:	88 85       	ldd	r24, Y+8	; 0x08
    19e2:	99 85       	ldd	r25, Y+9	; 0x09
    19e4:	aa 85       	ldd	r26, Y+10	; 0x0a
    19e6:	bb 85       	ldd	r27, Y+11	; 0x0b
    19e8:	8c 87       	std	Y+12, r24	; 0x0c
    19ea:	9d 87       	std	Y+13, r25	; 0x0d
    19ec:	ae 87       	std	Y+14, r26	; 0x0e
    19ee:	bf 87       	std	Y+15, r27	; 0x0f
    19f0:	0e 94 74 15 	call	0x2ae8	; 0x2ae8 <micros>
    19f4:	68 87       	std	Y+8, r22	; 0x08
    19f6:	79 87       	std	Y+9, r23	; 0x09
    19f8:	8a 87       	std	Y+10, r24	; 0x0a
    19fa:	9b 87       	std	Y+11, r25	; 0x0b
    19fc:	df 91       	pop	r29
    19fe:	cf 91       	pop	r28
    1a00:	08 95       	ret

00001a02 <_Z11rEncHandlerv>:
    1a02:	89 b1       	in	r24, 0x09	; 9
    1a04:	80 95       	com	r24
    1a06:	81 70       	andi	r24, 0x01	; 1
    1a08:	80 93 c3 03 	sts	0x03C3, r24
    1a0c:	83 eb       	ldi	r24, 0xB3	; 179
    1a0e:	93 e0       	ldi	r25, 0x03	; 3
    1a10:	0e 94 d5 0c 	call	0x19aa	; 0x19aa <_ZN7Encoder5countEP12encoder_data>
    1a14:	08 95       	ret

00001a16 <_Z11lEncHandlerv>:
    1a16:	81 e0       	ldi	r24, 0x01	; 1
    1a18:	4a 99       	sbic	0x09, 2	; 9
    1a1a:	80 e0       	ldi	r24, 0x00	; 0
    1a1c:	80 93 aa 03 	sts	0x03AA, r24
    1a20:	8a e9       	ldi	r24, 0x9A	; 154
    1a22:	93 e0       	ldi	r25, 0x03	; 3
    1a24:	0e 94 d5 0c 	call	0x19aa	; 0x19aa <_ZN7Encoder5countEP12encoder_data>
    1a28:	08 95       	ret

00001a2a <_ZN7Encoder6updateEP12encoder_dataf>:
    1a2a:	ef 92       	push	r14
    1a2c:	ff 92       	push	r15
    1a2e:	0f 93       	push	r16
    1a30:	1f 93       	push	r17
    1a32:	cf 93       	push	r28
    1a34:	df 93       	push	r29
    1a36:	ec 01       	movw	r28, r24
    1a38:	7a 01       	movw	r14, r20
    1a3a:	8b 01       	movw	r16, r22
    1a3c:	68 81       	ld	r22, Y
    1a3e:	79 81       	ldd	r23, Y+1	; 0x01
    1a40:	8a 81       	ldd	r24, Y+2	; 0x02
    1a42:	9b 81       	ldd	r25, Y+3	; 0x03
    1a44:	2c 81       	ldd	r18, Y+4	; 0x04
    1a46:	3d 81       	ldd	r19, Y+5	; 0x05
    1a48:	4e 81       	ldd	r20, Y+6	; 0x06
    1a4a:	5f 81       	ldd	r21, Y+7	; 0x07
    1a4c:	62 1b       	sub	r22, r18
    1a4e:	73 0b       	sbc	r23, r19
    1a50:	84 0b       	sbc	r24, r20
    1a52:	95 0b       	sbc	r25, r21
    1a54:	0e 94 77 05 	call	0xaee	; 0xaee <__floatsisf>
    1a58:	2d 89       	ldd	r18, Y+21	; 0x15
    1a5a:	3e 89       	ldd	r19, Y+22	; 0x16
    1a5c:	4f 89       	ldd	r20, Y+23	; 0x17
    1a5e:	58 8d       	ldd	r21, Y+24	; 0x18
    1a60:	0e 94 df 02 	call	0x5be	; 0x5be <__mulsf3>
    1a64:	a8 01       	movw	r20, r16
    1a66:	97 01       	movw	r18, r14
    1a68:	0e 94 d9 03 	call	0x7b2	; 0x7b2 <__divsf3>
    1a6c:	9b 01       	movw	r18, r22
    1a6e:	ac 01       	movw	r20, r24
    1a70:	29 8b       	std	Y+17, r18	; 0x11
    1a72:	3a 8b       	std	Y+18, r19	; 0x12
    1a74:	4b 8b       	std	Y+19, r20	; 0x13
    1a76:	5c 8b       	std	Y+20, r21	; 0x14
    1a78:	88 81       	ld	r24, Y
    1a7a:	99 81       	ldd	r25, Y+1	; 0x01
    1a7c:	aa 81       	ldd	r26, Y+2	; 0x02
    1a7e:	bb 81       	ldd	r27, Y+3	; 0x03
    1a80:	8c 83       	std	Y+4, r24	; 0x04
    1a82:	9d 83       	std	Y+5, r25	; 0x05
    1a84:	ae 83       	std	Y+6, r26	; 0x06
    1a86:	bf 83       	std	Y+7, r27	; 0x07
    1a88:	df 91       	pop	r29
    1a8a:	cf 91       	pop	r28
    1a8c:	1f 91       	pop	r17
    1a8e:	0f 91       	pop	r16
    1a90:	ff 90       	pop	r15
    1a92:	ef 90       	pop	r14
    1a94:	08 95       	ret

00001a96 <_ZN12control_dataC1Ev>:
    1a96:	cf 93       	push	r28
    1a98:	df 93       	push	r29
    1a9a:	ec 01       	movw	r28, r24
    1a9c:	0e 94 d4 09 	call	0x13a8	; 0x13a8 <_ZN7BatteryC1Ev>
    1aa0:	ce 01       	movw	r24, r28
    1aa2:	0d 96       	adiw	r24, 0x0d	; 13
    1aa4:	0e 94 0d 17 	call	0x2e1a	; 0x2e1a <_ZN5ServoC1Ev>
    1aa8:	ce 01       	movw	r24, r28
    1aaa:	40 96       	adiw	r24, 0x10	; 16
    1aac:	0e 94 0d 17 	call	0x2e1a	; 0x2e1a <_ZN5ServoC1Ev>
    1ab0:	df 91       	pop	r29
    1ab2:	cf 91       	pop	r28
    1ab4:	08 95       	ret

00001ab6 <main>:
    1ab6:	af 92       	push	r10
    1ab8:	bf 92       	push	r11
    1aba:	cf 92       	push	r12
    1abc:	df 92       	push	r13
    1abe:	ef 92       	push	r14
    1ac0:	ff 92       	push	r15
    1ac2:	0f 93       	push	r16
    1ac4:	1f 93       	push	r17
    1ac6:	df 93       	push	r29
    1ac8:	cf 93       	push	r28
    1aca:	00 d0       	rcall	.+0      	; 0x1acc <main+0x16>
    1acc:	0f 92       	push	r0
    1ace:	cd b7       	in	r28, 0x3d	; 61
    1ad0:	de b7       	in	r29, 0x3e	; 62
    1ad2:	0e 94 c0 15 	call	0x2b80	; 0x2b80 <init>
    1ad6:	80 e0       	ldi	r24, 0x00	; 0
    1ad8:	96 e0       	ldi	r25, 0x06	; 6
    1ada:	40 e0       	ldi	r20, 0x00	; 0
    1adc:	52 ec       	ldi	r21, 0xC2	; 194
    1ade:	61 e0       	ldi	r22, 0x01	; 1
    1ae0:	70 e0       	ldi	r23, 0x00	; 0
    1ae2:	0e 94 64 10 	call	0x20c8	; 0x20c8 <_ZN14HardwareSerial5beginEl>
    1ae6:	87 e3       	ldi	r24, 0x37	; 55
    1ae8:	93 e0       	ldi	r25, 0x03	; 3
    1aea:	60 e0       	ldi	r22, 0x00	; 0
    1aec:	70 e0       	ldi	r23, 0x00	; 0
    1aee:	4a e0       	ldi	r20, 0x0A	; 10
    1af0:	2b e0       	ldi	r18, 0x0B	; 11
    1af2:	0e 94 a4 09 	call	0x1348	; 0x1348 <_ZN7Battery3setEP10CD74HC4067hh>
    1af6:	84 e4       	ldi	r24, 0x44	; 68
    1af8:	93 e0       	ldi	r25, 0x03	; 3
    1afa:	6a e5       	ldi	r22, 0x5A	; 90
    1afc:	70 e0       	ldi	r23, 0x00	; 0
    1afe:	0e 94 6e 17 	call	0x2edc	; 0x2edc <_ZN5Servo5writeEi>
    1b02:	84 e4       	ldi	r24, 0x44	; 68
    1b04:	93 e0       	ldi	r25, 0x03	; 3
    1b06:	66 e1       	ldi	r22, 0x16	; 22
    1b08:	70 e0       	ldi	r23, 0x00	; 0
    1b0a:	0e 94 82 18 	call	0x3104	; 0x3104 <_ZN5Servo6attachEi>
    1b0e:	87 e4       	ldi	r24, 0x47	; 71
    1b10:	93 e0       	ldi	r25, 0x03	; 3
    1b12:	6a e5       	ldi	r22, 0x5A	; 90
    1b14:	70 e0       	ldi	r23, 0x00	; 0
    1b16:	0e 94 6e 17 	call	0x2edc	; 0x2edc <_ZN5Servo5writeEi>
    1b1a:	87 e4       	ldi	r24, 0x47	; 71
    1b1c:	93 e0       	ldi	r25, 0x03	; 3
    1b1e:	67 e1       	ldi	r22, 0x17	; 23
    1b20:	70 e0       	ldi	r23, 0x00	; 0
    1b22:	0e 94 82 18 	call	0x3104	; 0x3104 <_ZN5Servo6attachEi>
    1b26:	0f 2e       	mov	r0, r31
    1b28:	fa e9       	ldi	r31, 0x9A	; 154
    1b2a:	ef 2e       	mov	r14, r31
    1b2c:	f9 e9       	ldi	r31, 0x99	; 153
    1b2e:	ff 2e       	mov	r15, r31
    1b30:	f9 e1       	ldi	r31, 0x19	; 25
    1b32:	0f 2f       	mov	r16, r31
    1b34:	ff e3       	ldi	r31, 0x3F	; 63
    1b36:	1f 2f       	mov	r17, r31
    1b38:	f0 2d       	mov	r31, r0
    1b3a:	e0 92 62 03 	sts	0x0362, r14
    1b3e:	f0 92 63 03 	sts	0x0363, r15
    1b42:	00 93 64 03 	sts	0x0364, r16
    1b46:	10 93 65 03 	sts	0x0365, r17
    1b4a:	2d ec       	ldi	r18, 0xCD	; 205
    1b4c:	3c ec       	ldi	r19, 0xCC	; 204
    1b4e:	4c ec       	ldi	r20, 0xCC	; 204
    1b50:	5d e3       	ldi	r21, 0x3D	; 61
    1b52:	20 93 66 03 	sts	0x0366, r18
    1b56:	30 93 67 03 	sts	0x0367, r19
    1b5a:	40 93 68 03 	sts	0x0368, r20
    1b5e:	50 93 69 03 	sts	0x0369, r21
    1b62:	80 e0       	ldi	r24, 0x00	; 0
    1b64:	90 e0       	ldi	r25, 0x00	; 0
    1b66:	dc 01       	movw	r26, r24
    1b68:	80 93 6a 03 	sts	0x036A, r24
    1b6c:	90 93 6b 03 	sts	0x036B, r25
    1b70:	a0 93 6c 03 	sts	0x036C, r26
    1b74:	b0 93 6d 03 	sts	0x036D, r27
    1b78:	0f 2e       	mov	r0, r31
    1b7a:	f0 e0       	ldi	r31, 0x00	; 0
    1b7c:	af 2e       	mov	r10, r31
    1b7e:	f0 e0       	ldi	r31, 0x00	; 0
    1b80:	bf 2e       	mov	r11, r31
    1b82:	fe ef       	ldi	r31, 0xFE	; 254
    1b84:	cf 2e       	mov	r12, r31
    1b86:	f2 e4       	ldi	r31, 0x42	; 66
    1b88:	df 2e       	mov	r13, r31
    1b8a:	f0 2d       	mov	r31, r0
    1b8c:	a0 92 6e 03 	sts	0x036E, r10
    1b90:	b0 92 6f 03 	sts	0x036F, r11
    1b94:	c0 92 70 03 	sts	0x0370, r12
    1b98:	d0 92 71 03 	sts	0x0371, r13
    1b9c:	e0 92 8a 03 	sts	0x038A, r14
    1ba0:	f0 92 8b 03 	sts	0x038B, r15
    1ba4:	00 93 8c 03 	sts	0x038C, r16
    1ba8:	10 93 8d 03 	sts	0x038D, r17
    1bac:	20 93 8e 03 	sts	0x038E, r18
    1bb0:	30 93 8f 03 	sts	0x038F, r19
    1bb4:	40 93 90 03 	sts	0x0390, r20
    1bb8:	50 93 91 03 	sts	0x0391, r21
    1bbc:	80 93 92 03 	sts	0x0392, r24
    1bc0:	90 93 93 03 	sts	0x0393, r25
    1bc4:	a0 93 94 03 	sts	0x0394, r26
    1bc8:	b0 93 95 03 	sts	0x0395, r27
    1bcc:	a0 92 96 03 	sts	0x0396, r10
    1bd0:	b0 92 97 03 	sts	0x0397, r11
    1bd4:	c0 92 98 03 	sts	0x0398, r12
    1bd8:	d0 92 99 03 	sts	0x0399, r13
    1bdc:	8f e6       	ldi	r24, 0x6F	; 111
    1bde:	92 e1       	ldi	r25, 0x12	; 18
    1be0:	a3 e8       	ldi	r26, 0x83	; 131
    1be2:	bb e3       	ldi	r27, 0x3B	; 59
    1be4:	80 93 af 03 	sts	0x03AF, r24
    1be8:	90 93 b0 03 	sts	0x03B0, r25
    1bec:	a0 93 b1 03 	sts	0x03B1, r26
    1bf0:	b0 93 b2 03 	sts	0x03B2, r27
    1bf4:	80 93 c8 03 	sts	0x03C8, r24
    1bf8:	90 93 c9 03 	sts	0x03C9, r25
    1bfc:	a0 93 ca 03 	sts	0x03CA, r26
    1c00:	b0 93 cb 03 	sts	0x03CB, r27
    1c04:	10 92 d0 03 	sts	0x03D0, r1
    1c08:	10 92 d1 03 	sts	0x03D1, r1
    1c0c:	84 e1       	ldi	r24, 0x14	; 20
    1c0e:	89 83       	std	Y+1, r24	; 0x01
    1c10:	85 e1       	ldi	r24, 0x15	; 21
    1c12:	8a 83       	std	Y+2, r24	; 0x02
    1c14:	82 e1       	ldi	r24, 0x12	; 18
    1c16:	8b 83       	std	Y+3, r24	; 0x03
    1c18:	83 e1       	ldi	r24, 0x13	; 19
    1c1a:	8c 83       	std	Y+4, r24	; 0x04
    1c1c:	8e 01       	movw	r16, r28
    1c1e:	0f 5f       	subi	r16, 0xFF	; 255
    1c20:	1f 4f       	sbci	r17, 0xFF	; 255
    1c22:	85 e0       	ldi	r24, 0x05	; 5
    1c24:	e8 2e       	mov	r14, r24
    1c26:	f1 2c       	mov	r15, r1
    1c28:	ec 0e       	add	r14, r28
    1c2a:	fd 1e       	adc	r15, r29
    1c2c:	f8 01       	movw	r30, r16
    1c2e:	a1 90       	ld	r10, Z+
    1c30:	8f 01       	movw	r16, r30
    1c32:	8a 2d       	mov	r24, r10
    1c34:	60 e0       	ldi	r22, 0x00	; 0
    1c36:	0e 94 56 16 	call	0x2cac	; 0x2cac <pinMode>
    1c3a:	8a 2d       	mov	r24, r10
    1c3c:	60 e0       	ldi	r22, 0x00	; 0
    1c3e:	0e 94 7c 16 	call	0x2cf8	; 0x2cf8 <digitalWrite>
    1c42:	0e 15       	cp	r16, r14
    1c44:	1f 05       	cpc	r17, r15
    1c46:	91 f7       	brne	.-28     	; 0x1c2c <main+0x176>
    1c48:	85 e0       	ldi	r24, 0x05	; 5
    1c4a:	6b e0       	ldi	r22, 0x0B	; 11
    1c4c:	7d e0       	ldi	r23, 0x0D	; 13
    1c4e:	43 e0       	ldi	r20, 0x03	; 3
    1c50:	50 e0       	ldi	r21, 0x00	; 0
    1c52:	0e 94 d1 12 	call	0x25a2	; 0x25a2 <attachInterrupt>
    1c56:	83 e0       	ldi	r24, 0x03	; 3
    1c58:	61 e0       	ldi	r22, 0x01	; 1
    1c5a:	7d e0       	ldi	r23, 0x0D	; 13
    1c5c:	43 e0       	ldi	r20, 0x03	; 3
    1c5e:	50 e0       	ldi	r21, 0x00	; 0
    1c60:	0e 94 d1 12 	call	0x25a2	; 0x25a2 <attachInterrupt>
    1c64:	86 ed       	ldi	r24, 0xD6	; 214
    1c66:	93 e0       	ldi	r25, 0x03	; 3
    1c68:	68 ee       	ldi	r22, 0xE8	; 232
    1c6a:	73 e0       	ldi	r23, 0x03	; 3
    1c6c:	40 e0       	ldi	r20, 0x00	; 0
    1c6e:	0e 94 47 0a 	call	0x148e	; 0x148e <_ZN4Gyro9calibrateEjb>
    1c72:	0e 94 66 15 	call	0x2acc	; 0x2acc <millis>
    1c76:	60 93 33 03 	sts	0x0333, r22
    1c7a:	70 93 34 03 	sts	0x0334, r23
    1c7e:	80 93 35 03 	sts	0x0335, r24
    1c82:	90 93 36 03 	sts	0x0336, r25
    1c86:	20 91 2f 03 	lds	r18, 0x032F
    1c8a:	30 91 30 03 	lds	r19, 0x0330
    1c8e:	40 91 31 03 	lds	r20, 0x0331
    1c92:	50 91 32 03 	lds	r21, 0x0332
    1c96:	62 17       	cp	r22, r18
    1c98:	73 07       	cpc	r23, r19
    1c9a:	84 07       	cpc	r24, r20
    1c9c:	95 07       	cpc	r25, r21
    1c9e:	48 f3       	brcs	.-46     	; 0x1c72 <main+0x1bc>
    1ca0:	6c 59       	subi	r22, 0x9C	; 156
    1ca2:	7f 4f       	sbci	r23, 0xFF	; 255
    1ca4:	8f 4f       	sbci	r24, 0xFF	; 255
    1ca6:	9f 4f       	sbci	r25, 0xFF	; 255
    1ca8:	62 1b       	sub	r22, r18
    1caa:	73 0b       	sbc	r23, r19
    1cac:	84 0b       	sbc	r24, r20
    1cae:	95 0b       	sbc	r25, r21
    1cb0:	0e 94 29 06 	call	0xc52	; 0xc52 <__floatunsisf>
    1cb4:	2f e6       	ldi	r18, 0x6F	; 111
    1cb6:	32 e1       	ldi	r19, 0x12	; 18
    1cb8:	43 e8       	ldi	r20, 0x83	; 131
    1cba:	5a e3       	ldi	r21, 0x3A	; 58
    1cbc:	0e 94 df 02 	call	0x5be	; 0x5be <__mulsf3>
    1cc0:	7b 01       	movw	r14, r22
    1cc2:	8c 01       	movw	r16, r24
    1cc4:	86 ed       	ldi	r24, 0xD6	; 214
    1cc6:	93 e0       	ldi	r25, 0x03	; 3
    1cc8:	6c e3       	ldi	r22, 0x3C	; 60
    1cca:	73 e0       	ldi	r23, 0x03	; 3
    1ccc:	2e 2d       	mov	r18, r14
    1cce:	3f 2d       	mov	r19, r15
    1cd0:	40 2f       	mov	r20, r16
    1cd2:	51 2f       	mov	r21, r17
    1cd4:	0e 94 1e 0a 	call	0x143c	; 0x143c <_ZN4Gyro6updateEP9gyro_dataf>
    1cd8:	a0 90 3c 03 	lds	r10, 0x033C
    1cdc:	b0 90 3d 03 	lds	r11, 0x033D
    1ce0:	c0 90 3e 03 	lds	r12, 0x033E
    1ce4:	d0 90 3f 03 	lds	r13, 0x033F
    1ce8:	c6 01       	movw	r24, r12
    1cea:	b5 01       	movw	r22, r10
    1cec:	20 e0       	ldi	r18, 0x00	; 0
    1cee:	30 e0       	ldi	r19, 0x00	; 0
    1cf0:	a9 01       	movw	r20, r18
    1cf2:	0e 94 b7 04 	call	0x96e	; 0x96e <__gtsf2>
    1cf6:	18 16       	cp	r1, r24
    1cf8:	5c f4       	brge	.+22     	; 0x1d10 <main+0x25a>
    1cfa:	c6 01       	movw	r24, r12
    1cfc:	b5 01       	movw	r22, r10
    1cfe:	2f e6       	ldi	r18, 0x6F	; 111
    1d00:	32 e1       	ldi	r19, 0x12	; 18
    1d02:	43 e8       	ldi	r20, 0x83	; 131
    1d04:	5a e3       	ldi	r21, 0x3A	; 58
    1d06:	0e 94 47 05 	call	0xa8e	; 0xa8e <__lesf2>
    1d0a:	18 16       	cp	r1, r24
    1d0c:	5c f4       	brge	.+22     	; 0x1d24 <main+0x26e>
    1d0e:	2f c0       	rjmp	.+94     	; 0x1d6e <main+0x2b8>
    1d10:	c6 01       	movw	r24, r12
    1d12:	b5 01       	movw	r22, r10
    1d14:	2f e6       	ldi	r18, 0x6F	; 111
    1d16:	32 e1       	ldi	r19, 0x12	; 18
    1d18:	43 e8       	ldi	r20, 0x83	; 131
    1d1a:	5a eb       	ldi	r21, 0xBA	; 186
    1d1c:	0e 94 e7 04 	call	0x9ce	; 0x9ce <__gesf2>
    1d20:	87 fd       	sbrc	r24, 7
    1d22:	25 c0       	rjmp	.+74     	; 0x1d6e <main+0x2b8>
    1d24:	60 91 ab 03 	lds	r22, 0x03AB
    1d28:	70 91 ac 03 	lds	r23, 0x03AC
    1d2c:	80 91 ad 03 	lds	r24, 0x03AD
    1d30:	90 91 ae 03 	lds	r25, 0x03AE
    1d34:	20 e0       	ldi	r18, 0x00	; 0
    1d36:	30 e0       	ldi	r19, 0x00	; 0
    1d38:	a9 01       	movw	r20, r18
    1d3a:	0e 94 87 04 	call	0x90e	; 0x90e <__eqsf2>
    1d3e:	88 23       	and	r24, r24
    1d40:	b1 f4       	brne	.+44     	; 0x1d6e <main+0x2b8>
    1d42:	60 91 c4 03 	lds	r22, 0x03C4
    1d46:	70 91 c5 03 	lds	r23, 0x03C5
    1d4a:	80 91 c6 03 	lds	r24, 0x03C6
    1d4e:	90 91 c7 03 	lds	r25, 0x03C7
    1d52:	20 e0       	ldi	r18, 0x00	; 0
    1d54:	30 e0       	ldi	r19, 0x00	; 0
    1d56:	a9 01       	movw	r20, r18
    1d58:	0e 94 87 04 	call	0x90e	; 0x90e <__eqsf2>
    1d5c:	88 23       	and	r24, r24
    1d5e:	39 f4       	brne	.+14     	; 0x1d6e <main+0x2b8>
    1d60:	86 ed       	ldi	r24, 0xD6	; 214
    1d62:	93 e0       	ldi	r25, 0x03	; 3
    1d64:	68 ee       	ldi	r22, 0xE8	; 232
    1d66:	73 e0       	ldi	r23, 0x03	; 3
    1d68:	41 e0       	ldi	r20, 0x01	; 1
    1d6a:	0e 94 47 0a 	call	0x148e	; 0x148e <_ZN4Gyro9calibrateEjb>
    1d6e:	8a e9       	ldi	r24, 0x9A	; 154
    1d70:	93 e0       	ldi	r25, 0x03	; 3
    1d72:	4e 2d       	mov	r20, r14
    1d74:	5f 2d       	mov	r21, r15
    1d76:	60 2f       	mov	r22, r16
    1d78:	71 2f       	mov	r23, r17
    1d7a:	0e 94 15 0d 	call	0x1a2a	; 0x1a2a <_ZN7Encoder6updateEP12encoder_dataf>
    1d7e:	83 eb       	ldi	r24, 0xB3	; 179
    1d80:	93 e0       	ldi	r25, 0x03	; 3
    1d82:	4e 2d       	mov	r20, r14
    1d84:	5f 2d       	mov	r21, r15
    1d86:	60 2f       	mov	r22, r16
    1d88:	71 2f       	mov	r23, r17
    1d8a:	0e 94 15 0d 	call	0x1a2a	; 0x1a2a <_ZN7Encoder6updateEP12encoder_dataf>
    1d8e:	40 91 ab 03 	lds	r20, 0x03AB
    1d92:	50 91 ac 03 	lds	r21, 0x03AC
    1d96:	60 91 ad 03 	lds	r22, 0x03AD
    1d9a:	70 91 ae 03 	lds	r23, 0x03AE
    1d9e:	82 ed       	ldi	r24, 0xD2	; 210
    1da0:	93 e0       	ldi	r25, 0x03	; 3
    1da2:	0e 94 f6 08 	call	0x11ec	; 0x11ec <_ZN3PID8setInputEd>
    1da6:	40 91 c4 03 	lds	r20, 0x03C4
    1daa:	50 91 c5 03 	lds	r21, 0x03C5
    1dae:	60 91 c6 03 	lds	r22, 0x03C6
    1db2:	70 91 c7 03 	lds	r23, 0x03C7
    1db6:	84 ed       	ldi	r24, 0xD4	; 212
    1db8:	93 e0       	ldi	r25, 0x03	; 3
    1dba:	0e 94 f6 08 	call	0x11ec	; 0x11ec <_ZN3PID8setInputEd>
    1dbe:	82 ed       	ldi	r24, 0xD2	; 210
    1dc0:	93 e0       	ldi	r25, 0x03	; 3
    1dc2:	4e 2d       	mov	r20, r14
    1dc4:	5f 2d       	mov	r21, r15
    1dc6:	60 2f       	mov	r22, r16
    1dc8:	71 2f       	mov	r23, r17
    1dca:	0e 94 0a 09 	call	0x1214	; 0x1214 <_ZN3PID7processEd>
    1dce:	84 ed       	ldi	r24, 0xD4	; 212
    1dd0:	93 e0       	ldi	r25, 0x03	; 3
    1dd2:	4e 2d       	mov	r20, r14
    1dd4:	5f 2d       	mov	r21, r15
    1dd6:	60 2f       	mov	r22, r16
    1dd8:	71 2f       	mov	r23, r17
    1dda:	0e 94 0a 09 	call	0x1214	; 0x1214 <_ZN3PID7processEd>
    1dde:	60 91 cc 03 	lds	r22, 0x03CC
    1de2:	70 91 cd 03 	lds	r23, 0x03CD
    1de6:	88 27       	eor	r24, r24
    1de8:	77 fd       	sbrc	r23, 7
    1dea:	80 95       	com	r24
    1dec:	98 2f       	mov	r25, r24
    1dee:	0e 94 77 05 	call	0xaee	; 0xaee <__floatsisf>
    1df2:	7b 01       	movw	r14, r22
    1df4:	8c 01       	movw	r16, r24
    1df6:	82 ed       	ldi	r24, 0xD2	; 210
    1df8:	93 e0       	ldi	r25, 0x03	; 3
    1dfa:	0e 94 ff 08 	call	0x11fe	; 0x11fe <_ZN3PID9getOutputEv>
    1dfe:	9b 01       	movw	r18, r22
    1e00:	ac 01       	movw	r20, r24
    1e02:	c8 01       	movw	r24, r16
    1e04:	b7 01       	movw	r22, r14
    1e06:	0e 94 81 02 	call	0x502	; 0x502 <__addsf3>
    1e0a:	0e 94 d7 05 	call	0xbae	; 0xbae <__fixsfsi>
    1e0e:	70 93 cd 03 	sts	0x03CD, r23
    1e12:	60 93 cc 03 	sts	0x03CC, r22
    1e16:	60 91 ce 03 	lds	r22, 0x03CE
    1e1a:	70 91 cf 03 	lds	r23, 0x03CF
    1e1e:	88 27       	eor	r24, r24
    1e20:	77 fd       	sbrc	r23, 7
    1e22:	80 95       	com	r24
    1e24:	98 2f       	mov	r25, r24
    1e26:	0e 94 77 05 	call	0xaee	; 0xaee <__floatsisf>
    1e2a:	7b 01       	movw	r14, r22
    1e2c:	8c 01       	movw	r16, r24
    1e2e:	84 ed       	ldi	r24, 0xD4	; 212
    1e30:	93 e0       	ldi	r25, 0x03	; 3
    1e32:	0e 94 ff 08 	call	0x11fe	; 0x11fe <_ZN3PID9getOutputEv>
    1e36:	9b 01       	movw	r18, r22
    1e38:	ac 01       	movw	r20, r24
    1e3a:	80 91 cc 03 	lds	r24, 0x03CC
    1e3e:	90 91 cd 03 	lds	r25, 0x03CD
    1e42:	80 38       	cpi	r24, 0x80	; 128
    1e44:	91 05       	cpc	r25, r1
    1e46:	14 f0       	brlt	.+4      	; 0x1e4c <main+0x396>
    1e48:	8f e7       	ldi	r24, 0x7F	; 127
    1e4a:	90 e0       	ldi	r25, 0x00	; 0
    1e4c:	ff ef       	ldi	r31, 0xFF	; 255
    1e4e:	81 38       	cpi	r24, 0x81	; 129
    1e50:	9f 07       	cpc	r25, r31
    1e52:	14 f4       	brge	.+4      	; 0x1e58 <main+0x3a2>
    1e54:	81 e8       	ldi	r24, 0x81	; 129
    1e56:	9f ef       	ldi	r25, 0xFF	; 255
    1e58:	90 93 cd 03 	sts	0x03CD, r25
    1e5c:	80 93 cc 03 	sts	0x03CC, r24
    1e60:	c8 01       	movw	r24, r16
    1e62:	b7 01       	movw	r22, r14
    1e64:	0e 94 81 02 	call	0x502	; 0x502 <__addsf3>
    1e68:	0e 94 d7 05 	call	0xbae	; 0xbae <__fixsfsi>
    1e6c:	60 38       	cpi	r22, 0x80	; 128
    1e6e:	71 05       	cpc	r23, r1
    1e70:	14 f0       	brlt	.+4      	; 0x1e76 <main+0x3c0>
    1e72:	6f e7       	ldi	r22, 0x7F	; 127
    1e74:	70 e0       	ldi	r23, 0x00	; 0
    1e76:	8f ef       	ldi	r24, 0xFF	; 255
    1e78:	61 38       	cpi	r22, 0x81	; 129
    1e7a:	78 07       	cpc	r23, r24
    1e7c:	14 f4       	brge	.+4      	; 0x1e82 <main+0x3cc>
    1e7e:	61 e8       	ldi	r22, 0x81	; 129
    1e80:	7f ef       	ldi	r23, 0xFF	; 255
    1e82:	70 93 cf 03 	sts	0x03CF, r23
    1e86:	60 93 ce 03 	sts	0x03CE, r22
    1e8a:	83 ee       	ldi	r24, 0xE3	; 227
    1e8c:	93 e0       	ldi	r25, 0x03	; 3
    1e8e:	6c ec       	ldi	r22, 0xCC	; 204
    1e90:	73 e0       	ldi	r23, 0x03	; 3
    1e92:	0e 94 e0 0b 	call	0x17c0	; 0x17c0 <_ZN10Sabertooth8setSpeedEP10motor_data>
    1e96:	80 91 33 03 	lds	r24, 0x0333
    1e9a:	90 91 34 03 	lds	r25, 0x0334
    1e9e:	a0 91 35 03 	lds	r26, 0x0335
    1ea2:	b0 91 36 03 	lds	r27, 0x0336
    1ea6:	8c 59       	subi	r24, 0x9C	; 156
    1ea8:	9f 4f       	sbci	r25, 0xFF	; 255
    1eaa:	af 4f       	sbci	r26, 0xFF	; 255
    1eac:	bf 4f       	sbci	r27, 0xFF	; 255
    1eae:	80 93 2f 03 	sts	0x032F, r24
    1eb2:	90 93 30 03 	sts	0x0330, r25
    1eb6:	a0 93 31 03 	sts	0x0331, r26
    1eba:	b0 93 32 03 	sts	0x0332, r27
    1ebe:	d9 ce       	rjmp	.-590    	; 0x1c72 <main+0x1bc>

00001ec0 <_GLOBAL__I_nexTime>:
    1ec0:	0f 93       	push	r16
    1ec2:	1f 93       	push	r17
    1ec4:	cf 93       	push	r28
    1ec6:	df 93       	push	r29
    1ec8:	c7 e3       	ldi	r28, 0x37	; 55
    1eca:	d3 e0       	ldi	r29, 0x03	; 3
    1ecc:	ce 01       	movw	r24, r28
    1ece:	0e 94 4b 0d 	call	0x1a96	; 0x1a96 <_ZN12control_dataC1Ev>
    1ed2:	be 01       	movw	r22, r28
    1ed4:	6d 5e       	subi	r22, 0xED	; 237
    1ed6:	7f 4f       	sbci	r23, 0xFF	; 255
    1ed8:	82 ed       	ldi	r24, 0xD2	; 210
    1eda:	93 e0       	ldi	r25, 0x03	; 3
    1edc:	0e 94 f2 08 	call	0x11e4	; 0x11e4 <_ZN3PIDC1EP10PID_params>
    1ee0:	be 01       	movw	r22, r28
    1ee2:	65 5c       	subi	r22, 0xC5	; 197
    1ee4:	7f 4f       	sbci	r23, 0xFF	; 255
    1ee6:	84 ed       	ldi	r24, 0xD4	; 212
    1ee8:	93 e0       	ldi	r25, 0x03	; 3
    1eea:	0e 94 f2 08 	call	0x11e4	; 0x11e4 <_ZN3PIDC1EP10PID_params>
    1eee:	86 ed       	ldi	r24, 0xD6	; 214
    1ef0:	93 e0       	ldi	r25, 0x03	; 3
    1ef2:	69 e0       	ldi	r22, 0x09	; 9
    1ef4:	48 e0       	ldi	r20, 0x08	; 8
    1ef6:	08 e5       	ldi	r16, 0x58	; 88
    1ef8:	10 ea       	ldi	r17, 0xA0	; 160
    1efa:	2b e0       	ldi	r18, 0x0B	; 11
    1efc:	3d e3       	ldi	r19, 0x3D	; 61
    1efe:	0e 94 0a 0b 	call	0x1614	; 0x1614 <_ZN4GyroC1Ehhf>
    1f02:	83 ee       	ldi	r24, 0xE3	; 227
    1f04:	93 e0       	ldi	r25, 0x03	; 3
    1f06:	60 e8       	ldi	r22, 0x80	; 128
    1f08:	49 e3       	ldi	r20, 0x39	; 57
    1f0a:	56 e0       	ldi	r21, 0x06	; 6
    1f0c:	0e 94 70 0c 	call	0x18e0	; 0x18e0 <_ZN10SabertoothC1EhP14HardwareSerial>
    1f10:	df 91       	pop	r29
    1f12:	cf 91       	pop	r28
    1f14:	1f 91       	pop	r17
    1f16:	0f 91       	pop	r16
    1f18:	08 95       	ret

00001f1a <_Z10store_charhP11ring_buffer>:
    1f1a:	0f 93       	push	r16
    1f1c:	1f 93       	push	r17
    1f1e:	cf 93       	push	r28
    1f20:	df 93       	push	r29
    1f22:	48 2f       	mov	r20, r24
    1f24:	fb 01       	movw	r30, r22
    1f26:	8b 01       	movw	r16, r22
    1f28:	00 58       	subi	r16, 0x80	; 128
    1f2a:	1f 4f       	sbci	r17, 0xFF	; 255
    1f2c:	d8 01       	movw	r26, r16
    1f2e:	cd 91       	ld	r28, X+
    1f30:	dc 91       	ld	r29, X
    1f32:	ce 01       	movw	r24, r28
    1f34:	01 96       	adiw	r24, 0x01	; 1
    1f36:	60 e8       	ldi	r22, 0x80	; 128
    1f38:	70 e0       	ldi	r23, 0x00	; 0
    1f3a:	0e 94 3e 1a 	call	0x347c	; 0x347c <__divmodhi4>
    1f3e:	9c 01       	movw	r18, r24
    1f40:	ee 57       	subi	r30, 0x7E	; 126
    1f42:	ff 4f       	sbci	r31, 0xFF	; 255
    1f44:	80 81       	ld	r24, Z
    1f46:	91 81       	ldd	r25, Z+1	; 0x01
    1f48:	e2 58       	subi	r30, 0x82	; 130
    1f4a:	f0 40       	sbci	r31, 0x00	; 0
    1f4c:	28 17       	cp	r18, r24
    1f4e:	39 07       	cpc	r19, r25
    1f50:	31 f0       	breq	.+12     	; 0x1f5e <_Z10store_charhP11ring_buffer+0x44>
    1f52:	ce 0f       	add	r28, r30
    1f54:	df 1f       	adc	r29, r31
    1f56:	48 83       	st	Y, r20
    1f58:	f8 01       	movw	r30, r16
    1f5a:	31 83       	std	Z+1, r19	; 0x01
    1f5c:	20 83       	st	Z, r18
    1f5e:	df 91       	pop	r29
    1f60:	cf 91       	pop	r28
    1f62:	1f 91       	pop	r17
    1f64:	0f 91       	pop	r16
    1f66:	08 95       	ret

00001f68 <__vector_25>:
    1f68:	1f 92       	push	r1
    1f6a:	0f 92       	push	r0
    1f6c:	0f b6       	in	r0, 0x3f	; 63
    1f6e:	0f 92       	push	r0
    1f70:	0b b6       	in	r0, 0x3b	; 59
    1f72:	0f 92       	push	r0
    1f74:	11 24       	eor	r1, r1
    1f76:	2f 93       	push	r18
    1f78:	3f 93       	push	r19
    1f7a:	4f 93       	push	r20
    1f7c:	5f 93       	push	r21
    1f7e:	6f 93       	push	r22
    1f80:	7f 93       	push	r23
    1f82:	8f 93       	push	r24
    1f84:	9f 93       	push	r25
    1f86:	af 93       	push	r26
    1f88:	bf 93       	push	r27
    1f8a:	ef 93       	push	r30
    1f8c:	ff 93       	push	r31
    1f8e:	80 91 c6 00 	lds	r24, 0x00C6
    1f92:	60 ef       	ldi	r22, 0xF0	; 240
    1f94:	73 e0       	ldi	r23, 0x03	; 3
    1f96:	0e 94 8d 0f 	call	0x1f1a	; 0x1f1a <_Z10store_charhP11ring_buffer>
    1f9a:	ff 91       	pop	r31
    1f9c:	ef 91       	pop	r30
    1f9e:	bf 91       	pop	r27
    1fa0:	af 91       	pop	r26
    1fa2:	9f 91       	pop	r25
    1fa4:	8f 91       	pop	r24
    1fa6:	7f 91       	pop	r23
    1fa8:	6f 91       	pop	r22
    1faa:	5f 91       	pop	r21
    1fac:	4f 91       	pop	r20
    1fae:	3f 91       	pop	r19
    1fb0:	2f 91       	pop	r18
    1fb2:	0f 90       	pop	r0
    1fb4:	0b be       	out	0x3b, r0	; 59
    1fb6:	0f 90       	pop	r0
    1fb8:	0f be       	out	0x3f, r0	; 63
    1fba:	0f 90       	pop	r0
    1fbc:	1f 90       	pop	r1
    1fbe:	18 95       	reti

00001fc0 <__vector_36>:
    1fc0:	1f 92       	push	r1
    1fc2:	0f 92       	push	r0
    1fc4:	0f b6       	in	r0, 0x3f	; 63
    1fc6:	0f 92       	push	r0
    1fc8:	0b b6       	in	r0, 0x3b	; 59
    1fca:	0f 92       	push	r0
    1fcc:	11 24       	eor	r1, r1
    1fce:	2f 93       	push	r18
    1fd0:	3f 93       	push	r19
    1fd2:	4f 93       	push	r20
    1fd4:	5f 93       	push	r21
    1fd6:	6f 93       	push	r22
    1fd8:	7f 93       	push	r23
    1fda:	8f 93       	push	r24
    1fdc:	9f 93       	push	r25
    1fde:	af 93       	push	r26
    1fe0:	bf 93       	push	r27
    1fe2:	ef 93       	push	r30
    1fe4:	ff 93       	push	r31
    1fe6:	80 91 ce 00 	lds	r24, 0x00CE
    1fea:	64 e7       	ldi	r22, 0x74	; 116
    1fec:	74 e0       	ldi	r23, 0x04	; 4
    1fee:	0e 94 8d 0f 	call	0x1f1a	; 0x1f1a <_Z10store_charhP11ring_buffer>
    1ff2:	ff 91       	pop	r31
    1ff4:	ef 91       	pop	r30
    1ff6:	bf 91       	pop	r27
    1ff8:	af 91       	pop	r26
    1ffa:	9f 91       	pop	r25
    1ffc:	8f 91       	pop	r24
    1ffe:	7f 91       	pop	r23
    2000:	6f 91       	pop	r22
    2002:	5f 91       	pop	r21
    2004:	4f 91       	pop	r20
    2006:	3f 91       	pop	r19
    2008:	2f 91       	pop	r18
    200a:	0f 90       	pop	r0
    200c:	0b be       	out	0x3b, r0	; 59
    200e:	0f 90       	pop	r0
    2010:	0f be       	out	0x3f, r0	; 63
    2012:	0f 90       	pop	r0
    2014:	1f 90       	pop	r1
    2016:	18 95       	reti

00002018 <__vector_51>:
    2018:	1f 92       	push	r1
    201a:	0f 92       	push	r0
    201c:	0f b6       	in	r0, 0x3f	; 63
    201e:	0f 92       	push	r0
    2020:	0b b6       	in	r0, 0x3b	; 59
    2022:	0f 92       	push	r0
    2024:	11 24       	eor	r1, r1
    2026:	2f 93       	push	r18
    2028:	3f 93       	push	r19
    202a:	4f 93       	push	r20
    202c:	5f 93       	push	r21
    202e:	6f 93       	push	r22
    2030:	7f 93       	push	r23
    2032:	8f 93       	push	r24
    2034:	9f 93       	push	r25
    2036:	af 93       	push	r26
    2038:	bf 93       	push	r27
    203a:	ef 93       	push	r30
    203c:	ff 93       	push	r31
    203e:	80 91 d6 00 	lds	r24, 0x00D6
    2042:	68 ef       	ldi	r22, 0xF8	; 248
    2044:	74 e0       	ldi	r23, 0x04	; 4
    2046:	0e 94 8d 0f 	call	0x1f1a	; 0x1f1a <_Z10store_charhP11ring_buffer>
    204a:	ff 91       	pop	r31
    204c:	ef 91       	pop	r30
    204e:	bf 91       	pop	r27
    2050:	af 91       	pop	r26
    2052:	9f 91       	pop	r25
    2054:	8f 91       	pop	r24
    2056:	7f 91       	pop	r23
    2058:	6f 91       	pop	r22
    205a:	5f 91       	pop	r21
    205c:	4f 91       	pop	r20
    205e:	3f 91       	pop	r19
    2060:	2f 91       	pop	r18
    2062:	0f 90       	pop	r0
    2064:	0b be       	out	0x3b, r0	; 59
    2066:	0f 90       	pop	r0
    2068:	0f be       	out	0x3f, r0	; 63
    206a:	0f 90       	pop	r0
    206c:	1f 90       	pop	r1
    206e:	18 95       	reti

00002070 <__vector_54>:
    2070:	1f 92       	push	r1
    2072:	0f 92       	push	r0
    2074:	0f b6       	in	r0, 0x3f	; 63
    2076:	0f 92       	push	r0
    2078:	0b b6       	in	r0, 0x3b	; 59
    207a:	0f 92       	push	r0
    207c:	11 24       	eor	r1, r1
    207e:	2f 93       	push	r18
    2080:	3f 93       	push	r19
    2082:	4f 93       	push	r20
    2084:	5f 93       	push	r21
    2086:	6f 93       	push	r22
    2088:	7f 93       	push	r23
    208a:	8f 93       	push	r24
    208c:	9f 93       	push	r25
    208e:	af 93       	push	r26
    2090:	bf 93       	push	r27
    2092:	ef 93       	push	r30
    2094:	ff 93       	push	r31
    2096:	80 91 36 01 	lds	r24, 0x0136
    209a:	6c e7       	ldi	r22, 0x7C	; 124
    209c:	75 e0       	ldi	r23, 0x05	; 5
    209e:	0e 94 8d 0f 	call	0x1f1a	; 0x1f1a <_Z10store_charhP11ring_buffer>
    20a2:	ff 91       	pop	r31
    20a4:	ef 91       	pop	r30
    20a6:	bf 91       	pop	r27
    20a8:	af 91       	pop	r26
    20aa:	9f 91       	pop	r25
    20ac:	8f 91       	pop	r24
    20ae:	7f 91       	pop	r23
    20b0:	6f 91       	pop	r22
    20b2:	5f 91       	pop	r21
    20b4:	4f 91       	pop	r20
    20b6:	3f 91       	pop	r19
    20b8:	2f 91       	pop	r18
    20ba:	0f 90       	pop	r0
    20bc:	0b be       	out	0x3b, r0	; 59
    20be:	0f 90       	pop	r0
    20c0:	0f be       	out	0x3f, r0	; 63
    20c2:	0f 90       	pop	r0
    20c4:	1f 90       	pop	r1
    20c6:	18 95       	reti

000020c8 <_ZN14HardwareSerial5beginEl>:
    20c8:	5f 92       	push	r5
    20ca:	6f 92       	push	r6
    20cc:	7f 92       	push	r7
    20ce:	8f 92       	push	r8
    20d0:	9f 92       	push	r9
    20d2:	af 92       	push	r10
    20d4:	bf 92       	push	r11
    20d6:	cf 92       	push	r12
    20d8:	df 92       	push	r13
    20da:	ef 92       	push	r14
    20dc:	ff 92       	push	r15
    20de:	0f 93       	push	r16
    20e0:	1f 93       	push	r17
    20e2:	cf 93       	push	r28
    20e4:	df 93       	push	r29
    20e6:	ec 01       	movw	r28, r24
    20e8:	5a 01       	movw	r10, r20
    20ea:	6b 01       	movw	r12, r22
    20ec:	81 e4       	ldi	r24, 0x41	; 65
    20ee:	a8 16       	cp	r10, r24
    20f0:	82 e4       	ldi	r24, 0x42	; 66
    20f2:	b8 06       	cpc	r11, r24
    20f4:	8f e0       	ldi	r24, 0x0F	; 15
    20f6:	c8 06       	cpc	r12, r24
    20f8:	80 e0       	ldi	r24, 0x00	; 0
    20fa:	d8 06       	cpc	r13, r24
    20fc:	08 f0       	brcs	.+2      	; 0x2100 <_ZN14HardwareSerial5beginEl+0x38>
    20fe:	77 c0       	rjmp	.+238    	; 0x21ee <_ZN14HardwareSerial5beginEl+0x126>
    2100:	60 e8       	ldi	r22, 0x80	; 128
    2102:	74 e8       	ldi	r23, 0x84	; 132
    2104:	8e e1       	ldi	r24, 0x1E	; 30
    2106:	90 e0       	ldi	r25, 0x00	; 0
    2108:	a6 01       	movw	r20, r12
    210a:	95 01       	movw	r18, r10
    210c:	0e 94 51 1a 	call	0x34a2	; 0x34a2 <__udivmodsi4>
    2110:	39 01       	movw	r6, r18
    2112:	4a 01       	movw	r8, r20
    2114:	08 94       	sec
    2116:	61 08       	sbc	r6, r1
    2118:	71 08       	sbc	r7, r1
    211a:	81 08       	sbc	r8, r1
    211c:	91 08       	sbc	r9, r1
    211e:	96 94       	lsr	r9
    2120:	87 94       	ror	r8
    2122:	77 94       	ror	r7
    2124:	67 94       	ror	r6
    2126:	a4 01       	movw	r20, r8
    2128:	93 01       	movw	r18, r6
    212a:	2f 5f       	subi	r18, 0xFF	; 255
    212c:	3f 4f       	sbci	r19, 0xFF	; 255
    212e:	4f 4f       	sbci	r20, 0xFF	; 255
    2130:	5f 4f       	sbci	r21, 0xFF	; 255
    2132:	74 e0       	ldi	r23, 0x04	; 4
    2134:	22 0f       	add	r18, r18
    2136:	33 1f       	adc	r19, r19
    2138:	44 1f       	adc	r20, r20
    213a:	55 1f       	adc	r21, r21
    213c:	7a 95       	dec	r23
    213e:	d1 f7       	brne	.-12     	; 0x2134 <_ZN14HardwareSerial5beginEl+0x6c>
    2140:	60 e0       	ldi	r22, 0x00	; 0
    2142:	74 e2       	ldi	r23, 0x24	; 36
    2144:	84 ef       	ldi	r24, 0xF4	; 244
    2146:	90 e0       	ldi	r25, 0x00	; 0
    2148:	0e 94 51 1a 	call	0x34a2	; 0x34a2 <__udivmodsi4>
    214c:	ca 01       	movw	r24, r20
    214e:	b9 01       	movw	r22, r18
    2150:	2f ef       	ldi	r18, 0xFF	; 255
    2152:	30 e0       	ldi	r19, 0x00	; 0
    2154:	40 e0       	ldi	r20, 0x00	; 0
    2156:	50 e0       	ldi	r21, 0x00	; 0
    2158:	0e 94 ff 19 	call	0x33fe	; 0x33fe <__mulsi3>
    215c:	a6 01       	movw	r20, r12
    215e:	95 01       	movw	r18, r10
    2160:	0e 94 51 1a 	call	0x34a2	; 0x34a2 <__udivmodsi4>
    2164:	8f ef       	ldi	r24, 0xFF	; 255
    2166:	90 e0       	ldi	r25, 0x00	; 0
    2168:	82 1b       	sub	r24, r18
    216a:	93 0b       	sbc	r25, r19
    216c:	18 16       	cp	r1, r24
    216e:	19 06       	cpc	r1, r25
    2170:	1c f4       	brge	.+6      	; 0x2178 <_ZN14HardwareSerial5beginEl+0xb0>
    2172:	52 2e       	mov	r5, r18
    2174:	50 94       	com	r5
    2176:	02 c0       	rjmp	.+4      	; 0x217c <_ZN14HardwareSerial5beginEl+0xb4>
    2178:	52 2e       	mov	r5, r18
    217a:	53 94       	inc	r5
    217c:	60 e0       	ldi	r22, 0x00	; 0
    217e:	79 e0       	ldi	r23, 0x09	; 9
    2180:	8d e3       	ldi	r24, 0x3D	; 61
    2182:	90 e0       	ldi	r25, 0x00	; 0
    2184:	a6 01       	movw	r20, r12
    2186:	95 01       	movw	r18, r10
    2188:	0e 94 51 1a 	call	0x34a2	; 0x34a2 <__udivmodsi4>
    218c:	21 50       	subi	r18, 0x01	; 1
    218e:	30 40       	sbci	r19, 0x00	; 0
    2190:	40 40       	sbci	r20, 0x00	; 0
    2192:	50 40       	sbci	r21, 0x00	; 0
    2194:	56 95       	lsr	r21
    2196:	47 95       	ror	r20
    2198:	37 95       	ror	r19
    219a:	27 95       	ror	r18
    219c:	2f 5f       	subi	r18, 0xFF	; 255
    219e:	3f 4f       	sbci	r19, 0xFF	; 255
    21a0:	4f 4f       	sbci	r20, 0xFF	; 255
    21a2:	5f 4f       	sbci	r21, 0xFF	; 255
    21a4:	93 e0       	ldi	r25, 0x03	; 3
    21a6:	22 0f       	add	r18, r18
    21a8:	33 1f       	adc	r19, r19
    21aa:	44 1f       	adc	r20, r20
    21ac:	55 1f       	adc	r21, r21
    21ae:	9a 95       	dec	r25
    21b0:	d1 f7       	brne	.-12     	; 0x21a6 <_ZN14HardwareSerial5beginEl+0xde>
    21b2:	60 e0       	ldi	r22, 0x00	; 0
    21b4:	74 e2       	ldi	r23, 0x24	; 36
    21b6:	84 ef       	ldi	r24, 0xF4	; 244
    21b8:	90 e0       	ldi	r25, 0x00	; 0
    21ba:	0e 94 51 1a 	call	0x34a2	; 0x34a2 <__udivmodsi4>
    21be:	ca 01       	movw	r24, r20
    21c0:	b9 01       	movw	r22, r18
    21c2:	2f ef       	ldi	r18, 0xFF	; 255
    21c4:	30 e0       	ldi	r19, 0x00	; 0
    21c6:	40 e0       	ldi	r20, 0x00	; 0
    21c8:	50 e0       	ldi	r21, 0x00	; 0
    21ca:	0e 94 ff 19 	call	0x33fe	; 0x33fe <__mulsi3>
    21ce:	a6 01       	movw	r20, r12
    21d0:	95 01       	movw	r18, r10
    21d2:	0e 94 51 1a 	call	0x34a2	; 0x34a2 <__udivmodsi4>
    21d6:	8f ef       	ldi	r24, 0xFF	; 255
    21d8:	90 e0       	ldi	r25, 0x00	; 0
    21da:	82 1b       	sub	r24, r18
    21dc:	93 0b       	sbc	r25, r19
    21de:	18 16       	cp	r1, r24
    21e0:	19 06       	cpc	r1, r25
    21e2:	14 f4       	brge	.+4      	; 0x21e8 <_ZN14HardwareSerial5beginEl+0x120>
    21e4:	20 95       	com	r18
    21e6:	01 c0       	rjmp	.+2      	; 0x21ea <_ZN14HardwareSerial5beginEl+0x122>
    21e8:	2f 5f       	subi	r18, 0xFF	; 255
    21ea:	25 15       	cp	r18, r5
    21ec:	f0 f4       	brcc	.+60     	; 0x222a <__stack+0x2b>
    21ee:	e8 85       	ldd	r30, Y+8	; 0x08
    21f0:	f9 85       	ldd	r31, Y+9	; 0x09
    21f2:	81 e0       	ldi	r24, 0x01	; 1
    21f4:	90 e0       	ldi	r25, 0x00	; 0
    21f6:	0a 88       	ldd	r0, Y+18	; 0x12
    21f8:	02 c0       	rjmp	.+4      	; 0x21fe <_ZN14HardwareSerial5beginEl+0x136>
    21fa:	88 0f       	add	r24, r24
    21fc:	99 1f       	adc	r25, r25
    21fe:	0a 94       	dec	r0
    2200:	e2 f7       	brpl	.-8      	; 0x21fa <_ZN14HardwareSerial5beginEl+0x132>
    2202:	80 83       	st	Z, r24
    2204:	60 e0       	ldi	r22, 0x00	; 0
    2206:	79 e0       	ldi	r23, 0x09	; 9
    2208:	8d e3       	ldi	r24, 0x3D	; 61
    220a:	90 e0       	ldi	r25, 0x00	; 0
    220c:	a6 01       	movw	r20, r12
    220e:	95 01       	movw	r18, r10
    2210:	0e 94 51 1a 	call	0x34a2	; 0x34a2 <__udivmodsi4>
    2214:	21 50       	subi	r18, 0x01	; 1
    2216:	30 40       	sbci	r19, 0x00	; 0
    2218:	40 40       	sbci	r20, 0x00	; 0
    221a:	50 40       	sbci	r21, 0x00	; 0
    221c:	56 95       	lsr	r21
    221e:	47 95       	ror	r20
    2220:	37 95       	ror	r19
    2222:	27 95       	ror	r18
    2224:	82 2f       	mov	r24, r18
    2226:	23 2f       	mov	r18, r19
    2228:	05 c0       	rjmp	.+10     	; 0x2234 <__stack+0x35>
    222a:	e8 85       	ldd	r30, Y+8	; 0x08
    222c:	f9 85       	ldd	r31, Y+9	; 0x09
    222e:	10 82       	st	Z, r1
    2230:	86 2d       	mov	r24, r6
    2232:	27 2d       	mov	r18, r7
    2234:	ec 81       	ldd	r30, Y+4	; 0x04
    2236:	fd 81       	ldd	r31, Y+5	; 0x05
    2238:	20 83       	st	Z, r18
    223a:	ee 81       	ldd	r30, Y+6	; 0x06
    223c:	ff 81       	ldd	r31, Y+7	; 0x07
    223e:	80 83       	st	Z, r24
    2240:	ea 85       	ldd	r30, Y+10	; 0x0a
    2242:	fb 85       	ldd	r31, Y+11	; 0x0b
    2244:	20 81       	ld	r18, Z
    2246:	41 e0       	ldi	r20, 0x01	; 1
    2248:	50 e0       	ldi	r21, 0x00	; 0
    224a:	ca 01       	movw	r24, r20
    224c:	0e 84       	ldd	r0, Y+14	; 0x0e
    224e:	02 c0       	rjmp	.+4      	; 0x2254 <__stack+0x55>
    2250:	88 0f       	add	r24, r24
    2252:	99 1f       	adc	r25, r25
    2254:	0a 94       	dec	r0
    2256:	e2 f7       	brpl	.-8      	; 0x2250 <__stack+0x51>
    2258:	28 2b       	or	r18, r24
    225a:	20 83       	st	Z, r18
    225c:	ea 85       	ldd	r30, Y+10	; 0x0a
    225e:	fb 85       	ldd	r31, Y+11	; 0x0b
    2260:	20 81       	ld	r18, Z
    2262:	ca 01       	movw	r24, r20
    2264:	0f 84       	ldd	r0, Y+15	; 0x0f
    2266:	02 c0       	rjmp	.+4      	; 0x226c <__stack+0x6d>
    2268:	88 0f       	add	r24, r24
    226a:	99 1f       	adc	r25, r25
    226c:	0a 94       	dec	r0
    226e:	e2 f7       	brpl	.-8      	; 0x2268 <__stack+0x69>
    2270:	28 2b       	or	r18, r24
    2272:	20 83       	st	Z, r18
    2274:	ea 85       	ldd	r30, Y+10	; 0x0a
    2276:	fb 85       	ldd	r31, Y+11	; 0x0b
    2278:	80 81       	ld	r24, Z
    227a:	08 88       	ldd	r0, Y+16	; 0x10
    227c:	02 c0       	rjmp	.+4      	; 0x2282 <__stack+0x83>
    227e:	44 0f       	add	r20, r20
    2280:	55 1f       	adc	r21, r21
    2282:	0a 94       	dec	r0
    2284:	e2 f7       	brpl	.-8      	; 0x227e <__stack+0x7f>
    2286:	84 2b       	or	r24, r20
    2288:	80 83       	st	Z, r24
    228a:	df 91       	pop	r29
    228c:	cf 91       	pop	r28
    228e:	1f 91       	pop	r17
    2290:	0f 91       	pop	r16
    2292:	ff 90       	pop	r15
    2294:	ef 90       	pop	r14
    2296:	df 90       	pop	r13
    2298:	cf 90       	pop	r12
    229a:	bf 90       	pop	r11
    229c:	af 90       	pop	r10
    229e:	9f 90       	pop	r9
    22a0:	8f 90       	pop	r8
    22a2:	7f 90       	pop	r7
    22a4:	6f 90       	pop	r6
    22a6:	5f 90       	pop	r5
    22a8:	08 95       	ret

000022aa <_ZN14HardwareSerial9availableEv>:
    22aa:	dc 01       	movw	r26, r24
    22ac:	12 96       	adiw	r26, 0x02	; 2
    22ae:	ed 91       	ld	r30, X+
    22b0:	fc 91       	ld	r31, X
    22b2:	13 97       	sbiw	r26, 0x03	; 3
    22b4:	e0 58       	subi	r30, 0x80	; 128
    22b6:	ff 4f       	sbci	r31, 0xFF	; 255
    22b8:	81 91       	ld	r24, Z+
    22ba:	91 91       	ld	r25, Z+
    22bc:	80 58       	subi	r24, 0x80	; 128
    22be:	9f 4f       	sbci	r25, 0xFF	; 255
    22c0:	20 81       	ld	r18, Z
    22c2:	31 81       	ldd	r19, Z+1	; 0x01
    22c4:	82 1b       	sub	r24, r18
    22c6:	93 0b       	sbc	r25, r19
    22c8:	60 e8       	ldi	r22, 0x80	; 128
    22ca:	70 e0       	ldi	r23, 0x00	; 0
    22cc:	0e 94 3e 1a 	call	0x347c	; 0x347c <__divmodhi4>
    22d0:	08 95       	ret

000022d2 <_ZN14HardwareSerial4peekEv>:
    22d2:	dc 01       	movw	r26, r24
    22d4:	12 96       	adiw	r26, 0x02	; 2
    22d6:	ed 91       	ld	r30, X+
    22d8:	fc 91       	ld	r31, X
    22da:	13 97       	sbiw	r26, 0x03	; 3
    22dc:	ee 57       	subi	r30, 0x7E	; 126
    22de:	ff 4f       	sbci	r31, 0xFF	; 255
    22e0:	20 81       	ld	r18, Z
    22e2:	31 81       	ldd	r19, Z+1	; 0x01
    22e4:	92 91       	ld	r25, -Z
    22e6:	82 91       	ld	r24, -Z
    22e8:	e0 58       	subi	r30, 0x80	; 128
    22ea:	f0 40       	sbci	r31, 0x00	; 0
    22ec:	82 17       	cp	r24, r18
    22ee:	93 07       	cpc	r25, r19
    22f0:	19 f4       	brne	.+6      	; 0x22f8 <_ZN14HardwareSerial4peekEv+0x26>
    22f2:	2f ef       	ldi	r18, 0xFF	; 255
    22f4:	3f ef       	ldi	r19, 0xFF	; 255
    22f6:	05 c0       	rjmp	.+10     	; 0x2302 <_ZN14HardwareSerial4peekEv+0x30>
    22f8:	e2 0f       	add	r30, r18
    22fa:	f3 1f       	adc	r31, r19
    22fc:	80 81       	ld	r24, Z
    22fe:	28 2f       	mov	r18, r24
    2300:	30 e0       	ldi	r19, 0x00	; 0
    2302:	c9 01       	movw	r24, r18
    2304:	08 95       	ret

00002306 <_ZN14HardwareSerial4readEv>:
    2306:	cf 93       	push	r28
    2308:	df 93       	push	r29
    230a:	dc 01       	movw	r26, r24
    230c:	12 96       	adiw	r26, 0x02	; 2
    230e:	ed 91       	ld	r30, X+
    2310:	fc 91       	ld	r31, X
    2312:	13 97       	sbiw	r26, 0x03	; 3
    2314:	ef 01       	movw	r28, r30
    2316:	ce 57       	subi	r28, 0x7E	; 126
    2318:	df 4f       	sbci	r29, 0xFF	; 255
    231a:	48 81       	ld	r20, Y
    231c:	59 81       	ldd	r21, Y+1	; 0x01
    231e:	e0 58       	subi	r30, 0x80	; 128
    2320:	ff 4f       	sbci	r31, 0xFF	; 255
    2322:	80 81       	ld	r24, Z
    2324:	91 81       	ldd	r25, Z+1	; 0x01
    2326:	e0 58       	subi	r30, 0x80	; 128
    2328:	f0 40       	sbci	r31, 0x00	; 0
    232a:	84 17       	cp	r24, r20
    232c:	95 07       	cpc	r25, r21
    232e:	19 f4       	brne	.+6      	; 0x2336 <_ZN14HardwareSerial4readEv+0x30>
    2330:	2f ef       	ldi	r18, 0xFF	; 255
    2332:	3f ef       	ldi	r19, 0xFF	; 255
    2334:	0c c0       	rjmp	.+24     	; 0x234e <_ZN14HardwareSerial4readEv+0x48>
    2336:	e4 0f       	add	r30, r20
    2338:	f5 1f       	adc	r31, r21
    233a:	20 81       	ld	r18, Z
    233c:	ca 01       	movw	r24, r20
    233e:	01 96       	adiw	r24, 0x01	; 1
    2340:	60 e8       	ldi	r22, 0x80	; 128
    2342:	70 e0       	ldi	r23, 0x00	; 0
    2344:	0e 94 3e 1a 	call	0x347c	; 0x347c <__divmodhi4>
    2348:	99 83       	std	Y+1, r25	; 0x01
    234a:	88 83       	st	Y, r24
    234c:	30 e0       	ldi	r19, 0x00	; 0
    234e:	c9 01       	movw	r24, r18
    2350:	df 91       	pop	r29
    2352:	cf 91       	pop	r28
    2354:	08 95       	ret

00002356 <_ZN14HardwareSerial5flushEv>:
    2356:	dc 01       	movw	r26, r24
    2358:	12 96       	adiw	r26, 0x02	; 2
    235a:	ed 91       	ld	r30, X+
    235c:	fc 91       	ld	r31, X
    235e:	13 97       	sbiw	r26, 0x03	; 3
    2360:	ee 57       	subi	r30, 0x7E	; 126
    2362:	ff 4f       	sbci	r31, 0xFF	; 255
    2364:	80 81       	ld	r24, Z
    2366:	91 81       	ldd	r25, Z+1	; 0x01
    2368:	92 93       	st	-Z, r25
    236a:	82 93       	st	-Z, r24
    236c:	08 95       	ret

0000236e <_ZN14HardwareSerial5writeEh>:
    236e:	fc 01       	movw	r30, r24
    2370:	a0 85       	ldd	r26, Z+8	; 0x08
    2372:	b1 85       	ldd	r27, Z+9	; 0x09
    2374:	21 89       	ldd	r18, Z+17	; 0x11
    2376:	8c 91       	ld	r24, X
    2378:	90 e0       	ldi	r25, 0x00	; 0
    237a:	02 2e       	mov	r0, r18
    237c:	02 c0       	rjmp	.+4      	; 0x2382 <_ZN14HardwareSerial5writeEh+0x14>
    237e:	95 95       	asr	r25
    2380:	87 95       	ror	r24
    2382:	0a 94       	dec	r0
    2384:	e2 f7       	brpl	.-8      	; 0x237e <_ZN14HardwareSerial5writeEh+0x10>
    2386:	80 ff       	sbrs	r24, 0
    2388:	f6 cf       	rjmp	.-20     	; 0x2376 <_ZN14HardwareSerial5writeEh+0x8>
    238a:	04 84       	ldd	r0, Z+12	; 0x0c
    238c:	f5 85       	ldd	r31, Z+13	; 0x0d
    238e:	e0 2d       	mov	r30, r0
    2390:	60 83       	st	Z, r22
    2392:	08 95       	ret

00002394 <_GLOBAL__I_rx_buffer>:
    2394:	25 e1       	ldi	r18, 0x15	; 21
    2396:	33 e0       	ldi	r19, 0x03	; 3
    2398:	30 93 01 06 	sts	0x0601, r19
    239c:	20 93 00 06 	sts	0x0600, r18
    23a0:	80 ef       	ldi	r24, 0xF0	; 240
    23a2:	93 e0       	ldi	r25, 0x03	; 3
    23a4:	90 93 03 06 	sts	0x0603, r25
    23a8:	80 93 02 06 	sts	0x0602, r24
    23ac:	85 ec       	ldi	r24, 0xC5	; 197
    23ae:	90 e0       	ldi	r25, 0x00	; 0
    23b0:	90 93 05 06 	sts	0x0605, r25
    23b4:	80 93 04 06 	sts	0x0604, r24
    23b8:	84 ec       	ldi	r24, 0xC4	; 196
    23ba:	90 e0       	ldi	r25, 0x00	; 0
    23bc:	90 93 07 06 	sts	0x0607, r25
    23c0:	80 93 06 06 	sts	0x0606, r24
    23c4:	80 ec       	ldi	r24, 0xC0	; 192
    23c6:	90 e0       	ldi	r25, 0x00	; 0
    23c8:	90 93 09 06 	sts	0x0609, r25
    23cc:	80 93 08 06 	sts	0x0608, r24
    23d0:	81 ec       	ldi	r24, 0xC1	; 193
    23d2:	90 e0       	ldi	r25, 0x00	; 0
    23d4:	90 93 0b 06 	sts	0x060B, r25
    23d8:	80 93 0a 06 	sts	0x060A, r24
    23dc:	86 ec       	ldi	r24, 0xC6	; 198
    23de:	90 e0       	ldi	r25, 0x00	; 0
    23e0:	90 93 0d 06 	sts	0x060D, r25
    23e4:	80 93 0c 06 	sts	0x060C, r24
    23e8:	e4 e0       	ldi	r30, 0x04	; 4
    23ea:	e0 93 0e 06 	sts	0x060E, r30
    23ee:	73 e0       	ldi	r23, 0x03	; 3
    23f0:	70 93 0f 06 	sts	0x060F, r23
    23f4:	67 e0       	ldi	r22, 0x07	; 7
    23f6:	60 93 10 06 	sts	0x0610, r22
    23fa:	55 e0       	ldi	r21, 0x05	; 5
    23fc:	50 93 11 06 	sts	0x0611, r21
    2400:	41 e0       	ldi	r20, 0x01	; 1
    2402:	40 93 12 06 	sts	0x0612, r20
    2406:	30 93 14 06 	sts	0x0614, r19
    240a:	20 93 13 06 	sts	0x0613, r18
    240e:	84 e7       	ldi	r24, 0x74	; 116
    2410:	94 e0       	ldi	r25, 0x04	; 4
    2412:	90 93 16 06 	sts	0x0616, r25
    2416:	80 93 15 06 	sts	0x0615, r24
    241a:	8d ec       	ldi	r24, 0xCD	; 205
    241c:	90 e0       	ldi	r25, 0x00	; 0
    241e:	90 93 18 06 	sts	0x0618, r25
    2422:	80 93 17 06 	sts	0x0617, r24
    2426:	8c ec       	ldi	r24, 0xCC	; 204
    2428:	90 e0       	ldi	r25, 0x00	; 0
    242a:	90 93 1a 06 	sts	0x061A, r25
    242e:	80 93 19 06 	sts	0x0619, r24
    2432:	88 ec       	ldi	r24, 0xC8	; 200
    2434:	90 e0       	ldi	r25, 0x00	; 0
    2436:	90 93 1c 06 	sts	0x061C, r25
    243a:	80 93 1b 06 	sts	0x061B, r24
    243e:	89 ec       	ldi	r24, 0xC9	; 201
    2440:	90 e0       	ldi	r25, 0x00	; 0
    2442:	90 93 1e 06 	sts	0x061E, r25
    2446:	80 93 1d 06 	sts	0x061D, r24
    244a:	8e ec       	ldi	r24, 0xCE	; 206
    244c:	90 e0       	ldi	r25, 0x00	; 0
    244e:	90 93 20 06 	sts	0x0620, r25
    2452:	80 93 1f 06 	sts	0x061F, r24
    2456:	e0 93 21 06 	sts	0x0621, r30
    245a:	70 93 22 06 	sts	0x0622, r23
    245e:	60 93 23 06 	sts	0x0623, r22
    2462:	50 93 24 06 	sts	0x0624, r21
    2466:	40 93 25 06 	sts	0x0625, r20
    246a:	30 93 27 06 	sts	0x0627, r19
    246e:	20 93 26 06 	sts	0x0626, r18
    2472:	88 ef       	ldi	r24, 0xF8	; 248
    2474:	94 e0       	ldi	r25, 0x04	; 4
    2476:	90 93 29 06 	sts	0x0629, r25
    247a:	80 93 28 06 	sts	0x0628, r24
    247e:	85 ed       	ldi	r24, 0xD5	; 213
    2480:	90 e0       	ldi	r25, 0x00	; 0
    2482:	90 93 2b 06 	sts	0x062B, r25
    2486:	80 93 2a 06 	sts	0x062A, r24
    248a:	84 ed       	ldi	r24, 0xD4	; 212
    248c:	90 e0       	ldi	r25, 0x00	; 0
    248e:	90 93 2d 06 	sts	0x062D, r25
    2492:	80 93 2c 06 	sts	0x062C, r24
    2496:	80 ed       	ldi	r24, 0xD0	; 208
    2498:	90 e0       	ldi	r25, 0x00	; 0
    249a:	90 93 2f 06 	sts	0x062F, r25
    249e:	80 93 2e 06 	sts	0x062E, r24
    24a2:	81 ed       	ldi	r24, 0xD1	; 209
    24a4:	90 e0       	ldi	r25, 0x00	; 0
    24a6:	90 93 31 06 	sts	0x0631, r25
    24aa:	80 93 30 06 	sts	0x0630, r24
    24ae:	86 ed       	ldi	r24, 0xD6	; 214
    24b0:	90 e0       	ldi	r25, 0x00	; 0
    24b2:	90 93 33 06 	sts	0x0633, r25
    24b6:	80 93 32 06 	sts	0x0632, r24
    24ba:	e0 93 34 06 	sts	0x0634, r30
    24be:	70 93 35 06 	sts	0x0635, r23
    24c2:	60 93 36 06 	sts	0x0636, r22
    24c6:	50 93 37 06 	sts	0x0637, r21
    24ca:	40 93 38 06 	sts	0x0638, r20
    24ce:	30 93 3a 06 	sts	0x063A, r19
    24d2:	20 93 39 06 	sts	0x0639, r18
    24d6:	8c e7       	ldi	r24, 0x7C	; 124
    24d8:	95 e0       	ldi	r25, 0x05	; 5
    24da:	90 93 3c 06 	sts	0x063C, r25
    24de:	80 93 3b 06 	sts	0x063B, r24
    24e2:	85 e3       	ldi	r24, 0x35	; 53
    24e4:	91 e0       	ldi	r25, 0x01	; 1
    24e6:	90 93 3e 06 	sts	0x063E, r25
    24ea:	80 93 3d 06 	sts	0x063D, r24
    24ee:	84 e3       	ldi	r24, 0x34	; 52
    24f0:	91 e0       	ldi	r25, 0x01	; 1
    24f2:	90 93 40 06 	sts	0x0640, r25
    24f6:	80 93 3f 06 	sts	0x063F, r24
    24fa:	80 e3       	ldi	r24, 0x30	; 48
    24fc:	91 e0       	ldi	r25, 0x01	; 1
    24fe:	90 93 42 06 	sts	0x0642, r25
    2502:	80 93 41 06 	sts	0x0641, r24
    2506:	81 e3       	ldi	r24, 0x31	; 49
    2508:	91 e0       	ldi	r25, 0x01	; 1
    250a:	90 93 44 06 	sts	0x0644, r25
    250e:	80 93 43 06 	sts	0x0643, r24
    2512:	86 e3       	ldi	r24, 0x36	; 54
    2514:	91 e0       	ldi	r25, 0x01	; 1
    2516:	90 93 46 06 	sts	0x0646, r25
    251a:	80 93 45 06 	sts	0x0645, r24
    251e:	e0 93 47 06 	sts	0x0647, r30
    2522:	70 93 48 06 	sts	0x0648, r23
    2526:	60 93 49 06 	sts	0x0649, r22
    252a:	50 93 4a 06 	sts	0x064A, r21
    252e:	40 93 4b 06 	sts	0x064B, r20
    2532:	08 95       	ret

00002534 <_ZN5Print5writeEPKc>:
    2534:	0f 93       	push	r16
    2536:	1f 93       	push	r17
    2538:	cf 93       	push	r28
    253a:	df 93       	push	r29
    253c:	8c 01       	movw	r16, r24
    253e:	eb 01       	movw	r28, r22
    2540:	09 c0       	rjmp	.+18     	; 0x2554 <_ZN5Print5writeEPKc+0x20>
    2542:	21 96       	adiw	r28, 0x01	; 1
    2544:	d8 01       	movw	r26, r16
    2546:	ed 91       	ld	r30, X+
    2548:	fc 91       	ld	r31, X
    254a:	01 90       	ld	r0, Z+
    254c:	f0 81       	ld	r31, Z
    254e:	e0 2d       	mov	r30, r0
    2550:	c8 01       	movw	r24, r16
    2552:	19 95       	eicall
    2554:	68 81       	ld	r22, Y
    2556:	66 23       	and	r22, r22
    2558:	a1 f7       	brne	.-24     	; 0x2542 <_ZN5Print5writeEPKc+0xe>
    255a:	df 91       	pop	r29
    255c:	cf 91       	pop	r28
    255e:	1f 91       	pop	r17
    2560:	0f 91       	pop	r16
    2562:	08 95       	ret

00002564 <_ZN5Print5writeEPKhj>:
    2564:	ef 92       	push	r14
    2566:	ff 92       	push	r15
    2568:	0f 93       	push	r16
    256a:	1f 93       	push	r17
    256c:	cf 93       	push	r28
    256e:	df 93       	push	r29
    2570:	8c 01       	movw	r16, r24
    2572:	7b 01       	movw	r14, r22
    2574:	ea 01       	movw	r28, r20
    2576:	0c c0       	rjmp	.+24     	; 0x2590 <_ZN5Print5writeEPKhj+0x2c>
    2578:	d7 01       	movw	r26, r14
    257a:	6d 91       	ld	r22, X+
    257c:	7d 01       	movw	r14, r26
    257e:	d8 01       	movw	r26, r16
    2580:	ed 91       	ld	r30, X+
    2582:	fc 91       	ld	r31, X
    2584:	01 90       	ld	r0, Z+
    2586:	f0 81       	ld	r31, Z
    2588:	e0 2d       	mov	r30, r0
    258a:	c8 01       	movw	r24, r16
    258c:	19 95       	eicall
    258e:	21 97       	sbiw	r28, 0x01	; 1
    2590:	20 97       	sbiw	r28, 0x00	; 0
    2592:	91 f7       	brne	.-28     	; 0x2578 <_ZN5Print5writeEPKhj+0x14>
    2594:	df 91       	pop	r29
    2596:	cf 91       	pop	r28
    2598:	1f 91       	pop	r17
    259a:	0f 91       	pop	r16
    259c:	ff 90       	pop	r15
    259e:	ef 90       	pop	r14
    25a0:	08 95       	ret

000025a2 <attachInterrupt>:
    25a2:	88 30       	cpi	r24, 0x08	; 8
    25a4:	08 f0       	brcs	.+2      	; 0x25a8 <attachInterrupt+0x6>
    25a6:	78 c0       	rjmp	.+240    	; 0x2698 <attachInterrupt+0xf6>
    25a8:	e8 2f       	mov	r30, r24
    25aa:	f0 e0       	ldi	r31, 0x00	; 0
    25ac:	ee 0f       	add	r30, r30
    25ae:	ff 1f       	adc	r31, r31
    25b0:	e4 5b       	subi	r30, 0xB4	; 180
    25b2:	f9 4f       	sbci	r31, 0xF9	; 249
    25b4:	71 83       	std	Z+1, r23	; 0x01
    25b6:	60 83       	st	Z, r22
    25b8:	83 30       	cpi	r24, 0x03	; 3
    25ba:	d9 f0       	breq	.+54     	; 0x25f2 <attachInterrupt+0x50>
    25bc:	84 30       	cpi	r24, 0x04	; 4
    25be:	30 f4       	brcc	.+12     	; 0x25cc <attachInterrupt+0x2a>
    25c0:	81 30       	cpi	r24, 0x01	; 1
    25c2:	09 f4       	brne	.+2      	; 0x25c6 <attachInterrupt+0x24>
    25c4:	44 c0       	rjmp	.+136    	; 0x264e <attachInterrupt+0xac>
    25c6:	82 30       	cpi	r24, 0x02	; 2
    25c8:	60 f4       	brcc	.+24     	; 0x25e2 <attachInterrupt+0x40>
    25ca:	39 c0       	rjmp	.+114    	; 0x263e <attachInterrupt+0x9c>
    25cc:	85 30       	cpi	r24, 0x05	; 5
    25ce:	51 f1       	breq	.+84     	; 0x2624 <attachInterrupt+0x82>
    25d0:	85 30       	cpi	r24, 0x05	; 5
    25d2:	d8 f0       	brcs	.+54     	; 0x260a <attachInterrupt+0x68>
    25d4:	86 30       	cpi	r24, 0x06	; 6
    25d6:	09 f4       	brne	.+2      	; 0x25da <attachInterrupt+0x38>
    25d8:	46 c0       	rjmp	.+140    	; 0x2666 <attachInterrupt+0xc4>
    25da:	87 30       	cpi	r24, 0x07	; 7
    25dc:	09 f0       	breq	.+2      	; 0x25e0 <attachInterrupt+0x3e>
    25de:	5c c0       	rjmp	.+184    	; 0x2698 <attachInterrupt+0xf6>
    25e0:	4f c0       	rjmp	.+158    	; 0x2680 <attachInterrupt+0xde>
    25e2:	80 91 69 00 	lds	r24, 0x0069
    25e6:	8c 7f       	andi	r24, 0xFC	; 252
    25e8:	84 2b       	or	r24, r20
    25ea:	80 93 69 00 	sts	0x0069, r24
    25ee:	e8 9a       	sbi	0x1d, 0	; 29
    25f0:	08 95       	ret
    25f2:	80 91 69 00 	lds	r24, 0x0069
    25f6:	44 0f       	add	r20, r20
    25f8:	55 1f       	adc	r21, r21
    25fa:	44 0f       	add	r20, r20
    25fc:	55 1f       	adc	r21, r21
    25fe:	83 7f       	andi	r24, 0xF3	; 243
    2600:	84 2b       	or	r24, r20
    2602:	80 93 69 00 	sts	0x0069, r24
    2606:	e9 9a       	sbi	0x1d, 1	; 29
    2608:	08 95       	ret
    260a:	80 91 69 00 	lds	r24, 0x0069
    260e:	74 e0       	ldi	r23, 0x04	; 4
    2610:	44 0f       	add	r20, r20
    2612:	55 1f       	adc	r21, r21
    2614:	7a 95       	dec	r23
    2616:	e1 f7       	brne	.-8      	; 0x2610 <attachInterrupt+0x6e>
    2618:	8f 7c       	andi	r24, 0xCF	; 207
    261a:	84 2b       	or	r24, r20
    261c:	80 93 69 00 	sts	0x0069, r24
    2620:	ea 9a       	sbi	0x1d, 2	; 29
    2622:	08 95       	ret
    2624:	80 91 69 00 	lds	r24, 0x0069
    2628:	66 e0       	ldi	r22, 0x06	; 6
    262a:	44 0f       	add	r20, r20
    262c:	55 1f       	adc	r21, r21
    262e:	6a 95       	dec	r22
    2630:	e1 f7       	brne	.-8      	; 0x262a <attachInterrupt+0x88>
    2632:	8f 73       	andi	r24, 0x3F	; 63
    2634:	84 2b       	or	r24, r20
    2636:	80 93 69 00 	sts	0x0069, r24
    263a:	eb 9a       	sbi	0x1d, 3	; 29
    263c:	08 95       	ret
    263e:	80 91 6a 00 	lds	r24, 0x006A
    2642:	8c 7f       	andi	r24, 0xFC	; 252
    2644:	84 2b       	or	r24, r20
    2646:	80 93 6a 00 	sts	0x006A, r24
    264a:	ec 9a       	sbi	0x1d, 4	; 29
    264c:	08 95       	ret
    264e:	80 91 6a 00 	lds	r24, 0x006A
    2652:	44 0f       	add	r20, r20
    2654:	55 1f       	adc	r21, r21
    2656:	44 0f       	add	r20, r20
    2658:	55 1f       	adc	r21, r21
    265a:	83 7f       	andi	r24, 0xF3	; 243
    265c:	84 2b       	or	r24, r20
    265e:	80 93 6a 00 	sts	0x006A, r24
    2662:	ed 9a       	sbi	0x1d, 5	; 29
    2664:	08 95       	ret
    2666:	80 91 6a 00 	lds	r24, 0x006A
    266a:	24 e0       	ldi	r18, 0x04	; 4
    266c:	44 0f       	add	r20, r20
    266e:	55 1f       	adc	r21, r21
    2670:	2a 95       	dec	r18
    2672:	e1 f7       	brne	.-8      	; 0x266c <attachInterrupt+0xca>
    2674:	8f 7c       	andi	r24, 0xCF	; 207
    2676:	84 2b       	or	r24, r20
    2678:	80 93 6a 00 	sts	0x006A, r24
    267c:	ee 9a       	sbi	0x1d, 6	; 29
    267e:	08 95       	ret
    2680:	80 91 6a 00 	lds	r24, 0x006A
    2684:	96 e0       	ldi	r25, 0x06	; 6
    2686:	44 0f       	add	r20, r20
    2688:	55 1f       	adc	r21, r21
    268a:	9a 95       	dec	r25
    268c:	e1 f7       	brne	.-8      	; 0x2686 <attachInterrupt+0xe4>
    268e:	8f 73       	andi	r24, 0x3F	; 63
    2690:	84 2b       	or	r24, r20
    2692:	80 93 6a 00 	sts	0x006A, r24
    2696:	ef 9a       	sbi	0x1d, 7	; 29
    2698:	08 95       	ret

0000269a <__vector_1>:
    269a:	1f 92       	push	r1
    269c:	0f 92       	push	r0
    269e:	0f b6       	in	r0, 0x3f	; 63
    26a0:	0f 92       	push	r0
    26a2:	0b b6       	in	r0, 0x3b	; 59
    26a4:	0f 92       	push	r0
    26a6:	11 24       	eor	r1, r1
    26a8:	2f 93       	push	r18
    26aa:	3f 93       	push	r19
    26ac:	4f 93       	push	r20
    26ae:	5f 93       	push	r21
    26b0:	6f 93       	push	r22
    26b2:	7f 93       	push	r23
    26b4:	8f 93       	push	r24
    26b6:	9f 93       	push	r25
    26b8:	af 93       	push	r26
    26ba:	bf 93       	push	r27
    26bc:	ef 93       	push	r30
    26be:	ff 93       	push	r31
    26c0:	80 91 50 06 	lds	r24, 0x0650
    26c4:	90 91 51 06 	lds	r25, 0x0651
    26c8:	89 2b       	or	r24, r25
    26ca:	29 f0       	breq	.+10     	; 0x26d6 <__vector_1+0x3c>
    26cc:	e0 91 50 06 	lds	r30, 0x0650
    26d0:	f0 91 51 06 	lds	r31, 0x0651
    26d4:	19 95       	eicall
    26d6:	ff 91       	pop	r31
    26d8:	ef 91       	pop	r30
    26da:	bf 91       	pop	r27
    26dc:	af 91       	pop	r26
    26de:	9f 91       	pop	r25
    26e0:	8f 91       	pop	r24
    26e2:	7f 91       	pop	r23
    26e4:	6f 91       	pop	r22
    26e6:	5f 91       	pop	r21
    26e8:	4f 91       	pop	r20
    26ea:	3f 91       	pop	r19
    26ec:	2f 91       	pop	r18
    26ee:	0f 90       	pop	r0
    26f0:	0b be       	out	0x3b, r0	; 59
    26f2:	0f 90       	pop	r0
    26f4:	0f be       	out	0x3f, r0	; 63
    26f6:	0f 90       	pop	r0
    26f8:	1f 90       	pop	r1
    26fa:	18 95       	reti

000026fc <__vector_2>:
    26fc:	1f 92       	push	r1
    26fe:	0f 92       	push	r0
    2700:	0f b6       	in	r0, 0x3f	; 63
    2702:	0f 92       	push	r0
    2704:	0b b6       	in	r0, 0x3b	; 59
    2706:	0f 92       	push	r0
    2708:	11 24       	eor	r1, r1
    270a:	2f 93       	push	r18
    270c:	3f 93       	push	r19
    270e:	4f 93       	push	r20
    2710:	5f 93       	push	r21
    2712:	6f 93       	push	r22
    2714:	7f 93       	push	r23
    2716:	8f 93       	push	r24
    2718:	9f 93       	push	r25
    271a:	af 93       	push	r26
    271c:	bf 93       	push	r27
    271e:	ef 93       	push	r30
    2720:	ff 93       	push	r31
    2722:	80 91 52 06 	lds	r24, 0x0652
    2726:	90 91 53 06 	lds	r25, 0x0653
    272a:	89 2b       	or	r24, r25
    272c:	29 f0       	breq	.+10     	; 0x2738 <__vector_2+0x3c>
    272e:	e0 91 52 06 	lds	r30, 0x0652
    2732:	f0 91 53 06 	lds	r31, 0x0653
    2736:	19 95       	eicall
    2738:	ff 91       	pop	r31
    273a:	ef 91       	pop	r30
    273c:	bf 91       	pop	r27
    273e:	af 91       	pop	r26
    2740:	9f 91       	pop	r25
    2742:	8f 91       	pop	r24
    2744:	7f 91       	pop	r23
    2746:	6f 91       	pop	r22
    2748:	5f 91       	pop	r21
    274a:	4f 91       	pop	r20
    274c:	3f 91       	pop	r19
    274e:	2f 91       	pop	r18
    2750:	0f 90       	pop	r0
    2752:	0b be       	out	0x3b, r0	; 59
    2754:	0f 90       	pop	r0
    2756:	0f be       	out	0x3f, r0	; 63
    2758:	0f 90       	pop	r0
    275a:	1f 90       	pop	r1
    275c:	18 95       	reti

0000275e <__vector_3>:
    275e:	1f 92       	push	r1
    2760:	0f 92       	push	r0
    2762:	0f b6       	in	r0, 0x3f	; 63
    2764:	0f 92       	push	r0
    2766:	0b b6       	in	r0, 0x3b	; 59
    2768:	0f 92       	push	r0
    276a:	11 24       	eor	r1, r1
    276c:	2f 93       	push	r18
    276e:	3f 93       	push	r19
    2770:	4f 93       	push	r20
    2772:	5f 93       	push	r21
    2774:	6f 93       	push	r22
    2776:	7f 93       	push	r23
    2778:	8f 93       	push	r24
    277a:	9f 93       	push	r25
    277c:	af 93       	push	r26
    277e:	bf 93       	push	r27
    2780:	ef 93       	push	r30
    2782:	ff 93       	push	r31
    2784:	80 91 54 06 	lds	r24, 0x0654
    2788:	90 91 55 06 	lds	r25, 0x0655
    278c:	89 2b       	or	r24, r25
    278e:	29 f0       	breq	.+10     	; 0x279a <__vector_3+0x3c>
    2790:	e0 91 54 06 	lds	r30, 0x0654
    2794:	f0 91 55 06 	lds	r31, 0x0655
    2798:	19 95       	eicall
    279a:	ff 91       	pop	r31
    279c:	ef 91       	pop	r30
    279e:	bf 91       	pop	r27
    27a0:	af 91       	pop	r26
    27a2:	9f 91       	pop	r25
    27a4:	8f 91       	pop	r24
    27a6:	7f 91       	pop	r23
    27a8:	6f 91       	pop	r22
    27aa:	5f 91       	pop	r21
    27ac:	4f 91       	pop	r20
    27ae:	3f 91       	pop	r19
    27b0:	2f 91       	pop	r18
    27b2:	0f 90       	pop	r0
    27b4:	0b be       	out	0x3b, r0	; 59
    27b6:	0f 90       	pop	r0
    27b8:	0f be       	out	0x3f, r0	; 63
    27ba:	0f 90       	pop	r0
    27bc:	1f 90       	pop	r1
    27be:	18 95       	reti

000027c0 <__vector_4>:
    27c0:	1f 92       	push	r1
    27c2:	0f 92       	push	r0
    27c4:	0f b6       	in	r0, 0x3f	; 63
    27c6:	0f 92       	push	r0
    27c8:	0b b6       	in	r0, 0x3b	; 59
    27ca:	0f 92       	push	r0
    27cc:	11 24       	eor	r1, r1
    27ce:	2f 93       	push	r18
    27d0:	3f 93       	push	r19
    27d2:	4f 93       	push	r20
    27d4:	5f 93       	push	r21
    27d6:	6f 93       	push	r22
    27d8:	7f 93       	push	r23
    27da:	8f 93       	push	r24
    27dc:	9f 93       	push	r25
    27de:	af 93       	push	r26
    27e0:	bf 93       	push	r27
    27e2:	ef 93       	push	r30
    27e4:	ff 93       	push	r31
    27e6:	80 91 56 06 	lds	r24, 0x0656
    27ea:	90 91 57 06 	lds	r25, 0x0657
    27ee:	89 2b       	or	r24, r25
    27f0:	29 f0       	breq	.+10     	; 0x27fc <__vector_4+0x3c>
    27f2:	e0 91 56 06 	lds	r30, 0x0656
    27f6:	f0 91 57 06 	lds	r31, 0x0657
    27fa:	19 95       	eicall
    27fc:	ff 91       	pop	r31
    27fe:	ef 91       	pop	r30
    2800:	bf 91       	pop	r27
    2802:	af 91       	pop	r26
    2804:	9f 91       	pop	r25
    2806:	8f 91       	pop	r24
    2808:	7f 91       	pop	r23
    280a:	6f 91       	pop	r22
    280c:	5f 91       	pop	r21
    280e:	4f 91       	pop	r20
    2810:	3f 91       	pop	r19
    2812:	2f 91       	pop	r18
    2814:	0f 90       	pop	r0
    2816:	0b be       	out	0x3b, r0	; 59
    2818:	0f 90       	pop	r0
    281a:	0f be       	out	0x3f, r0	; 63
    281c:	0f 90       	pop	r0
    281e:	1f 90       	pop	r1
    2820:	18 95       	reti

00002822 <__vector_5>:
    2822:	1f 92       	push	r1
    2824:	0f 92       	push	r0
    2826:	0f b6       	in	r0, 0x3f	; 63
    2828:	0f 92       	push	r0
    282a:	0b b6       	in	r0, 0x3b	; 59
    282c:	0f 92       	push	r0
    282e:	11 24       	eor	r1, r1
    2830:	2f 93       	push	r18
    2832:	3f 93       	push	r19
    2834:	4f 93       	push	r20
    2836:	5f 93       	push	r21
    2838:	6f 93       	push	r22
    283a:	7f 93       	push	r23
    283c:	8f 93       	push	r24
    283e:	9f 93       	push	r25
    2840:	af 93       	push	r26
    2842:	bf 93       	push	r27
    2844:	ef 93       	push	r30
    2846:	ff 93       	push	r31
    2848:	80 91 4c 06 	lds	r24, 0x064C
    284c:	90 91 4d 06 	lds	r25, 0x064D
    2850:	89 2b       	or	r24, r25
    2852:	29 f0       	breq	.+10     	; 0x285e <__vector_5+0x3c>
    2854:	e0 91 4c 06 	lds	r30, 0x064C
    2858:	f0 91 4d 06 	lds	r31, 0x064D
    285c:	19 95       	eicall
    285e:	ff 91       	pop	r31
    2860:	ef 91       	pop	r30
    2862:	bf 91       	pop	r27
    2864:	af 91       	pop	r26
    2866:	9f 91       	pop	r25
    2868:	8f 91       	pop	r24
    286a:	7f 91       	pop	r23
    286c:	6f 91       	pop	r22
    286e:	5f 91       	pop	r21
    2870:	4f 91       	pop	r20
    2872:	3f 91       	pop	r19
    2874:	2f 91       	pop	r18
    2876:	0f 90       	pop	r0
    2878:	0b be       	out	0x3b, r0	; 59
    287a:	0f 90       	pop	r0
    287c:	0f be       	out	0x3f, r0	; 63
    287e:	0f 90       	pop	r0
    2880:	1f 90       	pop	r1
    2882:	18 95       	reti

00002884 <__vector_6>:
    2884:	1f 92       	push	r1
    2886:	0f 92       	push	r0
    2888:	0f b6       	in	r0, 0x3f	; 63
    288a:	0f 92       	push	r0
    288c:	0b b6       	in	r0, 0x3b	; 59
    288e:	0f 92       	push	r0
    2890:	11 24       	eor	r1, r1
    2892:	2f 93       	push	r18
    2894:	3f 93       	push	r19
    2896:	4f 93       	push	r20
    2898:	5f 93       	push	r21
    289a:	6f 93       	push	r22
    289c:	7f 93       	push	r23
    289e:	8f 93       	push	r24
    28a0:	9f 93       	push	r25
    28a2:	af 93       	push	r26
    28a4:	bf 93       	push	r27
    28a6:	ef 93       	push	r30
    28a8:	ff 93       	push	r31
    28aa:	80 91 4e 06 	lds	r24, 0x064E
    28ae:	90 91 4f 06 	lds	r25, 0x064F
    28b2:	89 2b       	or	r24, r25
    28b4:	29 f0       	breq	.+10     	; 0x28c0 <__vector_6+0x3c>
    28b6:	e0 91 4e 06 	lds	r30, 0x064E
    28ba:	f0 91 4f 06 	lds	r31, 0x064F
    28be:	19 95       	eicall
    28c0:	ff 91       	pop	r31
    28c2:	ef 91       	pop	r30
    28c4:	bf 91       	pop	r27
    28c6:	af 91       	pop	r26
    28c8:	9f 91       	pop	r25
    28ca:	8f 91       	pop	r24
    28cc:	7f 91       	pop	r23
    28ce:	6f 91       	pop	r22
    28d0:	5f 91       	pop	r21
    28d2:	4f 91       	pop	r20
    28d4:	3f 91       	pop	r19
    28d6:	2f 91       	pop	r18
    28d8:	0f 90       	pop	r0
    28da:	0b be       	out	0x3b, r0	; 59
    28dc:	0f 90       	pop	r0
    28de:	0f be       	out	0x3f, r0	; 63
    28e0:	0f 90       	pop	r0
    28e2:	1f 90       	pop	r1
    28e4:	18 95       	reti

000028e6 <__vector_7>:
    28e6:	1f 92       	push	r1
    28e8:	0f 92       	push	r0
    28ea:	0f b6       	in	r0, 0x3f	; 63
    28ec:	0f 92       	push	r0
    28ee:	0b b6       	in	r0, 0x3b	; 59
    28f0:	0f 92       	push	r0
    28f2:	11 24       	eor	r1, r1
    28f4:	2f 93       	push	r18
    28f6:	3f 93       	push	r19
    28f8:	4f 93       	push	r20
    28fa:	5f 93       	push	r21
    28fc:	6f 93       	push	r22
    28fe:	7f 93       	push	r23
    2900:	8f 93       	push	r24
    2902:	9f 93       	push	r25
    2904:	af 93       	push	r26
    2906:	bf 93       	push	r27
    2908:	ef 93       	push	r30
    290a:	ff 93       	push	r31
    290c:	80 91 58 06 	lds	r24, 0x0658
    2910:	90 91 59 06 	lds	r25, 0x0659
    2914:	89 2b       	or	r24, r25
    2916:	29 f0       	breq	.+10     	; 0x2922 <__vector_7+0x3c>
    2918:	e0 91 58 06 	lds	r30, 0x0658
    291c:	f0 91 59 06 	lds	r31, 0x0659
    2920:	19 95       	eicall
    2922:	ff 91       	pop	r31
    2924:	ef 91       	pop	r30
    2926:	bf 91       	pop	r27
    2928:	af 91       	pop	r26
    292a:	9f 91       	pop	r25
    292c:	8f 91       	pop	r24
    292e:	7f 91       	pop	r23
    2930:	6f 91       	pop	r22
    2932:	5f 91       	pop	r21
    2934:	4f 91       	pop	r20
    2936:	3f 91       	pop	r19
    2938:	2f 91       	pop	r18
    293a:	0f 90       	pop	r0
    293c:	0b be       	out	0x3b, r0	; 59
    293e:	0f 90       	pop	r0
    2940:	0f be       	out	0x3f, r0	; 63
    2942:	0f 90       	pop	r0
    2944:	1f 90       	pop	r1
    2946:	18 95       	reti

00002948 <__vector_8>:
    2948:	1f 92       	push	r1
    294a:	0f 92       	push	r0
    294c:	0f b6       	in	r0, 0x3f	; 63
    294e:	0f 92       	push	r0
    2950:	0b b6       	in	r0, 0x3b	; 59
    2952:	0f 92       	push	r0
    2954:	11 24       	eor	r1, r1
    2956:	2f 93       	push	r18
    2958:	3f 93       	push	r19
    295a:	4f 93       	push	r20
    295c:	5f 93       	push	r21
    295e:	6f 93       	push	r22
    2960:	7f 93       	push	r23
    2962:	8f 93       	push	r24
    2964:	9f 93       	push	r25
    2966:	af 93       	push	r26
    2968:	bf 93       	push	r27
    296a:	ef 93       	push	r30
    296c:	ff 93       	push	r31
    296e:	80 91 5a 06 	lds	r24, 0x065A
    2972:	90 91 5b 06 	lds	r25, 0x065B
    2976:	89 2b       	or	r24, r25
    2978:	29 f0       	breq	.+10     	; 0x2984 <__vector_8+0x3c>
    297a:	e0 91 5a 06 	lds	r30, 0x065A
    297e:	f0 91 5b 06 	lds	r31, 0x065B
    2982:	19 95       	eicall
    2984:	ff 91       	pop	r31
    2986:	ef 91       	pop	r30
    2988:	bf 91       	pop	r27
    298a:	af 91       	pop	r26
    298c:	9f 91       	pop	r25
    298e:	8f 91       	pop	r24
    2990:	7f 91       	pop	r23
    2992:	6f 91       	pop	r22
    2994:	5f 91       	pop	r21
    2996:	4f 91       	pop	r20
    2998:	3f 91       	pop	r19
    299a:	2f 91       	pop	r18
    299c:	0f 90       	pop	r0
    299e:	0b be       	out	0x3b, r0	; 59
    29a0:	0f 90       	pop	r0
    29a2:	0f be       	out	0x3f, r0	; 63
    29a4:	0f 90       	pop	r0
    29a6:	1f 90       	pop	r1
    29a8:	18 95       	reti

000029aa <_Z3maplllll>:
    29aa:	2f 92       	push	r2
    29ac:	3f 92       	push	r3
    29ae:	4f 92       	push	r4
    29b0:	5f 92       	push	r5
    29b2:	6f 92       	push	r6
    29b4:	7f 92       	push	r7
    29b6:	8f 92       	push	r8
    29b8:	9f 92       	push	r9
    29ba:	af 92       	push	r10
    29bc:	bf 92       	push	r11
    29be:	cf 92       	push	r12
    29c0:	df 92       	push	r13
    29c2:	ef 92       	push	r14
    29c4:	ff 92       	push	r15
    29c6:	0f 93       	push	r16
    29c8:	1f 93       	push	r17
    29ca:	df 93       	push	r29
    29cc:	cf 93       	push	r28
    29ce:	cd b7       	in	r28, 0x3d	; 61
    29d0:	de b7       	in	r29, 0x3e	; 62
    29d2:	3b 01       	movw	r6, r22
    29d4:	4c 01       	movw	r8, r24
    29d6:	19 01       	movw	r2, r18
    29d8:	2a 01       	movw	r4, r20
    29da:	6e 89       	ldd	r22, Y+22	; 0x16
    29dc:	7f 89       	ldd	r23, Y+23	; 0x17
    29de:	88 8d       	ldd	r24, Y+24	; 0x18
    29e0:	99 8d       	ldd	r25, Y+25	; 0x19
    29e2:	6a 19       	sub	r22, r10
    29e4:	7b 09       	sbc	r23, r11
    29e6:	8c 09       	sbc	r24, r12
    29e8:	9d 09       	sbc	r25, r13
    29ea:	62 1a       	sub	r6, r18
    29ec:	73 0a       	sbc	r7, r19
    29ee:	84 0a       	sbc	r8, r20
    29f0:	95 0a       	sbc	r9, r21
    29f2:	a4 01       	movw	r20, r8
    29f4:	93 01       	movw	r18, r6
    29f6:	0e 94 ff 19 	call	0x33fe	; 0x33fe <__mulsi3>
    29fa:	e2 18       	sub	r14, r2
    29fc:	f3 08       	sbc	r15, r3
    29fe:	04 09       	sbc	r16, r4
    2a00:	15 09       	sbc	r17, r5
    2a02:	a8 01       	movw	r20, r16
    2a04:	97 01       	movw	r18, r14
    2a06:	0e 94 73 1a 	call	0x34e6	; 0x34e6 <__divmodsi4>
    2a0a:	2a 0d       	add	r18, r10
    2a0c:	3b 1d       	adc	r19, r11
    2a0e:	4c 1d       	adc	r20, r12
    2a10:	5d 1d       	adc	r21, r13
    2a12:	b9 01       	movw	r22, r18
    2a14:	ca 01       	movw	r24, r20
    2a16:	cf 91       	pop	r28
    2a18:	df 91       	pop	r29
    2a1a:	1f 91       	pop	r17
    2a1c:	0f 91       	pop	r16
    2a1e:	ff 90       	pop	r15
    2a20:	ef 90       	pop	r14
    2a22:	df 90       	pop	r13
    2a24:	cf 90       	pop	r12
    2a26:	bf 90       	pop	r11
    2a28:	af 90       	pop	r10
    2a2a:	9f 90       	pop	r9
    2a2c:	8f 90       	pop	r8
    2a2e:	7f 90       	pop	r7
    2a30:	6f 90       	pop	r6
    2a32:	5f 90       	pop	r5
    2a34:	4f 90       	pop	r4
    2a36:	3f 90       	pop	r3
    2a38:	2f 90       	pop	r2
    2a3a:	08 95       	ret

00002a3c <__vector_23>:
    2a3c:	1f 92       	push	r1
    2a3e:	0f 92       	push	r0
    2a40:	0f b6       	in	r0, 0x3f	; 63
    2a42:	0f 92       	push	r0
    2a44:	11 24       	eor	r1, r1
    2a46:	2f 93       	push	r18
    2a48:	3f 93       	push	r19
    2a4a:	8f 93       	push	r24
    2a4c:	9f 93       	push	r25
    2a4e:	af 93       	push	r26
    2a50:	bf 93       	push	r27
    2a52:	80 91 60 06 	lds	r24, 0x0660
    2a56:	90 91 61 06 	lds	r25, 0x0661
    2a5a:	a0 91 62 06 	lds	r26, 0x0662
    2a5e:	b0 91 63 06 	lds	r27, 0x0663
    2a62:	30 91 64 06 	lds	r19, 0x0664
    2a66:	01 96       	adiw	r24, 0x01	; 1
    2a68:	a1 1d       	adc	r26, r1
    2a6a:	b1 1d       	adc	r27, r1
    2a6c:	23 2f       	mov	r18, r19
    2a6e:	2d 5f       	subi	r18, 0xFD	; 253
    2a70:	2d 37       	cpi	r18, 0x7D	; 125
    2a72:	20 f0       	brcs	.+8      	; 0x2a7c <__vector_23+0x40>
    2a74:	2d 57       	subi	r18, 0x7D	; 125
    2a76:	01 96       	adiw	r24, 0x01	; 1
    2a78:	a1 1d       	adc	r26, r1
    2a7a:	b1 1d       	adc	r27, r1
    2a7c:	20 93 64 06 	sts	0x0664, r18
    2a80:	80 93 60 06 	sts	0x0660, r24
    2a84:	90 93 61 06 	sts	0x0661, r25
    2a88:	a0 93 62 06 	sts	0x0662, r26
    2a8c:	b0 93 63 06 	sts	0x0663, r27
    2a90:	80 91 5c 06 	lds	r24, 0x065C
    2a94:	90 91 5d 06 	lds	r25, 0x065D
    2a98:	a0 91 5e 06 	lds	r26, 0x065E
    2a9c:	b0 91 5f 06 	lds	r27, 0x065F
    2aa0:	01 96       	adiw	r24, 0x01	; 1
    2aa2:	a1 1d       	adc	r26, r1
    2aa4:	b1 1d       	adc	r27, r1
    2aa6:	80 93 5c 06 	sts	0x065C, r24
    2aaa:	90 93 5d 06 	sts	0x065D, r25
    2aae:	a0 93 5e 06 	sts	0x065E, r26
    2ab2:	b0 93 5f 06 	sts	0x065F, r27
    2ab6:	bf 91       	pop	r27
    2ab8:	af 91       	pop	r26
    2aba:	9f 91       	pop	r25
    2abc:	8f 91       	pop	r24
    2abe:	3f 91       	pop	r19
    2ac0:	2f 91       	pop	r18
    2ac2:	0f 90       	pop	r0
    2ac4:	0f be       	out	0x3f, r0	; 63
    2ac6:	0f 90       	pop	r0
    2ac8:	1f 90       	pop	r1
    2aca:	18 95       	reti

00002acc <millis>:
    2acc:	8f b7       	in	r24, 0x3f	; 63
    2ace:	f8 94       	cli
    2ad0:	20 91 60 06 	lds	r18, 0x0660
    2ad4:	30 91 61 06 	lds	r19, 0x0661
    2ad8:	40 91 62 06 	lds	r20, 0x0662
    2adc:	50 91 63 06 	lds	r21, 0x0663
    2ae0:	8f bf       	out	0x3f, r24	; 63
    2ae2:	b9 01       	movw	r22, r18
    2ae4:	ca 01       	movw	r24, r20
    2ae6:	08 95       	ret

00002ae8 <micros>:
    2ae8:	9f b7       	in	r25, 0x3f	; 63
    2aea:	f8 94       	cli
    2aec:	20 91 5c 06 	lds	r18, 0x065C
    2af0:	30 91 5d 06 	lds	r19, 0x065D
    2af4:	40 91 5e 06 	lds	r20, 0x065E
    2af8:	50 91 5f 06 	lds	r21, 0x065F
    2afc:	86 b5       	in	r24, 0x26	; 38
    2afe:	a8 9b       	sbis	0x15, 0	; 21
    2b00:	06 c0       	rjmp	.+12     	; 0x2b0e <micros+0x26>
    2b02:	8f 3f       	cpi	r24, 0xFF	; 255
    2b04:	21 f0       	breq	.+8      	; 0x2b0e <micros+0x26>
    2b06:	2f 5f       	subi	r18, 0xFF	; 255
    2b08:	3f 4f       	sbci	r19, 0xFF	; 255
    2b0a:	4f 4f       	sbci	r20, 0xFF	; 255
    2b0c:	5f 4f       	sbci	r21, 0xFF	; 255
    2b0e:	9f bf       	out	0x3f, r25	; 63
    2b10:	54 2f       	mov	r21, r20
    2b12:	43 2f       	mov	r20, r19
    2b14:	32 2f       	mov	r19, r18
    2b16:	22 27       	eor	r18, r18
    2b18:	28 0f       	add	r18, r24
    2b1a:	31 1d       	adc	r19, r1
    2b1c:	41 1d       	adc	r20, r1
    2b1e:	51 1d       	adc	r21, r1
    2b20:	82 e0       	ldi	r24, 0x02	; 2
    2b22:	22 0f       	add	r18, r18
    2b24:	33 1f       	adc	r19, r19
    2b26:	44 1f       	adc	r20, r20
    2b28:	55 1f       	adc	r21, r21
    2b2a:	8a 95       	dec	r24
    2b2c:	d1 f7       	brne	.-12     	; 0x2b22 <micros+0x3a>
    2b2e:	b9 01       	movw	r22, r18
    2b30:	ca 01       	movw	r24, r20
    2b32:	08 95       	ret

00002b34 <delay>:
    2b34:	ef 92       	push	r14
    2b36:	ff 92       	push	r15
    2b38:	0f 93       	push	r16
    2b3a:	1f 93       	push	r17
    2b3c:	cf 93       	push	r28
    2b3e:	df 93       	push	r29
    2b40:	7b 01       	movw	r14, r22
    2b42:	8c 01       	movw	r16, r24
    2b44:	0e 94 74 15 	call	0x2ae8	; 0x2ae8 <micros>
    2b48:	eb 01       	movw	r28, r22
    2b4a:	0e c0       	rjmp	.+28     	; 0x2b68 <delay+0x34>
    2b4c:	0e 94 74 15 	call	0x2ae8	; 0x2ae8 <micros>
    2b50:	6c 1b       	sub	r22, r28
    2b52:	7d 0b       	sbc	r23, r29
    2b54:	68 5e       	subi	r22, 0xE8	; 232
    2b56:	73 40       	sbci	r23, 0x03	; 3
    2b58:	c8 f3       	brcs	.-14     	; 0x2b4c <delay+0x18>
    2b5a:	08 94       	sec
    2b5c:	e1 08       	sbc	r14, r1
    2b5e:	f1 08       	sbc	r15, r1
    2b60:	01 09       	sbc	r16, r1
    2b62:	11 09       	sbc	r17, r1
    2b64:	c8 51       	subi	r28, 0x18	; 24
    2b66:	dc 4f       	sbci	r29, 0xFC	; 252
    2b68:	e1 14       	cp	r14, r1
    2b6a:	f1 04       	cpc	r15, r1
    2b6c:	01 05       	cpc	r16, r1
    2b6e:	11 05       	cpc	r17, r1
    2b70:	69 f7       	brne	.-38     	; 0x2b4c <delay+0x18>
    2b72:	df 91       	pop	r29
    2b74:	cf 91       	pop	r28
    2b76:	1f 91       	pop	r17
    2b78:	0f 91       	pop	r16
    2b7a:	ff 90       	pop	r15
    2b7c:	ef 90       	pop	r14
    2b7e:	08 95       	ret

00002b80 <init>:
    2b80:	78 94       	sei
    2b82:	84 b5       	in	r24, 0x24	; 36
    2b84:	82 60       	ori	r24, 0x02	; 2
    2b86:	84 bd       	out	0x24, r24	; 36
    2b88:	84 b5       	in	r24, 0x24	; 36
    2b8a:	81 60       	ori	r24, 0x01	; 1
    2b8c:	84 bd       	out	0x24, r24	; 36
    2b8e:	85 b5       	in	r24, 0x25	; 37
    2b90:	82 60       	ori	r24, 0x02	; 2
    2b92:	85 bd       	out	0x25, r24	; 37
    2b94:	85 b5       	in	r24, 0x25	; 37
    2b96:	81 60       	ori	r24, 0x01	; 1
    2b98:	85 bd       	out	0x25, r24	; 37
    2b9a:	ee e6       	ldi	r30, 0x6E	; 110
    2b9c:	f0 e0       	ldi	r31, 0x00	; 0
    2b9e:	80 81       	ld	r24, Z
    2ba0:	81 60       	ori	r24, 0x01	; 1
    2ba2:	80 83       	st	Z, r24
    2ba4:	e1 e8       	ldi	r30, 0x81	; 129
    2ba6:	f0 e0       	ldi	r31, 0x00	; 0
    2ba8:	10 82       	st	Z, r1
    2baa:	80 81       	ld	r24, Z
    2bac:	82 60       	ori	r24, 0x02	; 2
    2bae:	80 83       	st	Z, r24
    2bb0:	80 81       	ld	r24, Z
    2bb2:	81 60       	ori	r24, 0x01	; 1
    2bb4:	80 83       	st	Z, r24
    2bb6:	e0 e8       	ldi	r30, 0x80	; 128
    2bb8:	f0 e0       	ldi	r31, 0x00	; 0
    2bba:	80 81       	ld	r24, Z
    2bbc:	81 60       	ori	r24, 0x01	; 1
    2bbe:	80 83       	st	Z, r24
    2bc0:	e1 eb       	ldi	r30, 0xB1	; 177
    2bc2:	f0 e0       	ldi	r31, 0x00	; 0
    2bc4:	80 81       	ld	r24, Z
    2bc6:	84 60       	ori	r24, 0x04	; 4
    2bc8:	80 83       	st	Z, r24
    2bca:	e0 eb       	ldi	r30, 0xB0	; 176
    2bcc:	f0 e0       	ldi	r31, 0x00	; 0
    2bce:	80 81       	ld	r24, Z
    2bd0:	81 60       	ori	r24, 0x01	; 1
    2bd2:	80 83       	st	Z, r24
    2bd4:	e1 e9       	ldi	r30, 0x91	; 145
    2bd6:	f0 e0       	ldi	r31, 0x00	; 0
    2bd8:	80 81       	ld	r24, Z
    2bda:	82 60       	ori	r24, 0x02	; 2
    2bdc:	80 83       	st	Z, r24
    2bde:	80 81       	ld	r24, Z
    2be0:	81 60       	ori	r24, 0x01	; 1
    2be2:	80 83       	st	Z, r24
    2be4:	e1 ea       	ldi	r30, 0xA1	; 161
    2be6:	f0 e0       	ldi	r31, 0x00	; 0
    2be8:	80 81       	ld	r24, Z
    2bea:	82 60       	ori	r24, 0x02	; 2
    2bec:	80 83       	st	Z, r24
    2bee:	80 81       	ld	r24, Z
    2bf0:	81 60       	ori	r24, 0x01	; 1
    2bf2:	80 83       	st	Z, r24
    2bf4:	e1 e2       	ldi	r30, 0x21	; 33
    2bf6:	f1 e0       	ldi	r31, 0x01	; 1
    2bf8:	80 81       	ld	r24, Z
    2bfa:	82 60       	ori	r24, 0x02	; 2
    2bfc:	80 83       	st	Z, r24
    2bfe:	80 81       	ld	r24, Z
    2c00:	81 60       	ori	r24, 0x01	; 1
    2c02:	80 83       	st	Z, r24
    2c04:	e0 e9       	ldi	r30, 0x90	; 144
    2c06:	f0 e0       	ldi	r31, 0x00	; 0
    2c08:	80 81       	ld	r24, Z
    2c0a:	81 60       	ori	r24, 0x01	; 1
    2c0c:	80 83       	st	Z, r24
    2c0e:	e0 ea       	ldi	r30, 0xA0	; 160
    2c10:	f0 e0       	ldi	r31, 0x00	; 0
    2c12:	80 81       	ld	r24, Z
    2c14:	81 60       	ori	r24, 0x01	; 1
    2c16:	80 83       	st	Z, r24
    2c18:	e0 e2       	ldi	r30, 0x20	; 32
    2c1a:	f1 e0       	ldi	r31, 0x01	; 1
    2c1c:	80 81       	ld	r24, Z
    2c1e:	81 60       	ori	r24, 0x01	; 1
    2c20:	80 83       	st	Z, r24
    2c22:	ea e7       	ldi	r30, 0x7A	; 122
    2c24:	f0 e0       	ldi	r31, 0x00	; 0
    2c26:	80 81       	ld	r24, Z
    2c28:	84 60       	ori	r24, 0x04	; 4
    2c2a:	80 83       	st	Z, r24
    2c2c:	80 81       	ld	r24, Z
    2c2e:	82 60       	ori	r24, 0x02	; 2
    2c30:	80 83       	st	Z, r24
    2c32:	80 81       	ld	r24, Z
    2c34:	81 60       	ori	r24, 0x01	; 1
    2c36:	80 83       	st	Z, r24
    2c38:	80 81       	ld	r24, Z
    2c3a:	80 68       	ori	r24, 0x80	; 128
    2c3c:	80 83       	st	Z, r24
    2c3e:	10 92 c1 00 	sts	0x00C1, r1
    2c42:	08 95       	ret

00002c44 <analogRead>:
    2c44:	38 2f       	mov	r19, r24
    2c46:	86 33       	cpi	r24, 0x36	; 54
    2c48:	08 f0       	brcs	.+2      	; 0x2c4c <analogRead+0x8>
    2c4a:	36 53       	subi	r19, 0x36	; 54
    2c4c:	20 91 7b 00 	lds	r18, 0x007B
    2c50:	83 2f       	mov	r24, r19
    2c52:	86 95       	lsr	r24
    2c54:	86 95       	lsr	r24
    2c56:	86 95       	lsr	r24
    2c58:	90 e0       	ldi	r25, 0x00	; 0
    2c5a:	81 70       	andi	r24, 0x01	; 1
    2c5c:	90 70       	andi	r25, 0x00	; 0
    2c5e:	43 e0       	ldi	r20, 0x03	; 3
    2c60:	88 0f       	add	r24, r24
    2c62:	99 1f       	adc	r25, r25
    2c64:	4a 95       	dec	r20
    2c66:	e1 f7       	brne	.-8      	; 0x2c60 <analogRead+0x1c>
    2c68:	27 7f       	andi	r18, 0xF7	; 247
    2c6a:	28 2b       	or	r18, r24
    2c6c:	20 93 7b 00 	sts	0x007B, r18
    2c70:	37 70       	andi	r19, 0x07	; 7
    2c72:	80 91 08 03 	lds	r24, 0x0308
    2c76:	82 95       	swap	r24
    2c78:	88 0f       	add	r24, r24
    2c7a:	88 0f       	add	r24, r24
    2c7c:	80 7c       	andi	r24, 0xC0	; 192
    2c7e:	83 2b       	or	r24, r19
    2c80:	80 93 7c 00 	sts	0x007C, r24
    2c84:	80 91 7a 00 	lds	r24, 0x007A
    2c88:	80 64       	ori	r24, 0x40	; 64
    2c8a:	80 93 7a 00 	sts	0x007A, r24
    2c8e:	80 91 7a 00 	lds	r24, 0x007A
    2c92:	86 fd       	sbrc	r24, 6
    2c94:	fc cf       	rjmp	.-8      	; 0x2c8e <analogRead+0x4a>
    2c96:	20 91 78 00 	lds	r18, 0x0078
    2c9a:	40 91 79 00 	lds	r20, 0x0079
    2c9e:	94 2f       	mov	r25, r20
    2ca0:	80 e0       	ldi	r24, 0x00	; 0
    2ca2:	30 e0       	ldi	r19, 0x00	; 0
    2ca4:	28 2b       	or	r18, r24
    2ca6:	39 2b       	or	r19, r25
    2ca8:	c9 01       	movw	r24, r18
    2caa:	08 95       	ret

00002cac <pinMode>:
    2cac:	48 2f       	mov	r20, r24
    2cae:	50 e0       	ldi	r21, 0x00	; 0
    2cb0:	ca 01       	movw	r24, r20
    2cb2:	88 58       	subi	r24, 0x88	; 136
    2cb4:	9e 4f       	sbci	r25, 0xFE	; 254
    2cb6:	fc 01       	movw	r30, r24
    2cb8:	24 91       	lpm	r18, Z+
    2cba:	4e 5c       	subi	r20, 0xCE	; 206
    2cbc:	5e 4f       	sbci	r21, 0xFE	; 254
    2cbe:	fa 01       	movw	r30, r20
    2cc0:	84 91       	lpm	r24, Z+
    2cc2:	88 23       	and	r24, r24
    2cc4:	c1 f0       	breq	.+48     	; 0x2cf6 <pinMode+0x4a>
    2cc6:	e8 2f       	mov	r30, r24
    2cc8:	f0 e0       	ldi	r31, 0x00	; 0
    2cca:	ee 0f       	add	r30, r30
    2ccc:	ff 1f       	adc	r31, r31
    2cce:	ec 51       	subi	r30, 0x1C	; 28
    2cd0:	ff 4f       	sbci	r31, 0xFF	; 255
    2cd2:	a5 91       	lpm	r26, Z+
    2cd4:	b4 91       	lpm	r27, Z+
    2cd6:	66 23       	and	r22, r22
    2cd8:	41 f4       	brne	.+16     	; 0x2cea <pinMode+0x3e>
    2cda:	9f b7       	in	r25, 0x3f	; 63
    2cdc:	f8 94       	cli
    2cde:	8c 91       	ld	r24, X
    2ce0:	20 95       	com	r18
    2ce2:	82 23       	and	r24, r18
    2ce4:	8c 93       	st	X, r24
    2ce6:	9f bf       	out	0x3f, r25	; 63
    2ce8:	08 95       	ret
    2cea:	9f b7       	in	r25, 0x3f	; 63
    2cec:	f8 94       	cli
    2cee:	8c 91       	ld	r24, X
    2cf0:	82 2b       	or	r24, r18
    2cf2:	8c 93       	st	X, r24
    2cf4:	9f bf       	out	0x3f, r25	; 63
    2cf6:	08 95       	ret

00002cf8 <digitalWrite>:
    2cf8:	48 2f       	mov	r20, r24
    2cfa:	50 e0       	ldi	r21, 0x00	; 0
    2cfc:	ca 01       	movw	r24, r20
    2cfe:	82 54       	subi	r24, 0x42	; 66
    2d00:	9e 4f       	sbci	r25, 0xFE	; 254
    2d02:	fc 01       	movw	r30, r24
    2d04:	24 91       	lpm	r18, Z+
    2d06:	ca 01       	movw	r24, r20
    2d08:	88 58       	subi	r24, 0x88	; 136
    2d0a:	9e 4f       	sbci	r25, 0xFE	; 254
    2d0c:	fc 01       	movw	r30, r24
    2d0e:	34 91       	lpm	r19, Z+
    2d10:	4e 5c       	subi	r20, 0xCE	; 206
    2d12:	5e 4f       	sbci	r21, 0xFE	; 254
    2d14:	fa 01       	movw	r30, r20
    2d16:	94 91       	lpm	r25, Z+
    2d18:	99 23       	and	r25, r25
    2d1a:	09 f4       	brne	.+2      	; 0x2d1e <digitalWrite+0x26>
    2d1c:	7d c0       	rjmp	.+250    	; 0x2e18 <digitalWrite+0x120>
    2d1e:	22 23       	and	r18, r18
    2d20:	09 f4       	brne	.+2      	; 0x2d24 <digitalWrite+0x2c>
    2d22:	62 c0       	rjmp	.+196    	; 0x2de8 <digitalWrite+0xf0>
    2d24:	23 30       	cpi	r18, 0x03	; 3
    2d26:	21 f4       	brne	.+8      	; 0x2d30 <digitalWrite+0x38>
    2d28:	80 91 80 00 	lds	r24, 0x0080
    2d2c:	8f 77       	andi	r24, 0x7F	; 127
    2d2e:	05 c0       	rjmp	.+10     	; 0x2d3a <digitalWrite+0x42>
    2d30:	24 30       	cpi	r18, 0x04	; 4
    2d32:	31 f4       	brne	.+12     	; 0x2d40 <digitalWrite+0x48>
    2d34:	80 91 80 00 	lds	r24, 0x0080
    2d38:	8f 7d       	andi	r24, 0xDF	; 223
    2d3a:	80 93 80 00 	sts	0x0080, r24
    2d3e:	54 c0       	rjmp	.+168    	; 0x2de8 <digitalWrite+0xf0>
    2d40:	21 30       	cpi	r18, 0x01	; 1
    2d42:	19 f4       	brne	.+6      	; 0x2d4a <digitalWrite+0x52>
    2d44:	84 b5       	in	r24, 0x24	; 36
    2d46:	8f 77       	andi	r24, 0x7F	; 127
    2d48:	04 c0       	rjmp	.+8      	; 0x2d52 <digitalWrite+0x5a>
    2d4a:	22 30       	cpi	r18, 0x02	; 2
    2d4c:	21 f4       	brne	.+8      	; 0x2d56 <digitalWrite+0x5e>
    2d4e:	84 b5       	in	r24, 0x24	; 36
    2d50:	8f 7d       	andi	r24, 0xDF	; 223
    2d52:	84 bd       	out	0x24, r24	; 36
    2d54:	49 c0       	rjmp	.+146    	; 0x2de8 <digitalWrite+0xf0>
    2d56:	26 30       	cpi	r18, 0x06	; 6
    2d58:	21 f4       	brne	.+8      	; 0x2d62 <digitalWrite+0x6a>
    2d5a:	80 91 b0 00 	lds	r24, 0x00B0
    2d5e:	8f 77       	andi	r24, 0x7F	; 127
    2d60:	05 c0       	rjmp	.+10     	; 0x2d6c <digitalWrite+0x74>
    2d62:	27 30       	cpi	r18, 0x07	; 7
    2d64:	31 f4       	brne	.+12     	; 0x2d72 <digitalWrite+0x7a>
    2d66:	80 91 b0 00 	lds	r24, 0x00B0
    2d6a:	8f 7d       	andi	r24, 0xDF	; 223
    2d6c:	80 93 b0 00 	sts	0x00B0, r24
    2d70:	3b c0       	rjmp	.+118    	; 0x2de8 <digitalWrite+0xf0>
    2d72:	28 30       	cpi	r18, 0x08	; 8
    2d74:	21 f4       	brne	.+8      	; 0x2d7e <digitalWrite+0x86>
    2d76:	80 91 90 00 	lds	r24, 0x0090
    2d7a:	8f 77       	andi	r24, 0x7F	; 127
    2d7c:	05 c0       	rjmp	.+10     	; 0x2d88 <digitalWrite+0x90>
    2d7e:	29 30       	cpi	r18, 0x09	; 9
    2d80:	31 f4       	brne	.+12     	; 0x2d8e <digitalWrite+0x96>
    2d82:	80 91 90 00 	lds	r24, 0x0090
    2d86:	8f 7d       	andi	r24, 0xDF	; 223
    2d88:	80 93 90 00 	sts	0x0090, r24
    2d8c:	2d c0       	rjmp	.+90     	; 0x2de8 <digitalWrite+0xf0>
    2d8e:	2a 30       	cpi	r18, 0x0A	; 10
    2d90:	21 f4       	brne	.+8      	; 0x2d9a <digitalWrite+0xa2>
    2d92:	80 91 90 00 	lds	r24, 0x0090
    2d96:	87 7f       	andi	r24, 0xF7	; 247
    2d98:	f7 cf       	rjmp	.-18     	; 0x2d88 <digitalWrite+0x90>
    2d9a:	2b 30       	cpi	r18, 0x0B	; 11
    2d9c:	21 f4       	brne	.+8      	; 0x2da6 <digitalWrite+0xae>
    2d9e:	80 91 a0 00 	lds	r24, 0x00A0
    2da2:	8f 77       	andi	r24, 0x7F	; 127
    2da4:	0b c0       	rjmp	.+22     	; 0x2dbc <digitalWrite+0xc4>
    2da6:	2c 30       	cpi	r18, 0x0C	; 12
    2da8:	21 f4       	brne	.+8      	; 0x2db2 <digitalWrite+0xba>
    2daa:	80 91 a0 00 	lds	r24, 0x00A0
    2dae:	8f 7d       	andi	r24, 0xDF	; 223
    2db0:	05 c0       	rjmp	.+10     	; 0x2dbc <digitalWrite+0xc4>
    2db2:	2d 30       	cpi	r18, 0x0D	; 13
    2db4:	31 f4       	brne	.+12     	; 0x2dc2 <digitalWrite+0xca>
    2db6:	80 91 a0 00 	lds	r24, 0x00A0
    2dba:	87 7f       	andi	r24, 0xF7	; 247
    2dbc:	80 93 a0 00 	sts	0x00A0, r24
    2dc0:	13 c0       	rjmp	.+38     	; 0x2de8 <digitalWrite+0xf0>
    2dc2:	2e 30       	cpi	r18, 0x0E	; 14
    2dc4:	21 f4       	brne	.+8      	; 0x2dce <digitalWrite+0xd6>
    2dc6:	80 91 20 01 	lds	r24, 0x0120
    2dca:	8f 77       	andi	r24, 0x7F	; 127
    2dcc:	0b c0       	rjmp	.+22     	; 0x2de4 <digitalWrite+0xec>
    2dce:	2f 30       	cpi	r18, 0x0F	; 15
    2dd0:	21 f4       	brne	.+8      	; 0x2dda <digitalWrite+0xe2>
    2dd2:	80 91 20 01 	lds	r24, 0x0120
    2dd6:	8f 7d       	andi	r24, 0xDF	; 223
    2dd8:	05 c0       	rjmp	.+10     	; 0x2de4 <digitalWrite+0xec>
    2dda:	20 31       	cpi	r18, 0x10	; 16
    2ddc:	29 f4       	brne	.+10     	; 0x2de8 <digitalWrite+0xf0>
    2dde:	80 91 20 01 	lds	r24, 0x0120
    2de2:	87 7f       	andi	r24, 0xF7	; 247
    2de4:	80 93 20 01 	sts	0x0120, r24
    2de8:	e9 2f       	mov	r30, r25
    2dea:	f0 e0       	ldi	r31, 0x00	; 0
    2dec:	ee 0f       	add	r30, r30
    2dee:	ff 1f       	adc	r31, r31
    2df0:	e2 50       	subi	r30, 0x02	; 2
    2df2:	ff 4f       	sbci	r31, 0xFF	; 255
    2df4:	a5 91       	lpm	r26, Z+
    2df6:	b4 91       	lpm	r27, Z+
    2df8:	66 23       	and	r22, r22
    2dfa:	41 f4       	brne	.+16     	; 0x2e0c <digitalWrite+0x114>
    2dfc:	9f b7       	in	r25, 0x3f	; 63
    2dfe:	f8 94       	cli
    2e00:	8c 91       	ld	r24, X
    2e02:	30 95       	com	r19
    2e04:	83 23       	and	r24, r19
    2e06:	8c 93       	st	X, r24
    2e08:	9f bf       	out	0x3f, r25	; 63
    2e0a:	08 95       	ret
    2e0c:	9f b7       	in	r25, 0x3f	; 63
    2e0e:	f8 94       	cli
    2e10:	8c 91       	ld	r24, X
    2e12:	83 2b       	or	r24, r19
    2e14:	8c 93       	st	X, r24
    2e16:	9f bf       	out	0x3f, r25	; 63
    2e18:	08 95       	ret

00002e1a <_ZN5ServoC1Ev>:
    2e1a:	fc 01       	movw	r30, r24
    2e1c:	80 91 65 06 	lds	r24, 0x0665
    2e20:	80 33       	cpi	r24, 0x30	; 48
    2e22:	90 f4       	brcc	.+36     	; 0x2e48 <_ZN5ServoC1Ev+0x2e>
    2e24:	80 83       	st	Z, r24
    2e26:	8f 5f       	subi	r24, 0xFF	; 255
    2e28:	80 93 65 06 	sts	0x0665, r24
    2e2c:	81 50       	subi	r24, 0x01	; 1
    2e2e:	90 e0       	ldi	r25, 0x00	; 0
    2e30:	fc 01       	movw	r30, r24
    2e32:	ee 0f       	add	r30, r30
    2e34:	ff 1f       	adc	r31, r31
    2e36:	e8 0f       	add	r30, r24
    2e38:	f9 1f       	adc	r31, r25
    2e3a:	ea 59       	subi	r30, 0x9A	; 154
    2e3c:	f9 4f       	sbci	r31, 0xF9	; 249
    2e3e:	88 eb       	ldi	r24, 0xB8	; 184
    2e40:	9b e0       	ldi	r25, 0x0B	; 11
    2e42:	92 83       	std	Z+2, r25	; 0x02
    2e44:	81 83       	std	Z+1, r24	; 0x01
    2e46:	08 95       	ret
    2e48:	8f ef       	ldi	r24, 0xFF	; 255
    2e4a:	80 83       	st	Z, r24
    2e4c:	08 95       	ret

00002e4e <_ZN5Servo17writeMicrosecondsEi>:
    2e4e:	fc 01       	movw	r30, r24
    2e50:	20 81       	ld	r18, Z
    2e52:	20 33       	cpi	r18, 0x30	; 48
    2e54:	08 f0       	brcs	.+2      	; 0x2e58 <_ZN5Servo17writeMicrosecondsEi+0xa>
    2e56:	41 c0       	rjmp	.+130    	; 0x2eda <_ZN5Servo17writeMicrosecondsEi+0x8c>
    2e58:	81 81       	ldd	r24, Z+1	; 0x01
    2e5a:	99 27       	eor	r25, r25
    2e5c:	87 fd       	sbrc	r24, 7
    2e5e:	90 95       	com	r25
    2e60:	48 e8       	ldi	r20, 0x88	; 136
    2e62:	50 e0       	ldi	r21, 0x00	; 0
    2e64:	48 1b       	sub	r20, r24
    2e66:	59 0b       	sbc	r21, r25
    2e68:	44 0f       	add	r20, r20
    2e6a:	55 1f       	adc	r21, r21
    2e6c:	44 0f       	add	r20, r20
    2e6e:	55 1f       	adc	r21, r21
    2e70:	64 17       	cp	r22, r20
    2e72:	75 07       	cpc	r23, r21
    2e74:	84 f0       	brlt	.+32     	; 0x2e96 <_ZN5Servo17writeMicrosecondsEi+0x48>
    2e76:	82 81       	ldd	r24, Z+2	; 0x02
    2e78:	99 27       	eor	r25, r25
    2e7a:	87 fd       	sbrc	r24, 7
    2e7c:	90 95       	com	r25
    2e7e:	48 e5       	ldi	r20, 0x58	; 88
    2e80:	52 e0       	ldi	r21, 0x02	; 2
    2e82:	48 1b       	sub	r20, r24
    2e84:	59 0b       	sbc	r21, r25
    2e86:	44 0f       	add	r20, r20
    2e88:	55 1f       	adc	r21, r21
    2e8a:	44 0f       	add	r20, r20
    2e8c:	55 1f       	adc	r21, r21
    2e8e:	64 17       	cp	r22, r20
    2e90:	75 07       	cpc	r23, r21
    2e92:	0c f4       	brge	.+2      	; 0x2e96 <_ZN5Servo17writeMicrosecondsEi+0x48>
    2e94:	ab 01       	movw	r20, r22
    2e96:	42 50       	subi	r20, 0x02	; 2
    2e98:	50 40       	sbci	r21, 0x00	; 0
    2e9a:	ca 01       	movw	r24, r20
    2e9c:	aa 27       	eor	r26, r26
    2e9e:	97 fd       	sbrc	r25, 7
    2ea0:	a0 95       	com	r26
    2ea2:	ba 2f       	mov	r27, r26
    2ea4:	44 e0       	ldi	r20, 0x04	; 4
    2ea6:	88 0f       	add	r24, r24
    2ea8:	99 1f       	adc	r25, r25
    2eaa:	aa 1f       	adc	r26, r26
    2eac:	bb 1f       	adc	r27, r27
    2eae:	4a 95       	dec	r20
    2eb0:	d1 f7       	brne	.-12     	; 0x2ea6 <_ZN5Servo17writeMicrosecondsEi+0x58>
    2eb2:	33 e0       	ldi	r19, 0x03	; 3
    2eb4:	b6 95       	lsr	r27
    2eb6:	a7 95       	ror	r26
    2eb8:	97 95       	ror	r25
    2eba:	87 95       	ror	r24
    2ebc:	3a 95       	dec	r19
    2ebe:	d1 f7       	brne	.-12     	; 0x2eb4 <_ZN5Servo17writeMicrosecondsEi+0x66>
    2ec0:	4f b7       	in	r20, 0x3f	; 63
    2ec2:	f8 94       	cli
    2ec4:	30 e0       	ldi	r19, 0x00	; 0
    2ec6:	f9 01       	movw	r30, r18
    2ec8:	ee 0f       	add	r30, r30
    2eca:	ff 1f       	adc	r31, r31
    2ecc:	e2 0f       	add	r30, r18
    2ece:	f3 1f       	adc	r31, r19
    2ed0:	ea 59       	subi	r30, 0x9A	; 154
    2ed2:	f9 4f       	sbci	r31, 0xF9	; 249
    2ed4:	92 83       	std	Z+2, r25	; 0x02
    2ed6:	81 83       	std	Z+1, r24	; 0x01
    2ed8:	4f bf       	out	0x3f, r20	; 63
    2eda:	08 95       	ret

00002edc <_ZN5Servo5writeEi>:
    2edc:	af 92       	push	r10
    2ede:	bf 92       	push	r11
    2ee0:	cf 92       	push	r12
    2ee2:	df 92       	push	r13
    2ee4:	ef 92       	push	r14
    2ee6:	ff 92       	push	r15
    2ee8:	0f 93       	push	r16
    2eea:	1f 93       	push	r17
    2eec:	cf 93       	push	r28
    2eee:	df 93       	push	r29
    2ef0:	ec 01       	movw	r28, r24
    2ef2:	9b 01       	movw	r18, r22
    2ef4:	82 e0       	ldi	r24, 0x02	; 2
    2ef6:	60 32       	cpi	r22, 0x20	; 32
    2ef8:	78 07       	cpc	r23, r24
    2efa:	0c f0       	brlt	.+2      	; 0x2efe <_ZN5Servo5writeEi+0x22>
    2efc:	48 c0       	rjmp	.+144    	; 0x2f8e <_ZN5Servo5writeEi+0xb2>
    2efe:	77 ff       	sbrs	r23, 7
    2f00:	03 c0       	rjmp	.+6      	; 0x2f08 <_ZN5Servo5writeEi+0x2c>
    2f02:	20 e0       	ldi	r18, 0x00	; 0
    2f04:	30 e0       	ldi	r19, 0x00	; 0
    2f06:	05 c0       	rjmp	.+10     	; 0x2f12 <_ZN5Servo5writeEi+0x36>
    2f08:	65 3b       	cpi	r22, 0xB5	; 181
    2f0a:	71 05       	cpc	r23, r1
    2f0c:	14 f0       	brlt	.+4      	; 0x2f12 <_ZN5Servo5writeEi+0x36>
    2f0e:	24 eb       	ldi	r18, 0xB4	; 180
    2f10:	30 e0       	ldi	r19, 0x00	; 0
    2f12:	00 d0       	rcall	.+0      	; 0x2f14 <_ZN5Servo5writeEi+0x38>
    2f14:	0f 92       	push	r0
    2f16:	b9 01       	movw	r22, r18
    2f18:	88 27       	eor	r24, r24
    2f1a:	77 fd       	sbrc	r23, 7
    2f1c:	80 95       	com	r24
    2f1e:	98 2f       	mov	r25, r24
    2f20:	29 81       	ldd	r18, Y+1	; 0x01
    2f22:	33 27       	eor	r19, r19
    2f24:	27 fd       	sbrc	r18, 7
    2f26:	30 95       	com	r19
    2f28:	b8 e8       	ldi	r27, 0x88	; 136
    2f2a:	ab 2e       	mov	r10, r27
    2f2c:	b1 2c       	mov	r11, r1
    2f2e:	a2 1a       	sub	r10, r18
    2f30:	b3 0a       	sbc	r11, r19
    2f32:	aa 0c       	add	r10, r10
    2f34:	bb 1c       	adc	r11, r11
    2f36:	aa 0c       	add	r10, r10
    2f38:	bb 1c       	adc	r11, r11
    2f3a:	cc 24       	eor	r12, r12
    2f3c:	b7 fc       	sbrc	r11, 7
    2f3e:	c0 94       	com	r12
    2f40:	dc 2c       	mov	r13, r12
    2f42:	ea 81       	ldd	r30, Y+2	; 0x02
    2f44:	ff 27       	eor	r31, r31
    2f46:	e7 fd       	sbrc	r30, 7
    2f48:	f0 95       	com	r31
    2f4a:	28 e5       	ldi	r18, 0x58	; 88
    2f4c:	32 e0       	ldi	r19, 0x02	; 2
    2f4e:	2e 1b       	sub	r18, r30
    2f50:	3f 0b       	sbc	r19, r31
    2f52:	22 0f       	add	r18, r18
    2f54:	33 1f       	adc	r19, r19
    2f56:	22 0f       	add	r18, r18
    2f58:	33 1f       	adc	r19, r19
    2f5a:	44 27       	eor	r20, r20
    2f5c:	37 fd       	sbrc	r19, 7
    2f5e:	40 95       	com	r20
    2f60:	54 2f       	mov	r21, r20
    2f62:	ed b7       	in	r30, 0x3d	; 61
    2f64:	fe b7       	in	r31, 0x3e	; 62
    2f66:	21 83       	std	Z+1, r18	; 0x01
    2f68:	32 83       	std	Z+2, r19	; 0x02
    2f6a:	43 83       	std	Z+3, r20	; 0x03
    2f6c:	54 83       	std	Z+4, r21	; 0x04
    2f6e:	20 e0       	ldi	r18, 0x00	; 0
    2f70:	30 e0       	ldi	r19, 0x00	; 0
    2f72:	40 e0       	ldi	r20, 0x00	; 0
    2f74:	50 e0       	ldi	r21, 0x00	; 0
    2f76:	e4 eb       	ldi	r30, 0xB4	; 180
    2f78:	ee 2e       	mov	r14, r30
    2f7a:	f1 2c       	mov	r15, r1
    2f7c:	01 2d       	mov	r16, r1
    2f7e:	11 2d       	mov	r17, r1
    2f80:	0e 94 d5 14 	call	0x29aa	; 0x29aa <_Z3maplllll>
    2f84:	9b 01       	movw	r18, r22
    2f86:	0f 90       	pop	r0
    2f88:	0f 90       	pop	r0
    2f8a:	0f 90       	pop	r0
    2f8c:	0f 90       	pop	r0
    2f8e:	ce 01       	movw	r24, r28
    2f90:	b9 01       	movw	r22, r18
    2f92:	0e 94 27 17 	call	0x2e4e	; 0x2e4e <_ZN5Servo17writeMicrosecondsEi>
    2f96:	df 91       	pop	r29
    2f98:	cf 91       	pop	r28
    2f9a:	1f 91       	pop	r17
    2f9c:	0f 91       	pop	r16
    2f9e:	ff 90       	pop	r15
    2fa0:	ef 90       	pop	r14
    2fa2:	df 90       	pop	r13
    2fa4:	cf 90       	pop	r12
    2fa6:	bf 90       	pop	r11
    2fa8:	af 90       	pop	r10
    2faa:	08 95       	ret

00002fac <_ZN5Servo6attachEiii>:
    2fac:	cf 92       	push	r12
    2fae:	df 92       	push	r13
    2fb0:	ef 92       	push	r14
    2fb2:	ff 92       	push	r15
    2fb4:	1f 93       	push	r17
    2fb6:	cf 93       	push	r28
    2fb8:	df 93       	push	r29
    2fba:	ec 01       	movw	r28, r24
    2fbc:	16 2f       	mov	r17, r22
    2fbe:	7a 01       	movw	r14, r20
    2fc0:	69 01       	movw	r12, r18
    2fc2:	88 81       	ld	r24, Y
    2fc4:	80 33       	cpi	r24, 0x30	; 48
    2fc6:	08 f0       	brcs	.+2      	; 0x2fca <_ZN5Servo6attachEiii+0x1e>
    2fc8:	90 c0       	rjmp	.+288    	; 0x30ea <_ZN5Servo6attachEiii+0x13e>
    2fca:	86 2f       	mov	r24, r22
    2fcc:	61 e0       	ldi	r22, 0x01	; 1
    2fce:	0e 94 56 16 	call	0x2cac	; 0x2cac <pinMode>
    2fd2:	88 81       	ld	r24, Y
    2fd4:	90 e0       	ldi	r25, 0x00	; 0
    2fd6:	fc 01       	movw	r30, r24
    2fd8:	ee 0f       	add	r30, r30
    2fda:	ff 1f       	adc	r31, r31
    2fdc:	e8 0f       	add	r30, r24
    2fde:	f9 1f       	adc	r31, r25
    2fe0:	ea 59       	subi	r30, 0x9A	; 154
    2fe2:	f9 4f       	sbci	r31, 0xF9	; 249
    2fe4:	1f 73       	andi	r17, 0x3F	; 63
    2fe6:	80 81       	ld	r24, Z
    2fe8:	80 7c       	andi	r24, 0xC0	; 192
    2fea:	81 2b       	or	r24, r17
    2fec:	80 83       	st	Z, r24
    2fee:	80 e2       	ldi	r24, 0x20	; 32
    2ff0:	92 e0       	ldi	r25, 0x02	; 2
    2ff2:	8e 19       	sub	r24, r14
    2ff4:	9f 09       	sbc	r25, r15
    2ff6:	64 e0       	ldi	r22, 0x04	; 4
    2ff8:	70 e0       	ldi	r23, 0x00	; 0
    2ffa:	0e 94 3e 1a 	call	0x347c	; 0x347c <__divmodhi4>
    2ffe:	69 83       	std	Y+1, r22	; 0x01
    3000:	80 e6       	ldi	r24, 0x60	; 96
    3002:	99 e0       	ldi	r25, 0x09	; 9
    3004:	8c 19       	sub	r24, r12
    3006:	9d 09       	sbc	r25, r13
    3008:	64 e0       	ldi	r22, 0x04	; 4
    300a:	70 e0       	ldi	r23, 0x00	; 0
    300c:	0e 94 3e 1a 	call	0x347c	; 0x347c <__divmodhi4>
    3010:	6a 83       	std	Y+2, r22	; 0x02
    3012:	a8 81       	ld	r26, Y
    3014:	8a 2f       	mov	r24, r26
    3016:	6c e0       	ldi	r22, 0x0C	; 12
    3018:	0e 94 1e 1a 	call	0x343c	; 0x343c <__udivmodqi4>
    301c:	68 2f       	mov	r22, r24
    301e:	90 e0       	ldi	r25, 0x00	; 0
    3020:	ac 01       	movw	r20, r24
    3022:	44 0f       	add	r20, r20
    3024:	55 1f       	adc	r21, r21
    3026:	48 0f       	add	r20, r24
    3028:	59 1f       	adc	r21, r25
    302a:	44 0f       	add	r20, r20
    302c:	55 1f       	adc	r21, r21
    302e:	44 0f       	add	r20, r20
    3030:	55 1f       	adc	r21, r21
    3032:	20 e0       	ldi	r18, 0x00	; 0
    3034:	30 e0       	ldi	r19, 0x00	; 0
    3036:	c9 01       	movw	r24, r18
    3038:	84 0f       	add	r24, r20
    303a:	95 1f       	adc	r25, r21
    303c:	fc 01       	movw	r30, r24
    303e:	ee 0f       	add	r30, r30
    3040:	ff 1f       	adc	r31, r31
    3042:	e8 0f       	add	r30, r24
    3044:	f9 1f       	adc	r31, r25
    3046:	ea 59       	subi	r30, 0x9A	; 154
    3048:	f9 4f       	sbci	r31, 0xF9	; 249
    304a:	80 81       	ld	r24, Z
    304c:	86 fd       	sbrc	r24, 6
    304e:	41 c0       	rjmp	.+130    	; 0x30d2 <_ZN5Servo6attachEiii+0x126>
    3050:	2f 5f       	subi	r18, 0xFF	; 255
    3052:	3f 4f       	sbci	r19, 0xFF	; 255
    3054:	2c 30       	cpi	r18, 0x0C	; 12
    3056:	31 05       	cpc	r19, r1
    3058:	71 f7       	brne	.-36     	; 0x3036 <_ZN5Servo6attachEiii+0x8a>
    305a:	50 c0       	rjmp	.+160    	; 0x30fc <_ZN5Servo6attachEiii+0x150>
    305c:	10 92 80 00 	sts	0x0080, r1
    3060:	82 e0       	ldi	r24, 0x02	; 2
    3062:	80 93 81 00 	sts	0x0081, r24
    3066:	10 92 85 00 	sts	0x0085, r1
    306a:	10 92 84 00 	sts	0x0084, r1
    306e:	b1 9a       	sbi	0x16, 1	; 22
    3070:	80 91 6f 00 	lds	r24, 0x006F
    3074:	82 60       	ori	r24, 0x02	; 2
    3076:	80 93 6f 00 	sts	0x006F, r24
    307a:	2b c0       	rjmp	.+86     	; 0x30d2 <_ZN5Servo6attachEiii+0x126>
    307c:	62 30       	cpi	r22, 0x02	; 2
    307e:	61 f4       	brne	.+24     	; 0x3098 <_ZN5Servo6attachEiii+0xec>
    3080:	10 92 90 00 	sts	0x0090, r1
    3084:	60 93 91 00 	sts	0x0091, r22
    3088:	10 92 95 00 	sts	0x0095, r1
    308c:	10 92 94 00 	sts	0x0094, r1
    3090:	68 bb       	out	0x18, r22	; 24
    3092:	60 93 71 00 	sts	0x0071, r22
    3096:	1d c0       	rjmp	.+58     	; 0x30d2 <_ZN5Servo6attachEiii+0x126>
    3098:	63 30       	cpi	r22, 0x03	; 3
    309a:	69 f4       	brne	.+26     	; 0x30b6 <_ZN5Servo6attachEiii+0x10a>
    309c:	10 92 a0 00 	sts	0x00A0, r1
    30a0:	82 e0       	ldi	r24, 0x02	; 2
    30a2:	80 93 a1 00 	sts	0x00A1, r24
    30a6:	10 92 a5 00 	sts	0x00A5, r1
    30aa:	10 92 a4 00 	sts	0x00A4, r1
    30ae:	89 bb       	out	0x19, r24	; 25
    30b0:	80 93 72 00 	sts	0x0072, r24
    30b4:	0e c0       	rjmp	.+28     	; 0x30d2 <_ZN5Servo6attachEiii+0x126>
    30b6:	66 23       	and	r22, r22
    30b8:	61 f4       	brne	.+24     	; 0x30d2 <_ZN5Servo6attachEiii+0x126>
    30ba:	10 92 20 01 	sts	0x0120, r1
    30be:	82 e0       	ldi	r24, 0x02	; 2
    30c0:	80 93 21 01 	sts	0x0121, r24
    30c4:	10 92 25 01 	sts	0x0125, r1
    30c8:	10 92 24 01 	sts	0x0124, r1
    30cc:	8a bb       	out	0x1a, r24	; 26
    30ce:	80 93 73 00 	sts	0x0073, r24
    30d2:	8a 2f       	mov	r24, r26
    30d4:	90 e0       	ldi	r25, 0x00	; 0
    30d6:	fc 01       	movw	r30, r24
    30d8:	ee 0f       	add	r30, r30
    30da:	ff 1f       	adc	r31, r31
    30dc:	e8 0f       	add	r30, r24
    30de:	f9 1f       	adc	r31, r25
    30e0:	ea 59       	subi	r30, 0x9A	; 154
    30e2:	f9 4f       	sbci	r31, 0xF9	; 249
    30e4:	80 81       	ld	r24, Z
    30e6:	80 64       	ori	r24, 0x40	; 64
    30e8:	80 83       	st	Z, r24
    30ea:	88 81       	ld	r24, Y
    30ec:	df 91       	pop	r29
    30ee:	cf 91       	pop	r28
    30f0:	1f 91       	pop	r17
    30f2:	ff 90       	pop	r15
    30f4:	ef 90       	pop	r14
    30f6:	df 90       	pop	r13
    30f8:	cf 90       	pop	r12
    30fa:	08 95       	ret
    30fc:	61 30       	cpi	r22, 0x01	; 1
    30fe:	09 f0       	breq	.+2      	; 0x3102 <_ZN5Servo6attachEiii+0x156>
    3100:	bd cf       	rjmp	.-134    	; 0x307c <_ZN5Servo6attachEiii+0xd0>
    3102:	ac cf       	rjmp	.-168    	; 0x305c <_ZN5Servo6attachEiii+0xb0>

00003104 <_ZN5Servo6attachEi>:
    3104:	40 e2       	ldi	r20, 0x20	; 32
    3106:	52 e0       	ldi	r21, 0x02	; 2
    3108:	20 e6       	ldi	r18, 0x60	; 96
    310a:	39 e0       	ldi	r19, 0x09	; 9
    310c:	0e 94 d6 17 	call	0x2fac	; 0x2fac <_ZN5Servo6attachEiii>
    3110:	08 95       	ret

00003112 <_ZL17handle_interrupts18timer16_Sequence_tPVjS1_>:
    3112:	ef 92       	push	r14
    3114:	ff 92       	push	r15
    3116:	0f 93       	push	r16
    3118:	1f 93       	push	r17
    311a:	cf 93       	push	r28
    311c:	df 93       	push	r29
    311e:	8b 01       	movw	r16, r22
    3120:	7a 01       	movw	r14, r20
    3122:	c8 2f       	mov	r28, r24
    3124:	d0 e0       	ldi	r29, 0x00	; 0
    3126:	de 01       	movw	r26, r28
    3128:	aa 50       	subi	r26, 0x0A	; 10
    312a:	b9 4f       	sbci	r27, 0xF9	; 249
    312c:	8c 91       	ld	r24, X
    312e:	87 ff       	sbrs	r24, 7
    3130:	04 c0       	rjmp	.+8      	; 0x313a <_ZL17handle_interrupts18timer16_Sequence_tPVjS1_+0x28>
    3132:	fb 01       	movw	r30, r22
    3134:	11 82       	std	Z+1, r1	; 0x01
    3136:	10 82       	st	Z, r1
    3138:	37 c0       	rjmp	.+110    	; 0x31a8 <_ZL17handle_interrupts18timer16_Sequence_tPVjS1_+0x96>
    313a:	ae 01       	movw	r20, r28
    313c:	44 0f       	add	r20, r20
    313e:	55 1f       	adc	r21, r21
    3140:	4c 0f       	add	r20, r28
    3142:	5d 1f       	adc	r21, r29
    3144:	44 0f       	add	r20, r20
    3146:	55 1f       	adc	r21, r21
    3148:	44 0f       	add	r20, r20
    314a:	55 1f       	adc	r21, r21
    314c:	2c 91       	ld	r18, X
    314e:	33 27       	eor	r19, r19
    3150:	27 fd       	sbrc	r18, 7
    3152:	30 95       	com	r19
    3154:	24 0f       	add	r18, r20
    3156:	35 1f       	adc	r19, r21
    3158:	80 91 65 06 	lds	r24, 0x0665
    315c:	90 e0       	ldi	r25, 0x00	; 0
    315e:	28 17       	cp	r18, r24
    3160:	39 07       	cpc	r19, r25
    3162:	14 f5       	brge	.+68     	; 0x31a8 <_ZL17handle_interrupts18timer16_Sequence_tPVjS1_+0x96>
    3164:	8c 91       	ld	r24, X
    3166:	99 27       	eor	r25, r25
    3168:	87 fd       	sbrc	r24, 7
    316a:	90 95       	com	r25
    316c:	84 0f       	add	r24, r20
    316e:	95 1f       	adc	r25, r21
    3170:	fc 01       	movw	r30, r24
    3172:	ee 0f       	add	r30, r30
    3174:	ff 1f       	adc	r31, r31
    3176:	e8 0f       	add	r30, r24
    3178:	f9 1f       	adc	r31, r25
    317a:	ea 59       	subi	r30, 0x9A	; 154
    317c:	f9 4f       	sbci	r31, 0xF9	; 249
    317e:	80 81       	ld	r24, Z
    3180:	86 ff       	sbrs	r24, 6
    3182:	12 c0       	rjmp	.+36     	; 0x31a8 <_ZL17handle_interrupts18timer16_Sequence_tPVjS1_+0x96>
    3184:	8c 91       	ld	r24, X
    3186:	99 27       	eor	r25, r25
    3188:	87 fd       	sbrc	r24, 7
    318a:	90 95       	com	r25
    318c:	84 0f       	add	r24, r20
    318e:	95 1f       	adc	r25, r21
    3190:	fc 01       	movw	r30, r24
    3192:	ee 0f       	add	r30, r30
    3194:	ff 1f       	adc	r31, r31
    3196:	e8 0f       	add	r30, r24
    3198:	f9 1f       	adc	r31, r25
    319a:	ea 59       	subi	r30, 0x9A	; 154
    319c:	f9 4f       	sbci	r31, 0xF9	; 249
    319e:	80 81       	ld	r24, Z
    31a0:	8f 73       	andi	r24, 0x3F	; 63
    31a2:	60 e0       	ldi	r22, 0x00	; 0
    31a4:	0e 94 7c 16 	call	0x2cf8	; 0x2cf8 <digitalWrite>
    31a8:	de 01       	movw	r26, r28
    31aa:	aa 50       	subi	r26, 0x0A	; 10
    31ac:	b9 4f       	sbci	r27, 0xF9	; 249
    31ae:	8c 91       	ld	r24, X
    31b0:	8f 5f       	subi	r24, 0xFF	; 255
    31b2:	8c 93       	st	X, r24
    31b4:	ae 01       	movw	r20, r28
    31b6:	44 0f       	add	r20, r20
    31b8:	55 1f       	adc	r21, r21
    31ba:	4c 0f       	add	r20, r28
    31bc:	5d 1f       	adc	r21, r29
    31be:	44 0f       	add	r20, r20
    31c0:	55 1f       	adc	r21, r21
    31c2:	44 0f       	add	r20, r20
    31c4:	55 1f       	adc	r21, r21
    31c6:	2c 91       	ld	r18, X
    31c8:	33 27       	eor	r19, r19
    31ca:	27 fd       	sbrc	r18, 7
    31cc:	30 95       	com	r19
    31ce:	24 0f       	add	r18, r20
    31d0:	35 1f       	adc	r19, r21
    31d2:	80 91 65 06 	lds	r24, 0x0665
    31d6:	90 e0       	ldi	r25, 0x00	; 0
    31d8:	28 17       	cp	r18, r24
    31da:	39 07       	cpc	r19, r25
    31dc:	0c f0       	brlt	.+2      	; 0x31e0 <_ZL17handle_interrupts18timer16_Sequence_tPVjS1_+0xce>
    31de:	4d c0       	rjmp	.+154    	; 0x327a <_ZL17handle_interrupts18timer16_Sequence_tPVjS1_+0x168>
    31e0:	8c 91       	ld	r24, X
    31e2:	8c 30       	cpi	r24, 0x0C	; 12
    31e4:	0c f0       	brlt	.+2      	; 0x31e8 <_ZL17handle_interrupts18timer16_Sequence_tPVjS1_+0xd6>
    31e6:	49 c0       	rjmp	.+146    	; 0x327a <_ZL17handle_interrupts18timer16_Sequence_tPVjS1_+0x168>
    31e8:	f8 01       	movw	r30, r16
    31ea:	20 81       	ld	r18, Z
    31ec:	31 81       	ldd	r19, Z+1	; 0x01
    31ee:	8c 91       	ld	r24, X
    31f0:	99 27       	eor	r25, r25
    31f2:	87 fd       	sbrc	r24, 7
    31f4:	90 95       	com	r25
    31f6:	84 0f       	add	r24, r20
    31f8:	95 1f       	adc	r25, r21
    31fa:	fc 01       	movw	r30, r24
    31fc:	ee 0f       	add	r30, r30
    31fe:	ff 1f       	adc	r31, r31
    3200:	e8 0f       	add	r30, r24
    3202:	f9 1f       	adc	r31, r25
    3204:	ea 59       	subi	r30, 0x9A	; 154
    3206:	f9 4f       	sbci	r31, 0xF9	; 249
    3208:	81 81       	ldd	r24, Z+1	; 0x01
    320a:	92 81       	ldd	r25, Z+2	; 0x02
    320c:	28 0f       	add	r18, r24
    320e:	39 1f       	adc	r19, r25
    3210:	f7 01       	movw	r30, r14
    3212:	31 83       	std	Z+1, r19	; 0x01
    3214:	20 83       	st	Z, r18
    3216:	8c 91       	ld	r24, X
    3218:	99 27       	eor	r25, r25
    321a:	87 fd       	sbrc	r24, 7
    321c:	90 95       	com	r25
    321e:	84 0f       	add	r24, r20
    3220:	95 1f       	adc	r25, r21
    3222:	fc 01       	movw	r30, r24
    3224:	ee 0f       	add	r30, r30
    3226:	ff 1f       	adc	r31, r31
    3228:	e8 0f       	add	r30, r24
    322a:	f9 1f       	adc	r31, r25
    322c:	ea 59       	subi	r30, 0x9A	; 154
    322e:	f9 4f       	sbci	r31, 0xF9	; 249
    3230:	80 81       	ld	r24, Z
    3232:	86 ff       	sbrs	r24, 6
    3234:	29 c0       	rjmp	.+82     	; 0x3288 <_ZL17handle_interrupts18timer16_Sequence_tPVjS1_+0x176>
    3236:	8c 91       	ld	r24, X
    3238:	99 27       	eor	r25, r25
    323a:	87 fd       	sbrc	r24, 7
    323c:	90 95       	com	r25
    323e:	84 0f       	add	r24, r20
    3240:	95 1f       	adc	r25, r21
    3242:	fc 01       	movw	r30, r24
    3244:	ee 0f       	add	r30, r30
    3246:	ff 1f       	adc	r31, r31
    3248:	e8 0f       	add	r30, r24
    324a:	f9 1f       	adc	r31, r25
    324c:	ea 59       	subi	r30, 0x9A	; 154
    324e:	f9 4f       	sbci	r31, 0xF9	; 249
    3250:	80 81       	ld	r24, Z
    3252:	8f 73       	andi	r24, 0x3F	; 63
    3254:	61 e0       	ldi	r22, 0x01	; 1
    3256:	0e 94 7c 16 	call	0x2cf8	; 0x2cf8 <digitalWrite>
    325a:	16 c0       	rjmp	.+44     	; 0x3288 <_ZL17handle_interrupts18timer16_Sequence_tPVjS1_+0x176>
    325c:	80 e4       	ldi	r24, 0x40	; 64
    325e:	9c e9       	ldi	r25, 0x9C	; 156
    3260:	04 c0       	rjmp	.+8      	; 0x326a <_ZL17handle_interrupts18timer16_Sequence_tPVjS1_+0x158>
    3262:	f8 01       	movw	r30, r16
    3264:	80 81       	ld	r24, Z
    3266:	91 81       	ldd	r25, Z+1	; 0x01
    3268:	04 96       	adiw	r24, 0x04	; 4
    326a:	f7 01       	movw	r30, r14
    326c:	91 83       	std	Z+1, r25	; 0x01
    326e:	80 83       	st	Z, r24
    3270:	ca 50       	subi	r28, 0x0A	; 10
    3272:	d9 4f       	sbci	r29, 0xF9	; 249
    3274:	8f ef       	ldi	r24, 0xFF	; 255
    3276:	88 83       	st	Y, r24
    3278:	07 c0       	rjmp	.+14     	; 0x3288 <_ZL17handle_interrupts18timer16_Sequence_tPVjS1_+0x176>
    327a:	f8 01       	movw	r30, r16
    327c:	80 81       	ld	r24, Z
    327e:	91 81       	ldd	r25, Z+1	; 0x01
    3280:	84 54       	subi	r24, 0x44	; 68
    3282:	9c 49       	sbci	r25, 0x9C	; 156
    3284:	58 f3       	brcs	.-42     	; 0x325c <_ZL17handle_interrupts18timer16_Sequence_tPVjS1_+0x14a>
    3286:	ed cf       	rjmp	.-38     	; 0x3262 <_ZL17handle_interrupts18timer16_Sequence_tPVjS1_+0x150>
    3288:	df 91       	pop	r29
    328a:	cf 91       	pop	r28
    328c:	1f 91       	pop	r17
    328e:	0f 91       	pop	r16
    3290:	ff 90       	pop	r15
    3292:	ef 90       	pop	r14
    3294:	08 95       	ret

00003296 <__vector_47>:
    3296:	1f 92       	push	r1
    3298:	0f 92       	push	r0
    329a:	0f b6       	in	r0, 0x3f	; 63
    329c:	0f 92       	push	r0
    329e:	0b b6       	in	r0, 0x3b	; 59
    32a0:	0f 92       	push	r0
    32a2:	11 24       	eor	r1, r1
    32a4:	2f 93       	push	r18
    32a6:	3f 93       	push	r19
    32a8:	4f 93       	push	r20
    32aa:	5f 93       	push	r21
    32ac:	6f 93       	push	r22
    32ae:	7f 93       	push	r23
    32b0:	8f 93       	push	r24
    32b2:	9f 93       	push	r25
    32b4:	af 93       	push	r26
    32b6:	bf 93       	push	r27
    32b8:	ef 93       	push	r30
    32ba:	ff 93       	push	r31
    32bc:	80 e0       	ldi	r24, 0x00	; 0
    32be:	64 e2       	ldi	r22, 0x24	; 36
    32c0:	71 e0       	ldi	r23, 0x01	; 1
    32c2:	48 e2       	ldi	r20, 0x28	; 40
    32c4:	51 e0       	ldi	r21, 0x01	; 1
    32c6:	0e 94 89 18 	call	0x3112	; 0x3112 <_ZL17handle_interrupts18timer16_Sequence_tPVjS1_>
    32ca:	ff 91       	pop	r31
    32cc:	ef 91       	pop	r30
    32ce:	bf 91       	pop	r27
    32d0:	af 91       	pop	r26
    32d2:	9f 91       	pop	r25
    32d4:	8f 91       	pop	r24
    32d6:	7f 91       	pop	r23
    32d8:	6f 91       	pop	r22
    32da:	5f 91       	pop	r21
    32dc:	4f 91       	pop	r20
    32de:	3f 91       	pop	r19
    32e0:	2f 91       	pop	r18
    32e2:	0f 90       	pop	r0
    32e4:	0b be       	out	0x3b, r0	; 59
    32e6:	0f 90       	pop	r0
    32e8:	0f be       	out	0x3f, r0	; 63
    32ea:	0f 90       	pop	r0
    32ec:	1f 90       	pop	r1
    32ee:	18 95       	reti

000032f0 <__vector_42>:
    32f0:	1f 92       	push	r1
    32f2:	0f 92       	push	r0
    32f4:	0f b6       	in	r0, 0x3f	; 63
    32f6:	0f 92       	push	r0
    32f8:	0b b6       	in	r0, 0x3b	; 59
    32fa:	0f 92       	push	r0
    32fc:	11 24       	eor	r1, r1
    32fe:	2f 93       	push	r18
    3300:	3f 93       	push	r19
    3302:	4f 93       	push	r20
    3304:	5f 93       	push	r21
    3306:	6f 93       	push	r22
    3308:	7f 93       	push	r23
    330a:	8f 93       	push	r24
    330c:	9f 93       	push	r25
    330e:	af 93       	push	r26
    3310:	bf 93       	push	r27
    3312:	ef 93       	push	r30
    3314:	ff 93       	push	r31
    3316:	83 e0       	ldi	r24, 0x03	; 3
    3318:	64 ea       	ldi	r22, 0xA4	; 164
    331a:	70 e0       	ldi	r23, 0x00	; 0
    331c:	48 ea       	ldi	r20, 0xA8	; 168
    331e:	50 e0       	ldi	r21, 0x00	; 0
    3320:	0e 94 89 18 	call	0x3112	; 0x3112 <_ZL17handle_interrupts18timer16_Sequence_tPVjS1_>
    3324:	ff 91       	pop	r31
    3326:	ef 91       	pop	r30
    3328:	bf 91       	pop	r27
    332a:	af 91       	pop	r26
    332c:	9f 91       	pop	r25
    332e:	8f 91       	pop	r24
    3330:	7f 91       	pop	r23
    3332:	6f 91       	pop	r22
    3334:	5f 91       	pop	r21
    3336:	4f 91       	pop	r20
    3338:	3f 91       	pop	r19
    333a:	2f 91       	pop	r18
    333c:	0f 90       	pop	r0
    333e:	0b be       	out	0x3b, r0	; 59
    3340:	0f 90       	pop	r0
    3342:	0f be       	out	0x3f, r0	; 63
    3344:	0f 90       	pop	r0
    3346:	1f 90       	pop	r1
    3348:	18 95       	reti

0000334a <__vector_32>:
    334a:	1f 92       	push	r1
    334c:	0f 92       	push	r0
    334e:	0f b6       	in	r0, 0x3f	; 63
    3350:	0f 92       	push	r0
    3352:	0b b6       	in	r0, 0x3b	; 59
    3354:	0f 92       	push	r0
    3356:	11 24       	eor	r1, r1
    3358:	2f 93       	push	r18
    335a:	3f 93       	push	r19
    335c:	4f 93       	push	r20
    335e:	5f 93       	push	r21
    3360:	6f 93       	push	r22
    3362:	7f 93       	push	r23
    3364:	8f 93       	push	r24
    3366:	9f 93       	push	r25
    3368:	af 93       	push	r26
    336a:	bf 93       	push	r27
    336c:	ef 93       	push	r30
    336e:	ff 93       	push	r31
    3370:	82 e0       	ldi	r24, 0x02	; 2
    3372:	64 e9       	ldi	r22, 0x94	; 148
    3374:	70 e0       	ldi	r23, 0x00	; 0
    3376:	48 e9       	ldi	r20, 0x98	; 152
    3378:	50 e0       	ldi	r21, 0x00	; 0
    337a:	0e 94 89 18 	call	0x3112	; 0x3112 <_ZL17handle_interrupts18timer16_Sequence_tPVjS1_>
    337e:	ff 91       	pop	r31
    3380:	ef 91       	pop	r30
    3382:	bf 91       	pop	r27
    3384:	af 91       	pop	r26
    3386:	9f 91       	pop	r25
    3388:	8f 91       	pop	r24
    338a:	7f 91       	pop	r23
    338c:	6f 91       	pop	r22
    338e:	5f 91       	pop	r21
    3390:	4f 91       	pop	r20
    3392:	3f 91       	pop	r19
    3394:	2f 91       	pop	r18
    3396:	0f 90       	pop	r0
    3398:	0b be       	out	0x3b, r0	; 59
    339a:	0f 90       	pop	r0
    339c:	0f be       	out	0x3f, r0	; 63
    339e:	0f 90       	pop	r0
    33a0:	1f 90       	pop	r1
    33a2:	18 95       	reti

000033a4 <__vector_17>:
    33a4:	1f 92       	push	r1
    33a6:	0f 92       	push	r0
    33a8:	0f b6       	in	r0, 0x3f	; 63
    33aa:	0f 92       	push	r0
    33ac:	0b b6       	in	r0, 0x3b	; 59
    33ae:	0f 92       	push	r0
    33b0:	11 24       	eor	r1, r1
    33b2:	2f 93       	push	r18
    33b4:	3f 93       	push	r19
    33b6:	4f 93       	push	r20
    33b8:	5f 93       	push	r21
    33ba:	6f 93       	push	r22
    33bc:	7f 93       	push	r23
    33be:	8f 93       	push	r24
    33c0:	9f 93       	push	r25
    33c2:	af 93       	push	r26
    33c4:	bf 93       	push	r27
    33c6:	ef 93       	push	r30
    33c8:	ff 93       	push	r31
    33ca:	81 e0       	ldi	r24, 0x01	; 1
    33cc:	64 e8       	ldi	r22, 0x84	; 132
    33ce:	70 e0       	ldi	r23, 0x00	; 0
    33d0:	48 e8       	ldi	r20, 0x88	; 136
    33d2:	50 e0       	ldi	r21, 0x00	; 0
    33d4:	0e 94 89 18 	call	0x3112	; 0x3112 <_ZL17handle_interrupts18timer16_Sequence_tPVjS1_>
    33d8:	ff 91       	pop	r31
    33da:	ef 91       	pop	r30
    33dc:	bf 91       	pop	r27
    33de:	af 91       	pop	r26
    33e0:	9f 91       	pop	r25
    33e2:	8f 91       	pop	r24
    33e4:	7f 91       	pop	r23
    33e6:	6f 91       	pop	r22
    33e8:	5f 91       	pop	r21
    33ea:	4f 91       	pop	r20
    33ec:	3f 91       	pop	r19
    33ee:	2f 91       	pop	r18
    33f0:	0f 90       	pop	r0
    33f2:	0b be       	out	0x3b, r0	; 59
    33f4:	0f 90       	pop	r0
    33f6:	0f be       	out	0x3f, r0	; 63
    33f8:	0f 90       	pop	r0
    33fa:	1f 90       	pop	r1
    33fc:	18 95       	reti

000033fe <__mulsi3>:
    33fe:	62 9f       	mul	r22, r18
    3400:	d0 01       	movw	r26, r0
    3402:	73 9f       	mul	r23, r19
    3404:	f0 01       	movw	r30, r0
    3406:	82 9f       	mul	r24, r18
    3408:	e0 0d       	add	r30, r0
    340a:	f1 1d       	adc	r31, r1
    340c:	64 9f       	mul	r22, r20
    340e:	e0 0d       	add	r30, r0
    3410:	f1 1d       	adc	r31, r1
    3412:	92 9f       	mul	r25, r18
    3414:	f0 0d       	add	r31, r0
    3416:	83 9f       	mul	r24, r19
    3418:	f0 0d       	add	r31, r0
    341a:	74 9f       	mul	r23, r20
    341c:	f0 0d       	add	r31, r0
    341e:	65 9f       	mul	r22, r21
    3420:	f0 0d       	add	r31, r0
    3422:	99 27       	eor	r25, r25
    3424:	72 9f       	mul	r23, r18
    3426:	b0 0d       	add	r27, r0
    3428:	e1 1d       	adc	r30, r1
    342a:	f9 1f       	adc	r31, r25
    342c:	63 9f       	mul	r22, r19
    342e:	b0 0d       	add	r27, r0
    3430:	e1 1d       	adc	r30, r1
    3432:	f9 1f       	adc	r31, r25
    3434:	bd 01       	movw	r22, r26
    3436:	cf 01       	movw	r24, r30
    3438:	11 24       	eor	r1, r1
    343a:	08 95       	ret

0000343c <__udivmodqi4>:
    343c:	99 1b       	sub	r25, r25
    343e:	79 e0       	ldi	r23, 0x09	; 9
    3440:	04 c0       	rjmp	.+8      	; 0x344a <__udivmodqi4_ep>

00003442 <__udivmodqi4_loop>:
    3442:	99 1f       	adc	r25, r25
    3444:	96 17       	cp	r25, r22
    3446:	08 f0       	brcs	.+2      	; 0x344a <__udivmodqi4_ep>
    3448:	96 1b       	sub	r25, r22

0000344a <__udivmodqi4_ep>:
    344a:	88 1f       	adc	r24, r24
    344c:	7a 95       	dec	r23
    344e:	c9 f7       	brne	.-14     	; 0x3442 <__udivmodqi4_loop>
    3450:	80 95       	com	r24
    3452:	08 95       	ret

00003454 <__udivmodhi4>:
    3454:	aa 1b       	sub	r26, r26
    3456:	bb 1b       	sub	r27, r27
    3458:	51 e1       	ldi	r21, 0x11	; 17
    345a:	07 c0       	rjmp	.+14     	; 0x346a <__udivmodhi4_ep>

0000345c <__udivmodhi4_loop>:
    345c:	aa 1f       	adc	r26, r26
    345e:	bb 1f       	adc	r27, r27
    3460:	a6 17       	cp	r26, r22
    3462:	b7 07       	cpc	r27, r23
    3464:	10 f0       	brcs	.+4      	; 0x346a <__udivmodhi4_ep>
    3466:	a6 1b       	sub	r26, r22
    3468:	b7 0b       	sbc	r27, r23

0000346a <__udivmodhi4_ep>:
    346a:	88 1f       	adc	r24, r24
    346c:	99 1f       	adc	r25, r25
    346e:	5a 95       	dec	r21
    3470:	a9 f7       	brne	.-22     	; 0x345c <__udivmodhi4_loop>
    3472:	80 95       	com	r24
    3474:	90 95       	com	r25
    3476:	bc 01       	movw	r22, r24
    3478:	cd 01       	movw	r24, r26
    347a:	08 95       	ret

0000347c <__divmodhi4>:
    347c:	97 fb       	bst	r25, 7
    347e:	09 2e       	mov	r0, r25
    3480:	07 26       	eor	r0, r23
    3482:	0a d0       	rcall	.+20     	; 0x3498 <__divmodhi4_neg1>
    3484:	77 fd       	sbrc	r23, 7
    3486:	04 d0       	rcall	.+8      	; 0x3490 <__divmodhi4_neg2>
    3488:	e5 df       	rcall	.-54     	; 0x3454 <__udivmodhi4>
    348a:	06 d0       	rcall	.+12     	; 0x3498 <__divmodhi4_neg1>
    348c:	00 20       	and	r0, r0
    348e:	1a f4       	brpl	.+6      	; 0x3496 <__divmodhi4_exit>

00003490 <__divmodhi4_neg2>:
    3490:	70 95       	com	r23
    3492:	61 95       	neg	r22
    3494:	7f 4f       	sbci	r23, 0xFF	; 255

00003496 <__divmodhi4_exit>:
    3496:	08 95       	ret

00003498 <__divmodhi4_neg1>:
    3498:	f6 f7       	brtc	.-4      	; 0x3496 <__divmodhi4_exit>
    349a:	90 95       	com	r25
    349c:	81 95       	neg	r24
    349e:	9f 4f       	sbci	r25, 0xFF	; 255
    34a0:	08 95       	ret

000034a2 <__udivmodsi4>:
    34a2:	a1 e2       	ldi	r26, 0x21	; 33
    34a4:	1a 2e       	mov	r1, r26
    34a6:	aa 1b       	sub	r26, r26
    34a8:	bb 1b       	sub	r27, r27
    34aa:	fd 01       	movw	r30, r26
    34ac:	0d c0       	rjmp	.+26     	; 0x34c8 <__udivmodsi4_ep>

000034ae <__udivmodsi4_loop>:
    34ae:	aa 1f       	adc	r26, r26
    34b0:	bb 1f       	adc	r27, r27
    34b2:	ee 1f       	adc	r30, r30
    34b4:	ff 1f       	adc	r31, r31
    34b6:	a2 17       	cp	r26, r18
    34b8:	b3 07       	cpc	r27, r19
    34ba:	e4 07       	cpc	r30, r20
    34bc:	f5 07       	cpc	r31, r21
    34be:	20 f0       	brcs	.+8      	; 0x34c8 <__udivmodsi4_ep>
    34c0:	a2 1b       	sub	r26, r18
    34c2:	b3 0b       	sbc	r27, r19
    34c4:	e4 0b       	sbc	r30, r20
    34c6:	f5 0b       	sbc	r31, r21

000034c8 <__udivmodsi4_ep>:
    34c8:	66 1f       	adc	r22, r22
    34ca:	77 1f       	adc	r23, r23
    34cc:	88 1f       	adc	r24, r24
    34ce:	99 1f       	adc	r25, r25
    34d0:	1a 94       	dec	r1
    34d2:	69 f7       	brne	.-38     	; 0x34ae <__udivmodsi4_loop>
    34d4:	60 95       	com	r22
    34d6:	70 95       	com	r23
    34d8:	80 95       	com	r24
    34da:	90 95       	com	r25
    34dc:	9b 01       	movw	r18, r22
    34de:	ac 01       	movw	r20, r24
    34e0:	bd 01       	movw	r22, r26
    34e2:	cf 01       	movw	r24, r30
    34e4:	08 95       	ret

000034e6 <__divmodsi4>:
    34e6:	97 fb       	bst	r25, 7
    34e8:	09 2e       	mov	r0, r25
    34ea:	05 26       	eor	r0, r21
    34ec:	0e d0       	rcall	.+28     	; 0x350a <__divmodsi4_neg1>
    34ee:	57 fd       	sbrc	r21, 7
    34f0:	04 d0       	rcall	.+8      	; 0x34fa <__divmodsi4_neg2>
    34f2:	d7 df       	rcall	.-82     	; 0x34a2 <__udivmodsi4>
    34f4:	0a d0       	rcall	.+20     	; 0x350a <__divmodsi4_neg1>
    34f6:	00 1c       	adc	r0, r0
    34f8:	38 f4       	brcc	.+14     	; 0x3508 <__divmodsi4_exit>

000034fa <__divmodsi4_neg2>:
    34fa:	50 95       	com	r21
    34fc:	40 95       	com	r20
    34fe:	30 95       	com	r19
    3500:	21 95       	neg	r18
    3502:	3f 4f       	sbci	r19, 0xFF	; 255
    3504:	4f 4f       	sbci	r20, 0xFF	; 255
    3506:	5f 4f       	sbci	r21, 0xFF	; 255

00003508 <__divmodsi4_exit>:
    3508:	08 95       	ret

0000350a <__divmodsi4_neg1>:
    350a:	f6 f7       	brtc	.-4      	; 0x3508 <__divmodsi4_exit>
    350c:	90 95       	com	r25
    350e:	80 95       	com	r24
    3510:	70 95       	com	r23
    3512:	61 95       	neg	r22
    3514:	7f 4f       	sbci	r23, 0xFF	; 255
    3516:	8f 4f       	sbci	r24, 0xFF	; 255
    3518:	9f 4f       	sbci	r25, 0xFF	; 255
    351a:	08 95       	ret

0000351c <__prologue_saves__>:
    351c:	2f 92       	push	r2
    351e:	3f 92       	push	r3
    3520:	4f 92       	push	r4
    3522:	5f 92       	push	r5
    3524:	6f 92       	push	r6
    3526:	7f 92       	push	r7
    3528:	8f 92       	push	r8
    352a:	9f 92       	push	r9
    352c:	af 92       	push	r10
    352e:	bf 92       	push	r11
    3530:	cf 92       	push	r12
    3532:	df 92       	push	r13
    3534:	ef 92       	push	r14
    3536:	ff 92       	push	r15
    3538:	0f 93       	push	r16
    353a:	1f 93       	push	r17
    353c:	cf 93       	push	r28
    353e:	df 93       	push	r29
    3540:	cd b7       	in	r28, 0x3d	; 61
    3542:	de b7       	in	r29, 0x3e	; 62
    3544:	ca 1b       	sub	r28, r26
    3546:	db 0b       	sbc	r29, r27
    3548:	0f b6       	in	r0, 0x3f	; 63
    354a:	f8 94       	cli
    354c:	de bf       	out	0x3e, r29	; 62
    354e:	0f be       	out	0x3f, r0	; 63
    3550:	cd bf       	out	0x3d, r28	; 61
    3552:	19 94       	eijmp

00003554 <__epilogue_restores__>:
    3554:	2a 88       	ldd	r2, Y+18	; 0x12
    3556:	39 88       	ldd	r3, Y+17	; 0x11
    3558:	48 88       	ldd	r4, Y+16	; 0x10
    355a:	5f 84       	ldd	r5, Y+15	; 0x0f
    355c:	6e 84       	ldd	r6, Y+14	; 0x0e
    355e:	7d 84       	ldd	r7, Y+13	; 0x0d
    3560:	8c 84       	ldd	r8, Y+12	; 0x0c
    3562:	9b 84       	ldd	r9, Y+11	; 0x0b
    3564:	aa 84       	ldd	r10, Y+10	; 0x0a
    3566:	b9 84       	ldd	r11, Y+9	; 0x09
    3568:	c8 84       	ldd	r12, Y+8	; 0x08
    356a:	df 80       	ldd	r13, Y+7	; 0x07
    356c:	ee 80       	ldd	r14, Y+6	; 0x06
    356e:	fd 80       	ldd	r15, Y+5	; 0x05
    3570:	0c 81       	ldd	r16, Y+4	; 0x04
    3572:	1b 81       	ldd	r17, Y+3	; 0x03
    3574:	aa 81       	ldd	r26, Y+2	; 0x02
    3576:	b9 81       	ldd	r27, Y+1	; 0x01
    3578:	ce 0f       	add	r28, r30
    357a:	d1 1d       	adc	r29, r1
    357c:	0f b6       	in	r0, 0x3f	; 63
    357e:	f8 94       	cli
    3580:	de bf       	out	0x3e, r29	; 62
    3582:	0f be       	out	0x3f, r0	; 63
    3584:	cd bf       	out	0x3d, r28	; 61
    3586:	ed 01       	movw	r28, r26
    3588:	08 95       	ret

0000358a <__tablejump_elpm__>:
    358a:	07 90       	elpm	r0, Z+
    358c:	f6 91       	elpm	r31, Z+
    358e:	e0 2d       	mov	r30, r0
    3590:	19 94       	eijmp

00003592 <_exit>:
    3592:	f8 94       	cli

00003594 <__stop_program>:
    3594:	ff cf       	rjmp	.-2      	; 0x3594 <__stop_program>
