
ROS_mega.elf:     file format elf32-avr

Sections:
Idx Name          Size      VMA       LMA       File off  Algn
  0 .data         00000484  00800200  000082f2  00008386  2**0
                  CONTENTS, ALLOC, LOAD, DATA
  1 .text         000082f2  00000000  00000000  00000094  2**1
                  CONTENTS, ALLOC, LOAD, READONLY, CODE
  2 .bss          00000b0d  00800684  00800684  0000880a  2**0
                  ALLOC
  3 .stab         00005ee0  00000000  00000000  0000880c  2**2
                  CONTENTS, READONLY, DEBUGGING
  4 .stabstr      000013de  00000000  00000000  0000e6ec  2**0
                  CONTENTS, READONLY, DEBUGGING

Disassembly of section .text:

00000000 <__vectors>:
       0:	0c 94 4a 01 	jmp	0x294	; 0x294 <__dtors_end>
       4:	0c 94 7b 01 	jmp	0x2f6	; 0x2f6 <__bad_interrupt>
       8:	0c 94 7b 01 	jmp	0x2f6	; 0x2f6 <__bad_interrupt>
       c:	0c 94 7b 01 	jmp	0x2f6	; 0x2f6 <__bad_interrupt>
      10:	0c 94 7b 01 	jmp	0x2f6	; 0x2f6 <__bad_interrupt>
      14:	0c 94 7b 01 	jmp	0x2f6	; 0x2f6 <__bad_interrupt>
      18:	0c 94 7b 01 	jmp	0x2f6	; 0x2f6 <__bad_interrupt>
      1c:	0c 94 7b 01 	jmp	0x2f6	; 0x2f6 <__bad_interrupt>
      20:	0c 94 7b 01 	jmp	0x2f6	; 0x2f6 <__bad_interrupt>
      24:	0c 94 7b 01 	jmp	0x2f6	; 0x2f6 <__bad_interrupt>
      28:	0c 94 7b 01 	jmp	0x2f6	; 0x2f6 <__bad_interrupt>
      2c:	0c 94 7b 01 	jmp	0x2f6	; 0x2f6 <__bad_interrupt>
      30:	0c 94 7b 01 	jmp	0x2f6	; 0x2f6 <__bad_interrupt>
      34:	0c 94 7b 01 	jmp	0x2f6	; 0x2f6 <__bad_interrupt>
      38:	0c 94 7b 01 	jmp	0x2f6	; 0x2f6 <__bad_interrupt>
      3c:	0c 94 ed 01 	jmp	0x3da	; 0x3da <__vector_15>
      40:	0c 94 7b 01 	jmp	0x2f6	; 0x2f6 <__bad_interrupt>
      44:	0c 94 3c 37 	jmp	0x6e78	; 0x6e78 <__vector_17>
      48:	0c 94 7b 01 	jmp	0x2f6	; 0x2f6 <__bad_interrupt>
      4c:	0c 94 7b 01 	jmp	0x2f6	; 0x2f6 <__bad_interrupt>
      50:	0c 94 7b 01 	jmp	0x2f6	; 0x2f6 <__bad_interrupt>
      54:	0c 94 7b 01 	jmp	0x2f6	; 0x2f6 <__bad_interrupt>
      58:	0c 94 7b 01 	jmp	0x2f6	; 0x2f6 <__bad_interrupt>
      5c:	0c 94 13 34 	jmp	0x6826	; 0x6826 <__vector_23>
      60:	0c 94 7b 01 	jmp	0x2f6	; 0x2f6 <__bad_interrupt>
      64:	0c 94 48 30 	jmp	0x6090	; 0x6090 <__vector_25>
      68:	0c 94 7b 01 	jmp	0x2f6	; 0x2f6 <__bad_interrupt>
      6c:	0c 94 7b 01 	jmp	0x2f6	; 0x2f6 <__bad_interrupt>
      70:	0c 94 7b 01 	jmp	0x2f6	; 0x2f6 <__bad_interrupt>
      74:	0c 94 7b 01 	jmp	0x2f6	; 0x2f6 <__bad_interrupt>
      78:	0c 94 7b 01 	jmp	0x2f6	; 0x2f6 <__bad_interrupt>
      7c:	0c 94 7b 01 	jmp	0x2f6	; 0x2f6 <__bad_interrupt>
      80:	0c 94 69 37 	jmp	0x6ed2	; 0x6ed2 <__vector_32>
      84:	0c 94 7b 01 	jmp	0x2f6	; 0x2f6 <__bad_interrupt>
      88:	0c 94 7b 01 	jmp	0x2f6	; 0x2f6 <__bad_interrupt>
      8c:	0c 94 7b 01 	jmp	0x2f6	; 0x2f6 <__bad_interrupt>
      90:	0c 94 74 30 	jmp	0x60e8	; 0x60e8 <__vector_36>
      94:	0c 94 7b 01 	jmp	0x2f6	; 0x2f6 <__bad_interrupt>
      98:	0c 94 7b 01 	jmp	0x2f6	; 0x2f6 <__bad_interrupt>
      9c:	0c 94 e6 39 	jmp	0x73cc	; 0x73cc <__vector_39>
      a0:	0c 94 7b 01 	jmp	0x2f6	; 0x2f6 <__bad_interrupt>
      a4:	0c 94 7b 01 	jmp	0x2f6	; 0x2f6 <__bad_interrupt>
      a8:	0c 94 96 37 	jmp	0x6f2c	; 0x6f2c <__vector_42>
      ac:	0c 94 7b 01 	jmp	0x2f6	; 0x2f6 <__bad_interrupt>
      b0:	0c 94 7b 01 	jmp	0x2f6	; 0x2f6 <__bad_interrupt>
      b4:	0c 94 7b 01 	jmp	0x2f6	; 0x2f6 <__bad_interrupt>
      b8:	0c 94 7b 01 	jmp	0x2f6	; 0x2f6 <__bad_interrupt>
      bc:	0c 94 c3 37 	jmp	0x6f86	; 0x6f86 <__vector_47>
      c0:	0c 94 7b 01 	jmp	0x2f6	; 0x2f6 <__bad_interrupt>
      c4:	0c 94 7b 01 	jmp	0x2f6	; 0x2f6 <__bad_interrupt>
      c8:	0c 94 7b 01 	jmp	0x2f6	; 0x2f6 <__bad_interrupt>
      cc:	0c 94 a0 30 	jmp	0x6140	; 0x6140 <__vector_51>
      d0:	0c 94 7b 01 	jmp	0x2f6	; 0x2f6 <__bad_interrupt>
      d4:	0c 94 7b 01 	jmp	0x2f6	; 0x2f6 <__bad_interrupt>
      d8:	0c 94 cc 30 	jmp	0x6198	; 0x6198 <__vector_54>
      dc:	0c 94 7b 01 	jmp	0x2f6	; 0x2f6 <__bad_interrupt>
      e0:	0c 94 7b 01 	jmp	0x2f6	; 0x2f6 <__bad_interrupt>
      e4:	03 6e       	ori	r16, 0xE3	; 227
      e6:	db 36       	cpi	r29, 0x6B	; 107
      e8:	3d 9a       	sbi	0x07, 5	; 7
      ea:	99 99       	sbic	0x13, 1	; 19
      ec:	99 3d       	cpi	r25, 0xD9	; 217
      ee:	ab aa       	std	Y+51, r10	; 0x33
      f0:	aa 2a       	or	r10, r26
      f2:	3e 00       	.word	0x003e	; ????
      f4:	00 00       	nop
      f6:	80 3f       	cpi	r24, 0xF0	; 240
      f8:	08 4a       	sbci	r16, 0xA8	; 168
      fa:	d7 3b       	cpi	r29, 0xB7	; 183
      fc:	3b ce       	rjmp	.-906    	; 0xfffffd74 <__eeprom_end+0xff7efd74>
      fe:	01 6e       	ori	r16, 0xE1	; 225
     100:	84 bc       	out	0x24, r8	; 36
     102:	bf fd       	.word	0xfdbf	; ????
     104:	c1 2f       	mov	r28, r17
     106:	3d 6c       	ori	r19, 0xCD	; 205
     108:	74 31       	cpi	r23, 0x14	; 20
     10a:	9a bd       	out	0x2a, r25	; 42
     10c:	56 83       	std	Z+6, r21	; 0x06
     10e:	3d da       	rcall	.-2950   	; 0xfffff58a <__eeprom_end+0xff7ef58a>
     110:	3d 00       	.word	0x003d	; ????
     112:	c7 7f       	andi	r28, 0xF7	; 247
     114:	11 be       	out	0x31, r1	; 49
     116:	d9 e4       	ldi	r29, 0x49	; 73
     118:	bb 4c       	sbci	r27, 0xCB	; 203
     11a:	3e 91       	ld	r19, -X
     11c:	6b aa       	std	Y+51, r6	; 0x33
     11e:	aa be       	out	0x3a, r10	; 58
     120:	00 00       	nop
     122:	00 80       	ld	r0, Z
     124:	3f 07       	cpc	r19, r31
     126:	2c 7a       	andi	r18, 0xAC	; 172
     128:	a5 ba       	out	0x15, r10	; 21
     12a:	6c c5       	rjmp	.+2776   	; 0xc04 <_ZN8RoboClaw25SetMinVoltageLogicBatteryEhh+0x1c>
     12c:	90 da       	rcall	.-2784   	; 0xfffff64e <__eeprom_end+0xff7ef64e>
     12e:	3b 93       	.word	0x933b	; ????
     130:	65 fc       	sbrc	r6, 5
     132:	8b bc       	out	0x2b, r8	; 43
     134:	53 f8       	bld	r5, 3
     136:	10 fd       	sbrc	r17, 0
     138:	3c 56       	subi	r19, 0x6C	; 108
     13a:	92 83       	std	Z+2, r25	; 0x02
     13c:	4d bd       	out	0x2d, r20	; 45
     13e:	87 9d       	mul	r24, r7
     140:	3a b6       	in	r3, 0x3a	; 58
     142:	3d cb       	rjmp	.-2438   	; 0xfffff7be <__eeprom_end+0xff7ef7be>
     144:	c9 bf       	out	0x39, r28	; 57
     146:	5b be       	out	0x3b, r5	; 59
     148:	73 da       	rcall	.-2842   	; 0xfffff630 <__eeprom_end+0xff7ef630>
     14a:	0f c9       	rjmp	.-3554   	; 0xfffff36a <__eeprom_end+0xff7ef36a>
     14c:	3f 05       	cpc	r19, r15
     14e:	a8 4c       	sbci	r26, 0xC8	; 200
     150:	cd b2       	in	r12, 0x1d	; 29
     152:	d4 4e       	sbci	r29, 0xE4	; 228
     154:	b9 38       	cpi	r27, 0x89	; 137
     156:	36 a9       	ldd	r19, Z+54	; 0x36
     158:	02 0c       	add	r0, r2
     15a:	50 b9       	out	0x00, r21	; 0
     15c:	91 86       	std	Z+9, r9	; 0x09
     15e:	88 08       	sbc	r8, r8
     160:	3c a6       	std	Y+44, r3	; 0x2c
     162:	aa aa       	std	Y+50, r10	; 0x32
     164:	2a be       	out	0x3a, r2	; 58
     166:	00 00       	nop
     168:	00 80       	ld	r0, Z
     16a:	3f 00       	.word	0x003f	; ????

0000016b <port_to_mode_PGM>:
     16b:	00 00 21 00 24 00 27 00 2a 00 2d 00 30 00 33 00     ..!.$.'.*.-.0.3.
     17b:	01 01 00 00 04 01 07 01 0a 01                       ..........

00000185 <port_to_output_PGM>:
     185:	00 00 22 00 25 00 28 00 2b 00 2e 00 31 00 34 00     ..".%.(.+...1.4.
     195:	02 01 00 00 05 01 08 01 0b 01                       ..........

0000019f <port_to_input_PGM>:
     19f:	00 00 20 00 23 00 26 00 29 00 2c 00 2f 00 32 00     .. .#.&.).,./.2.
     1af:	00 01 00 00 03 01 06 01 09 01                       ..........

000001b9 <digital_pin_to_port_PGM>:
     1b9:	05 05 05 05 07 05 08 08 08 08 02 02 02 02 0a 0a     ................
     1c9:	08 08 04 04 04 04 01 01 01 01 01 01 01 01 03 03     ................
     1d9:	03 03 03 03 03 03 04 07 07 07 0c 0c 0c 0c 0c 0c     ................
     1e9:	0c 0c 02 02 02 02 06 06 06 06 06 06 06 06 0b 0b     ................
     1f9:	0b 0b 0b 0b 0b 0b                                   ......

000001ff <digital_pin_to_bit_mask_PGM>:
     1ff:	01 02 10 20 20 08 08 10 20 40 10 20 40 80 02 01     ...  ... @. @...
     20f:	02 01 08 04 02 01 01 02 04 08 10 20 40 80 80 40     ........... @..@
     21f:	20 10 08 04 02 01 80 04 02 01 80 40 20 10 08 04      ..........@ ...
     22f:	02 01 08 04 02 01 01 02 04 08 10 20 40 80 01 02     ........... @...
     23f:	04 08 10 20 40 80                                   ... @.

00000245 <digital_pin_to_timer_PGM>:
     245:	00 00 09 0a 02 08 0b 0c 0d 07 06 03 04 01 00 00     ................
	...
     271:	10 0f 0e 00 00 00 00 00 00 00 00 00 00 00 00 00     ................
	...

0000028c <__ctors_start>:
     28c:	a3 2f       	mov	r26, r19
     28e:	df 31       	cpi	r29, 0x1F	; 31
     290:	74 36       	cpi	r23, 0x64	; 100

00000292 <__ctors_end>:
     292:	a8 2f       	mov	r26, r24

00000294 <__dtors_end>:
     294:	11 24       	eor	r1, r1
     296:	1f be       	out	0x3f, r1	; 63
     298:	cf ef       	ldi	r28, 0xFF	; 255
     29a:	d1 e2       	ldi	r29, 0x21	; 33
     29c:	de bf       	out	0x3e, r29	; 62
     29e:	cd bf       	out	0x3d, r28	; 61
     2a0:	00 e0       	ldi	r16, 0x00	; 0
     2a2:	0c bf       	out	0x3c, r16	; 60

000002a4 <__do_copy_data>:
     2a4:	16 e0       	ldi	r17, 0x06	; 6
     2a6:	a0 e0       	ldi	r26, 0x00	; 0
     2a8:	b2 e0       	ldi	r27, 0x02	; 2
     2aa:	e2 ef       	ldi	r30, 0xF2	; 242
     2ac:	f2 e8       	ldi	r31, 0x82	; 130
     2ae:	00 e0       	ldi	r16, 0x00	; 0
     2b0:	0b bf       	out	0x3b, r16	; 59
     2b2:	02 c0       	rjmp	.+4      	; 0x2b8 <__do_copy_data+0x14>
     2b4:	07 90       	elpm	r0, Z+
     2b6:	0d 92       	st	X+, r0
     2b8:	a4 38       	cpi	r26, 0x84	; 132
     2ba:	b1 07       	cpc	r27, r17
     2bc:	d9 f7       	brne	.-10     	; 0x2b4 <__do_copy_data+0x10>

000002be <__do_clear_bss>:
     2be:	11 e1       	ldi	r17, 0x11	; 17
     2c0:	a4 e8       	ldi	r26, 0x84	; 132
     2c2:	b6 e0       	ldi	r27, 0x06	; 6
     2c4:	01 c0       	rjmp	.+2      	; 0x2c8 <.do_clear_bss_start>

000002c6 <.do_clear_bss_loop>:
     2c6:	1d 92       	st	X+, r1

000002c8 <.do_clear_bss_start>:
     2c8:	a1 39       	cpi	r26, 0x91	; 145
     2ca:	b1 07       	cpc	r27, r17
     2cc:	e1 f7       	brne	.-8      	; 0x2c6 <.do_clear_bss_loop>

000002ce <__do_global_ctors>:
     2ce:	12 e0       	ldi	r17, 0x02	; 2
     2d0:	c2 e9       	ldi	r28, 0x92	; 146
     2d2:	d2 e0       	ldi	r29, 0x02	; 2
     2d4:	00 e0       	ldi	r16, 0x00	; 0
     2d6:	06 c0       	rjmp	.+12     	; 0x2e4 <__do_global_ctors+0x16>
     2d8:	22 97       	sbiw	r28, 0x02	; 2
     2da:	01 09       	sbc	r16, r1
     2dc:	fe 01       	movw	r30, r28
     2de:	0b bf       	out	0x3b, r16	; 59
     2e0:	0e 94 63 41 	call	0x82c6	; 0x82c6 <__tablejump_elpm__>
     2e4:	cc 38       	cpi	r28, 0x8C	; 140
     2e6:	d1 07       	cpc	r29, r17
     2e8:	80 e0       	ldi	r24, 0x00	; 0
     2ea:	08 07       	cpc	r16, r24
     2ec:	a9 f7       	brne	.-22     	; 0x2d8 <__do_global_ctors+0xa>
     2ee:	0e 94 7a 2c 	call	0x58f4	; 0x58f4 <main>
     2f2:	0c 94 4c 3d 	jmp	0x7a98	; 0x7a98 <exit>

000002f6 <__bad_interrupt>:
     2f6:	0c 94 00 00 	jmp	0	; 0x0 <__vectors>

000002fa <_ZN3ros16normalizeSecNSecERmS0_>:
     2fa:	cf 92       	push	r12
     2fc:	df 92       	push	r13
     2fe:	ef 92       	push	r14
     300:	ff 92       	push	r15
     302:	0f 93       	push	r16
     304:	1f 93       	push	r17
     306:	cf 93       	push	r28
     308:	df 93       	push	r29
     30a:	ec 01       	movw	r28, r24
     30c:	6b 01       	movw	r12, r22
     30e:	fb 01       	movw	r30, r22
     310:	60 81       	ld	r22, Z
     312:	71 81       	ldd	r23, Z+1	; 0x01
     314:	82 81       	ldd	r24, Z+2	; 0x02
     316:	93 81       	ldd	r25, Z+3	; 0x03
     318:	20 e0       	ldi	r18, 0x00	; 0
     31a:	3a ec       	ldi	r19, 0xCA	; 202
     31c:	4a e9       	ldi	r20, 0x9A	; 154
     31e:	5b e3       	ldi	r21, 0x3B	; 59
     320:	0e 94 26 41 	call	0x824c	; 0x824c <__udivmodsi4>
     324:	7b 01       	movw	r14, r22
     326:	8c 01       	movw	r16, r24
     328:	88 81       	ld	r24, Y
     32a:	99 81       	ldd	r25, Y+1	; 0x01
     32c:	aa 81       	ldd	r26, Y+2	; 0x02
     32e:	bb 81       	ldd	r27, Y+3	; 0x03
     330:	82 0f       	add	r24, r18
     332:	93 1f       	adc	r25, r19
     334:	a4 1f       	adc	r26, r20
     336:	b5 1f       	adc	r27, r21
     338:	88 83       	st	Y, r24
     33a:	99 83       	std	Y+1, r25	; 0x01
     33c:	aa 83       	std	Y+2, r26	; 0x02
     33e:	bb 83       	std	Y+3, r27	; 0x03
     340:	f6 01       	movw	r30, r12
     342:	e0 82       	st	Z, r14
     344:	f1 82       	std	Z+1, r15	; 0x01
     346:	02 83       	std	Z+2, r16	; 0x02
     348:	13 83       	std	Z+3, r17	; 0x03
     34a:	df 91       	pop	r29
     34c:	cf 91       	pop	r28
     34e:	1f 91       	pop	r17
     350:	0f 91       	pop	r16
     352:	ff 90       	pop	r15
     354:	ef 90       	pop	r14
     356:	df 90       	pop	r13
     358:	cf 90       	pop	r12
     35a:	08 95       	ret

0000035c <_ZN11FlexiTimer29_overflowEv>:
     35c:	80 91 8a 06 	lds	r24, 0x068A
     360:	90 91 8b 06 	lds	r25, 0x068B
     364:	a0 91 8c 06 	lds	r26, 0x068C
     368:	b0 91 8d 06 	lds	r27, 0x068D
     36c:	01 96       	adiw	r24, 0x01	; 1
     36e:	a1 1d       	adc	r26, r1
     370:	b1 1d       	adc	r27, r1
     372:	80 93 8a 06 	sts	0x068A, r24
     376:	90 93 8b 06 	sts	0x068B, r25
     37a:	a0 93 8c 06 	sts	0x068C, r26
     37e:	b0 93 8d 06 	sts	0x068D, r27
     382:	20 91 8a 06 	lds	r18, 0x068A
     386:	30 91 8b 06 	lds	r19, 0x068B
     38a:	40 91 8c 06 	lds	r20, 0x068C
     38e:	50 91 8d 06 	lds	r21, 0x068D
     392:	80 91 84 06 	lds	r24, 0x0684
     396:	90 91 85 06 	lds	r25, 0x0685
     39a:	a0 91 86 06 	lds	r26, 0x0686
     39e:	b0 91 87 06 	lds	r27, 0x0687
     3a2:	28 17       	cp	r18, r24
     3a4:	39 07       	cpc	r19, r25
     3a6:	4a 07       	cpc	r20, r26
     3a8:	5b 07       	cpc	r21, r27
     3aa:	b0 f0       	brcs	.+44     	; 0x3d8 <_ZN11FlexiTimer29_overflowEv+0x7c>
     3ac:	80 91 8e 06 	lds	r24, 0x068E
     3b0:	88 23       	and	r24, r24
     3b2:	91 f4       	brne	.+36     	; 0x3d8 <_ZN11FlexiTimer29_overflowEv+0x7c>
     3b4:	81 e0       	ldi	r24, 0x01	; 1
     3b6:	80 93 8e 06 	sts	0x068E, r24
     3ba:	10 92 8a 06 	sts	0x068A, r1
     3be:	10 92 8b 06 	sts	0x068B, r1
     3c2:	10 92 8c 06 	sts	0x068C, r1
     3c6:	10 92 8d 06 	sts	0x068D, r1
     3ca:	e0 91 88 06 	lds	r30, 0x0688
     3ce:	f0 91 89 06 	lds	r31, 0x0689
     3d2:	19 95       	eicall
     3d4:	10 92 8e 06 	sts	0x068E, r1
     3d8:	08 95       	ret

000003da <__vector_15>:
     3da:	1f 92       	push	r1
     3dc:	0f 92       	push	r0
     3de:	0f b6       	in	r0, 0x3f	; 63
     3e0:	0f 92       	push	r0
     3e2:	0b b6       	in	r0, 0x3b	; 59
     3e4:	0f 92       	push	r0
     3e6:	11 24       	eor	r1, r1
     3e8:	2f 93       	push	r18
     3ea:	3f 93       	push	r19
     3ec:	4f 93       	push	r20
     3ee:	5f 93       	push	r21
     3f0:	6f 93       	push	r22
     3f2:	7f 93       	push	r23
     3f4:	8f 93       	push	r24
     3f6:	9f 93       	push	r25
     3f8:	af 93       	push	r26
     3fa:	bf 93       	push	r27
     3fc:	ef 93       	push	r30
     3fe:	ff 93       	push	r31
     400:	0e 94 ae 01 	call	0x35c	; 0x35c <_ZN11FlexiTimer29_overflowEv>
     404:	ff 91       	pop	r31
     406:	ef 91       	pop	r30
     408:	bf 91       	pop	r27
     40a:	af 91       	pop	r26
     40c:	9f 91       	pop	r25
     40e:	8f 91       	pop	r24
     410:	7f 91       	pop	r23
     412:	6f 91       	pop	r22
     414:	5f 91       	pop	r21
     416:	4f 91       	pop	r20
     418:	3f 91       	pop	r19
     41a:	2f 91       	pop	r18
     41c:	0f 90       	pop	r0
     41e:	0b be       	out	0x3b, r0	; 59
     420:	0f 90       	pop	r0
     422:	0f be       	out	0x3f, r0	; 63
     424:	0f 90       	pop	r0
     426:	1f 90       	pop	r1
     428:	18 95       	reti

0000042a <_ZN8L3G4200D8writeRegEhh>:
     42a:	ef 92       	push	r14
     42c:	ff 92       	push	r15
     42e:	1f 93       	push	r17
     430:	df 93       	push	r29
     432:	cf 93       	push	r28
     434:	0f 92       	push	r0
     436:	cd b7       	in	r28, 0x3d	; 61
     438:	de b7       	in	r29, 0x3e	; 62
     43a:	16 2f       	mov	r17, r22
     43c:	8b e8       	ldi	r24, 0x8B	; 139
     43e:	e8 2e       	mov	r14, r24
     440:	80 e1       	ldi	r24, 0x10	; 16
     442:	f8 2e       	mov	r15, r24
     444:	c7 01       	movw	r24, r14
     446:	69 e6       	ldi	r22, 0x69	; 105
     448:	70 e0       	ldi	r23, 0x00	; 0
     44a:	49 83       	std	Y+1, r20	; 0x01
     44c:	0e 94 23 36 	call	0x6c46	; 0x6c46 <_ZN7TwoWire17beginTransmissionEi>
     450:	c7 01       	movw	r24, r14
     452:	61 2f       	mov	r22, r17
     454:	0e 94 36 36 	call	0x6c6c	; 0x6c6c <_ZN7TwoWire4sendEh>
     458:	c7 01       	movw	r24, r14
     45a:	49 81       	ldd	r20, Y+1	; 0x01
     45c:	64 2f       	mov	r22, r20
     45e:	0e 94 36 36 	call	0x6c6c	; 0x6c6c <_ZN7TwoWire4sendEh>
     462:	c7 01       	movw	r24, r14
     464:	0e 94 26 36 	call	0x6c4c	; 0x6c4c <_ZN7TwoWire15endTransmissionEv>
     468:	0f 90       	pop	r0
     46a:	cf 91       	pop	r28
     46c:	df 91       	pop	r29
     46e:	1f 91       	pop	r17
     470:	ff 90       	pop	r15
     472:	ef 90       	pop	r14
     474:	08 95       	ret

00000476 <_ZN8L3G4200D4readEv>:
     476:	cf 92       	push	r12
     478:	df 92       	push	r13
     47a:	ef 92       	push	r14
     47c:	ff 92       	push	r15
     47e:	0f 93       	push	r16
     480:	1f 93       	push	r17
     482:	cf 93       	push	r28
     484:	df 93       	push	r29
     486:	ec 01       	movw	r28, r24
     488:	8b e8       	ldi	r24, 0x8B	; 139
     48a:	90 e1       	ldi	r25, 0x10	; 16
     48c:	69 e6       	ldi	r22, 0x69	; 105
     48e:	70 e0       	ldi	r23, 0x00	; 0
     490:	0e 94 23 36 	call	0x6c46	; 0x6c46 <_ZN7TwoWire17beginTransmissionEi>
     494:	8b e8       	ldi	r24, 0x8B	; 139
     496:	90 e1       	ldi	r25, 0x10	; 16
     498:	68 ea       	ldi	r22, 0xA8	; 168
     49a:	70 e0       	ldi	r23, 0x00	; 0
     49c:	0e 94 5a 36 	call	0x6cb4	; 0x6cb4 <_ZN7TwoWire4sendEi>
     4a0:	8b e8       	ldi	r24, 0x8B	; 139
     4a2:	90 e1       	ldi	r25, 0x10	; 16
     4a4:	0e 94 26 36 	call	0x6c4c	; 0x6c4c <_ZN7TwoWire15endTransmissionEv>
     4a8:	8b e8       	ldi	r24, 0x8B	; 139
     4aa:	90 e1       	ldi	r25, 0x10	; 16
     4ac:	69 e6       	ldi	r22, 0x69	; 105
     4ae:	70 e0       	ldi	r23, 0x00	; 0
     4b0:	46 e0       	ldi	r20, 0x06	; 6
     4b2:	50 e0       	ldi	r21, 0x00	; 0
     4b4:	0e 94 16 36 	call	0x6c2c	; 0x6c2c <_ZN7TwoWire11requestFromEii>
     4b8:	8b e8       	ldi	r24, 0x8B	; 139
     4ba:	90 e1       	ldi	r25, 0x10	; 16
     4bc:	0e 94 5d 36 	call	0x6cba	; 0x6cba <_ZN7TwoWire9availableEv>
     4c0:	86 30       	cpi	r24, 0x06	; 6
     4c2:	d0 f3       	brcs	.-12     	; 0x4b8 <_ZN8L3G4200D4readEv+0x42>
     4c4:	8b e8       	ldi	r24, 0x8B	; 139
     4c6:	90 e1       	ldi	r25, 0x10	; 16
     4c8:	0e 94 63 36 	call	0x6cc6	; 0x6cc6 <_ZN7TwoWire7receiveEv>
     4cc:	d8 2e       	mov	r13, r24
     4ce:	8b e8       	ldi	r24, 0x8B	; 139
     4d0:	90 e1       	ldi	r25, 0x10	; 16
     4d2:	0e 94 63 36 	call	0x6cc6	; 0x6cc6 <_ZN7TwoWire7receiveEv>
     4d6:	c8 2e       	mov	r12, r24
     4d8:	8b e8       	ldi	r24, 0x8B	; 139
     4da:	90 e1       	ldi	r25, 0x10	; 16
     4dc:	0e 94 63 36 	call	0x6cc6	; 0x6cc6 <_ZN7TwoWire7receiveEv>
     4e0:	f8 2e       	mov	r15, r24
     4e2:	8b e8       	ldi	r24, 0x8B	; 139
     4e4:	90 e1       	ldi	r25, 0x10	; 16
     4e6:	0e 94 63 36 	call	0x6cc6	; 0x6cc6 <_ZN7TwoWire7receiveEv>
     4ea:	e8 2e       	mov	r14, r24
     4ec:	8b e8       	ldi	r24, 0x8B	; 139
     4ee:	90 e1       	ldi	r25, 0x10	; 16
     4f0:	0e 94 63 36 	call	0x6cc6	; 0x6cc6 <_ZN7TwoWire7receiveEv>
     4f4:	18 2f       	mov	r17, r24
     4f6:	8b e8       	ldi	r24, 0x8B	; 139
     4f8:	90 e1       	ldi	r25, 0x10	; 16
     4fa:	0e 94 63 36 	call	0x6cc6	; 0x6cc6 <_ZN7TwoWire7receiveEv>
     4fe:	08 2f       	mov	r16, r24
     500:	3c 2d       	mov	r19, r12
     502:	20 e0       	ldi	r18, 0x00	; 0
     504:	6d 2d       	mov	r22, r13
     506:	70 e0       	ldi	r23, 0x00	; 0
     508:	62 2b       	or	r22, r18
     50a:	73 2b       	or	r23, r19
     50c:	88 27       	eor	r24, r24
     50e:	77 fd       	sbrc	r23, 7
     510:	80 95       	com	r24
     512:	98 2f       	mov	r25, r24
     514:	0e 94 d8 3e 	call	0x7db0	; 0x7db0 <__floatsisf>
     518:	68 83       	st	Y, r22
     51a:	79 83       	std	Y+1, r23	; 0x01
     51c:	8a 83       	std	Y+2, r24	; 0x02
     51e:	9b 83       	std	Y+3, r25	; 0x03
     520:	9e 2d       	mov	r25, r14
     522:	80 e0       	ldi	r24, 0x00	; 0
     524:	6f 2d       	mov	r22, r15
     526:	70 e0       	ldi	r23, 0x00	; 0
     528:	68 2b       	or	r22, r24
     52a:	79 2b       	or	r23, r25
     52c:	88 27       	eor	r24, r24
     52e:	77 fd       	sbrc	r23, 7
     530:	80 95       	com	r24
     532:	98 2f       	mov	r25, r24
     534:	0e 94 d8 3e 	call	0x7db0	; 0x7db0 <__floatsisf>
     538:	6c 83       	std	Y+4, r22	; 0x04
     53a:	7d 83       	std	Y+5, r23	; 0x05
     53c:	8e 83       	std	Y+6, r24	; 0x06
     53e:	9f 83       	std	Y+7, r25	; 0x07
     540:	90 2f       	mov	r25, r16
     542:	80 e0       	ldi	r24, 0x00	; 0
     544:	61 2f       	mov	r22, r17
     546:	70 e0       	ldi	r23, 0x00	; 0
     548:	68 2b       	or	r22, r24
     54a:	79 2b       	or	r23, r25
     54c:	88 27       	eor	r24, r24
     54e:	77 fd       	sbrc	r23, 7
     550:	80 95       	com	r24
     552:	98 2f       	mov	r25, r24
     554:	0e 94 d8 3e 	call	0x7db0	; 0x7db0 <__floatsisf>
     558:	68 87       	std	Y+8, r22	; 0x08
     55a:	79 87       	std	Y+9, r23	; 0x09
     55c:	8a 87       	std	Y+10, r24	; 0x0a
     55e:	9b 87       	std	Y+11, r25	; 0x0b
     560:	df 91       	pop	r29
     562:	cf 91       	pop	r28
     564:	1f 91       	pop	r17
     566:	0f 91       	pop	r16
     568:	ff 90       	pop	r15
     56a:	ef 90       	pop	r14
     56c:	df 90       	pop	r13
     56e:	cf 90       	pop	r12
     570:	08 95       	ret

00000572 <_ZN6LSM303C1Ev>:
     572:	fc 01       	movw	r30, r24
     574:	80 e0       	ldi	r24, 0x00	; 0
     576:	90 e0       	ldi	r25, 0x00	; 0
     578:	a7 e0       	ldi	r26, 0x07	; 7
     57a:	b4 e4       	ldi	r27, 0x44	; 68
     57c:	80 8f       	std	Z+24, r24	; 0x18
     57e:	91 8f       	std	Z+25, r25	; 0x19
     580:	a2 8f       	std	Z+26, r26	; 0x1a
     582:	b3 8f       	std	Z+27, r27	; 0x1b
     584:	80 e0       	ldi	r24, 0x00	; 0
     586:	90 e0       	ldi	r25, 0x00	; 0
     588:	aa ef       	ldi	r26, 0xFA	; 250
     58a:	b3 e4       	ldi	r27, 0x43	; 67
     58c:	84 8f       	std	Z+28, r24	; 0x1c
     58e:	95 8f       	std	Z+29, r25	; 0x1d
     590:	a6 8f       	std	Z+30, r26	; 0x1e
     592:	b7 8f       	std	Z+31, r27	; 0x1f
     594:	80 e0       	ldi	r24, 0x00	; 0
     596:	90 e0       	ldi	r25, 0x00	; 0
     598:	a4 e3       	ldi	r26, 0x34	; 52
     59a:	b3 e4       	ldi	r27, 0x43	; 67
     59c:	80 a3       	std	Z+32, r24	; 0x20
     59e:	91 a3       	std	Z+33, r25	; 0x21
     5a0:	a2 a3       	std	Z+34, r26	; 0x22
     5a2:	b3 a3       	std	Z+35, r27	; 0x23
     5a4:	20 e0       	ldi	r18, 0x00	; 0
     5a6:	30 e0       	ldi	r19, 0x00	; 0
     5a8:	42 e0       	ldi	r20, 0x02	; 2
     5aa:	54 ec       	ldi	r21, 0xC4	; 196
     5ac:	24 a3       	std	Z+36, r18	; 0x24
     5ae:	35 a3       	std	Z+37, r19	; 0x25
     5b0:	46 a3       	std	Z+38, r20	; 0x26
     5b2:	57 a3       	std	Z+39, r21	; 0x27
     5b4:	20 e0       	ldi	r18, 0x00	; 0
     5b6:	30 e8       	ldi	r19, 0x80	; 128
     5b8:	4e e0       	ldi	r20, 0x0E	; 14
     5ba:	54 ec       	ldi	r21, 0xC4	; 196
     5bc:	20 a7       	std	Z+40, r18	; 0x28
     5be:	31 a7       	std	Z+41, r19	; 0x29
     5c0:	42 a7       	std	Z+42, r20	; 0x2a
     5c2:	53 a7       	std	Z+43, r21	; 0x2b
     5c4:	20 e0       	ldi	r18, 0x00	; 0
     5c6:	30 e8       	ldi	r19, 0x80	; 128
     5c8:	40 e4       	ldi	r20, 0x40	; 64
     5ca:	54 ec       	ldi	r21, 0xC4	; 196
     5cc:	24 a7       	std	Z+44, r18	; 0x2c
     5ce:	35 a7       	std	Z+45, r19	; 0x2d
     5d0:	46 a7       	std	Z+46, r20	; 0x2e
     5d2:	57 a7       	std	Z+47, r21	; 0x2f
     5d4:	83 e0       	ldi	r24, 0x03	; 3
     5d6:	80 ab       	std	Z+48, r24	; 0x30
     5d8:	88 e1       	ldi	r24, 0x18	; 24
     5da:	81 ab       	std	Z+49, r24	; 0x31
     5dc:	08 95       	ret

000005de <_ZN6LSM30311writeAccRegEhh>:
     5de:	ef 92       	push	r14
     5e0:	ff 92       	push	r15
     5e2:	1f 93       	push	r17
     5e4:	df 93       	push	r29
     5e6:	cf 93       	push	r28
     5e8:	0f 92       	push	r0
     5ea:	cd b7       	in	r28, 0x3d	; 61
     5ec:	de b7       	in	r29, 0x3e	; 62
     5ee:	fc 01       	movw	r30, r24
     5f0:	16 2f       	mov	r17, r22
     5f2:	8b e8       	ldi	r24, 0x8B	; 139
     5f4:	e8 2e       	mov	r14, r24
     5f6:	80 e1       	ldi	r24, 0x10	; 16
     5f8:	f8 2e       	mov	r15, r24
     5fa:	c7 01       	movw	r24, r14
     5fc:	61 a9       	ldd	r22, Z+49	; 0x31
     5fe:	49 83       	std	Y+1, r20	; 0x01
     600:	0e 94 19 36 	call	0x6c32	; 0x6c32 <_ZN7TwoWire17beginTransmissionEh>
     604:	c7 01       	movw	r24, r14
     606:	61 2f       	mov	r22, r17
     608:	0e 94 36 36 	call	0x6c6c	; 0x6c6c <_ZN7TwoWire4sendEh>
     60c:	c7 01       	movw	r24, r14
     60e:	49 81       	ldd	r20, Y+1	; 0x01
     610:	64 2f       	mov	r22, r20
     612:	0e 94 36 36 	call	0x6c6c	; 0x6c6c <_ZN7TwoWire4sendEh>
     616:	c7 01       	movw	r24, r14
     618:	0e 94 26 36 	call	0x6c4c	; 0x6c4c <_ZN7TwoWire15endTransmissionEv>
     61c:	0f 90       	pop	r0
     61e:	cf 91       	pop	r28
     620:	df 91       	pop	r29
     622:	1f 91       	pop	r17
     624:	ff 90       	pop	r15
     626:	ef 90       	pop	r14
     628:	08 95       	ret

0000062a <_ZN6LSM30311writeMagRegEhh>:
     62a:	ef 92       	push	r14
     62c:	ff 92       	push	r15
     62e:	1f 93       	push	r17
     630:	df 93       	push	r29
     632:	cf 93       	push	r28
     634:	0f 92       	push	r0
     636:	cd b7       	in	r28, 0x3d	; 61
     638:	de b7       	in	r29, 0x3e	; 62
     63a:	16 2f       	mov	r17, r22
     63c:	9b e8       	ldi	r25, 0x8B	; 139
     63e:	e9 2e       	mov	r14, r25
     640:	90 e1       	ldi	r25, 0x10	; 16
     642:	f9 2e       	mov	r15, r25
     644:	c7 01       	movw	r24, r14
     646:	6e e1       	ldi	r22, 0x1E	; 30
     648:	70 e0       	ldi	r23, 0x00	; 0
     64a:	49 83       	std	Y+1, r20	; 0x01
     64c:	0e 94 23 36 	call	0x6c46	; 0x6c46 <_ZN7TwoWire17beginTransmissionEi>
     650:	c7 01       	movw	r24, r14
     652:	61 2f       	mov	r22, r17
     654:	0e 94 36 36 	call	0x6c6c	; 0x6c6c <_ZN7TwoWire4sendEh>
     658:	c7 01       	movw	r24, r14
     65a:	49 81       	ldd	r20, Y+1	; 0x01
     65c:	64 2f       	mov	r22, r20
     65e:	0e 94 36 36 	call	0x6c6c	; 0x6c6c <_ZN7TwoWire4sendEh>
     662:	c7 01       	movw	r24, r14
     664:	0e 94 26 36 	call	0x6c4c	; 0x6c4c <_ZN7TwoWire15endTransmissionEv>
     668:	0f 90       	pop	r0
     66a:	cf 91       	pop	r28
     66c:	df 91       	pop	r29
     66e:	1f 91       	pop	r17
     670:	ff 90       	pop	r15
     672:	ef 90       	pop	r14
     674:	08 95       	ret

00000676 <_ZN6LSM30310readMagRegEi>:
     676:	1f 93       	push	r17
     678:	cf 93       	push	r28
     67a:	df 93       	push	r29
     67c:	fc 01       	movw	r30, r24
     67e:	eb 01       	movw	r28, r22
     680:	77 ff       	sbrs	r23, 7
     682:	30 c0       	rjmp	.+96     	; 0x6e4 <_ZN6LSM30310readMagRegEi+0x6e>
     684:	8f ef       	ldi	r24, 0xFF	; 255
     686:	6d 3f       	cpi	r22, 0xFD	; 253
     688:	78 07       	cpc	r23, r24
     68a:	c9 f0       	breq	.+50     	; 0x6be <_ZN6LSM30310readMagRegEi+0x48>
     68c:	8f ef       	ldi	r24, 0xFF	; 255
     68e:	6e 3f       	cpi	r22, 0xFE	; 254
     690:	78 07       	cpc	r23, r24
     692:	2c f4       	brge	.+10     	; 0x69e <_ZN6LSM30310readMagRegEi+0x28>
     694:	8f ef       	ldi	r24, 0xFF	; 255
     696:	6c 3f       	cpi	r22, 0xFC	; 252
     698:	78 07       	cpc	r23, r24
     69a:	21 f5       	brne	.+72     	; 0x6e4 <_ZN6LSM30310readMagRegEi+0x6e>
     69c:	14 c0       	rjmp	.+40     	; 0x6c6 <_ZN6LSM30310readMagRegEi+0x50>
     69e:	8f ef       	ldi	r24, 0xFF	; 255
     6a0:	6e 3f       	cpi	r22, 0xFE	; 254
     6a2:	78 07       	cpc	r23, r24
     6a4:	41 f0       	breq	.+16     	; 0x6b6 <_ZN6LSM30310readMagRegEi+0x40>
     6a6:	8f ef       	ldi	r24, 0xFF	; 255
     6a8:	6f 3f       	cpi	r22, 0xFF	; 255
     6aa:	78 07       	cpc	r23, r24
     6ac:	d9 f4       	brne	.+54     	; 0x6e4 <_ZN6LSM30310readMagRegEi+0x6e>
     6ae:	80 a9       	ldd	r24, Z+48	; 0x30
     6b0:	88 23       	and	r24, r24
     6b2:	69 f4       	brne	.+26     	; 0x6ce <_ZN6LSM30310readMagRegEi+0x58>
     6b4:	12 c0       	rjmp	.+36     	; 0x6da <_ZN6LSM30310readMagRegEi+0x64>
     6b6:	80 a9       	ldd	r24, Z+48	; 0x30
     6b8:	88 23       	and	r24, r24
     6ba:	61 f4       	brne	.+24     	; 0x6d4 <_ZN6LSM30310readMagRegEi+0x5e>
     6bc:	11 c0       	rjmp	.+34     	; 0x6e0 <_ZN6LSM30310readMagRegEi+0x6a>
     6be:	80 a9       	ldd	r24, Z+48	; 0x30
     6c0:	88 23       	and	r24, r24
     6c2:	59 f4       	brne	.+22     	; 0x6da <_ZN6LSM30310readMagRegEi+0x64>
     6c4:	04 c0       	rjmp	.+8      	; 0x6ce <_ZN6LSM30310readMagRegEi+0x58>
     6c6:	80 a9       	ldd	r24, Z+48	; 0x30
     6c8:	88 23       	and	r24, r24
     6ca:	51 f4       	brne	.+20     	; 0x6e0 <_ZN6LSM30310readMagRegEi+0x6a>
     6cc:	03 c0       	rjmp	.+6      	; 0x6d4 <_ZN6LSM30310readMagRegEi+0x5e>
     6ce:	c7 e0       	ldi	r28, 0x07	; 7
     6d0:	d0 e0       	ldi	r29, 0x00	; 0
     6d2:	08 c0       	rjmp	.+16     	; 0x6e4 <_ZN6LSM30310readMagRegEi+0x6e>
     6d4:	c8 e0       	ldi	r28, 0x08	; 8
     6d6:	d0 e0       	ldi	r29, 0x00	; 0
     6d8:	05 c0       	rjmp	.+10     	; 0x6e4 <_ZN6LSM30310readMagRegEi+0x6e>
     6da:	c5 e0       	ldi	r28, 0x05	; 5
     6dc:	d0 e0       	ldi	r29, 0x00	; 0
     6de:	02 c0       	rjmp	.+4      	; 0x6e4 <_ZN6LSM30310readMagRegEi+0x6e>
     6e0:	c6 e0       	ldi	r28, 0x06	; 6
     6e2:	d0 e0       	ldi	r29, 0x00	; 0
     6e4:	8b e8       	ldi	r24, 0x8B	; 139
     6e6:	90 e1       	ldi	r25, 0x10	; 16
     6e8:	6e e1       	ldi	r22, 0x1E	; 30
     6ea:	70 e0       	ldi	r23, 0x00	; 0
     6ec:	0e 94 23 36 	call	0x6c46	; 0x6c46 <_ZN7TwoWire17beginTransmissionEi>
     6f0:	8b e8       	ldi	r24, 0x8B	; 139
     6f2:	90 e1       	ldi	r25, 0x10	; 16
     6f4:	be 01       	movw	r22, r28
     6f6:	0e 94 5a 36 	call	0x6cb4	; 0x6cb4 <_ZN7TwoWire4sendEi>
     6fa:	8b e8       	ldi	r24, 0x8B	; 139
     6fc:	90 e1       	ldi	r25, 0x10	; 16
     6fe:	0e 94 26 36 	call	0x6c4c	; 0x6c4c <_ZN7TwoWire15endTransmissionEv>
     702:	8b e8       	ldi	r24, 0x8B	; 139
     704:	90 e1       	ldi	r25, 0x10	; 16
     706:	6e e1       	ldi	r22, 0x1E	; 30
     708:	70 e0       	ldi	r23, 0x00	; 0
     70a:	41 e0       	ldi	r20, 0x01	; 1
     70c:	50 e0       	ldi	r21, 0x00	; 0
     70e:	0e 94 16 36 	call	0x6c2c	; 0x6c2c <_ZN7TwoWire11requestFromEii>
     712:	8b e8       	ldi	r24, 0x8B	; 139
     714:	90 e1       	ldi	r25, 0x10	; 16
     716:	0e 94 63 36 	call	0x6cc6	; 0x6cc6 <_ZN7TwoWire7receiveEv>
     71a:	18 2f       	mov	r17, r24
     71c:	8b e8       	ldi	r24, 0x8B	; 139
     71e:	90 e1       	ldi	r25, 0x10	; 16
     720:	0e 94 26 36 	call	0x6c4c	; 0x6c4c <_ZN7TwoWire15endTransmissionEv>
     724:	81 2f       	mov	r24, r17
     726:	df 91       	pop	r29
     728:	cf 91       	pop	r28
     72a:	1f 91       	pop	r17
     72c:	08 95       	ret

0000072e <_ZN6LSM3037readAccEv>:
     72e:	cf 92       	push	r12
     730:	df 92       	push	r13
     732:	ef 92       	push	r14
     734:	ff 92       	push	r15
     736:	0f 93       	push	r16
     738:	1f 93       	push	r17
     73a:	cf 93       	push	r28
     73c:	df 93       	push	r29
     73e:	ec 01       	movw	r28, r24
     740:	8b e8       	ldi	r24, 0x8B	; 139
     742:	90 e1       	ldi	r25, 0x10	; 16
     744:	69 a9       	ldd	r22, Y+49	; 0x31
     746:	0e 94 19 36 	call	0x6c32	; 0x6c32 <_ZN7TwoWire17beginTransmissionEh>
     74a:	8b e8       	ldi	r24, 0x8B	; 139
     74c:	90 e1       	ldi	r25, 0x10	; 16
     74e:	68 ea       	ldi	r22, 0xA8	; 168
     750:	70 e0       	ldi	r23, 0x00	; 0
     752:	0e 94 5a 36 	call	0x6cb4	; 0x6cb4 <_ZN7TwoWire4sendEi>
     756:	8b e8       	ldi	r24, 0x8B	; 139
     758:	90 e1       	ldi	r25, 0x10	; 16
     75a:	0e 94 26 36 	call	0x6c4c	; 0x6c4c <_ZN7TwoWire15endTransmissionEv>
     75e:	8b e8       	ldi	r24, 0x8B	; 139
     760:	90 e1       	ldi	r25, 0x10	; 16
     762:	69 a9       	ldd	r22, Y+49	; 0x31
     764:	46 e0       	ldi	r20, 0x06	; 6
     766:	0e 94 09 36 	call	0x6c12	; 0x6c12 <_ZN7TwoWire11requestFromEhh>
     76a:	8b e8       	ldi	r24, 0x8B	; 139
     76c:	90 e1       	ldi	r25, 0x10	; 16
     76e:	0e 94 5d 36 	call	0x6cba	; 0x6cba <_ZN7TwoWire9availableEv>
     772:	86 30       	cpi	r24, 0x06	; 6
     774:	d0 f3       	brcs	.-12     	; 0x76a <_ZN6LSM3037readAccEv+0x3c>
     776:	8b e8       	ldi	r24, 0x8B	; 139
     778:	90 e1       	ldi	r25, 0x10	; 16
     77a:	0e 94 63 36 	call	0x6cc6	; 0x6cc6 <_ZN7TwoWire7receiveEv>
     77e:	d8 2e       	mov	r13, r24
     780:	8b e8       	ldi	r24, 0x8B	; 139
     782:	90 e1       	ldi	r25, 0x10	; 16
     784:	0e 94 63 36 	call	0x6cc6	; 0x6cc6 <_ZN7TwoWire7receiveEv>
     788:	c8 2e       	mov	r12, r24
     78a:	8b e8       	ldi	r24, 0x8B	; 139
     78c:	90 e1       	ldi	r25, 0x10	; 16
     78e:	0e 94 63 36 	call	0x6cc6	; 0x6cc6 <_ZN7TwoWire7receiveEv>
     792:	f8 2e       	mov	r15, r24
     794:	8b e8       	ldi	r24, 0x8B	; 139
     796:	90 e1       	ldi	r25, 0x10	; 16
     798:	0e 94 63 36 	call	0x6cc6	; 0x6cc6 <_ZN7TwoWire7receiveEv>
     79c:	e8 2e       	mov	r14, r24
     79e:	8b e8       	ldi	r24, 0x8B	; 139
     7a0:	90 e1       	ldi	r25, 0x10	; 16
     7a2:	0e 94 63 36 	call	0x6cc6	; 0x6cc6 <_ZN7TwoWire7receiveEv>
     7a6:	18 2f       	mov	r17, r24
     7a8:	8b e8       	ldi	r24, 0x8B	; 139
     7aa:	90 e1       	ldi	r25, 0x10	; 16
     7ac:	0e 94 63 36 	call	0x6cc6	; 0x6cc6 <_ZN7TwoWire7receiveEv>
     7b0:	08 2f       	mov	r16, r24
     7b2:	3c 2d       	mov	r19, r12
     7b4:	20 e0       	ldi	r18, 0x00	; 0
     7b6:	6d 2d       	mov	r22, r13
     7b8:	70 e0       	ldi	r23, 0x00	; 0
     7ba:	62 2b       	or	r22, r18
     7bc:	73 2b       	or	r23, r19
     7be:	44 e0       	ldi	r20, 0x04	; 4
     7c0:	75 95       	asr	r23
     7c2:	67 95       	ror	r22
     7c4:	4a 95       	dec	r20
     7c6:	e1 f7       	brne	.-8      	; 0x7c0 <_ZN6LSM3037readAccEv+0x92>
     7c8:	88 27       	eor	r24, r24
     7ca:	77 fd       	sbrc	r23, 7
     7cc:	80 95       	com	r24
     7ce:	98 2f       	mov	r25, r24
     7d0:	0e 94 d8 3e 	call	0x7db0	; 0x7db0 <__floatsisf>
     7d4:	68 83       	st	Y, r22
     7d6:	79 83       	std	Y+1, r23	; 0x01
     7d8:	8a 83       	std	Y+2, r24	; 0x02
     7da:	9b 83       	std	Y+3, r25	; 0x03
     7dc:	9e 2d       	mov	r25, r14
     7de:	80 e0       	ldi	r24, 0x00	; 0
     7e0:	6f 2d       	mov	r22, r15
     7e2:	70 e0       	ldi	r23, 0x00	; 0
     7e4:	68 2b       	or	r22, r24
     7e6:	79 2b       	or	r23, r25
     7e8:	34 e0       	ldi	r19, 0x04	; 4
     7ea:	75 95       	asr	r23
     7ec:	67 95       	ror	r22
     7ee:	3a 95       	dec	r19
     7f0:	e1 f7       	brne	.-8      	; 0x7ea <_ZN6LSM3037readAccEv+0xbc>
     7f2:	88 27       	eor	r24, r24
     7f4:	77 fd       	sbrc	r23, 7
     7f6:	80 95       	com	r24
     7f8:	98 2f       	mov	r25, r24
     7fa:	0e 94 d8 3e 	call	0x7db0	; 0x7db0 <__floatsisf>
     7fe:	6c 83       	std	Y+4, r22	; 0x04
     800:	7d 83       	std	Y+5, r23	; 0x05
     802:	8e 83       	std	Y+6, r24	; 0x06
     804:	9f 83       	std	Y+7, r25	; 0x07
     806:	90 2f       	mov	r25, r16
     808:	80 e0       	ldi	r24, 0x00	; 0
     80a:	61 2f       	mov	r22, r17
     80c:	70 e0       	ldi	r23, 0x00	; 0
     80e:	68 2b       	or	r22, r24
     810:	79 2b       	or	r23, r25
     812:	24 e0       	ldi	r18, 0x04	; 4
     814:	75 95       	asr	r23
     816:	67 95       	ror	r22
     818:	2a 95       	dec	r18
     81a:	e1 f7       	brne	.-8      	; 0x814 <_ZN6LSM3037readAccEv+0xe6>
     81c:	88 27       	eor	r24, r24
     81e:	77 fd       	sbrc	r23, 7
     820:	80 95       	com	r24
     822:	98 2f       	mov	r25, r24
     824:	0e 94 d8 3e 	call	0x7db0	; 0x7db0 <__floatsisf>
     828:	68 87       	std	Y+8, r22	; 0x08
     82a:	79 87       	std	Y+9, r23	; 0x09
     82c:	8a 87       	std	Y+10, r24	; 0x0a
     82e:	9b 87       	std	Y+11, r25	; 0x0b
     830:	df 91       	pop	r29
     832:	cf 91       	pop	r28
     834:	1f 91       	pop	r17
     836:	0f 91       	pop	r16
     838:	ff 90       	pop	r15
     83a:	ef 90       	pop	r14
     83c:	df 90       	pop	r13
     83e:	cf 90       	pop	r12
     840:	08 95       	ret

00000842 <_ZN6LSM3037readMagEv>:
     842:	cf 92       	push	r12
     844:	df 92       	push	r13
     846:	ef 92       	push	r14
     848:	ff 92       	push	r15
     84a:	0f 93       	push	r16
     84c:	1f 93       	push	r17
     84e:	cf 93       	push	r28
     850:	df 93       	push	r29
     852:	ec 01       	movw	r28, r24
     854:	8b e8       	ldi	r24, 0x8B	; 139
     856:	90 e1       	ldi	r25, 0x10	; 16
     858:	6e e1       	ldi	r22, 0x1E	; 30
     85a:	70 e0       	ldi	r23, 0x00	; 0
     85c:	0e 94 23 36 	call	0x6c46	; 0x6c46 <_ZN7TwoWire17beginTransmissionEi>
     860:	8b e8       	ldi	r24, 0x8B	; 139
     862:	90 e1       	ldi	r25, 0x10	; 16
     864:	63 e0       	ldi	r22, 0x03	; 3
     866:	70 e0       	ldi	r23, 0x00	; 0
     868:	0e 94 5a 36 	call	0x6cb4	; 0x6cb4 <_ZN7TwoWire4sendEi>
     86c:	8b e8       	ldi	r24, 0x8B	; 139
     86e:	90 e1       	ldi	r25, 0x10	; 16
     870:	0e 94 26 36 	call	0x6c4c	; 0x6c4c <_ZN7TwoWire15endTransmissionEv>
     874:	8b e8       	ldi	r24, 0x8B	; 139
     876:	90 e1       	ldi	r25, 0x10	; 16
     878:	6e e1       	ldi	r22, 0x1E	; 30
     87a:	70 e0       	ldi	r23, 0x00	; 0
     87c:	46 e0       	ldi	r20, 0x06	; 6
     87e:	50 e0       	ldi	r21, 0x00	; 0
     880:	0e 94 16 36 	call	0x6c2c	; 0x6c2c <_ZN7TwoWire11requestFromEii>
     884:	8b e8       	ldi	r24, 0x8B	; 139
     886:	90 e1       	ldi	r25, 0x10	; 16
     888:	0e 94 5d 36 	call	0x6cba	; 0x6cba <_ZN7TwoWire9availableEv>
     88c:	86 30       	cpi	r24, 0x06	; 6
     88e:	d0 f3       	brcs	.-12     	; 0x884 <_ZN6LSM3037readMagEv+0x42>
     890:	8b e8       	ldi	r24, 0x8B	; 139
     892:	90 e1       	ldi	r25, 0x10	; 16
     894:	0e 94 63 36 	call	0x6cc6	; 0x6cc6 <_ZN7TwoWire7receiveEv>
     898:	c8 2e       	mov	r12, r24
     89a:	8b e8       	ldi	r24, 0x8B	; 139
     89c:	90 e1       	ldi	r25, 0x10	; 16
     89e:	0e 94 63 36 	call	0x6cc6	; 0x6cc6 <_ZN7TwoWire7receiveEv>
     8a2:	d8 2e       	mov	r13, r24
     8a4:	88 a9       	ldd	r24, Y+48	; 0x30
     8a6:	88 23       	and	r24, r24
     8a8:	a9 f4       	brne	.+42     	; 0x8d4 <_ZN6LSM3037readMagEv+0x92>
     8aa:	8b e8       	ldi	r24, 0x8B	; 139
     8ac:	90 e1       	ldi	r25, 0x10	; 16
     8ae:	0e 94 63 36 	call	0x6cc6	; 0x6cc6 <_ZN7TwoWire7receiveEv>
     8b2:	e8 2e       	mov	r14, r24
     8b4:	8b e8       	ldi	r24, 0x8B	; 139
     8b6:	90 e1       	ldi	r25, 0x10	; 16
     8b8:	0e 94 63 36 	call	0x6cc6	; 0x6cc6 <_ZN7TwoWire7receiveEv>
     8bc:	f8 2e       	mov	r15, r24
     8be:	8b e8       	ldi	r24, 0x8B	; 139
     8c0:	90 e1       	ldi	r25, 0x10	; 16
     8c2:	0e 94 63 36 	call	0x6cc6	; 0x6cc6 <_ZN7TwoWire7receiveEv>
     8c6:	08 2f       	mov	r16, r24
     8c8:	8b e8       	ldi	r24, 0x8B	; 139
     8ca:	90 e1       	ldi	r25, 0x10	; 16
     8cc:	0e 94 63 36 	call	0x6cc6	; 0x6cc6 <_ZN7TwoWire7receiveEv>
     8d0:	18 2f       	mov	r17, r24
     8d2:	14 c0       	rjmp	.+40     	; 0x8fc <_ZN6LSM3037readMagEv+0xba>
     8d4:	8b e8       	ldi	r24, 0x8B	; 139
     8d6:	90 e1       	ldi	r25, 0x10	; 16
     8d8:	0e 94 63 36 	call	0x6cc6	; 0x6cc6 <_ZN7TwoWire7receiveEv>
     8dc:	08 2f       	mov	r16, r24
     8de:	8b e8       	ldi	r24, 0x8B	; 139
     8e0:	90 e1       	ldi	r25, 0x10	; 16
     8e2:	0e 94 63 36 	call	0x6cc6	; 0x6cc6 <_ZN7TwoWire7receiveEv>
     8e6:	18 2f       	mov	r17, r24
     8e8:	8b e8       	ldi	r24, 0x8B	; 139
     8ea:	90 e1       	ldi	r25, 0x10	; 16
     8ec:	0e 94 63 36 	call	0x6cc6	; 0x6cc6 <_ZN7TwoWire7receiveEv>
     8f0:	e8 2e       	mov	r14, r24
     8f2:	8b e8       	ldi	r24, 0x8B	; 139
     8f4:	90 e1       	ldi	r25, 0x10	; 16
     8f6:	0e 94 63 36 	call	0x6cc6	; 0x6cc6 <_ZN7TwoWire7receiveEv>
     8fa:	f8 2e       	mov	r15, r24
     8fc:	3c 2d       	mov	r19, r12
     8fe:	20 e0       	ldi	r18, 0x00	; 0
     900:	6d 2d       	mov	r22, r13
     902:	70 e0       	ldi	r23, 0x00	; 0
     904:	62 2b       	or	r22, r18
     906:	73 2b       	or	r23, r19
     908:	88 27       	eor	r24, r24
     90a:	77 fd       	sbrc	r23, 7
     90c:	80 95       	com	r24
     90e:	98 2f       	mov	r25, r24
     910:	0e 94 d8 3e 	call	0x7db0	; 0x7db0 <__floatsisf>
     914:	6c 87       	std	Y+12, r22	; 0x0c
     916:	7d 87       	std	Y+13, r23	; 0x0d
     918:	8e 87       	std	Y+14, r24	; 0x0e
     91a:	9f 87       	std	Y+15, r25	; 0x0f
     91c:	9e 2d       	mov	r25, r14
     91e:	80 e0       	ldi	r24, 0x00	; 0
     920:	6f 2d       	mov	r22, r15
     922:	70 e0       	ldi	r23, 0x00	; 0
     924:	68 2b       	or	r22, r24
     926:	79 2b       	or	r23, r25
     928:	88 27       	eor	r24, r24
     92a:	77 fd       	sbrc	r23, 7
     92c:	80 95       	com	r24
     92e:	98 2f       	mov	r25, r24
     930:	0e 94 d8 3e 	call	0x7db0	; 0x7db0 <__floatsisf>
     934:	68 8b       	std	Y+16, r22	; 0x10
     936:	79 8b       	std	Y+17, r23	; 0x11
     938:	8a 8b       	std	Y+18, r24	; 0x12
     93a:	9b 8b       	std	Y+19, r25	; 0x13
     93c:	90 2f       	mov	r25, r16
     93e:	80 e0       	ldi	r24, 0x00	; 0
     940:	61 2f       	mov	r22, r17
     942:	70 e0       	ldi	r23, 0x00	; 0
     944:	68 2b       	or	r22, r24
     946:	79 2b       	or	r23, r25
     948:	88 27       	eor	r24, r24
     94a:	77 fd       	sbrc	r23, 7
     94c:	80 95       	com	r24
     94e:	98 2f       	mov	r25, r24
     950:	0e 94 d8 3e 	call	0x7db0	; 0x7db0 <__floatsisf>
     954:	6c 8b       	std	Y+20, r22	; 0x14
     956:	7d 8b       	std	Y+21, r23	; 0x15
     958:	8e 8b       	std	Y+22, r24	; 0x16
     95a:	9f 8b       	std	Y+23, r25	; 0x17
     95c:	df 91       	pop	r29
     95e:	cf 91       	pop	r28
     960:	1f 91       	pop	r17
     962:	0f 91       	pop	r16
     964:	ff 90       	pop	r15
     966:	ef 90       	pop	r14
     968:	df 90       	pop	r13
     96a:	cf 90       	pop	r12
     96c:	08 95       	ret

0000096e <_ZN6LSM30311detectSA0_AEv>:
     96e:	8b e8       	ldi	r24, 0x8B	; 139
     970:	90 e1       	ldi	r25, 0x10	; 16
     972:	68 e1       	ldi	r22, 0x18	; 24
     974:	70 e0       	ldi	r23, 0x00	; 0
     976:	0e 94 23 36 	call	0x6c46	; 0x6c46 <_ZN7TwoWire17beginTransmissionEi>
     97a:	8b e8       	ldi	r24, 0x8B	; 139
     97c:	90 e1       	ldi	r25, 0x10	; 16
     97e:	60 e2       	ldi	r22, 0x20	; 32
     980:	70 e0       	ldi	r23, 0x00	; 0
     982:	0e 94 5a 36 	call	0x6cb4	; 0x6cb4 <_ZN7TwoWire4sendEi>
     986:	8b e8       	ldi	r24, 0x8B	; 139
     988:	90 e1       	ldi	r25, 0x10	; 16
     98a:	0e 94 26 36 	call	0x6c4c	; 0x6c4c <_ZN7TwoWire15endTransmissionEv>
     98e:	8b e8       	ldi	r24, 0x8B	; 139
     990:	90 e1       	ldi	r25, 0x10	; 16
     992:	68 e1       	ldi	r22, 0x18	; 24
     994:	70 e0       	ldi	r23, 0x00	; 0
     996:	41 e0       	ldi	r20, 0x01	; 1
     998:	50 e0       	ldi	r21, 0x00	; 0
     99a:	0e 94 16 36 	call	0x6c2c	; 0x6c2c <_ZN7TwoWire11requestFromEii>
     99e:	8b e8       	ldi	r24, 0x8B	; 139
     9a0:	90 e1       	ldi	r25, 0x10	; 16
     9a2:	0e 94 5d 36 	call	0x6cba	; 0x6cba <_ZN7TwoWire9availableEv>
     9a6:	88 23       	and	r24, r24
     9a8:	31 f0       	breq	.+12     	; 0x9b6 <_ZN6LSM30311detectSA0_AEv+0x48>
     9aa:	8b e8       	ldi	r24, 0x8B	; 139
     9ac:	90 e1       	ldi	r25, 0x10	; 16
     9ae:	0e 94 63 36 	call	0x6cc6	; 0x6cc6 <_ZN7TwoWire7receiveEv>
     9b2:	80 e0       	ldi	r24, 0x00	; 0
     9b4:	08 95       	ret
     9b6:	81 e0       	ldi	r24, 0x01	; 1
     9b8:	08 95       	ret

000009ba <_ZN6LSM3034initEhh>:
     9ba:	cf 93       	push	r28
     9bc:	df 93       	push	r29
     9be:	ec 01       	movw	r28, r24
     9c0:	68 ab       	std	Y+48, r22	; 0x30
     9c2:	62 30       	cpi	r22, 0x02	; 2
     9c4:	18 f0       	brcs	.+6      	; 0x9cc <_ZN6LSM3034initEhh+0x12>
     9c6:	62 30       	cpi	r22, 0x02	; 2
     9c8:	71 f4       	brne	.+28     	; 0x9e6 <_ZN6LSM3034initEhh+0x2c>
     9ca:	0a c0       	rjmp	.+20     	; 0x9e0 <_ZN6LSM3034initEhh+0x26>
     9cc:	44 23       	and	r20, r20
     9ce:	31 f0       	breq	.+12     	; 0x9dc <_ZN6LSM3034initEhh+0x22>
     9d0:	41 30       	cpi	r20, 0x01	; 1
     9d2:	31 f0       	breq	.+12     	; 0x9e0 <_ZN6LSM3034initEhh+0x26>
     9d4:	0e 94 b7 04 	call	0x96e	; 0x96e <_ZN6LSM30311detectSA0_AEv>
     9d8:	81 30       	cpi	r24, 0x01	; 1
     9da:	11 f0       	breq	.+4      	; 0x9e0 <_ZN6LSM3034initEhh+0x26>
     9dc:	88 e1       	ldi	r24, 0x18	; 24
     9de:	01 c0       	rjmp	.+2      	; 0x9e2 <_ZN6LSM3034initEhh+0x28>
     9e0:	89 e1       	ldi	r24, 0x19	; 25
     9e2:	89 ab       	std	Y+49, r24	; 0x31
     9e4:	15 c0       	rjmp	.+42     	; 0xa10 <_ZN6LSM3034initEhh+0x56>
     9e6:	0e 94 b7 04 	call	0x96e	; 0x96e <_ZN6LSM30311detectSA0_AEv>
     9ea:	81 30       	cpi	r24, 0x01	; 1
     9ec:	29 f4       	brne	.+10     	; 0x9f8 <_ZN6LSM3034initEhh+0x3e>
     9ee:	89 e1       	ldi	r24, 0x19	; 25
     9f0:	89 ab       	std	Y+49, r24	; 0x31
     9f2:	82 e0       	ldi	r24, 0x02	; 2
     9f4:	88 ab       	std	Y+48, r24	; 0x30
     9f6:	0c c0       	rjmp	.+24     	; 0xa10 <_ZN6LSM3034initEhh+0x56>
     9f8:	88 e1       	ldi	r24, 0x18	; 24
     9fa:	89 ab       	std	Y+49, r24	; 0x31
     9fc:	ce 01       	movw	r24, r28
     9fe:	6f e0       	ldi	r22, 0x0F	; 15
     a00:	70 e0       	ldi	r23, 0x00	; 0
     a02:	0e 94 3b 03 	call	0x676	; 0x676 <_ZN6LSM30310readMagRegEi>
     a06:	91 e0       	ldi	r25, 0x01	; 1
     a08:	8c 33       	cpi	r24, 0x3C	; 60
     a0a:	09 f0       	breq	.+2      	; 0xa0e <_ZN6LSM3034initEhh+0x54>
     a0c:	90 e0       	ldi	r25, 0x00	; 0
     a0e:	98 ab       	std	Y+48, r25	; 0x30
     a10:	df 91       	pop	r29
     a12:	cf 91       	pop	r28
     a14:	08 95       	ret

00000a16 <_ZN7Battery3setEP10CD74HC4067hh>:
     a16:	cf 93       	push	r28
     a18:	df 93       	push	r29
     a1a:	ec 01       	movw	r28, r24
     a1c:	84 2f       	mov	r24, r20
     a1e:	61 15       	cp	r22, r1
     a20:	71 05       	cpc	r23, r1
     a22:	11 f4       	brne	.+4      	; 0xa28 <_ZN7Battery3setEP10CD74HC4067hh+0x12>
     a24:	18 82       	st	Y, r1
     a26:	04 c0       	rjmp	.+8      	; 0xa30 <_ZN7Battery3setEP10CD74HC4067hh+0x1a>
     a28:	91 e0       	ldi	r25, 0x01	; 1
     a2a:	98 83       	st	Y, r25
     a2c:	7a 83       	std	Y+2, r23	; 0x02
     a2e:	69 83       	std	Y+1, r22	; 0x01
     a30:	88 23       	and	r24, r24
     a32:	b1 f0       	breq	.+44     	; 0xa60 <_ZN7Battery3setEP10CD74HC4067hh+0x4a>
     a34:	22 23       	and	r18, r18
     a36:	a1 f0       	breq	.+40     	; 0xa60 <_ZN7Battery3setEP10CD74HC4067hh+0x4a>
     a38:	8b 83       	std	Y+3, r24	; 0x03
     a3a:	2c 83       	std	Y+4, r18	; 0x04
     a3c:	98 81       	ld	r25, Y
     a3e:	99 23       	and	r25, r25
     a40:	79 f4       	brne	.+30     	; 0xa60 <_ZN7Battery3setEP10CD74HC4067hh+0x4a>
     a42:	60 e0       	ldi	r22, 0x00	; 0
     a44:	0e 94 4b 35 	call	0x6a96	; 0x6a96 <pinMode>
     a48:	8c 81       	ldd	r24, Y+4	; 0x04
     a4a:	60 e0       	ldi	r22, 0x00	; 0
     a4c:	0e 94 4b 35 	call	0x6a96	; 0x6a96 <pinMode>
     a50:	8b 81       	ldd	r24, Y+3	; 0x03
     a52:	60 e0       	ldi	r22, 0x00	; 0
     a54:	0e 94 6f 35 	call	0x6ade	; 0x6ade <digitalWrite>
     a58:	8c 81       	ldd	r24, Y+4	; 0x04
     a5a:	60 e0       	ldi	r22, 0x00	; 0
     a5c:	0e 94 6f 35 	call	0x6ade	; 0x6ade <digitalWrite>
     a60:	df 91       	pop	r29
     a62:	cf 91       	pop	r28
     a64:	08 95       	ret

00000a66 <_ZN7BatteryC1Ehh>:
     a66:	36 2f       	mov	r19, r22
     a68:	24 2f       	mov	r18, r20
     a6a:	60 e0       	ldi	r22, 0x00	; 0
     a6c:	70 e0       	ldi	r23, 0x00	; 0
     a6e:	43 2f       	mov	r20, r19
     a70:	0e 94 0b 05 	call	0xa16	; 0xa16 <_ZN7Battery3setEP10CD74HC4067hh>
     a74:	08 95       	ret

00000a76 <_ZN7BatteryC1Ev>:
     a76:	df 93       	push	r29
     a78:	cf 93       	push	r28
     a7a:	00 d0       	rcall	.+0      	; 0xa7c <_ZN7BatteryC1Ev+0x6>
     a7c:	0f 92       	push	r0
     a7e:	0f 92       	push	r0
     a80:	cd b7       	in	r28, 0x3d	; 61
     a82:	de b7       	in	r29, 0x3e	; 62
     a84:	ce 01       	movw	r24, r28
     a86:	01 96       	adiw	r24, 0x01	; 1
     a88:	60 e0       	ldi	r22, 0x00	; 0
     a8a:	40 e0       	ldi	r20, 0x00	; 0
     a8c:	0e 94 33 05 	call	0xa66	; 0xa66 <_ZN7BatteryC1Ehh>
     a90:	0f 90       	pop	r0
     a92:	0f 90       	pop	r0
     a94:	0f 90       	pop	r0
     a96:	0f 90       	pop	r0
     a98:	0f 90       	pop	r0
     a9a:	cf 91       	pop	r28
     a9c:	df 91       	pop	r29
     a9e:	08 95       	ret

00000aa0 <_ZN7Battery10getVoltageEv>:
     aa0:	fc 01       	movw	r30, r24
     aa2:	80 81       	ld	r24, Z
     aa4:	88 23       	and	r24, r24
     aa6:	39 f0       	breq	.+14     	; 0xab6 <_ZN7Battery10getVoltageEv+0x16>
     aa8:	81 81       	ldd	r24, Z+1	; 0x01
     aaa:	92 81       	ldd	r25, Z+2	; 0x02
     aac:	63 81       	ldd	r22, Z+3	; 0x03
     aae:	0e 94 ac 08 	call	0x1158	; 0x1158 <_ZN10CD74HC40677readADCEh>
     ab2:	bc 01       	movw	r22, r24
     ab4:	05 c0       	rjmp	.+10     	; 0xac0 <_ZN7Battery10getVoltageEv+0x20>
     ab6:	83 81       	ldd	r24, Z+3	; 0x03
     ab8:	0e 94 18 35 	call	0x6a30	; 0x6a30 <analogRead>
     abc:	68 2f       	mov	r22, r24
     abe:	79 2f       	mov	r23, r25
     ac0:	80 e0       	ldi	r24, 0x00	; 0
     ac2:	90 e0       	ldi	r25, 0x00	; 0
     ac4:	0e 94 d6 3e 	call	0x7dac	; 0x7dac <__floatunsisf>
     ac8:	20 e0       	ldi	r18, 0x00	; 0
     aca:	30 e0       	ldi	r19, 0x00	; 0
     acc:	4d e9       	ldi	r20, 0x9D	; 157
     ace:	5d e3       	ldi	r21, 0x3D	; 61
     ad0:	0e 94 1d 40 	call	0x803a	; 0x803a <__mulsf3>
     ad4:	08 95       	ret

00000ad6 <_ZN7Battery10getCurrentEv>:
     ad6:	fc 01       	movw	r30, r24
     ad8:	80 81       	ld	r24, Z
     ada:	88 23       	and	r24, r24
     adc:	39 f0       	breq	.+14     	; 0xaec <_ZN7Battery10getCurrentEv+0x16>
     ade:	81 81       	ldd	r24, Z+1	; 0x01
     ae0:	92 81       	ldd	r25, Z+2	; 0x02
     ae2:	64 81       	ldd	r22, Z+4	; 0x04
     ae4:	0e 94 ac 08 	call	0x1158	; 0x1158 <_ZN10CD74HC40677readADCEh>
     ae8:	bc 01       	movw	r22, r24
     aea:	05 c0       	rjmp	.+10     	; 0xaf6 <_ZN7Battery10getCurrentEv+0x20>
     aec:	84 81       	ldd	r24, Z+4	; 0x04
     aee:	0e 94 18 35 	call	0x6a30	; 0x6a30 <analogRead>
     af2:	68 2f       	mov	r22, r24
     af4:	79 2f       	mov	r23, r25
     af6:	80 e0       	ldi	r24, 0x00	; 0
     af8:	90 e0       	ldi	r25, 0x00	; 0
     afa:	0e 94 d6 3e 	call	0x7dac	; 0x7dac <__floatunsisf>
     afe:	24 e7       	ldi	r18, 0x74	; 116
     b00:	39 eb       	ldi	r19, 0xB9	; 185
     b02:	48 e0       	ldi	r20, 0x08	; 8
     b04:	5e e3       	ldi	r21, 0x3E	; 62
     b06:	0e 94 1d 40 	call	0x803a	; 0x803a <__mulsf3>
     b0a:	08 95       	ret

00000b0c <_ZN8RoboClawC1EP14HardwareSerialm>:
     b0c:	fc 01       	movw	r30, r24
     b0e:	cb 01       	movw	r24, r22
     b10:	ba 01       	movw	r22, r20
     b12:	a9 01       	movw	r20, r18
     b14:	91 83       	std	Z+1, r25	; 0x01
     b16:	80 83       	st	Z, r24
     b18:	0e 94 f8 30 	call	0x61f0	; 0x61f0 <_ZN14HardwareSerial5beginEl>
     b1c:	08 95       	ret

00000b1e <_ZN8RoboClawD1Ev>:
     b1e:	08 95       	ret

00000b20 <_ZN8RoboClaw7write_nEhz>:
     b20:	cf 92       	push	r12
     b22:	df 92       	push	r13
     b24:	ef 92       	push	r14
     b26:	ff 92       	push	r15
     b28:	0f 93       	push	r16
     b2a:	1f 93       	push	r17
     b2c:	df 93       	push	r29
     b2e:	cf 93       	push	r28
     b30:	0f 92       	push	r0
     b32:	cd b7       	in	r28, 0x3d	; 61
     b34:	de b7       	in	r29, 0x3e	; 62
     b36:	ed 84       	ldd	r14, Y+13	; 0x0d
     b38:	fe 84       	ldd	r15, Y+14	; 0x0e
     b3a:	cf 84       	ldd	r12, Y+15	; 0x0f
     b3c:	fe 01       	movw	r30, r28
     b3e:	70 96       	adiw	r30, 0x10	; 16
     b40:	dd 24       	eor	r13, r13
     b42:	20 e0       	ldi	r18, 0x00	; 0
     b44:	10 c0       	rjmp	.+32     	; 0xb66 <_ZN8RoboClaw7write_nEhz+0x46>
     b46:	8f 01       	movw	r16, r30
     b48:	0e 5f       	subi	r16, 0xFE	; 254
     b4a:	1f 4f       	sbci	r17, 0xFF	; 255
     b4c:	60 81       	ld	r22, Z
     b4e:	26 0f       	add	r18, r22
     b50:	dc 01       	movw	r26, r24
     b52:	ed 91       	ld	r30, X+
     b54:	fc 91       	ld	r31, X
     b56:	01 90       	ld	r0, Z+
     b58:	f0 81       	ld	r31, Z
     b5a:	e0 2d       	mov	r30, r0
     b5c:	29 83       	std	Y+1, r18	; 0x01
     b5e:	19 95       	eicall
     b60:	d3 94       	inc	r13
     b62:	f8 01       	movw	r30, r16
     b64:	29 81       	ldd	r18, Y+1	; 0x01
     b66:	d7 01       	movw	r26, r14
     b68:	8d 91       	ld	r24, X+
     b6a:	9c 91       	ld	r25, X
     b6c:	11 97       	sbiw	r26, 0x01	; 1
     b6e:	dc 14       	cp	r13, r12
     b70:	50 f3       	brcs	.-44     	; 0xb46 <_ZN8RoboClaw7write_nEhz+0x26>
     b72:	dc 01       	movw	r26, r24
     b74:	ed 91       	ld	r30, X+
     b76:	fc 91       	ld	r31, X
     b78:	62 2f       	mov	r22, r18
     b7a:	6f 77       	andi	r22, 0x7F	; 127
     b7c:	01 90       	ld	r0, Z+
     b7e:	f0 81       	ld	r31, Z
     b80:	e0 2d       	mov	r30, r0
     b82:	19 95       	eicall
     b84:	0f 90       	pop	r0
     b86:	cf 91       	pop	r28
     b88:	df 91       	pop	r29
     b8a:	1f 91       	pop	r17
     b8c:	0f 91       	pop	r16
     b8e:	ff 90       	pop	r15
     b90:	ef 90       	pop	r14
     b92:	df 90       	pop	r13
     b94:	cf 90       	pop	r12
     b96:	08 95       	ret

00000b98 <_ZN8RoboClaw24SetMinVoltageMainBatteryEhh>:
     b98:	2d b7       	in	r18, 0x3d	; 61
     b9a:	3e b7       	in	r19, 0x3e	; 62
     b9c:	29 50       	subi	r18, 0x09	; 9
     b9e:	30 40       	sbci	r19, 0x00	; 0
     ba0:	0f b6       	in	r0, 0x3f	; 63
     ba2:	f8 94       	cli
     ba4:	3e bf       	out	0x3e, r19	; 62
     ba6:	0f be       	out	0x3f, r0	; 63
     ba8:	2d bf       	out	0x3d, r18	; 61
     baa:	ed b7       	in	r30, 0x3d	; 61
     bac:	fe b7       	in	r31, 0x3e	; 62
     bae:	31 96       	adiw	r30, 0x01	; 1
     bb0:	ad b7       	in	r26, 0x3d	; 61
     bb2:	be b7       	in	r27, 0x3e	; 62
     bb4:	12 96       	adiw	r26, 0x02	; 2
     bb6:	9c 93       	st	X, r25
     bb8:	8e 93       	st	-X, r24
     bba:	11 97       	sbiw	r26, 0x01	; 1
     bbc:	83 e0       	ldi	r24, 0x03	; 3
     bbe:	82 83       	std	Z+2, r24	; 0x02
     bc0:	63 83       	std	Z+3, r22	; 0x03
     bc2:	14 82       	std	Z+4, r1	; 0x04
     bc4:	82 e0       	ldi	r24, 0x02	; 2
     bc6:	90 e0       	ldi	r25, 0x00	; 0
     bc8:	96 83       	std	Z+6, r25	; 0x06
     bca:	85 83       	std	Z+5, r24	; 0x05
     bcc:	47 83       	std	Z+7, r20	; 0x07
     bce:	10 86       	std	Z+8, r1	; 0x08
     bd0:	0e 94 90 05 	call	0xb20	; 0xb20 <_ZN8RoboClaw7write_nEhz>
     bd4:	2d b7       	in	r18, 0x3d	; 61
     bd6:	3e b7       	in	r19, 0x3e	; 62
     bd8:	27 5f       	subi	r18, 0xF7	; 247
     bda:	3f 4f       	sbci	r19, 0xFF	; 255
     bdc:	0f b6       	in	r0, 0x3f	; 63
     bde:	f8 94       	cli
     be0:	3e bf       	out	0x3e, r19	; 62
     be2:	0f be       	out	0x3f, r0	; 63
     be4:	2d bf       	out	0x3d, r18	; 61
     be6:	08 95       	ret

00000be8 <_ZN8RoboClaw25SetMinVoltageLogicBatteryEhh>:
     be8:	2d b7       	in	r18, 0x3d	; 61
     bea:	3e b7       	in	r19, 0x3e	; 62
     bec:	29 50       	subi	r18, 0x09	; 9
     bee:	30 40       	sbci	r19, 0x00	; 0
     bf0:	0f b6       	in	r0, 0x3f	; 63
     bf2:	f8 94       	cli
     bf4:	3e bf       	out	0x3e, r19	; 62
     bf6:	0f be       	out	0x3f, r0	; 63
     bf8:	2d bf       	out	0x3d, r18	; 61
     bfa:	ed b7       	in	r30, 0x3d	; 61
     bfc:	fe b7       	in	r31, 0x3e	; 62
     bfe:	31 96       	adiw	r30, 0x01	; 1
     c00:	ad b7       	in	r26, 0x3d	; 61
     c02:	be b7       	in	r27, 0x3e	; 62
     c04:	12 96       	adiw	r26, 0x02	; 2
     c06:	9c 93       	st	X, r25
     c08:	8e 93       	st	-X, r24
     c0a:	11 97       	sbiw	r26, 0x01	; 1
     c0c:	83 e0       	ldi	r24, 0x03	; 3
     c0e:	82 83       	std	Z+2, r24	; 0x02
     c10:	63 83       	std	Z+3, r22	; 0x03
     c12:	14 82       	std	Z+4, r1	; 0x04
     c14:	8a e1       	ldi	r24, 0x1A	; 26
     c16:	90 e0       	ldi	r25, 0x00	; 0
     c18:	96 83       	std	Z+6, r25	; 0x06
     c1a:	85 83       	std	Z+5, r24	; 0x05
     c1c:	47 83       	std	Z+7, r20	; 0x07
     c1e:	10 86       	std	Z+8, r1	; 0x08
     c20:	0e 94 90 05 	call	0xb20	; 0xb20 <_ZN8RoboClaw7write_nEhz>
     c24:	2d b7       	in	r18, 0x3d	; 61
     c26:	3e b7       	in	r19, 0x3e	; 62
     c28:	27 5f       	subi	r18, 0xF7	; 247
     c2a:	3f 4f       	sbci	r19, 0xFF	; 255
     c2c:	0f b6       	in	r0, 0x3f	; 63
     c2e:	f8 94       	cli
     c30:	3e bf       	out	0x3e, r19	; 62
     c32:	0f be       	out	0x3f, r0	; 63
     c34:	2d bf       	out	0x3d, r18	; 61
     c36:	08 95       	ret

00000c38 <_ZN8RoboClaw14SetM1ConstantsEhmmmm>:
     c38:	7f 92       	push	r7
     c3a:	8f 92       	push	r8
     c3c:	9f 92       	push	r9
     c3e:	af 92       	push	r10
     c40:	bf 92       	push	r11
     c42:	cf 92       	push	r12
     c44:	df 92       	push	r13
     c46:	ef 92       	push	r14
     c48:	ff 92       	push	r15
     c4a:	0f 93       	push	r16
     c4c:	1f 93       	push	r17
     c4e:	df 93       	push	r29
     c50:	cf 93       	push	r28
     c52:	cd b7       	in	r28, 0x3d	; 61
     c54:	de b7       	in	r29, 0x3e	; 62
     c56:	79 89       	ldd	r23, Y+17	; 0x11
     c58:	8a 88       	ldd	r8, Y+18	; 0x12
     c5a:	7b 88       	ldd	r7, Y+19	; 0x13
     c5c:	9c 88       	ldd	r9, Y+20	; 0x14
     c5e:	ad b7       	in	r26, 0x3d	; 61
     c60:	be b7       	in	r27, 0x3e	; 62
     c62:	97 97       	sbiw	r26, 0x27	; 39
     c64:	0f b6       	in	r0, 0x3f	; 63
     c66:	f8 94       	cli
     c68:	be bf       	out	0x3e, r27	; 62
     c6a:	0f be       	out	0x3f, r0	; 63
     c6c:	ad bf       	out	0x3d, r26	; 61
     c6e:	ed b7       	in	r30, 0x3d	; 61
     c70:	fe b7       	in	r31, 0x3e	; 62
     c72:	31 96       	adiw	r30, 0x01	; 1
     c74:	12 96       	adiw	r26, 0x02	; 2
     c76:	9c 93       	st	X, r25
     c78:	8e 93       	st	-X, r24
     c7a:	11 97       	sbiw	r26, 0x01	; 1
     c7c:	82 e1       	ldi	r24, 0x12	; 18
     c7e:	82 83       	std	Z+2, r24	; 0x02
     c80:	63 83       	std	Z+3, r22	; 0x03
     c82:	14 82       	std	Z+4, r1	; 0x04
     c84:	8c e1       	ldi	r24, 0x1C	; 28
     c86:	90 e0       	ldi	r25, 0x00	; 0
     c88:	96 83       	std	Z+6, r25	; 0x06
     c8a:	85 83       	std	Z+5, r24	; 0x05
     c8c:	57 83       	std	Z+7, r21	; 0x07
     c8e:	10 86       	std	Z+8, r1	; 0x08
     c90:	41 87       	std	Z+9, r20	; 0x09
     c92:	12 86       	std	Z+10, r1	; 0x0a
     c94:	33 87       	std	Z+11, r19	; 0x0b
     c96:	14 86       	std	Z+12, r1	; 0x0c
     c98:	25 87       	std	Z+13, r18	; 0x0d
     c9a:	16 86       	std	Z+14, r1	; 0x0e
     c9c:	17 87       	std	Z+15, r17	; 0x0f
     c9e:	10 8a       	std	Z+16, r1	; 0x10
     ca0:	01 8b       	std	Z+17, r16	; 0x11
     ca2:	12 8a       	std	Z+18, r1	; 0x12
     ca4:	f3 8a       	std	Z+19, r15	; 0x13
     ca6:	14 8a       	std	Z+20, r1	; 0x14
     ca8:	e5 8a       	std	Z+21, r14	; 0x15
     caa:	16 8a       	std	Z+22, r1	; 0x16
     cac:	d7 8a       	std	Z+23, r13	; 0x17
     cae:	10 8e       	std	Z+24, r1	; 0x18
     cb0:	c1 8e       	std	Z+25, r12	; 0x19
     cb2:	12 8e       	std	Z+26, r1	; 0x1a
     cb4:	b3 8e       	std	Z+27, r11	; 0x1b
     cb6:	14 8e       	std	Z+28, r1	; 0x1c
     cb8:	a5 8e       	std	Z+29, r10	; 0x1d
     cba:	16 8e       	std	Z+30, r1	; 0x1e
     cbc:	97 8e       	std	Z+31, r9	; 0x1f
     cbe:	10 a2       	std	Z+32, r1	; 0x20
     cc0:	71 a2       	std	Z+33, r7	; 0x21
     cc2:	12 a2       	std	Z+34, r1	; 0x22
     cc4:	83 a2       	std	Z+35, r8	; 0x23
     cc6:	14 a2       	std	Z+36, r1	; 0x24
     cc8:	75 a3       	std	Z+37, r23	; 0x25
     cca:	16 a2       	std	Z+38, r1	; 0x26
     ccc:	0e 94 90 05 	call	0xb20	; 0xb20 <_ZN8RoboClaw7write_nEhz>
     cd0:	ed b7       	in	r30, 0x3d	; 61
     cd2:	fe b7       	in	r31, 0x3e	; 62
     cd4:	b7 96       	adiw	r30, 0x27	; 39
     cd6:	0f b6       	in	r0, 0x3f	; 63
     cd8:	f8 94       	cli
     cda:	fe bf       	out	0x3e, r31	; 62
     cdc:	0f be       	out	0x3f, r0	; 63
     cde:	ed bf       	out	0x3d, r30	; 61
     ce0:	cf 91       	pop	r28
     ce2:	df 91       	pop	r29
     ce4:	1f 91       	pop	r17
     ce6:	0f 91       	pop	r16
     ce8:	ff 90       	pop	r15
     cea:	ef 90       	pop	r14
     cec:	df 90       	pop	r13
     cee:	cf 90       	pop	r12
     cf0:	bf 90       	pop	r11
     cf2:	af 90       	pop	r10
     cf4:	9f 90       	pop	r9
     cf6:	8f 90       	pop	r8
     cf8:	7f 90       	pop	r7
     cfa:	08 95       	ret

00000cfc <_ZN8RoboClaw14SetM2ConstantsEhmmmm>:
     cfc:	7f 92       	push	r7
     cfe:	8f 92       	push	r8
     d00:	9f 92       	push	r9
     d02:	af 92       	push	r10
     d04:	bf 92       	push	r11
     d06:	cf 92       	push	r12
     d08:	df 92       	push	r13
     d0a:	ef 92       	push	r14
     d0c:	ff 92       	push	r15
     d0e:	0f 93       	push	r16
     d10:	1f 93       	push	r17
     d12:	df 93       	push	r29
     d14:	cf 93       	push	r28
     d16:	cd b7       	in	r28, 0x3d	; 61
     d18:	de b7       	in	r29, 0x3e	; 62
     d1a:	79 89       	ldd	r23, Y+17	; 0x11
     d1c:	8a 88       	ldd	r8, Y+18	; 0x12
     d1e:	7b 88       	ldd	r7, Y+19	; 0x13
     d20:	9c 88       	ldd	r9, Y+20	; 0x14
     d22:	ad b7       	in	r26, 0x3d	; 61
     d24:	be b7       	in	r27, 0x3e	; 62
     d26:	97 97       	sbiw	r26, 0x27	; 39
     d28:	0f b6       	in	r0, 0x3f	; 63
     d2a:	f8 94       	cli
     d2c:	be bf       	out	0x3e, r27	; 62
     d2e:	0f be       	out	0x3f, r0	; 63
     d30:	ad bf       	out	0x3d, r26	; 61
     d32:	ed b7       	in	r30, 0x3d	; 61
     d34:	fe b7       	in	r31, 0x3e	; 62
     d36:	31 96       	adiw	r30, 0x01	; 1
     d38:	12 96       	adiw	r26, 0x02	; 2
     d3a:	9c 93       	st	X, r25
     d3c:	8e 93       	st	-X, r24
     d3e:	11 97       	sbiw	r26, 0x01	; 1
     d40:	82 e1       	ldi	r24, 0x12	; 18
     d42:	82 83       	std	Z+2, r24	; 0x02
     d44:	63 83       	std	Z+3, r22	; 0x03
     d46:	14 82       	std	Z+4, r1	; 0x04
     d48:	8d e1       	ldi	r24, 0x1D	; 29
     d4a:	90 e0       	ldi	r25, 0x00	; 0
     d4c:	96 83       	std	Z+6, r25	; 0x06
     d4e:	85 83       	std	Z+5, r24	; 0x05
     d50:	57 83       	std	Z+7, r21	; 0x07
     d52:	10 86       	std	Z+8, r1	; 0x08
     d54:	41 87       	std	Z+9, r20	; 0x09
     d56:	12 86       	std	Z+10, r1	; 0x0a
     d58:	33 87       	std	Z+11, r19	; 0x0b
     d5a:	14 86       	std	Z+12, r1	; 0x0c
     d5c:	25 87       	std	Z+13, r18	; 0x0d
     d5e:	16 86       	std	Z+14, r1	; 0x0e
     d60:	17 87       	std	Z+15, r17	; 0x0f
     d62:	10 8a       	std	Z+16, r1	; 0x10
     d64:	01 8b       	std	Z+17, r16	; 0x11
     d66:	12 8a       	std	Z+18, r1	; 0x12
     d68:	f3 8a       	std	Z+19, r15	; 0x13
     d6a:	14 8a       	std	Z+20, r1	; 0x14
     d6c:	e5 8a       	std	Z+21, r14	; 0x15
     d6e:	16 8a       	std	Z+22, r1	; 0x16
     d70:	d7 8a       	std	Z+23, r13	; 0x17
     d72:	10 8e       	std	Z+24, r1	; 0x18
     d74:	c1 8e       	std	Z+25, r12	; 0x19
     d76:	12 8e       	std	Z+26, r1	; 0x1a
     d78:	b3 8e       	std	Z+27, r11	; 0x1b
     d7a:	14 8e       	std	Z+28, r1	; 0x1c
     d7c:	a5 8e       	std	Z+29, r10	; 0x1d
     d7e:	16 8e       	std	Z+30, r1	; 0x1e
     d80:	97 8e       	std	Z+31, r9	; 0x1f
     d82:	10 a2       	std	Z+32, r1	; 0x20
     d84:	71 a2       	std	Z+33, r7	; 0x21
     d86:	12 a2       	std	Z+34, r1	; 0x22
     d88:	83 a2       	std	Z+35, r8	; 0x23
     d8a:	14 a2       	std	Z+36, r1	; 0x24
     d8c:	75 a3       	std	Z+37, r23	; 0x25
     d8e:	16 a2       	std	Z+38, r1	; 0x26
     d90:	0e 94 90 05 	call	0xb20	; 0xb20 <_ZN8RoboClaw7write_nEhz>
     d94:	ed b7       	in	r30, 0x3d	; 61
     d96:	fe b7       	in	r31, 0x3e	; 62
     d98:	b7 96       	adiw	r30, 0x27	; 39
     d9a:	0f b6       	in	r0, 0x3f	; 63
     d9c:	f8 94       	cli
     d9e:	fe bf       	out	0x3e, r31	; 62
     da0:	0f be       	out	0x3f, r0	; 63
     da2:	ed bf       	out	0x3d, r30	; 61
     da4:	cf 91       	pop	r28
     da6:	df 91       	pop	r29
     da8:	1f 91       	pop	r17
     daa:	0f 91       	pop	r16
     dac:	ff 90       	pop	r15
     dae:	ef 90       	pop	r14
     db0:	df 90       	pop	r13
     db2:	cf 90       	pop	r12
     db4:	bf 90       	pop	r11
     db6:	af 90       	pop	r10
     db8:	9f 90       	pop	r9
     dba:	8f 90       	pop	r8
     dbc:	7f 90       	pop	r7
     dbe:	08 95       	ret

00000dc0 <_ZN8RoboClaw8DutyM1M2Ehjj>:
     dc0:	ad b7       	in	r26, 0x3d	; 61
     dc2:	be b7       	in	r27, 0x3e	; 62
     dc4:	1f 97       	sbiw	r26, 0x0f	; 15
     dc6:	0f b6       	in	r0, 0x3f	; 63
     dc8:	f8 94       	cli
     dca:	be bf       	out	0x3e, r27	; 62
     dcc:	0f be       	out	0x3f, r0	; 63
     dce:	ad bf       	out	0x3d, r26	; 61
     dd0:	ed b7       	in	r30, 0x3d	; 61
     dd2:	fe b7       	in	r31, 0x3e	; 62
     dd4:	31 96       	adiw	r30, 0x01	; 1
     dd6:	12 96       	adiw	r26, 0x02	; 2
     dd8:	9c 93       	st	X, r25
     dda:	8e 93       	st	-X, r24
     ddc:	11 97       	sbiw	r26, 0x01	; 1
     dde:	86 e0       	ldi	r24, 0x06	; 6
     de0:	82 83       	std	Z+2, r24	; 0x02
     de2:	63 83       	std	Z+3, r22	; 0x03
     de4:	14 82       	std	Z+4, r1	; 0x04
     de6:	82 e2       	ldi	r24, 0x22	; 34
     de8:	90 e0       	ldi	r25, 0x00	; 0
     dea:	96 83       	std	Z+6, r25	; 0x06
     dec:	85 83       	std	Z+5, r24	; 0x05
     dee:	57 83       	std	Z+7, r21	; 0x07
     df0:	10 86       	std	Z+8, r1	; 0x08
     df2:	41 87       	std	Z+9, r20	; 0x09
     df4:	12 86       	std	Z+10, r1	; 0x0a
     df6:	33 87       	std	Z+11, r19	; 0x0b
     df8:	14 86       	std	Z+12, r1	; 0x0c
     dfa:	25 87       	std	Z+13, r18	; 0x0d
     dfc:	16 86       	std	Z+14, r1	; 0x0e
     dfe:	0e 94 90 05 	call	0xb20	; 0xb20 <_ZN8RoboClaw7write_nEhz>
     e02:	ed b7       	in	r30, 0x3d	; 61
     e04:	fe b7       	in	r31, 0x3e	; 62
     e06:	3f 96       	adiw	r30, 0x0f	; 15
     e08:	0f b6       	in	r0, 0x3f	; 63
     e0a:	f8 94       	cli
     e0c:	fe bf       	out	0x3e, r31	; 62
     e0e:	0f be       	out	0x3f, r0	; 63
     e10:	ed bf       	out	0x3d, r30	; 61
     e12:	08 95       	ret

00000e14 <_ZN8RoboClaw7SpeedM1Ehl>:
     e14:	ad b7       	in	r26, 0x3d	; 61
     e16:	be b7       	in	r27, 0x3e	; 62
     e18:	1f 97       	sbiw	r26, 0x0f	; 15
     e1a:	0f b6       	in	r0, 0x3f	; 63
     e1c:	f8 94       	cli
     e1e:	be bf       	out	0x3e, r27	; 62
     e20:	0f be       	out	0x3f, r0	; 63
     e22:	ad bf       	out	0x3d, r26	; 61
     e24:	ed b7       	in	r30, 0x3d	; 61
     e26:	fe b7       	in	r31, 0x3e	; 62
     e28:	31 96       	adiw	r30, 0x01	; 1
     e2a:	12 96       	adiw	r26, 0x02	; 2
     e2c:	9c 93       	st	X, r25
     e2e:	8e 93       	st	-X, r24
     e30:	11 97       	sbiw	r26, 0x01	; 1
     e32:	86 e0       	ldi	r24, 0x06	; 6
     e34:	82 83       	std	Z+2, r24	; 0x02
     e36:	63 83       	std	Z+3, r22	; 0x03
     e38:	14 82       	std	Z+4, r1	; 0x04
     e3a:	83 e2       	ldi	r24, 0x23	; 35
     e3c:	90 e0       	ldi	r25, 0x00	; 0
     e3e:	96 83       	std	Z+6, r25	; 0x06
     e40:	85 83       	std	Z+5, r24	; 0x05
     e42:	57 83       	std	Z+7, r21	; 0x07
     e44:	10 86       	std	Z+8, r1	; 0x08
     e46:	41 87       	std	Z+9, r20	; 0x09
     e48:	12 86       	std	Z+10, r1	; 0x0a
     e4a:	33 87       	std	Z+11, r19	; 0x0b
     e4c:	14 86       	std	Z+12, r1	; 0x0c
     e4e:	25 87       	std	Z+13, r18	; 0x0d
     e50:	16 86       	std	Z+14, r1	; 0x0e
     e52:	0e 94 90 05 	call	0xb20	; 0xb20 <_ZN8RoboClaw7write_nEhz>
     e56:	ed b7       	in	r30, 0x3d	; 61
     e58:	fe b7       	in	r31, 0x3e	; 62
     e5a:	3f 96       	adiw	r30, 0x0f	; 15
     e5c:	0f b6       	in	r0, 0x3f	; 63
     e5e:	f8 94       	cli
     e60:	fe bf       	out	0x3e, r31	; 62
     e62:	0f be       	out	0x3f, r0	; 63
     e64:	ed bf       	out	0x3d, r30	; 61
     e66:	08 95       	ret

00000e68 <_ZN8RoboClaw7SpeedM2Ehl>:
     e68:	ad b7       	in	r26, 0x3d	; 61
     e6a:	be b7       	in	r27, 0x3e	; 62
     e6c:	1f 97       	sbiw	r26, 0x0f	; 15
     e6e:	0f b6       	in	r0, 0x3f	; 63
     e70:	f8 94       	cli
     e72:	be bf       	out	0x3e, r27	; 62
     e74:	0f be       	out	0x3f, r0	; 63
     e76:	ad bf       	out	0x3d, r26	; 61
     e78:	ed b7       	in	r30, 0x3d	; 61
     e7a:	fe b7       	in	r31, 0x3e	; 62
     e7c:	31 96       	adiw	r30, 0x01	; 1
     e7e:	12 96       	adiw	r26, 0x02	; 2
     e80:	9c 93       	st	X, r25
     e82:	8e 93       	st	-X, r24
     e84:	11 97       	sbiw	r26, 0x01	; 1
     e86:	86 e0       	ldi	r24, 0x06	; 6
     e88:	82 83       	std	Z+2, r24	; 0x02
     e8a:	63 83       	std	Z+3, r22	; 0x03
     e8c:	14 82       	std	Z+4, r1	; 0x04
     e8e:	84 e2       	ldi	r24, 0x24	; 36
     e90:	90 e0       	ldi	r25, 0x00	; 0
     e92:	96 83       	std	Z+6, r25	; 0x06
     e94:	85 83       	std	Z+5, r24	; 0x05
     e96:	57 83       	std	Z+7, r21	; 0x07
     e98:	10 86       	std	Z+8, r1	; 0x08
     e9a:	41 87       	std	Z+9, r20	; 0x09
     e9c:	12 86       	std	Z+10, r1	; 0x0a
     e9e:	33 87       	std	Z+11, r19	; 0x0b
     ea0:	14 86       	std	Z+12, r1	; 0x0c
     ea2:	25 87       	std	Z+13, r18	; 0x0d
     ea4:	16 86       	std	Z+14, r1	; 0x0e
     ea6:	0e 94 90 05 	call	0xb20	; 0xb20 <_ZN8RoboClaw7write_nEhz>
     eaa:	ed b7       	in	r30, 0x3d	; 61
     eac:	fe b7       	in	r31, 0x3e	; 62
     eae:	3f 96       	adiw	r30, 0x0f	; 15
     eb0:	0f b6       	in	r0, 0x3f	; 63
     eb2:	f8 94       	cli
     eb4:	fe bf       	out	0x3e, r31	; 62
     eb6:	0f be       	out	0x3f, r0	; 63
     eb8:	ed bf       	out	0x3d, r30	; 61
     eba:	08 95       	ret

00000ebc <_ZN8RoboClaw8ReadByteEm>:
     ebc:	ef 92       	push	r14
     ebe:	ff 92       	push	r15
     ec0:	0f 93       	push	r16
     ec2:	1f 93       	push	r17
     ec4:	cf 93       	push	r28
     ec6:	df 93       	push	r29
     ec8:	ec 01       	movw	r28, r24
     eca:	0e 94 5b 34 	call	0x68b6	; 0x68b6 <millis>
     ece:	7b 01       	movw	r14, r22
     ed0:	8c 01       	movw	r16, r24
     ed2:	15 c0       	rjmp	.+42     	; 0xefe <_ZN8RoboClaw8ReadByteEm+0x42>
     ed4:	88 81       	ld	r24, Y
     ed6:	99 81       	ldd	r25, Y+1	; 0x01
     ed8:	dc 01       	movw	r26, r24
     eda:	ed 91       	ld	r30, X+
     edc:	fc 91       	ld	r31, X
     ede:	06 80       	ldd	r0, Z+6	; 0x06
     ee0:	f7 81       	ldd	r31, Z+7	; 0x07
     ee2:	e0 2d       	mov	r30, r0
     ee4:	19 95       	eicall
     ee6:	00 97       	sbiw	r24, 0x00	; 0
     ee8:	51 f0       	breq	.+20     	; 0xefe <_ZN8RoboClaw8ReadByteEm+0x42>
     eea:	88 81       	ld	r24, Y
     eec:	99 81       	ldd	r25, Y+1	; 0x01
     eee:	dc 01       	movw	r26, r24
     ef0:	ed 91       	ld	r30, X+
     ef2:	fc 91       	ld	r31, X
     ef4:	00 84       	ldd	r0, Z+8	; 0x08
     ef6:	f1 85       	ldd	r31, Z+9	; 0x09
     ef8:	e0 2d       	mov	r30, r0
     efa:	19 95       	eicall
     efc:	0c c0       	rjmp	.+24     	; 0xf16 <_ZN8RoboClaw8ReadByteEm+0x5a>
     efe:	0e 94 5b 34 	call	0x68b6	; 0x68b6 <millis>
     f02:	6e 19       	sub	r22, r14
     f04:	7f 09       	sbc	r23, r15
     f06:	80 0b       	sbc	r24, r16
     f08:	91 0b       	sbc	r25, r17
     f0a:	6b 30       	cpi	r22, 0x0B	; 11
     f0c:	71 05       	cpc	r23, r1
     f0e:	81 05       	cpc	r24, r1
     f10:	91 05       	cpc	r25, r1
     f12:	00 f3       	brcs	.-64     	; 0xed4 <_ZN8RoboClaw8ReadByteEm+0x18>
     f14:	80 e0       	ldi	r24, 0x00	; 0
     f16:	df 91       	pop	r29
     f18:	cf 91       	pop	r28
     f1a:	1f 91       	pop	r17
     f1c:	0f 91       	pop	r16
     f1e:	ff 90       	pop	r15
     f20:	ef 90       	pop	r14
     f22:	08 95       	ret

00000f24 <_ZN8RoboClaw7Read4_1EhhPhPb>:
     f24:	3f 92       	push	r3
     f26:	4f 92       	push	r4
     f28:	5f 92       	push	r5
     f2a:	6f 92       	push	r6
     f2c:	7f 92       	push	r7
     f2e:	8f 92       	push	r8
     f30:	9f 92       	push	r9
     f32:	af 92       	push	r10
     f34:	bf 92       	push	r11
     f36:	cf 92       	push	r12
     f38:	df 92       	push	r13
     f3a:	ef 92       	push	r14
     f3c:	ff 92       	push	r15
     f3e:	0f 93       	push	r16
     f40:	1f 93       	push	r17
     f42:	cf 93       	push	r28
     f44:	df 93       	push	r29
     f46:	ec 01       	movw	r28, r24
     f48:	36 2e       	mov	r3, r22
     f4a:	64 2e       	mov	r6, r20
     f4c:	29 01       	movw	r4, r18
     f4e:	68 01       	movw	r12, r16
     f50:	88 81       	ld	r24, Y
     f52:	99 81       	ldd	r25, Y+1	; 0x01
     f54:	dc 01       	movw	r26, r24
     f56:	ed 91       	ld	r30, X+
     f58:	fc 91       	ld	r31, X
     f5a:	01 90       	ld	r0, Z+
     f5c:	f0 81       	ld	r31, Z
     f5e:	e0 2d       	mov	r30, r0
     f60:	19 95       	eicall
     f62:	88 81       	ld	r24, Y
     f64:	99 81       	ldd	r25, Y+1	; 0x01
     f66:	dc 01       	movw	r26, r24
     f68:	ed 91       	ld	r30, X+
     f6a:	fc 91       	ld	r31, X
     f6c:	01 90       	ld	r0, Z+
     f6e:	f0 81       	ld	r31, Z
     f70:	e0 2d       	mov	r30, r0
     f72:	66 2d       	mov	r22, r6
     f74:	19 95       	eicall
     f76:	ce 01       	movw	r24, r28
     f78:	44 ef       	ldi	r20, 0xF4	; 244
     f7a:	51 e0       	ldi	r21, 0x01	; 1
     f7c:	60 e0       	ldi	r22, 0x00	; 0
     f7e:	70 e0       	ldi	r23, 0x00	; 0
     f80:	0e 94 5e 07 	call	0xebc	; 0xebc <_ZN8RoboClaw8ReadByteEm>
     f84:	b8 2e       	mov	r11, r24
     f86:	e8 2e       	mov	r14, r24
     f88:	ff 24       	eor	r15, r15
     f8a:	00 e0       	ldi	r16, 0x00	; 0
     f8c:	10 e0       	ldi	r17, 0x00	; 0
     f8e:	1e 2d       	mov	r17, r14
     f90:	00 27       	eor	r16, r16
     f92:	ff 24       	eor	r15, r15
     f94:	ee 24       	eor	r14, r14
     f96:	ce 01       	movw	r24, r28
     f98:	44 ef       	ldi	r20, 0xF4	; 244
     f9a:	51 e0       	ldi	r21, 0x01	; 1
     f9c:	60 e0       	ldi	r22, 0x00	; 0
     f9e:	70 e0       	ldi	r23, 0x00	; 0
     fa0:	0e 94 5e 07 	call	0xebc	; 0xebc <_ZN8RoboClaw8ReadByteEm>
     fa4:	98 2e       	mov	r9, r24
     fa6:	ce 01       	movw	r24, r28
     fa8:	44 ef       	ldi	r20, 0xF4	; 244
     faa:	51 e0       	ldi	r21, 0x01	; 1
     fac:	60 e0       	ldi	r22, 0x00	; 0
     fae:	70 e0       	ldi	r23, 0x00	; 0
     fb0:	0e 94 5e 07 	call	0xebc	; 0xebc <_ZN8RoboClaw8ReadByteEm>
     fb4:	88 2e       	mov	r8, r24
     fb6:	ce 01       	movw	r24, r28
     fb8:	44 ef       	ldi	r20, 0xF4	; 244
     fba:	51 e0       	ldi	r21, 0x01	; 1
     fbc:	60 e0       	ldi	r22, 0x00	; 0
     fbe:	70 e0       	ldi	r23, 0x00	; 0
     fc0:	0e 94 5e 07 	call	0xebc	; 0xebc <_ZN8RoboClaw8ReadByteEm>
     fc4:	78 2e       	mov	r7, r24
     fc6:	89 2d       	mov	r24, r9
     fc8:	90 e0       	ldi	r25, 0x00	; 0
     fca:	a0 e0       	ldi	r26, 0x00	; 0
     fcc:	b0 e0       	ldi	r27, 0x00	; 0
     fce:	dc 01       	movw	r26, r24
     fd0:	99 27       	eor	r25, r25
     fd2:	88 27       	eor	r24, r24
     fd4:	e8 2a       	or	r14, r24
     fd6:	f9 2a       	or	r15, r25
     fd8:	0a 2b       	or	r16, r26
     fda:	1b 2b       	or	r17, r27
     fdc:	87 2d       	mov	r24, r7
     fde:	90 e0       	ldi	r25, 0x00	; 0
     fe0:	a0 e0       	ldi	r26, 0x00	; 0
     fe2:	b0 e0       	ldi	r27, 0x00	; 0
     fe4:	e8 2a       	or	r14, r24
     fe6:	f9 2a       	or	r15, r25
     fe8:	0a 2b       	or	r16, r26
     fea:	1b 2b       	or	r17, r27
     fec:	88 2d       	mov	r24, r8
     fee:	90 e0       	ldi	r25, 0x00	; 0
     ff0:	a0 e0       	ldi	r26, 0x00	; 0
     ff2:	b0 e0       	ldi	r27, 0x00	; 0
     ff4:	ba 2f       	mov	r27, r26
     ff6:	a9 2f       	mov	r26, r25
     ff8:	98 2f       	mov	r25, r24
     ffa:	88 27       	eor	r24, r24
     ffc:	e8 2a       	or	r14, r24
     ffe:	f9 2a       	or	r15, r25
    1000:	0a 2b       	or	r16, r26
    1002:	1b 2b       	or	r17, r27
    1004:	ce 01       	movw	r24, r28
    1006:	44 ef       	ldi	r20, 0xF4	; 244
    1008:	51 e0       	ldi	r21, 0x01	; 1
    100a:	60 e0       	ldi	r22, 0x00	; 0
    100c:	70 e0       	ldi	r23, 0x00	; 0
    100e:	0e 94 5e 07 	call	0xebc	; 0xebc <_ZN8RoboClaw8ReadByteEm>
    1012:	a8 2e       	mov	r10, r24
    1014:	41 14       	cp	r4, r1
    1016:	51 04       	cpc	r5, r1
    1018:	11 f0       	breq	.+4      	; 0x101e <_ZN8RoboClaw7Read4_1EhhPhPb+0xfa>
    101a:	f2 01       	movw	r30, r4
    101c:	80 83       	st	Z, r24
    101e:	ce 01       	movw	r24, r28
    1020:	44 ef       	ldi	r20, 0xF4	; 244
    1022:	51 e0       	ldi	r21, 0x01	; 1
    1024:	60 e0       	ldi	r22, 0x00	; 0
    1026:	70 e0       	ldi	r23, 0x00	; 0
    1028:	0e 94 5e 07 	call	0xebc	; 0xebc <_ZN8RoboClaw8ReadByteEm>
    102c:	c1 14       	cp	r12, r1
    102e:	d1 04       	cpc	r13, r1
    1030:	91 f0       	breq	.+36     	; 0x1056 <_ZN8RoboClaw7Read4_1EhhPhPb+0x132>
    1032:	63 0c       	add	r6, r3
    1034:	6b 0c       	add	r6, r11
    1036:	69 0c       	add	r6, r9
    1038:	68 0c       	add	r6, r8
    103a:	67 0c       	add	r6, r7
    103c:	6a 0c       	add	r6, r10
    103e:	77 24       	eor	r7, r7
    1040:	ff e7       	ldi	r31, 0x7F	; 127
    1042:	6f 22       	and	r6, r31
    1044:	77 24       	eor	r7, r7
    1046:	90 e0       	ldi	r25, 0x00	; 0
    1048:	21 e0       	ldi	r18, 0x01	; 1
    104a:	68 16       	cp	r6, r24
    104c:	79 06       	cpc	r7, r25
    104e:	09 f0       	breq	.+2      	; 0x1052 <_ZN8RoboClaw7Read4_1EhhPhPb+0x12e>
    1050:	20 e0       	ldi	r18, 0x00	; 0
    1052:	d6 01       	movw	r26, r12
    1054:	2c 93       	st	X, r18
    1056:	b7 01       	movw	r22, r14
    1058:	c8 01       	movw	r24, r16
    105a:	df 91       	pop	r29
    105c:	cf 91       	pop	r28
    105e:	1f 91       	pop	r17
    1060:	0f 91       	pop	r16
    1062:	ff 90       	pop	r15
    1064:	ef 90       	pop	r14
    1066:	df 90       	pop	r13
    1068:	cf 90       	pop	r12
    106a:	bf 90       	pop	r11
    106c:	af 90       	pop	r10
    106e:	9f 90       	pop	r9
    1070:	8f 90       	pop	r8
    1072:	7f 90       	pop	r7
    1074:	6f 90       	pop	r6
    1076:	5f 90       	pop	r5
    1078:	4f 90       	pop	r4
    107a:	3f 90       	pop	r3
    107c:	08 95       	ret

0000107e <_ZN8RoboClaw12ReadISpeedM2EhPhPb>:
    107e:	0f 93       	push	r16
    1080:	1f 93       	push	r17
    1082:	fa 01       	movw	r30, r20
    1084:	89 01       	movw	r16, r18
    1086:	4f e1       	ldi	r20, 0x1F	; 31
    1088:	9f 01       	movw	r18, r30
    108a:	0e 94 92 07 	call	0xf24	; 0xf24 <_ZN8RoboClaw7Read4_1EhhPhPb>
    108e:	1f 91       	pop	r17
    1090:	0f 91       	pop	r16
    1092:	08 95       	ret

00001094 <_ZN8RoboClaw12ReadISpeedM1EhPhPb>:
    1094:	0f 93       	push	r16
    1096:	1f 93       	push	r17
    1098:	fa 01       	movw	r30, r20
    109a:	89 01       	movw	r16, r18
    109c:	4e e1       	ldi	r20, 0x1E	; 30
    109e:	9f 01       	movw	r18, r30
    10a0:	0e 94 92 07 	call	0xf24	; 0xf24 <_ZN8RoboClaw7Read4_1EhhPhPb>
    10a4:	1f 91       	pop	r17
    10a6:	0f 91       	pop	r16
    10a8:	08 95       	ret

000010aa <_ZN8RoboClaw9ReadEncM2EhPhPb>:
    10aa:	0f 93       	push	r16
    10ac:	1f 93       	push	r17
    10ae:	fa 01       	movw	r30, r20
    10b0:	89 01       	movw	r16, r18
    10b2:	41 e1       	ldi	r20, 0x11	; 17
    10b4:	9f 01       	movw	r18, r30
    10b6:	0e 94 92 07 	call	0xf24	; 0xf24 <_ZN8RoboClaw7Read4_1EhhPhPb>
    10ba:	1f 91       	pop	r17
    10bc:	0f 91       	pop	r16
    10be:	08 95       	ret

000010c0 <_ZN8RoboClaw9ReadEncM1EhPhPb>:
    10c0:	0f 93       	push	r16
    10c2:	1f 93       	push	r17
    10c4:	fa 01       	movw	r30, r20
    10c6:	89 01       	movw	r16, r18
    10c8:	40 e1       	ldi	r20, 0x10	; 16
    10ca:	9f 01       	movw	r18, r30
    10cc:	0e 94 92 07 	call	0xf24	; 0xf24 <_ZN8RoboClaw7Read4_1EhhPhPb>
    10d0:	1f 91       	pop	r17
    10d2:	0f 91       	pop	r16
    10d4:	08 95       	ret

000010d6 <_ZN10CD74HC40676setMuxEh>:
    10d6:	af 92       	push	r10
    10d8:	bf 92       	push	r11
    10da:	cf 92       	push	r12
    10dc:	df 92       	push	r13
    10de:	ef 92       	push	r14
    10e0:	ff 92       	push	r15
    10e2:	0f 93       	push	r16
    10e4:	1f 93       	push	r17
    10e6:	df 93       	push	r29
    10e8:	cf 93       	push	r28
    10ea:	0f 92       	push	r0
    10ec:	cd b7       	in	r28, 0x3d	; 61
    10ee:	de b7       	in	r29, 0x3e	; 62
    10f0:	8c 01       	movw	r16, r24
    10f2:	96 2f       	mov	r25, r22
    10f4:	60 31       	cpi	r22, 0x10	; 16
    10f6:	08 f0       	brcs	.+2      	; 0x10fa <_ZN10CD74HC40676setMuxEh+0x24>
    10f8:	9f e0       	ldi	r25, 0x0F	; 15
    10fa:	f8 01       	movw	r30, r16
    10fc:	85 81       	ldd	r24, Z+5	; 0x05
    10fe:	98 17       	cp	r25, r24
    1100:	e9 f0       	breq	.+58     	; 0x113c <_ZN10CD74HC40676setMuxEh+0x66>
    1102:	78 01       	movw	r14, r16
    1104:	aa 24       	eor	r10, r10
    1106:	bb 24       	eor	r11, r11
    1108:	c9 2e       	mov	r12, r25
    110a:	dd 24       	eor	r13, r13
    110c:	96 01       	movw	r18, r12
    110e:	0a 2c       	mov	r0, r10
    1110:	02 c0       	rjmp	.+4      	; 0x1116 <_ZN10CD74HC40676setMuxEh+0x40>
    1112:	35 95       	asr	r19
    1114:	27 95       	ror	r18
    1116:	0a 94       	dec	r0
    1118:	e2 f7       	brpl	.-8      	; 0x1112 <_ZN10CD74HC40676setMuxEh+0x3c>
    111a:	21 70       	andi	r18, 0x01	; 1
    111c:	30 70       	andi	r19, 0x00	; 0
    111e:	f7 01       	movw	r30, r14
    1120:	81 91       	ld	r24, Z+
    1122:	7f 01       	movw	r14, r30
    1124:	62 2f       	mov	r22, r18
    1126:	99 83       	std	Y+1, r25	; 0x01
    1128:	0e 94 6f 35 	call	0x6ade	; 0x6ade <digitalWrite>
    112c:	08 94       	sec
    112e:	a1 1c       	adc	r10, r1
    1130:	b1 1c       	adc	r11, r1
    1132:	99 81       	ldd	r25, Y+1	; 0x01
    1134:	f4 e0       	ldi	r31, 0x04	; 4
    1136:	af 16       	cp	r10, r31
    1138:	b1 04       	cpc	r11, r1
    113a:	41 f7       	brne	.-48     	; 0x110c <_ZN10CD74HC40676setMuxEh+0x36>
    113c:	f8 01       	movw	r30, r16
    113e:	95 83       	std	Z+5, r25	; 0x05
    1140:	0f 90       	pop	r0
    1142:	cf 91       	pop	r28
    1144:	df 91       	pop	r29
    1146:	1f 91       	pop	r17
    1148:	0f 91       	pop	r16
    114a:	ff 90       	pop	r15
    114c:	ef 90       	pop	r14
    114e:	df 90       	pop	r13
    1150:	cf 90       	pop	r12
    1152:	bf 90       	pop	r11
    1154:	af 90       	pop	r10
    1156:	08 95       	ret

00001158 <_ZN10CD74HC40677readADCEh>:
    1158:	cf 93       	push	r28
    115a:	df 93       	push	r29
    115c:	ec 01       	movw	r28, r24
    115e:	0e 94 6b 08 	call	0x10d6	; 0x10d6 <_ZN10CD74HC40676setMuxEh>
    1162:	8c 81       	ldd	r24, Y+4	; 0x04
    1164:	0e 94 18 35 	call	0x6a30	; 0x6a30 <analogRead>
    1168:	df 91       	pop	r29
    116a:	cf 91       	pop	r28
    116c:	08 95       	ret

0000116e <_ZN17StrongDriveOutputC1Ehb>:
    116e:	fc 01       	movw	r30, r24
    1170:	86 2f       	mov	r24, r22
    1172:	43 83       	std	Z+3, r20	; 0x03
    1174:	96 2f       	mov	r25, r22
    1176:	96 51       	subi	r25, 0x16	; 22
    1178:	98 30       	cpi	r25, 0x08	; 8
    117a:	58 f1       	brcs	.+86     	; 0x11d2 <_ZN17StrongDriveOutputC1Ehb+0x64>
    117c:	26 2f       	mov	r18, r22
    117e:	2a 50       	subi	r18, 0x0A	; 10
    1180:	24 30       	cpi	r18, 0x04	; 4
    1182:	50 f1       	brcs	.+84     	; 0x11d8 <_ZN17StrongDriveOutputC1Ehb+0x6a>
    1184:	28 52       	subi	r18, 0x28	; 40
    1186:	24 30       	cpi	r18, 0x04	; 4
    1188:	38 f1       	brcs	.+78     	; 0x11d8 <_ZN17StrongDriveOutputC1Ehb+0x6a>
    118a:	2c 5e       	subi	r18, 0xEC	; 236
    118c:	28 30       	cpi	r18, 0x08	; 8
    118e:	38 f1       	brcs	.+78     	; 0x11de <_ZN17StrongDriveOutputC1Ehb+0x70>
    1190:	24 5f       	subi	r18, 0xF4	; 244
    1192:	24 30       	cpi	r18, 0x04	; 4
    1194:	38 f1       	brcs	.+78     	; 0x11e4 <_ZN17StrongDriveOutputC1Ehb+0x76>
    1196:	66 32       	cpi	r22, 0x26	; 38
    1198:	29 f1       	breq	.+74     	; 0x11e4 <_ZN17StrongDriveOutputC1Ehb+0x76>
    119a:	64 30       	cpi	r22, 0x04	; 4
    119c:	30 f1       	brcs	.+76     	; 0x11ea <_ZN17StrongDriveOutputC1Ehb+0x7c>
    119e:	65 30       	cpi	r22, 0x05	; 5
    11a0:	21 f1       	breq	.+72     	; 0x11ea <_ZN17StrongDriveOutputC1Ehb+0x7c>
    11a2:	24 52       	subi	r18, 0x24	; 36
    11a4:	28 30       	cpi	r18, 0x08	; 8
    11a6:	20 f1       	brcs	.+72     	; 0x11f0 <_ZN17StrongDriveOutputC1Ehb+0x82>
    11a8:	21 5f       	subi	r18, 0xF1	; 241
    11aa:	23 30       	cpi	r18, 0x03	; 3
    11ac:	20 f1       	brcs	.+72     	; 0x11f6 <_ZN17StrongDriveOutputC1Ehb+0x88>
    11ae:	64 30       	cpi	r22, 0x04	; 4
    11b0:	11 f1       	breq	.+68     	; 0x11f6 <_ZN17StrongDriveOutputC1Ehb+0x88>
    11b2:	2f 5d       	subi	r18, 0xDF	; 223
    11b4:	24 30       	cpi	r18, 0x04	; 4
    11b6:	10 f1       	brcs	.+68     	; 0x11fc <_ZN17StrongDriveOutputC1Ehb+0x8e>
    11b8:	60 31       	cpi	r22, 0x10	; 16
    11ba:	01 f1       	breq	.+64     	; 0x11fc <_ZN17StrongDriveOutputC1Ehb+0x8e>
    11bc:	61 31       	cpi	r22, 0x11	; 17
    11be:	f1 f0       	breq	.+60     	; 0x11fc <_ZN17StrongDriveOutputC1Ehb+0x8e>
    11c0:	28 50       	subi	r18, 0x08	; 8
    11c2:	22 30       	cpi	r18, 0x02	; 2
    11c4:	f0 f0       	brcs	.+60     	; 0x1202 <_ZN17StrongDriveOutputC1Ehb+0x94>
    11c6:	20 53       	subi	r18, 0x30	; 48
    11c8:	28 30       	cpi	r18, 0x08	; 8
    11ca:	f0 f4       	brcc	.+60     	; 0x1208 <_ZN17StrongDriveOutputC1Ehb+0x9a>
    11cc:	28 e0       	ldi	r18, 0x08	; 8
    11ce:	31 e0       	ldi	r19, 0x01	; 1
    11d0:	1d c0       	rjmp	.+58     	; 0x120c <_ZN17StrongDriveOutputC1Ehb+0x9e>
    11d2:	22 e2       	ldi	r18, 0x22	; 34
    11d4:	30 e0       	ldi	r19, 0x00	; 0
    11d6:	1a c0       	rjmp	.+52     	; 0x120c <_ZN17StrongDriveOutputC1Ehb+0x9e>
    11d8:	25 e2       	ldi	r18, 0x25	; 37
    11da:	30 e0       	ldi	r19, 0x00	; 0
    11dc:	17 c0       	rjmp	.+46     	; 0x120c <_ZN17StrongDriveOutputC1Ehb+0x9e>
    11de:	28 e2       	ldi	r18, 0x28	; 40
    11e0:	30 e0       	ldi	r19, 0x00	; 0
    11e2:	14 c0       	rjmp	.+40     	; 0x120c <_ZN17StrongDriveOutputC1Ehb+0x9e>
    11e4:	2b e2       	ldi	r18, 0x2B	; 43
    11e6:	30 e0       	ldi	r19, 0x00	; 0
    11e8:	11 c0       	rjmp	.+34     	; 0x120c <_ZN17StrongDriveOutputC1Ehb+0x9e>
    11ea:	2e e2       	ldi	r18, 0x2E	; 46
    11ec:	30 e0       	ldi	r19, 0x00	; 0
    11ee:	0e c0       	rjmp	.+28     	; 0x120c <_ZN17StrongDriveOutputC1Ehb+0x9e>
    11f0:	21 e3       	ldi	r18, 0x31	; 49
    11f2:	30 e0       	ldi	r19, 0x00	; 0
    11f4:	0b c0       	rjmp	.+22     	; 0x120c <_ZN17StrongDriveOutputC1Ehb+0x9e>
    11f6:	24 e3       	ldi	r18, 0x34	; 52
    11f8:	30 e0       	ldi	r19, 0x00	; 0
    11fa:	08 c0       	rjmp	.+16     	; 0x120c <_ZN17StrongDriveOutputC1Ehb+0x9e>
    11fc:	22 e0       	ldi	r18, 0x02	; 2
    11fe:	31 e0       	ldi	r19, 0x01	; 1
    1200:	05 c0       	rjmp	.+10     	; 0x120c <_ZN17StrongDriveOutputC1Ehb+0x9e>
    1202:	25 e0       	ldi	r18, 0x05	; 5
    1204:	31 e0       	ldi	r19, 0x01	; 1
    1206:	02 c0       	rjmp	.+4      	; 0x120c <_ZN17StrongDriveOutputC1Ehb+0x9e>
    1208:	2b e0       	ldi	r18, 0x0B	; 11
    120a:	31 e0       	ldi	r19, 0x01	; 1
    120c:	31 83       	std	Z+1, r19	; 0x01
    120e:	20 83       	st	Z, r18
    1210:	28 2f       	mov	r18, r24
    1212:	27 50       	subi	r18, 0x07	; 7
    1214:	23 30       	cpi	r18, 0x03	; 3
    1216:	18 f4       	brcc	.+6      	; 0x121e <_ZN17StrongDriveOutputC1Ehb+0xb0>
    1218:	98 2f       	mov	r25, r24
    121a:	93 50       	subi	r25, 0x03	; 3
    121c:	53 c0       	rjmp	.+166    	; 0x12c4 <_ZN17StrongDriveOutputC1Ehb+0x156>
    121e:	28 2f       	mov	r18, r24
    1220:	2a 50       	subi	r18, 0x0A	; 10
    1222:	24 30       	cpi	r18, 0x04	; 4
    1224:	18 f4       	brcc	.+6      	; 0x122c <_ZN17StrongDriveOutputC1Ehb+0xbe>
    1226:	98 2f       	mov	r25, r24
    1228:	96 50       	subi	r25, 0x06	; 6
    122a:	4c c0       	rjmp	.+152    	; 0x12c4 <_ZN17StrongDriveOutputC1Ehb+0x156>
    122c:	98 30       	cpi	r25, 0x08	; 8
    122e:	08 f4       	brcc	.+2      	; 0x1232 <_ZN17StrongDriveOutputC1Ehb+0xc4>
    1230:	49 c0       	rjmp	.+146    	; 0x12c4 <_ZN17StrongDriveOutputC1Ehb+0x156>
    1232:	98 2f       	mov	r25, r24
    1234:	9e 51       	subi	r25, 0x1E	; 30
    1236:	98 30       	cpi	r25, 0x08	; 8
    1238:	10 f4       	brcc	.+4      	; 0x123e <_ZN17StrongDriveOutputC1Ehb+0xd0>
    123a:	95 e2       	ldi	r25, 0x25	; 37
    123c:	05 c0       	rjmp	.+10     	; 0x1248 <_ZN17StrongDriveOutputC1Ehb+0xda>
    123e:	98 2f       	mov	r25, r24
    1240:	97 52       	subi	r25, 0x27	; 39
    1242:	93 30       	cpi	r25, 0x03	; 3
    1244:	18 f4       	brcc	.+6      	; 0x124c <_ZN17StrongDriveOutputC1Ehb+0xde>
    1246:	99 e2       	ldi	r25, 0x29	; 41
    1248:	98 1b       	sub	r25, r24
    124a:	3c c0       	rjmp	.+120    	; 0x12c4 <_ZN17StrongDriveOutputC1Ehb+0x156>
    124c:	98 2f       	mov	r25, r24
    124e:	9a 52       	subi	r25, 0x2A	; 42
    1250:	98 30       	cpi	r25, 0x08	; 8
    1252:	10 f4       	brcc	.+4      	; 0x1258 <_ZN17StrongDriveOutputC1Ehb+0xea>
    1254:	91 e3       	ldi	r25, 0x31	; 49
    1256:	f8 cf       	rjmp	.-16     	; 0x1248 <_ZN17StrongDriveOutputC1Ehb+0xda>
    1258:	98 2f       	mov	r25, r24
    125a:	92 53       	subi	r25, 0x32	; 50
    125c:	94 30       	cpi	r25, 0x04	; 4
    125e:	10 f4       	brcc	.+4      	; 0x1264 <_ZN17StrongDriveOutputC1Ehb+0xf6>
    1260:	95 e3       	ldi	r25, 0x35	; 53
    1262:	f2 cf       	rjmp	.-28     	; 0x1248 <_ZN17StrongDriveOutputC1Ehb+0xda>
    1264:	98 2f       	mov	r25, r24
    1266:	96 53       	subi	r25, 0x36	; 54
    1268:	98 30       	cpi	r25, 0x08	; 8
    126a:	60 f1       	brcs	.+88     	; 0x12c4 <_ZN17StrongDriveOutputC1Ehb+0x156>
    126c:	98 50       	subi	r25, 0x08	; 8
    126e:	98 30       	cpi	r25, 0x08	; 8
    1270:	48 f1       	brcs	.+82     	; 0x12c4 <_ZN17StrongDriveOutputC1Ehb+0x156>
    1272:	88 23       	and	r24, r24
    1274:	e1 f0       	breq	.+56     	; 0x12ae <_ZN17StrongDriveOutputC1Ehb+0x140>
    1276:	8f 30       	cpi	r24, 0x0F	; 15
    1278:	d1 f0       	breq	.+52     	; 0x12ae <_ZN17StrongDriveOutputC1Ehb+0x140>
    127a:	81 31       	cpi	r24, 0x11	; 17
    127c:	c1 f0       	breq	.+48     	; 0x12ae <_ZN17StrongDriveOutputC1Ehb+0x140>
    127e:	85 31       	cpi	r24, 0x15	; 21
    1280:	b1 f0       	breq	.+44     	; 0x12ae <_ZN17StrongDriveOutputC1Ehb+0x140>
    1282:	81 30       	cpi	r24, 0x01	; 1
    1284:	b1 f0       	breq	.+44     	; 0x12b2 <_ZN17StrongDriveOutputC1Ehb+0x144>
    1286:	8e 30       	cpi	r24, 0x0E	; 14
    1288:	a1 f0       	breq	.+40     	; 0x12b2 <_ZN17StrongDriveOutputC1Ehb+0x144>
    128a:	80 31       	cpi	r24, 0x10	; 16
    128c:	91 f0       	breq	.+36     	; 0x12b2 <_ZN17StrongDriveOutputC1Ehb+0x144>
    128e:	84 31       	cpi	r24, 0x14	; 20
    1290:	81 f0       	breq	.+32     	; 0x12b2 <_ZN17StrongDriveOutputC1Ehb+0x144>
    1292:	83 31       	cpi	r24, 0x13	; 19
    1294:	81 f0       	breq	.+32     	; 0x12b6 <_ZN17StrongDriveOutputC1Ehb+0x148>
    1296:	97 5c       	subi	r25, 0xC7	; 199
    1298:	92 30       	cpi	r25, 0x02	; 2
    129a:	78 f0       	brcs	.+30     	; 0x12ba <_ZN17StrongDriveOutputC1Ehb+0x14c>
    129c:	82 31       	cpi	r24, 0x12	; 18
    129e:	69 f0       	breq	.+26     	; 0x12ba <_ZN17StrongDriveOutputC1Ehb+0x14c>
    12a0:	82 30       	cpi	r24, 0x02	; 2
    12a2:	69 f0       	breq	.+26     	; 0x12be <_ZN17StrongDriveOutputC1Ehb+0x150>
    12a4:	9e 5f       	subi	r25, 0xFE	; 254
    12a6:	92 30       	cpi	r25, 0x02	; 2
    12a8:	60 f4       	brcc	.+24     	; 0x12c2 <_ZN17StrongDriveOutputC1Ehb+0x154>
    12aa:	95 e0       	ldi	r25, 0x05	; 5
    12ac:	0b c0       	rjmp	.+22     	; 0x12c4 <_ZN17StrongDriveOutputC1Ehb+0x156>
    12ae:	90 e0       	ldi	r25, 0x00	; 0
    12b0:	09 c0       	rjmp	.+18     	; 0x12c4 <_ZN17StrongDriveOutputC1Ehb+0x156>
    12b2:	91 e0       	ldi	r25, 0x01	; 1
    12b4:	07 c0       	rjmp	.+14     	; 0x12c4 <_ZN17StrongDriveOutputC1Ehb+0x156>
    12b6:	92 e0       	ldi	r25, 0x02	; 2
    12b8:	05 c0       	rjmp	.+10     	; 0x12c4 <_ZN17StrongDriveOutputC1Ehb+0x156>
    12ba:	93 e0       	ldi	r25, 0x03	; 3
    12bc:	03 c0       	rjmp	.+6      	; 0x12c4 <_ZN17StrongDriveOutputC1Ehb+0x156>
    12be:	94 e0       	ldi	r25, 0x04	; 4
    12c0:	01 c0       	rjmp	.+2      	; 0x12c4 <_ZN17StrongDriveOutputC1Ehb+0x156>
    12c2:	97 e0       	ldi	r25, 0x07	; 7
    12c4:	92 83       	std	Z+2, r25	; 0x02
    12c6:	61 e0       	ldi	r22, 0x01	; 1
    12c8:	0e 94 4b 35 	call	0x6a96	; 0x6a96 <pinMode>
    12cc:	08 95       	ret

000012ce <_ZN17StrongDriveOutput2onEv>:
    12ce:	fc 01       	movw	r30, r24
    12d0:	83 81       	ldd	r24, Z+3	; 0x03
    12d2:	a0 81       	ld	r26, Z
    12d4:	b1 81       	ldd	r27, Z+1	; 0x01
    12d6:	32 81       	ldd	r19, Z+2	; 0x02
    12d8:	88 23       	and	r24, r24
    12da:	69 f0       	breq	.+26     	; 0x12f6 <_ZN17StrongDriveOutput2onEv+0x28>
    12dc:	2c 91       	ld	r18, X
    12de:	81 e0       	ldi	r24, 0x01	; 1
    12e0:	90 e0       	ldi	r25, 0x00	; 0
    12e2:	02 c0       	rjmp	.+4      	; 0x12e8 <_ZN17StrongDriveOutput2onEv+0x1a>
    12e4:	88 0f       	add	r24, r24
    12e6:	99 1f       	adc	r25, r25
    12e8:	3a 95       	dec	r19
    12ea:	e2 f7       	brpl	.-8      	; 0x12e4 <_ZN17StrongDriveOutput2onEv+0x16>
    12ec:	80 95       	com	r24
    12ee:	82 23       	and	r24, r18
    12f0:	8c 93       	st	X, r24
    12f2:	14 82       	std	Z+4, r1	; 0x04
    12f4:	08 95       	ret
    12f6:	2c 91       	ld	r18, X
    12f8:	81 e0       	ldi	r24, 0x01	; 1
    12fa:	90 e0       	ldi	r25, 0x00	; 0
    12fc:	02 c0       	rjmp	.+4      	; 0x1302 <_ZN17StrongDriveOutput2onEv+0x34>
    12fe:	88 0f       	add	r24, r24
    1300:	99 1f       	adc	r25, r25
    1302:	3a 95       	dec	r19
    1304:	e2 f7       	brpl	.-8      	; 0x12fe <_ZN17StrongDriveOutput2onEv+0x30>
    1306:	28 2b       	or	r18, r24
    1308:	2c 93       	st	X, r18
    130a:	81 e0       	ldi	r24, 0x01	; 1
    130c:	84 83       	std	Z+4, r24	; 0x04
    130e:	08 95       	ret

00001310 <_ZN17StrongDriveOutput3offEv>:
    1310:	fc 01       	movw	r30, r24
    1312:	83 81       	ldd	r24, Z+3	; 0x03
    1314:	a0 81       	ld	r26, Z
    1316:	b1 81       	ldd	r27, Z+1	; 0x01
    1318:	32 81       	ldd	r19, Z+2	; 0x02
    131a:	88 23       	and	r24, r24
    131c:	69 f0       	breq	.+26     	; 0x1338 <_ZN17StrongDriveOutput3offEv+0x28>
    131e:	2c 91       	ld	r18, X
    1320:	81 e0       	ldi	r24, 0x01	; 1
    1322:	90 e0       	ldi	r25, 0x00	; 0
    1324:	02 c0       	rjmp	.+4      	; 0x132a <_ZN17StrongDriveOutput3offEv+0x1a>
    1326:	88 0f       	add	r24, r24
    1328:	99 1f       	adc	r25, r25
    132a:	3a 95       	dec	r19
    132c:	e2 f7       	brpl	.-8      	; 0x1326 <_ZN17StrongDriveOutput3offEv+0x16>
    132e:	28 2b       	or	r18, r24
    1330:	2c 93       	st	X, r18
    1332:	81 e0       	ldi	r24, 0x01	; 1
    1334:	84 83       	std	Z+4, r24	; 0x04
    1336:	08 95       	ret
    1338:	2c 91       	ld	r18, X
    133a:	81 e0       	ldi	r24, 0x01	; 1
    133c:	90 e0       	ldi	r25, 0x00	; 0
    133e:	02 c0       	rjmp	.+4      	; 0x1344 <_ZN17StrongDriveOutput3offEv+0x34>
    1340:	88 0f       	add	r24, r24
    1342:	99 1f       	adc	r25, r25
    1344:	3a 95       	dec	r19
    1346:	e2 f7       	brpl	.-8      	; 0x1340 <_ZN17StrongDriveOutput3offEv+0x30>
    1348:	80 95       	com	r24
    134a:	82 23       	and	r24, r18
    134c:	8c 93       	st	X, r24
    134e:	14 82       	std	Z+4, r1	; 0x04
    1350:	08 95       	ret

00001352 <_ZN17StrongDriveOutput3getEv>:
    1352:	fc 01       	movw	r30, r24
    1354:	84 81       	ldd	r24, Z+4	; 0x04
    1356:	08 95       	ret

00001358 <_ZNK8std_msgs4Time9serializeEPh>:
    1358:	fc 01       	movw	r30, r24
    135a:	db 01       	movw	r26, r22
    135c:	82 81       	ldd	r24, Z+2	; 0x02
    135e:	8c 93       	st	X, r24
    1360:	83 81       	ldd	r24, Z+3	; 0x03
    1362:	11 96       	adiw	r26, 0x01	; 1
    1364:	8c 93       	st	X, r24
    1366:	11 97       	sbiw	r26, 0x01	; 1
    1368:	84 81       	ldd	r24, Z+4	; 0x04
    136a:	12 96       	adiw	r26, 0x02	; 2
    136c:	8c 93       	st	X, r24
    136e:	12 97       	sbiw	r26, 0x02	; 2
    1370:	85 81       	ldd	r24, Z+5	; 0x05
    1372:	13 96       	adiw	r26, 0x03	; 3
    1374:	8c 93       	st	X, r24
    1376:	13 97       	sbiw	r26, 0x03	; 3
    1378:	86 81       	ldd	r24, Z+6	; 0x06
    137a:	14 96       	adiw	r26, 0x04	; 4
    137c:	8c 93       	st	X, r24
    137e:	14 97       	sbiw	r26, 0x04	; 4
    1380:	87 81       	ldd	r24, Z+7	; 0x07
    1382:	15 96       	adiw	r26, 0x05	; 5
    1384:	8c 93       	st	X, r24
    1386:	15 97       	sbiw	r26, 0x05	; 5
    1388:	80 85       	ldd	r24, Z+8	; 0x08
    138a:	16 96       	adiw	r26, 0x06	; 6
    138c:	8c 93       	st	X, r24
    138e:	16 97       	sbiw	r26, 0x06	; 6
    1390:	81 85       	ldd	r24, Z+9	; 0x09
    1392:	17 96       	adiw	r26, 0x07	; 7
    1394:	8c 93       	st	X, r24
    1396:	17 97       	sbiw	r26, 0x07	; 7
    1398:	88 e0       	ldi	r24, 0x08	; 8
    139a:	90 e0       	ldi	r25, 0x00	; 0
    139c:	08 95       	ret

0000139e <_ZN8std_msgs4Time11deserializeEPh>:
    139e:	ef 92       	push	r14
    13a0:	ff 92       	push	r15
    13a2:	0f 93       	push	r16
    13a4:	1f 93       	push	r17
    13a6:	fc 01       	movw	r30, r24
    13a8:	db 01       	movw	r26, r22
    13aa:	2c 91       	ld	r18, X
    13ac:	30 e0       	ldi	r19, 0x00	; 0
    13ae:	40 e0       	ldi	r20, 0x00	; 0
    13b0:	50 e0       	ldi	r21, 0x00	; 0
    13b2:	62 81       	ldd	r22, Z+2	; 0x02
    13b4:	73 81       	ldd	r23, Z+3	; 0x03
    13b6:	84 81       	ldd	r24, Z+4	; 0x04
    13b8:	95 81       	ldd	r25, Z+5	; 0x05
    13ba:	26 2b       	or	r18, r22
    13bc:	37 2b       	or	r19, r23
    13be:	48 2b       	or	r20, r24
    13c0:	59 2b       	or	r21, r25
    13c2:	22 83       	std	Z+2, r18	; 0x02
    13c4:	33 83       	std	Z+3, r19	; 0x03
    13c6:	44 83       	std	Z+4, r20	; 0x04
    13c8:	55 83       	std	Z+5, r21	; 0x05
    13ca:	11 96       	adiw	r26, 0x01	; 1
    13cc:	6c 91       	ld	r22, X
    13ce:	11 97       	sbiw	r26, 0x01	; 1
    13d0:	70 e0       	ldi	r23, 0x00	; 0
    13d2:	80 e0       	ldi	r24, 0x00	; 0
    13d4:	90 e0       	ldi	r25, 0x00	; 0
    13d6:	98 2f       	mov	r25, r24
    13d8:	87 2f       	mov	r24, r23
    13da:	76 2f       	mov	r23, r22
    13dc:	66 27       	eor	r22, r22
    13de:	62 2b       	or	r22, r18
    13e0:	73 2b       	or	r23, r19
    13e2:	84 2b       	or	r24, r20
    13e4:	95 2b       	or	r25, r21
    13e6:	62 83       	std	Z+2, r22	; 0x02
    13e8:	73 83       	std	Z+3, r23	; 0x03
    13ea:	84 83       	std	Z+4, r24	; 0x04
    13ec:	95 83       	std	Z+5, r25	; 0x05
    13ee:	12 96       	adiw	r26, 0x02	; 2
    13f0:	2c 91       	ld	r18, X
    13f2:	12 97       	sbiw	r26, 0x02	; 2
    13f4:	30 e0       	ldi	r19, 0x00	; 0
    13f6:	40 e0       	ldi	r20, 0x00	; 0
    13f8:	50 e0       	ldi	r21, 0x00	; 0
    13fa:	a9 01       	movw	r20, r18
    13fc:	33 27       	eor	r19, r19
    13fe:	22 27       	eor	r18, r18
    1400:	26 2b       	or	r18, r22
    1402:	37 2b       	or	r19, r23
    1404:	48 2b       	or	r20, r24
    1406:	59 2b       	or	r21, r25
    1408:	22 83       	std	Z+2, r18	; 0x02
    140a:	33 83       	std	Z+3, r19	; 0x03
    140c:	44 83       	std	Z+4, r20	; 0x04
    140e:	55 83       	std	Z+5, r21	; 0x05
    1410:	13 96       	adiw	r26, 0x03	; 3
    1412:	6c 91       	ld	r22, X
    1414:	13 97       	sbiw	r26, 0x03	; 3
    1416:	70 e0       	ldi	r23, 0x00	; 0
    1418:	80 e0       	ldi	r24, 0x00	; 0
    141a:	90 e0       	ldi	r25, 0x00	; 0
    141c:	96 2f       	mov	r25, r22
    141e:	88 27       	eor	r24, r24
    1420:	77 27       	eor	r23, r23
    1422:	66 27       	eor	r22, r22
    1424:	62 2b       	or	r22, r18
    1426:	73 2b       	or	r23, r19
    1428:	84 2b       	or	r24, r20
    142a:	95 2b       	or	r25, r21
    142c:	62 83       	std	Z+2, r22	; 0x02
    142e:	73 83       	std	Z+3, r23	; 0x03
    1430:	84 83       	std	Z+4, r24	; 0x04
    1432:	95 83       	std	Z+5, r25	; 0x05
    1434:	14 96       	adiw	r26, 0x04	; 4
    1436:	2c 91       	ld	r18, X
    1438:	14 97       	sbiw	r26, 0x04	; 4
    143a:	30 e0       	ldi	r19, 0x00	; 0
    143c:	40 e0       	ldi	r20, 0x00	; 0
    143e:	50 e0       	ldi	r21, 0x00	; 0
    1440:	66 81       	ldd	r22, Z+6	; 0x06
    1442:	77 81       	ldd	r23, Z+7	; 0x07
    1444:	80 85       	ldd	r24, Z+8	; 0x08
    1446:	91 85       	ldd	r25, Z+9	; 0x09
    1448:	26 2b       	or	r18, r22
    144a:	37 2b       	or	r19, r23
    144c:	48 2b       	or	r20, r24
    144e:	59 2b       	or	r21, r25
    1450:	26 83       	std	Z+6, r18	; 0x06
    1452:	37 83       	std	Z+7, r19	; 0x07
    1454:	40 87       	std	Z+8, r20	; 0x08
    1456:	51 87       	std	Z+9, r21	; 0x09
    1458:	15 96       	adiw	r26, 0x05	; 5
    145a:	ec 90       	ld	r14, X
    145c:	15 97       	sbiw	r26, 0x05	; 5
    145e:	ff 24       	eor	r15, r15
    1460:	00 e0       	ldi	r16, 0x00	; 0
    1462:	10 e0       	ldi	r17, 0x00	; 0
    1464:	10 2f       	mov	r17, r16
    1466:	0f 2d       	mov	r16, r15
    1468:	fe 2c       	mov	r15, r14
    146a:	ee 24       	eor	r14, r14
    146c:	e2 2a       	or	r14, r18
    146e:	f3 2a       	or	r15, r19
    1470:	04 2b       	or	r16, r20
    1472:	15 2b       	or	r17, r21
    1474:	e6 82       	std	Z+6, r14	; 0x06
    1476:	f7 82       	std	Z+7, r15	; 0x07
    1478:	00 87       	std	Z+8, r16	; 0x08
    147a:	11 87       	std	Z+9, r17	; 0x09
    147c:	16 96       	adiw	r26, 0x06	; 6
    147e:	2c 91       	ld	r18, X
    1480:	16 97       	sbiw	r26, 0x06	; 6
    1482:	30 e0       	ldi	r19, 0x00	; 0
    1484:	40 e0       	ldi	r20, 0x00	; 0
    1486:	50 e0       	ldi	r21, 0x00	; 0
    1488:	a9 01       	movw	r20, r18
    148a:	33 27       	eor	r19, r19
    148c:	22 27       	eor	r18, r18
    148e:	2e 29       	or	r18, r14
    1490:	3f 29       	or	r19, r15
    1492:	40 2b       	or	r20, r16
    1494:	51 2b       	or	r21, r17
    1496:	26 83       	std	Z+6, r18	; 0x06
    1498:	37 83       	std	Z+7, r19	; 0x07
    149a:	40 87       	std	Z+8, r20	; 0x08
    149c:	51 87       	std	Z+9, r21	; 0x09
    149e:	17 96       	adiw	r26, 0x07	; 7
    14a0:	8c 91       	ld	r24, X
    14a2:	90 e0       	ldi	r25, 0x00	; 0
    14a4:	a0 e0       	ldi	r26, 0x00	; 0
    14a6:	b0 e0       	ldi	r27, 0x00	; 0
    14a8:	b8 2f       	mov	r27, r24
    14aa:	aa 27       	eor	r26, r26
    14ac:	99 27       	eor	r25, r25
    14ae:	88 27       	eor	r24, r24
    14b0:	82 2b       	or	r24, r18
    14b2:	93 2b       	or	r25, r19
    14b4:	a4 2b       	or	r26, r20
    14b6:	b5 2b       	or	r27, r21
    14b8:	86 83       	std	Z+6, r24	; 0x06
    14ba:	97 83       	std	Z+7, r25	; 0x07
    14bc:	a0 87       	std	Z+8, r26	; 0x08
    14be:	b1 87       	std	Z+9, r27	; 0x09
    14c0:	88 e0       	ldi	r24, 0x08	; 8
    14c2:	90 e0       	ldi	r25, 0x00	; 0
    14c4:	1f 91       	pop	r17
    14c6:	0f 91       	pop	r16
    14c8:	ff 90       	pop	r15
    14ca:	ef 90       	pop	r14
    14cc:	08 95       	ret

000014ce <_ZN8std_msgs4Time7getTypeEv>:
    14ce:	80 e0       	ldi	r24, 0x00	; 0
    14d0:	92 e0       	ldi	r25, 0x02	; 2
    14d2:	08 95       	ret

000014d4 <_ZN8std_msgs4Time6getMD5Ev>:
    14d4:	8e e0       	ldi	r24, 0x0E	; 14
    14d6:	92 e0       	ldi	r25, 0x02	; 2
    14d8:	08 95       	ret

000014da <_ZN14rosserial_msgs9TopicInfo11deserializeEPh>:
    14da:	af 92       	push	r10
    14dc:	bf 92       	push	r11
    14de:	cf 92       	push	r12
    14e0:	df 92       	push	r13
    14e2:	ef 92       	push	r14
    14e4:	ff 92       	push	r15
    14e6:	0f 93       	push	r16
    14e8:	1f 93       	push	r17
    14ea:	cf 93       	push	r28
    14ec:	df 93       	push	r29
    14ee:	5c 01       	movw	r10, r24
    14f0:	fb 01       	movw	r30, r22
    14f2:	80 81       	ld	r24, Z
    14f4:	90 e0       	ldi	r25, 0x00	; 0
    14f6:	d5 01       	movw	r26, r10
    14f8:	12 96       	adiw	r26, 0x02	; 2
    14fa:	2d 91       	ld	r18, X+
    14fc:	3c 91       	ld	r19, X
    14fe:	13 97       	sbiw	r26, 0x03	; 3
    1500:	82 2b       	or	r24, r18
    1502:	93 2b       	or	r25, r19
    1504:	13 96       	adiw	r26, 0x03	; 3
    1506:	9c 93       	st	X, r25
    1508:	8e 93       	st	-X, r24
    150a:	12 97       	sbiw	r26, 0x02	; 2
    150c:	31 81       	ldd	r19, Z+1	; 0x01
    150e:	20 e0       	ldi	r18, 0x00	; 0
    1510:	82 2b       	or	r24, r18
    1512:	93 2b       	or	r25, r19
    1514:	13 96       	adiw	r26, 0x03	; 3
    1516:	9c 93       	st	X, r25
    1518:	8e 93       	st	-X, r24
    151a:	12 97       	sbiw	r26, 0x02	; 2
    151c:	82 81       	ldd	r24, Z+2	; 0x02
    151e:	93 81       	ldd	r25, Z+3	; 0x03
    1520:	a4 81       	ldd	r26, Z+4	; 0x04
    1522:	b5 81       	ldd	r27, Z+5	; 0x05
    1524:	8b 01       	movw	r16, r22
    1526:	0b 5f       	subi	r16, 0xFB	; 251
    1528:	1f 4f       	sbci	r17, 0xFF	; 255
    152a:	e8 01       	movw	r28, r16
    152c:	66 e0       	ldi	r22, 0x06	; 6
    152e:	70 e0       	ldi	r23, 0x00	; 0
    1530:	26 e0       	ldi	r18, 0x06	; 6
    1532:	c2 2e       	mov	r12, r18
    1534:	d1 2c       	mov	r13, r1
    1536:	e1 2c       	mov	r14, r1
    1538:	f1 2c       	mov	r15, r1
    153a:	c8 0e       	add	r12, r24
    153c:	d9 1e       	adc	r13, r25
    153e:	ea 1e       	adc	r14, r26
    1540:	fb 1e       	adc	r15, r27
    1542:	04 c0       	rjmp	.+8      	; 0x154c <_ZN14rosserial_msgs9TopicInfo11deserializeEPh+0x72>
    1544:	29 81       	ldd	r18, Y+1	; 0x01
    1546:	29 93       	st	Y+, r18
    1548:	6f 5f       	subi	r22, 0xFF	; 255
    154a:	7f 4f       	sbci	r23, 0xFF	; 255
    154c:	9b 01       	movw	r18, r22
    154e:	40 e0       	ldi	r20, 0x00	; 0
    1550:	50 e0       	ldi	r21, 0x00	; 0
    1552:	2c 15       	cp	r18, r12
    1554:	3d 05       	cpc	r19, r13
    1556:	4e 05       	cpc	r20, r14
    1558:	5f 05       	cpc	r21, r15
    155a:	a0 f3       	brcs	.-24     	; 0x1544 <_ZN14rosserial_msgs9TopicInfo11deserializeEPh+0x6a>
    155c:	ac 01       	movw	r20, r24
    155e:	4a 5f       	subi	r20, 0xFA	; 250
    1560:	5f 4f       	sbci	r21, 0xFF	; 255
    1562:	4e 0f       	add	r20, r30
    1564:	5f 1f       	adc	r21, r31
    1566:	9a 01       	movw	r18, r20
    1568:	21 50       	subi	r18, 0x01	; 1
    156a:	30 40       	sbci	r19, 0x00	; 0
    156c:	e9 01       	movw	r28, r18
    156e:	18 82       	st	Y, r1
    1570:	e5 01       	movw	r28, r10
    1572:	1d 83       	std	Y+5, r17	; 0x05
    1574:	0c 83       	std	Y+4, r16	; 0x04
    1576:	ea 01       	movw	r28, r20
    1578:	c8 80       	ld	r12, Y
    157a:	d9 80       	ldd	r13, Y+1	; 0x01
    157c:	ea 80       	ldd	r14, Y+2	; 0x02
    157e:	fb 80       	ldd	r15, Y+3	; 0x03
    1580:	bc 01       	movw	r22, r24
    1582:	66 5f       	subi	r22, 0xF6	; 246
    1584:	7f 4f       	sbci	r23, 0xFF	; 255
    1586:	ec 01       	movw	r28, r24
    1588:	29 96       	adiw	r28, 0x09	; 9
    158a:	ce 0f       	add	r28, r30
    158c:	df 1f       	adc	r29, r31
    158e:	8b 01       	movw	r16, r22
    1590:	cb 01       	movw	r24, r22
    1592:	aa 27       	eor	r26, r26
    1594:	97 fd       	sbrc	r25, 7
    1596:	a0 95       	com	r26
    1598:	ba 2f       	mov	r27, r26
    159a:	8c 0d       	add	r24, r12
    159c:	9d 1d       	adc	r25, r13
    159e:	ae 1d       	adc	r26, r14
    15a0:	bf 1d       	adc	r27, r15
    15a2:	04 c0       	rjmp	.+8      	; 0x15ac <_ZN14rosserial_msgs9TopicInfo11deserializeEPh+0xd2>
    15a4:	29 81       	ldd	r18, Y+1	; 0x01
    15a6:	29 93       	st	Y+, r18
    15a8:	0f 5f       	subi	r16, 0xFF	; 255
    15aa:	1f 4f       	sbci	r17, 0xFF	; 255
    15ac:	98 01       	movw	r18, r16
    15ae:	40 e0       	ldi	r20, 0x00	; 0
    15b0:	50 e0       	ldi	r21, 0x00	; 0
    15b2:	28 17       	cp	r18, r24
    15b4:	39 07       	cpc	r19, r25
    15b6:	4a 07       	cpc	r20, r26
    15b8:	5b 07       	cpc	r21, r27
    15ba:	a0 f3       	brcs	.-24     	; 0x15a4 <_ZN14rosserial_msgs9TopicInfo11deserializeEPh+0xca>
    15bc:	eb 01       	movw	r28, r22
    15be:	cc 0d       	add	r28, r12
    15c0:	dd 1d       	adc	r29, r13
    15c2:	9f 01       	movw	r18, r30
    15c4:	2c 0f       	add	r18, r28
    15c6:	3d 1f       	adc	r19, r29
    15c8:	c9 01       	movw	r24, r18
    15ca:	01 97       	sbiw	r24, 0x01	; 1
    15cc:	dc 01       	movw	r26, r24
    15ce:	1c 92       	st	X, r1
    15d0:	61 50       	subi	r22, 0x01	; 1
    15d2:	70 40       	sbci	r23, 0x00	; 0
    15d4:	6e 0f       	add	r22, r30
    15d6:	7f 1f       	adc	r23, r31
    15d8:	d5 01       	movw	r26, r10
    15da:	17 96       	adiw	r26, 0x07	; 7
    15dc:	7c 93       	st	X, r23
    15de:	6e 93       	st	-X, r22
    15e0:	16 97       	sbiw	r26, 0x06	; 6
    15e2:	d9 01       	movw	r26, r18
    15e4:	cd 90       	ld	r12, X+
    15e6:	dd 90       	ld	r13, X+
    15e8:	ed 90       	ld	r14, X+
    15ea:	fc 90       	ld	r15, X
    15ec:	be 01       	movw	r22, r28
    15ee:	6c 5f       	subi	r22, 0xFC	; 252
    15f0:	7f 4f       	sbci	r23, 0xFF	; 255
    15f2:	23 96       	adiw	r28, 0x03	; 3
    15f4:	ce 0f       	add	r28, r30
    15f6:	df 1f       	adc	r29, r31
    15f8:	8b 01       	movw	r16, r22
    15fa:	cb 01       	movw	r24, r22
    15fc:	aa 27       	eor	r26, r26
    15fe:	97 fd       	sbrc	r25, 7
    1600:	a0 95       	com	r26
    1602:	ba 2f       	mov	r27, r26
    1604:	8c 0d       	add	r24, r12
    1606:	9d 1d       	adc	r25, r13
    1608:	ae 1d       	adc	r26, r14
    160a:	bf 1d       	adc	r27, r15
    160c:	04 c0       	rjmp	.+8      	; 0x1616 <_ZN14rosserial_msgs9TopicInfo11deserializeEPh+0x13c>
    160e:	29 81       	ldd	r18, Y+1	; 0x01
    1610:	29 93       	st	Y+, r18
    1612:	0f 5f       	subi	r16, 0xFF	; 255
    1614:	1f 4f       	sbci	r17, 0xFF	; 255
    1616:	98 01       	movw	r18, r16
    1618:	40 e0       	ldi	r20, 0x00	; 0
    161a:	50 e0       	ldi	r21, 0x00	; 0
    161c:	28 17       	cp	r18, r24
    161e:	39 07       	cpc	r19, r25
    1620:	4a 07       	cpc	r20, r26
    1622:	5b 07       	cpc	r21, r27
    1624:	a0 f3       	brcs	.-24     	; 0x160e <_ZN14rosserial_msgs9TopicInfo11deserializeEPh+0x134>
    1626:	c6 0e       	add	r12, r22
    1628:	d7 1e       	adc	r13, r23
    162a:	df 01       	movw	r26, r30
    162c:	ac 0d       	add	r26, r12
    162e:	bd 1d       	adc	r27, r13
    1630:	ed 01       	movw	r28, r26
    1632:	21 97       	sbiw	r28, 0x01	; 1
    1634:	18 82       	st	Y, r1
    1636:	61 50       	subi	r22, 0x01	; 1
    1638:	70 40       	sbci	r23, 0x00	; 0
    163a:	6e 0f       	add	r22, r30
    163c:	7f 1f       	adc	r23, r31
    163e:	e5 01       	movw	r28, r10
    1640:	79 87       	std	Y+9, r23	; 0x09
    1642:	68 87       	std	Y+8, r22	; 0x08
    1644:	11 96       	adiw	r26, 0x01	; 1
    1646:	2c 91       	ld	r18, X
    1648:	11 97       	sbiw	r26, 0x01	; 1
    164a:	30 e0       	ldi	r19, 0x00	; 0
    164c:	40 e0       	ldi	r20, 0x00	; 0
    164e:	50 e0       	ldi	r21, 0x00	; 0
    1650:	54 2f       	mov	r21, r20
    1652:	43 2f       	mov	r20, r19
    1654:	32 2f       	mov	r19, r18
    1656:	22 27       	eor	r18, r18
    1658:	12 96       	adiw	r26, 0x02	; 2
    165a:	6c 91       	ld	r22, X
    165c:	12 97       	sbiw	r26, 0x02	; 2
    165e:	70 e0       	ldi	r23, 0x00	; 0
    1660:	80 e0       	ldi	r24, 0x00	; 0
    1662:	90 e0       	ldi	r25, 0x00	; 0
    1664:	cb 01       	movw	r24, r22
    1666:	77 27       	eor	r23, r23
    1668:	66 27       	eor	r22, r22
    166a:	26 2b       	or	r18, r22
    166c:	37 2b       	or	r19, r23
    166e:	48 2b       	or	r20, r24
    1670:	59 2b       	or	r21, r25
    1672:	6c 91       	ld	r22, X
    1674:	70 e0       	ldi	r23, 0x00	; 0
    1676:	80 e0       	ldi	r24, 0x00	; 0
    1678:	90 e0       	ldi	r25, 0x00	; 0
    167a:	26 2b       	or	r18, r22
    167c:	37 2b       	or	r19, r23
    167e:	48 2b       	or	r20, r24
    1680:	59 2b       	or	r21, r25
    1682:	13 96       	adiw	r26, 0x03	; 3
    1684:	8c 91       	ld	r24, X
    1686:	90 e0       	ldi	r25, 0x00	; 0
    1688:	a0 e0       	ldi	r26, 0x00	; 0
    168a:	b0 e0       	ldi	r27, 0x00	; 0
    168c:	b8 2f       	mov	r27, r24
    168e:	aa 27       	eor	r26, r26
    1690:	99 27       	eor	r25, r25
    1692:	88 27       	eor	r24, r24
    1694:	28 2b       	or	r18, r24
    1696:	39 2b       	or	r19, r25
    1698:	4a 2b       	or	r20, r26
    169a:	5b 2b       	or	r21, r27
    169c:	f5 01       	movw	r30, r10
    169e:	22 87       	std	Z+10, r18	; 0x0a
    16a0:	33 87       	std	Z+11, r19	; 0x0b
    16a2:	44 87       	std	Z+12, r20	; 0x0c
    16a4:	55 87       	std	Z+13, r21	; 0x0d
    16a6:	84 e0       	ldi	r24, 0x04	; 4
    16a8:	90 e0       	ldi	r25, 0x00	; 0
    16aa:	c8 0e       	add	r12, r24
    16ac:	d9 1e       	adc	r13, r25
    16ae:	c6 01       	movw	r24, r12
    16b0:	df 91       	pop	r29
    16b2:	cf 91       	pop	r28
    16b4:	1f 91       	pop	r17
    16b6:	0f 91       	pop	r16
    16b8:	ff 90       	pop	r15
    16ba:	ef 90       	pop	r14
    16bc:	df 90       	pop	r13
    16be:	cf 90       	pop	r12
    16c0:	bf 90       	pop	r11
    16c2:	af 90       	pop	r10
    16c4:	08 95       	ret

000016c6 <_ZN14rosserial_msgs9TopicInfo7getTypeEv>:
    16c6:	8f e2       	ldi	r24, 0x2F	; 47
    16c8:	92 e0       	ldi	r25, 0x02	; 2
    16ca:	08 95       	ret

000016cc <_ZN14rosserial_msgs9TopicInfo6getMD5Ev>:
    16cc:	88 e4       	ldi	r24, 0x48	; 72
    16ce:	92 e0       	ldi	r25, 0x02	; 2
    16d0:	08 95       	ret

000016d2 <_ZN14rosserial_msgs3Log11deserializeEPh>:
    16d2:	af 92       	push	r10
    16d4:	bf 92       	push	r11
    16d6:	cf 92       	push	r12
    16d8:	df 92       	push	r13
    16da:	ef 92       	push	r14
    16dc:	ff 92       	push	r15
    16de:	0f 93       	push	r16
    16e0:	1f 93       	push	r17
    16e2:	cf 93       	push	r28
    16e4:	df 93       	push	r29
    16e6:	fc 01       	movw	r30, r24
    16e8:	db 01       	movw	r26, r22
    16ea:	82 81       	ldd	r24, Z+2	; 0x02
    16ec:	9c 91       	ld	r25, X
    16ee:	89 2b       	or	r24, r25
    16f0:	82 83       	std	Z+2, r24	; 0x02
    16f2:	11 96       	adiw	r26, 0x01	; 1
    16f4:	ed 90       	ld	r14, X+
    16f6:	fd 90       	ld	r15, X+
    16f8:	0d 91       	ld	r16, X+
    16fa:	1c 91       	ld	r17, X
    16fc:	14 97       	sbiw	r26, 0x04	; 4
    16fe:	6c 5f       	subi	r22, 0xFC	; 252
    1700:	7f 4f       	sbci	r23, 0xFF	; 255
    1702:	eb 01       	movw	r28, r22
    1704:	85 e0       	ldi	r24, 0x05	; 5
    1706:	90 e0       	ldi	r25, 0x00	; 0
    1708:	35 e0       	ldi	r19, 0x05	; 5
    170a:	a3 2e       	mov	r10, r19
    170c:	b1 2c       	mov	r11, r1
    170e:	c1 2c       	mov	r12, r1
    1710:	d1 2c       	mov	r13, r1
    1712:	ae 0c       	add	r10, r14
    1714:	bf 1c       	adc	r11, r15
    1716:	c0 1e       	adc	r12, r16
    1718:	d1 1e       	adc	r13, r17
    171a:	03 c0       	rjmp	.+6      	; 0x1722 <_ZN14rosserial_msgs3Log11deserializeEPh+0x50>
    171c:	29 81       	ldd	r18, Y+1	; 0x01
    171e:	29 93       	st	Y+, r18
    1720:	01 96       	adiw	r24, 0x01	; 1
    1722:	9c 01       	movw	r18, r24
    1724:	40 e0       	ldi	r20, 0x00	; 0
    1726:	50 e0       	ldi	r21, 0x00	; 0
    1728:	2a 15       	cp	r18, r10
    172a:	3b 05       	cpc	r19, r11
    172c:	4c 05       	cpc	r20, r12
    172e:	5d 05       	cpc	r21, r13
    1730:	a8 f3       	brcs	.-22     	; 0x171c <_ZN14rosserial_msgs3Log11deserializeEPh+0x4a>
    1732:	97 01       	movw	r18, r14
    1734:	2b 5f       	subi	r18, 0xFB	; 251
    1736:	3f 4f       	sbci	r19, 0xFF	; 255
    1738:	a2 0f       	add	r26, r18
    173a:	b3 1f       	adc	r27, r19
    173c:	11 97       	sbiw	r26, 0x01	; 1
    173e:	1c 92       	st	X, r1
    1740:	74 83       	std	Z+4, r23	; 0x04
    1742:	63 83       	std	Z+3, r22	; 0x03
    1744:	c9 01       	movw	r24, r18
    1746:	df 91       	pop	r29
    1748:	cf 91       	pop	r28
    174a:	1f 91       	pop	r17
    174c:	0f 91       	pop	r16
    174e:	ff 90       	pop	r15
    1750:	ef 90       	pop	r14
    1752:	df 90       	pop	r13
    1754:	cf 90       	pop	r12
    1756:	bf 90       	pop	r11
    1758:	af 90       	pop	r10
    175a:	08 95       	ret

0000175c <_ZN14rosserial_msgs3Log7getTypeEv>:
    175c:	89 e6       	ldi	r24, 0x69	; 105
    175e:	92 e0       	ldi	r25, 0x02	; 2
    1760:	08 95       	ret

00001762 <_ZN14rosserial_msgs3Log6getMD5Ev>:
    1762:	8c e7       	ldi	r24, 0x7C	; 124
    1764:	92 e0       	ldi	r25, 0x02	; 2
    1766:	08 95       	ret

00001768 <_ZN14rosserial_msgs20RequestParamResponse7getTypeEv>:
    1768:	86 ec       	ldi	r24, 0xC6	; 198
    176a:	95 e0       	ldi	r25, 0x05	; 5
    176c:	08 95       	ret

0000176e <_ZN14rosserial_msgs20RequestParamResponse6getMD5Ev>:
    176e:	8d e9       	ldi	r24, 0x9D	; 157
    1770:	92 e0       	ldi	r25, 0x02	; 2
    1772:	08 95       	ret

00001774 <_ZNK5rover7Enabled9serializeEPh>:
    1774:	fc 01       	movw	r30, r24
    1776:	db 01       	movw	r26, r22
    1778:	82 81       	ldd	r24, Z+2	; 0x02
    177a:	8c 93       	st	X, r24
    177c:	83 81       	ldd	r24, Z+3	; 0x03
    177e:	11 96       	adiw	r26, 0x01	; 1
    1780:	8c 93       	st	X, r24
    1782:	11 97       	sbiw	r26, 0x01	; 1
    1784:	82 e0       	ldi	r24, 0x02	; 2
    1786:	90 e0       	ldi	r25, 0x00	; 0
    1788:	08 95       	ret

0000178a <_ZN5rover7Enabled11deserializeEPh>:
    178a:	fc 01       	movw	r30, r24
    178c:	db 01       	movw	r26, r22
    178e:	8c 91       	ld	r24, X
    1790:	82 83       	std	Z+2, r24	; 0x02
    1792:	11 96       	adiw	r26, 0x01	; 1
    1794:	8c 91       	ld	r24, X
    1796:	11 97       	sbiw	r26, 0x01	; 1
    1798:	83 83       	std	Z+3, r24	; 0x03
    179a:	82 e0       	ldi	r24, 0x02	; 2
    179c:	90 e0       	ldi	r25, 0x00	; 0
    179e:	08 95       	ret

000017a0 <_ZN5rover7Enabled7getTypeEv>:
    17a0:	8e eb       	ldi	r24, 0xBE	; 190
    17a2:	92 e0       	ldi	r25, 0x02	; 2
    17a4:	08 95       	ret

000017a6 <_ZN5rover7Enabled6getMD5Ev>:
    17a6:	8c ec       	ldi	r24, 0xCC	; 204
    17a8:	92 e0       	ldi	r25, 0x02	; 2
    17aa:	08 95       	ret

000017ac <_ZN8std_msgs6Header11deserializeEPh>:
    17ac:	af 92       	push	r10
    17ae:	bf 92       	push	r11
    17b0:	cf 92       	push	r12
    17b2:	df 92       	push	r13
    17b4:	ef 92       	push	r14
    17b6:	ff 92       	push	r15
    17b8:	0f 93       	push	r16
    17ba:	1f 93       	push	r17
    17bc:	cf 93       	push	r28
    17be:	df 93       	push	r29
    17c0:	fc 01       	movw	r30, r24
    17c2:	db 01       	movw	r26, r22
    17c4:	2c 91       	ld	r18, X
    17c6:	30 e0       	ldi	r19, 0x00	; 0
    17c8:	40 e0       	ldi	r20, 0x00	; 0
    17ca:	50 e0       	ldi	r21, 0x00	; 0
    17cc:	62 81       	ldd	r22, Z+2	; 0x02
    17ce:	73 81       	ldd	r23, Z+3	; 0x03
    17d0:	84 81       	ldd	r24, Z+4	; 0x04
    17d2:	95 81       	ldd	r25, Z+5	; 0x05
    17d4:	26 2b       	or	r18, r22
    17d6:	37 2b       	or	r19, r23
    17d8:	48 2b       	or	r20, r24
    17da:	59 2b       	or	r21, r25
    17dc:	22 83       	std	Z+2, r18	; 0x02
    17de:	33 83       	std	Z+3, r19	; 0x03
    17e0:	44 83       	std	Z+4, r20	; 0x04
    17e2:	55 83       	std	Z+5, r21	; 0x05
    17e4:	11 96       	adiw	r26, 0x01	; 1
    17e6:	6c 91       	ld	r22, X
    17e8:	11 97       	sbiw	r26, 0x01	; 1
    17ea:	70 e0       	ldi	r23, 0x00	; 0
    17ec:	80 e0       	ldi	r24, 0x00	; 0
    17ee:	90 e0       	ldi	r25, 0x00	; 0
    17f0:	98 2f       	mov	r25, r24
    17f2:	87 2f       	mov	r24, r23
    17f4:	76 2f       	mov	r23, r22
    17f6:	66 27       	eor	r22, r22
    17f8:	62 2b       	or	r22, r18
    17fa:	73 2b       	or	r23, r19
    17fc:	84 2b       	or	r24, r20
    17fe:	95 2b       	or	r25, r21
    1800:	62 83       	std	Z+2, r22	; 0x02
    1802:	73 83       	std	Z+3, r23	; 0x03
    1804:	84 83       	std	Z+4, r24	; 0x04
    1806:	95 83       	std	Z+5, r25	; 0x05
    1808:	12 96       	adiw	r26, 0x02	; 2
    180a:	2c 91       	ld	r18, X
    180c:	12 97       	sbiw	r26, 0x02	; 2
    180e:	30 e0       	ldi	r19, 0x00	; 0
    1810:	40 e0       	ldi	r20, 0x00	; 0
    1812:	50 e0       	ldi	r21, 0x00	; 0
    1814:	a9 01       	movw	r20, r18
    1816:	33 27       	eor	r19, r19
    1818:	22 27       	eor	r18, r18
    181a:	26 2b       	or	r18, r22
    181c:	37 2b       	or	r19, r23
    181e:	48 2b       	or	r20, r24
    1820:	59 2b       	or	r21, r25
    1822:	22 83       	std	Z+2, r18	; 0x02
    1824:	33 83       	std	Z+3, r19	; 0x03
    1826:	44 83       	std	Z+4, r20	; 0x04
    1828:	55 83       	std	Z+5, r21	; 0x05
    182a:	13 96       	adiw	r26, 0x03	; 3
    182c:	6c 91       	ld	r22, X
    182e:	13 97       	sbiw	r26, 0x03	; 3
    1830:	70 e0       	ldi	r23, 0x00	; 0
    1832:	80 e0       	ldi	r24, 0x00	; 0
    1834:	90 e0       	ldi	r25, 0x00	; 0
    1836:	96 2f       	mov	r25, r22
    1838:	88 27       	eor	r24, r24
    183a:	77 27       	eor	r23, r23
    183c:	66 27       	eor	r22, r22
    183e:	62 2b       	or	r22, r18
    1840:	73 2b       	or	r23, r19
    1842:	84 2b       	or	r24, r20
    1844:	95 2b       	or	r25, r21
    1846:	62 83       	std	Z+2, r22	; 0x02
    1848:	73 83       	std	Z+3, r23	; 0x03
    184a:	84 83       	std	Z+4, r24	; 0x04
    184c:	95 83       	std	Z+5, r25	; 0x05
    184e:	14 96       	adiw	r26, 0x04	; 4
    1850:	2c 91       	ld	r18, X
    1852:	14 97       	sbiw	r26, 0x04	; 4
    1854:	30 e0       	ldi	r19, 0x00	; 0
    1856:	40 e0       	ldi	r20, 0x00	; 0
    1858:	50 e0       	ldi	r21, 0x00	; 0
    185a:	66 81       	ldd	r22, Z+6	; 0x06
    185c:	77 81       	ldd	r23, Z+7	; 0x07
    185e:	80 85       	ldd	r24, Z+8	; 0x08
    1860:	91 85       	ldd	r25, Z+9	; 0x09
    1862:	26 2b       	or	r18, r22
    1864:	37 2b       	or	r19, r23
    1866:	48 2b       	or	r20, r24
    1868:	59 2b       	or	r21, r25
    186a:	26 83       	std	Z+6, r18	; 0x06
    186c:	37 83       	std	Z+7, r19	; 0x07
    186e:	40 87       	std	Z+8, r20	; 0x08
    1870:	51 87       	std	Z+9, r21	; 0x09
    1872:	15 96       	adiw	r26, 0x05	; 5
    1874:	6c 91       	ld	r22, X
    1876:	15 97       	sbiw	r26, 0x05	; 5
    1878:	70 e0       	ldi	r23, 0x00	; 0
    187a:	80 e0       	ldi	r24, 0x00	; 0
    187c:	90 e0       	ldi	r25, 0x00	; 0
    187e:	98 2f       	mov	r25, r24
    1880:	87 2f       	mov	r24, r23
    1882:	76 2f       	mov	r23, r22
    1884:	66 27       	eor	r22, r22
    1886:	62 2b       	or	r22, r18
    1888:	73 2b       	or	r23, r19
    188a:	84 2b       	or	r24, r20
    188c:	95 2b       	or	r25, r21
    188e:	66 83       	std	Z+6, r22	; 0x06
    1890:	77 83       	std	Z+7, r23	; 0x07
    1892:	80 87       	std	Z+8, r24	; 0x08
    1894:	91 87       	std	Z+9, r25	; 0x09
    1896:	16 96       	adiw	r26, 0x06	; 6
    1898:	2c 91       	ld	r18, X
    189a:	16 97       	sbiw	r26, 0x06	; 6
    189c:	30 e0       	ldi	r19, 0x00	; 0
    189e:	40 e0       	ldi	r20, 0x00	; 0
    18a0:	50 e0       	ldi	r21, 0x00	; 0
    18a2:	a9 01       	movw	r20, r18
    18a4:	33 27       	eor	r19, r19
    18a6:	22 27       	eor	r18, r18
    18a8:	26 2b       	or	r18, r22
    18aa:	37 2b       	or	r19, r23
    18ac:	48 2b       	or	r20, r24
    18ae:	59 2b       	or	r21, r25
    18b0:	26 83       	std	Z+6, r18	; 0x06
    18b2:	37 83       	std	Z+7, r19	; 0x07
    18b4:	40 87       	std	Z+8, r20	; 0x08
    18b6:	51 87       	std	Z+9, r21	; 0x09
    18b8:	17 96       	adiw	r26, 0x07	; 7
    18ba:	6c 91       	ld	r22, X
    18bc:	17 97       	sbiw	r26, 0x07	; 7
    18be:	70 e0       	ldi	r23, 0x00	; 0
    18c0:	80 e0       	ldi	r24, 0x00	; 0
    18c2:	90 e0       	ldi	r25, 0x00	; 0
    18c4:	96 2f       	mov	r25, r22
    18c6:	88 27       	eor	r24, r24
    18c8:	77 27       	eor	r23, r23
    18ca:	66 27       	eor	r22, r22
    18cc:	62 2b       	or	r22, r18
    18ce:	73 2b       	or	r23, r19
    18d0:	84 2b       	or	r24, r20
    18d2:	95 2b       	or	r25, r21
    18d4:	66 83       	std	Z+6, r22	; 0x06
    18d6:	77 83       	std	Z+7, r23	; 0x07
    18d8:	80 87       	std	Z+8, r24	; 0x08
    18da:	91 87       	std	Z+9, r25	; 0x09
    18dc:	18 96       	adiw	r26, 0x08	; 8
    18de:	2c 91       	ld	r18, X
    18e0:	18 97       	sbiw	r26, 0x08	; 8
    18e2:	30 e0       	ldi	r19, 0x00	; 0
    18e4:	40 e0       	ldi	r20, 0x00	; 0
    18e6:	50 e0       	ldi	r21, 0x00	; 0
    18e8:	62 85       	ldd	r22, Z+10	; 0x0a
    18ea:	73 85       	ldd	r23, Z+11	; 0x0b
    18ec:	84 85       	ldd	r24, Z+12	; 0x0c
    18ee:	95 85       	ldd	r25, Z+13	; 0x0d
    18f0:	26 2b       	or	r18, r22
    18f2:	37 2b       	or	r19, r23
    18f4:	48 2b       	or	r20, r24
    18f6:	59 2b       	or	r21, r25
    18f8:	22 87       	std	Z+10, r18	; 0x0a
    18fa:	33 87       	std	Z+11, r19	; 0x0b
    18fc:	44 87       	std	Z+12, r20	; 0x0c
    18fe:	55 87       	std	Z+13, r21	; 0x0d
    1900:	19 96       	adiw	r26, 0x09	; 9
    1902:	6c 91       	ld	r22, X
    1904:	19 97       	sbiw	r26, 0x09	; 9
    1906:	70 e0       	ldi	r23, 0x00	; 0
    1908:	80 e0       	ldi	r24, 0x00	; 0
    190a:	90 e0       	ldi	r25, 0x00	; 0
    190c:	98 2f       	mov	r25, r24
    190e:	87 2f       	mov	r24, r23
    1910:	76 2f       	mov	r23, r22
    1912:	66 27       	eor	r22, r22
    1914:	62 2b       	or	r22, r18
    1916:	73 2b       	or	r23, r19
    1918:	84 2b       	or	r24, r20
    191a:	95 2b       	or	r25, r21
    191c:	62 87       	std	Z+10, r22	; 0x0a
    191e:	73 87       	std	Z+11, r23	; 0x0b
    1920:	84 87       	std	Z+12, r24	; 0x0c
    1922:	95 87       	std	Z+13, r25	; 0x0d
    1924:	1a 96       	adiw	r26, 0x0a	; 10
    1926:	2c 91       	ld	r18, X
    1928:	1a 97       	sbiw	r26, 0x0a	; 10
    192a:	30 e0       	ldi	r19, 0x00	; 0
    192c:	40 e0       	ldi	r20, 0x00	; 0
    192e:	50 e0       	ldi	r21, 0x00	; 0
    1930:	a9 01       	movw	r20, r18
    1932:	33 27       	eor	r19, r19
    1934:	22 27       	eor	r18, r18
    1936:	26 2b       	or	r18, r22
    1938:	37 2b       	or	r19, r23
    193a:	48 2b       	or	r20, r24
    193c:	59 2b       	or	r21, r25
    193e:	22 87       	std	Z+10, r18	; 0x0a
    1940:	33 87       	std	Z+11, r19	; 0x0b
    1942:	44 87       	std	Z+12, r20	; 0x0c
    1944:	55 87       	std	Z+13, r21	; 0x0d
    1946:	1b 96       	adiw	r26, 0x0b	; 11
    1948:	6c 91       	ld	r22, X
    194a:	1b 97       	sbiw	r26, 0x0b	; 11
    194c:	70 e0       	ldi	r23, 0x00	; 0
    194e:	80 e0       	ldi	r24, 0x00	; 0
    1950:	90 e0       	ldi	r25, 0x00	; 0
    1952:	96 2f       	mov	r25, r22
    1954:	88 27       	eor	r24, r24
    1956:	77 27       	eor	r23, r23
    1958:	66 27       	eor	r22, r22
    195a:	62 2b       	or	r22, r18
    195c:	73 2b       	or	r23, r19
    195e:	84 2b       	or	r24, r20
    1960:	95 2b       	or	r25, r21
    1962:	62 87       	std	Z+10, r22	; 0x0a
    1964:	73 87       	std	Z+11, r23	; 0x0b
    1966:	84 87       	std	Z+12, r24	; 0x0c
    1968:	95 87       	std	Z+13, r25	; 0x0d
    196a:	1c 96       	adiw	r26, 0x0c	; 12
    196c:	ed 90       	ld	r14, X+
    196e:	fd 90       	ld	r15, X+
    1970:	0d 91       	ld	r16, X+
    1972:	1c 91       	ld	r17, X
    1974:	1f 97       	sbiw	r26, 0x0f	; 15
    1976:	bd 01       	movw	r22, r26
    1978:	61 5f       	subi	r22, 0xF1	; 241
    197a:	7f 4f       	sbci	r23, 0xFF	; 255
    197c:	eb 01       	movw	r28, r22
    197e:	80 e1       	ldi	r24, 0x10	; 16
    1980:	90 e0       	ldi	r25, 0x00	; 0
    1982:	40 e1       	ldi	r20, 0x10	; 16
    1984:	a4 2e       	mov	r10, r20
    1986:	b1 2c       	mov	r11, r1
    1988:	c1 2c       	mov	r12, r1
    198a:	d1 2c       	mov	r13, r1
    198c:	ae 0c       	add	r10, r14
    198e:	bf 1c       	adc	r11, r15
    1990:	c0 1e       	adc	r12, r16
    1992:	d1 1e       	adc	r13, r17
    1994:	03 c0       	rjmp	.+6      	; 0x199c <_ZN8std_msgs6Header11deserializeEPh+0x1f0>
    1996:	29 81       	ldd	r18, Y+1	; 0x01
    1998:	29 93       	st	Y+, r18
    199a:	01 96       	adiw	r24, 0x01	; 1
    199c:	9c 01       	movw	r18, r24
    199e:	40 e0       	ldi	r20, 0x00	; 0
    19a0:	50 e0       	ldi	r21, 0x00	; 0
    19a2:	2a 15       	cp	r18, r10
    19a4:	3b 05       	cpc	r19, r11
    19a6:	4c 05       	cpc	r20, r12
    19a8:	5d 05       	cpc	r21, r13
    19aa:	a8 f3       	brcs	.-22     	; 0x1996 <_ZN8std_msgs6Header11deserializeEPh+0x1ea>
    19ac:	97 01       	movw	r18, r14
    19ae:	20 5f       	subi	r18, 0xF0	; 240
    19b0:	3f 4f       	sbci	r19, 0xFF	; 255
    19b2:	a2 0f       	add	r26, r18
    19b4:	b3 1f       	adc	r27, r19
    19b6:	11 97       	sbiw	r26, 0x01	; 1
    19b8:	1c 92       	st	X, r1
    19ba:	77 87       	std	Z+15, r23	; 0x0f
    19bc:	66 87       	std	Z+14, r22	; 0x0e
    19be:	c9 01       	movw	r24, r18
    19c0:	df 91       	pop	r29
    19c2:	cf 91       	pop	r28
    19c4:	1f 91       	pop	r17
    19c6:	0f 91       	pop	r16
    19c8:	ff 90       	pop	r15
    19ca:	ef 90       	pop	r14
    19cc:	df 90       	pop	r13
    19ce:	cf 90       	pop	r12
    19d0:	bf 90       	pop	r11
    19d2:	af 90       	pop	r10
    19d4:	08 95       	ret

000019d6 <_ZN8std_msgs6Header7getTypeEv>:
    19d6:	8d ee       	ldi	r24, 0xED	; 237
    19d8:	92 e0       	ldi	r25, 0x02	; 2
    19da:	08 95       	ret

000019dc <_ZN8std_msgs6Header6getMD5Ev>:
    19dc:	8d ef       	ldi	r24, 0xFD	; 253
    19de:	92 e0       	ldi	r25, 0x02	; 2
    19e0:	08 95       	ret

000019e2 <_ZN5rover6Motors11deserializeEPh>:
    19e2:	ef 92       	push	r14
    19e4:	ff 92       	push	r15
    19e6:	0f 93       	push	r16
    19e8:	1f 93       	push	r17
    19ea:	cf 93       	push	r28
    19ec:	df 93       	push	r29
    19ee:	8c 01       	movw	r16, r24
    19f0:	eb 01       	movw	r28, r22
    19f2:	02 96       	adiw	r24, 0x02	; 2
    19f4:	0e 94 d6 0b 	call	0x17ac	; 0x17ac <_ZN8std_msgs6Header11deserializeEPh>
    19f8:	7c 01       	movw	r14, r24
    19fa:	de 01       	movw	r26, r28
    19fc:	a8 0f       	add	r26, r24
    19fe:	b9 1f       	adc	r27, r25
    1a00:	11 96       	adiw	r26, 0x01	; 1
    1a02:	6c 91       	ld	r22, X
    1a04:	11 97       	sbiw	r26, 0x01	; 1
    1a06:	70 e0       	ldi	r23, 0x00	; 0
    1a08:	80 e0       	ldi	r24, 0x00	; 0
    1a0a:	90 e0       	ldi	r25, 0x00	; 0
    1a0c:	98 2f       	mov	r25, r24
    1a0e:	87 2f       	mov	r24, r23
    1a10:	76 2f       	mov	r23, r22
    1a12:	66 27       	eor	r22, r22
    1a14:	2c 91       	ld	r18, X
    1a16:	30 e0       	ldi	r19, 0x00	; 0
    1a18:	40 e0       	ldi	r20, 0x00	; 0
    1a1a:	50 e0       	ldi	r21, 0x00	; 0
    1a1c:	62 2b       	or	r22, r18
    1a1e:	73 2b       	or	r23, r19
    1a20:	84 2b       	or	r24, r20
    1a22:	95 2b       	or	r25, r21
    1a24:	12 96       	adiw	r26, 0x02	; 2
    1a26:	2c 91       	ld	r18, X
    1a28:	12 97       	sbiw	r26, 0x02	; 2
    1a2a:	30 e0       	ldi	r19, 0x00	; 0
    1a2c:	40 e0       	ldi	r20, 0x00	; 0
    1a2e:	50 e0       	ldi	r21, 0x00	; 0
    1a30:	a9 01       	movw	r20, r18
    1a32:	33 27       	eor	r19, r19
    1a34:	22 27       	eor	r18, r18
    1a36:	26 2b       	or	r18, r22
    1a38:	37 2b       	or	r19, r23
    1a3a:	48 2b       	or	r20, r24
    1a3c:	59 2b       	or	r21, r25
    1a3e:	13 96       	adiw	r26, 0x03	; 3
    1a40:	8c 91       	ld	r24, X
    1a42:	90 e0       	ldi	r25, 0x00	; 0
    1a44:	a0 e0       	ldi	r26, 0x00	; 0
    1a46:	b0 e0       	ldi	r27, 0x00	; 0
    1a48:	b8 2f       	mov	r27, r24
    1a4a:	aa 27       	eor	r26, r26
    1a4c:	99 27       	eor	r25, r25
    1a4e:	88 27       	eor	r24, r24
    1a50:	82 2b       	or	r24, r18
    1a52:	93 2b       	or	r25, r19
    1a54:	a4 2b       	or	r26, r20
    1a56:	b5 2b       	or	r27, r21
    1a58:	f8 01       	movw	r30, r16
    1a5a:	82 8b       	std	Z+18, r24	; 0x12
    1a5c:	93 8b       	std	Z+19, r25	; 0x13
    1a5e:	a4 8b       	std	Z+20, r26	; 0x14
    1a60:	b5 8b       	std	Z+21, r27	; 0x15
    1a62:	f7 01       	movw	r30, r14
    1a64:	34 96       	adiw	r30, 0x04	; 4
    1a66:	ce 0f       	add	r28, r30
    1a68:	df 1f       	adc	r29, r31
    1a6a:	69 81       	ldd	r22, Y+1	; 0x01
    1a6c:	70 e0       	ldi	r23, 0x00	; 0
    1a6e:	80 e0       	ldi	r24, 0x00	; 0
    1a70:	90 e0       	ldi	r25, 0x00	; 0
    1a72:	98 2f       	mov	r25, r24
    1a74:	87 2f       	mov	r24, r23
    1a76:	76 2f       	mov	r23, r22
    1a78:	66 27       	eor	r22, r22
    1a7a:	28 81       	ld	r18, Y
    1a7c:	30 e0       	ldi	r19, 0x00	; 0
    1a7e:	40 e0       	ldi	r20, 0x00	; 0
    1a80:	50 e0       	ldi	r21, 0x00	; 0
    1a82:	62 2b       	or	r22, r18
    1a84:	73 2b       	or	r23, r19
    1a86:	84 2b       	or	r24, r20
    1a88:	95 2b       	or	r25, r21
    1a8a:	2a 81       	ldd	r18, Y+2	; 0x02
    1a8c:	30 e0       	ldi	r19, 0x00	; 0
    1a8e:	40 e0       	ldi	r20, 0x00	; 0
    1a90:	50 e0       	ldi	r21, 0x00	; 0
    1a92:	a9 01       	movw	r20, r18
    1a94:	33 27       	eor	r19, r19
    1a96:	22 27       	eor	r18, r18
    1a98:	26 2b       	or	r18, r22
    1a9a:	37 2b       	or	r19, r23
    1a9c:	48 2b       	or	r20, r24
    1a9e:	59 2b       	or	r21, r25
    1aa0:	8b 81       	ldd	r24, Y+3	; 0x03
    1aa2:	90 e0       	ldi	r25, 0x00	; 0
    1aa4:	a0 e0       	ldi	r26, 0x00	; 0
    1aa6:	b0 e0       	ldi	r27, 0x00	; 0
    1aa8:	b8 2f       	mov	r27, r24
    1aaa:	aa 27       	eor	r26, r26
    1aac:	99 27       	eor	r25, r25
    1aae:	88 27       	eor	r24, r24
    1ab0:	82 2b       	or	r24, r18
    1ab2:	93 2b       	or	r25, r19
    1ab4:	a4 2b       	or	r26, r20
    1ab6:	b5 2b       	or	r27, r21
    1ab8:	e8 01       	movw	r28, r16
    1aba:	8e 8b       	std	Y+22, r24	; 0x16
    1abc:	9f 8b       	std	Y+23, r25	; 0x17
    1abe:	a8 8f       	std	Y+24, r26	; 0x18
    1ac0:	b9 8f       	std	Y+25, r27	; 0x19
    1ac2:	34 96       	adiw	r30, 0x04	; 4
    1ac4:	cf 01       	movw	r24, r30
    1ac6:	df 91       	pop	r29
    1ac8:	cf 91       	pop	r28
    1aca:	1f 91       	pop	r17
    1acc:	0f 91       	pop	r16
    1ace:	ff 90       	pop	r15
    1ad0:	ef 90       	pop	r14
    1ad2:	08 95       	ret

00001ad4 <_ZN5rover6Motors7getTypeEv>:
    1ad4:	8e e1       	ldi	r24, 0x1E	; 30
    1ad6:	93 e0       	ldi	r25, 0x03	; 3
    1ad8:	08 95       	ret

00001ada <_ZN5rover6Motors6getMD5Ev>:
    1ada:	8b e2       	ldi	r24, 0x2B	; 43
    1adc:	93 e0       	ldi	r25, 0x03	; 3
    1ade:	08 95       	ret

00001ae0 <_ZN5rover7Battery11deserializeEPh>:
    1ae0:	ef 92       	push	r14
    1ae2:	ff 92       	push	r15
    1ae4:	0f 93       	push	r16
    1ae6:	1f 93       	push	r17
    1ae8:	cf 93       	push	r28
    1aea:	df 93       	push	r29
    1aec:	8c 01       	movw	r16, r24
    1aee:	eb 01       	movw	r28, r22
    1af0:	02 96       	adiw	r24, 0x02	; 2
    1af2:	0e 94 d6 0b 	call	0x17ac	; 0x17ac <_ZN8std_msgs6Header11deserializeEPh>
    1af6:	7c 01       	movw	r14, r24
    1af8:	de 01       	movw	r26, r28
    1afa:	a8 0f       	add	r26, r24
    1afc:	b9 1f       	adc	r27, r25
    1afe:	11 96       	adiw	r26, 0x01	; 1
    1b00:	6c 91       	ld	r22, X
    1b02:	11 97       	sbiw	r26, 0x01	; 1
    1b04:	70 e0       	ldi	r23, 0x00	; 0
    1b06:	80 e0       	ldi	r24, 0x00	; 0
    1b08:	90 e0       	ldi	r25, 0x00	; 0
    1b0a:	98 2f       	mov	r25, r24
    1b0c:	87 2f       	mov	r24, r23
    1b0e:	76 2f       	mov	r23, r22
    1b10:	66 27       	eor	r22, r22
    1b12:	2c 91       	ld	r18, X
    1b14:	30 e0       	ldi	r19, 0x00	; 0
    1b16:	40 e0       	ldi	r20, 0x00	; 0
    1b18:	50 e0       	ldi	r21, 0x00	; 0
    1b1a:	62 2b       	or	r22, r18
    1b1c:	73 2b       	or	r23, r19
    1b1e:	84 2b       	or	r24, r20
    1b20:	95 2b       	or	r25, r21
    1b22:	12 96       	adiw	r26, 0x02	; 2
    1b24:	2c 91       	ld	r18, X
    1b26:	12 97       	sbiw	r26, 0x02	; 2
    1b28:	30 e0       	ldi	r19, 0x00	; 0
    1b2a:	40 e0       	ldi	r20, 0x00	; 0
    1b2c:	50 e0       	ldi	r21, 0x00	; 0
    1b2e:	a9 01       	movw	r20, r18
    1b30:	33 27       	eor	r19, r19
    1b32:	22 27       	eor	r18, r18
    1b34:	26 2b       	or	r18, r22
    1b36:	37 2b       	or	r19, r23
    1b38:	48 2b       	or	r20, r24
    1b3a:	59 2b       	or	r21, r25
    1b3c:	13 96       	adiw	r26, 0x03	; 3
    1b3e:	8c 91       	ld	r24, X
    1b40:	90 e0       	ldi	r25, 0x00	; 0
    1b42:	a0 e0       	ldi	r26, 0x00	; 0
    1b44:	b0 e0       	ldi	r27, 0x00	; 0
    1b46:	b8 2f       	mov	r27, r24
    1b48:	aa 27       	eor	r26, r26
    1b4a:	99 27       	eor	r25, r25
    1b4c:	88 27       	eor	r24, r24
    1b4e:	82 2b       	or	r24, r18
    1b50:	93 2b       	or	r25, r19
    1b52:	a4 2b       	or	r26, r20
    1b54:	b5 2b       	or	r27, r21
    1b56:	f8 01       	movw	r30, r16
    1b58:	82 8b       	std	Z+18, r24	; 0x12
    1b5a:	93 8b       	std	Z+19, r25	; 0x13
    1b5c:	a4 8b       	std	Z+20, r26	; 0x14
    1b5e:	b5 8b       	std	Z+21, r27	; 0x15
    1b60:	f7 01       	movw	r30, r14
    1b62:	34 96       	adiw	r30, 0x04	; 4
    1b64:	ce 0f       	add	r28, r30
    1b66:	df 1f       	adc	r29, r31
    1b68:	69 81       	ldd	r22, Y+1	; 0x01
    1b6a:	70 e0       	ldi	r23, 0x00	; 0
    1b6c:	80 e0       	ldi	r24, 0x00	; 0
    1b6e:	90 e0       	ldi	r25, 0x00	; 0
    1b70:	98 2f       	mov	r25, r24
    1b72:	87 2f       	mov	r24, r23
    1b74:	76 2f       	mov	r23, r22
    1b76:	66 27       	eor	r22, r22
    1b78:	28 81       	ld	r18, Y
    1b7a:	30 e0       	ldi	r19, 0x00	; 0
    1b7c:	40 e0       	ldi	r20, 0x00	; 0
    1b7e:	50 e0       	ldi	r21, 0x00	; 0
    1b80:	62 2b       	or	r22, r18
    1b82:	73 2b       	or	r23, r19
    1b84:	84 2b       	or	r24, r20
    1b86:	95 2b       	or	r25, r21
    1b88:	2a 81       	ldd	r18, Y+2	; 0x02
    1b8a:	30 e0       	ldi	r19, 0x00	; 0
    1b8c:	40 e0       	ldi	r20, 0x00	; 0
    1b8e:	50 e0       	ldi	r21, 0x00	; 0
    1b90:	a9 01       	movw	r20, r18
    1b92:	33 27       	eor	r19, r19
    1b94:	22 27       	eor	r18, r18
    1b96:	26 2b       	or	r18, r22
    1b98:	37 2b       	or	r19, r23
    1b9a:	48 2b       	or	r20, r24
    1b9c:	59 2b       	or	r21, r25
    1b9e:	8b 81       	ldd	r24, Y+3	; 0x03
    1ba0:	90 e0       	ldi	r25, 0x00	; 0
    1ba2:	a0 e0       	ldi	r26, 0x00	; 0
    1ba4:	b0 e0       	ldi	r27, 0x00	; 0
    1ba6:	b8 2f       	mov	r27, r24
    1ba8:	aa 27       	eor	r26, r26
    1baa:	99 27       	eor	r25, r25
    1bac:	88 27       	eor	r24, r24
    1bae:	82 2b       	or	r24, r18
    1bb0:	93 2b       	or	r25, r19
    1bb2:	a4 2b       	or	r26, r20
    1bb4:	b5 2b       	or	r27, r21
    1bb6:	e8 01       	movw	r28, r16
    1bb8:	8e 8b       	std	Y+22, r24	; 0x16
    1bba:	9f 8b       	std	Y+23, r25	; 0x17
    1bbc:	a8 8f       	std	Y+24, r26	; 0x18
    1bbe:	b9 8f       	std	Y+25, r27	; 0x19
    1bc0:	34 96       	adiw	r30, 0x04	; 4
    1bc2:	cf 01       	movw	r24, r30
    1bc4:	df 91       	pop	r29
    1bc6:	cf 91       	pop	r28
    1bc8:	1f 91       	pop	r17
    1bca:	0f 91       	pop	r16
    1bcc:	ff 90       	pop	r15
    1bce:	ef 90       	pop	r14
    1bd0:	08 95       	ret

00001bd2 <_ZN5rover7Battery7getTypeEv>:
    1bd2:	8c e4       	ldi	r24, 0x4C	; 76
    1bd4:	93 e0       	ldi	r25, 0x03	; 3
    1bd6:	08 95       	ret

00001bd8 <_ZN5rover7Battery6getMD5Ev>:
    1bd8:	8a e5       	ldi	r24, 0x5A	; 90
    1bda:	93 e0       	ldi	r25, 0x03	; 3
    1bdc:	08 95       	ret

00001bde <_ZN5rover7Encoder11deserializeEPh>:
    1bde:	cf 92       	push	r12
    1be0:	df 92       	push	r13
    1be2:	ef 92       	push	r14
    1be4:	ff 92       	push	r15
    1be6:	0f 93       	push	r16
    1be8:	1f 93       	push	r17
    1bea:	cf 93       	push	r28
    1bec:	df 93       	push	r29
    1bee:	6c 01       	movw	r12, r24
    1bf0:	eb 01       	movw	r28, r22
    1bf2:	02 96       	adiw	r24, 0x02	; 2
    1bf4:	0e 94 d6 0b 	call	0x17ac	; 0x17ac <_ZN8std_msgs6Header11deserializeEPh>
    1bf8:	dc 01       	movw	r26, r24
    1bfa:	fe 01       	movw	r30, r28
    1bfc:	e8 0f       	add	r30, r24
    1bfe:	f9 1f       	adc	r31, r25
    1c00:	61 81       	ldd	r22, Z+1	; 0x01
    1c02:	70 e0       	ldi	r23, 0x00	; 0
    1c04:	80 e0       	ldi	r24, 0x00	; 0
    1c06:	90 e0       	ldi	r25, 0x00	; 0
    1c08:	98 2f       	mov	r25, r24
    1c0a:	87 2f       	mov	r24, r23
    1c0c:	76 2f       	mov	r23, r22
    1c0e:	66 27       	eor	r22, r22
    1c10:	20 81       	ld	r18, Z
    1c12:	30 e0       	ldi	r19, 0x00	; 0
    1c14:	40 e0       	ldi	r20, 0x00	; 0
    1c16:	50 e0       	ldi	r21, 0x00	; 0
    1c18:	62 2b       	or	r22, r18
    1c1a:	73 2b       	or	r23, r19
    1c1c:	84 2b       	or	r24, r20
    1c1e:	95 2b       	or	r25, r21
    1c20:	22 81       	ldd	r18, Z+2	; 0x02
    1c22:	30 e0       	ldi	r19, 0x00	; 0
    1c24:	40 e0       	ldi	r20, 0x00	; 0
    1c26:	50 e0       	ldi	r21, 0x00	; 0
    1c28:	a9 01       	movw	r20, r18
    1c2a:	33 27       	eor	r19, r19
    1c2c:	22 27       	eor	r18, r18
    1c2e:	26 2b       	or	r18, r22
    1c30:	37 2b       	or	r19, r23
    1c32:	48 2b       	or	r20, r24
    1c34:	59 2b       	or	r21, r25
    1c36:	63 81       	ldd	r22, Z+3	; 0x03
    1c38:	70 e0       	ldi	r23, 0x00	; 0
    1c3a:	80 e0       	ldi	r24, 0x00	; 0
    1c3c:	90 e0       	ldi	r25, 0x00	; 0
    1c3e:	96 2f       	mov	r25, r22
    1c40:	88 27       	eor	r24, r24
    1c42:	77 27       	eor	r23, r23
    1c44:	66 27       	eor	r22, r22
    1c46:	62 2b       	or	r22, r18
    1c48:	73 2b       	or	r23, r19
    1c4a:	84 2b       	or	r24, r20
    1c4c:	95 2b       	or	r25, r21
    1c4e:	f6 01       	movw	r30, r12
    1c50:	62 8b       	std	Z+18, r22	; 0x12
    1c52:	73 8b       	std	Z+19, r23	; 0x13
    1c54:	84 8b       	std	Z+20, r24	; 0x14
    1c56:	95 8b       	std	Z+21, r25	; 0x15
    1c58:	14 96       	adiw	r26, 0x04	; 4
    1c5a:	fe 01       	movw	r30, r28
    1c5c:	ea 0f       	add	r30, r26
    1c5e:	fb 1f       	adc	r31, r27
    1c60:	61 81       	ldd	r22, Z+1	; 0x01
    1c62:	70 e0       	ldi	r23, 0x00	; 0
    1c64:	80 e0       	ldi	r24, 0x00	; 0
    1c66:	90 e0       	ldi	r25, 0x00	; 0
    1c68:	98 2f       	mov	r25, r24
    1c6a:	87 2f       	mov	r24, r23
    1c6c:	76 2f       	mov	r23, r22
    1c6e:	66 27       	eor	r22, r22
    1c70:	20 81       	ld	r18, Z
    1c72:	30 e0       	ldi	r19, 0x00	; 0
    1c74:	40 e0       	ldi	r20, 0x00	; 0
    1c76:	50 e0       	ldi	r21, 0x00	; 0
    1c78:	62 2b       	or	r22, r18
    1c7a:	73 2b       	or	r23, r19
    1c7c:	84 2b       	or	r24, r20
    1c7e:	95 2b       	or	r25, r21
    1c80:	22 81       	ldd	r18, Z+2	; 0x02
    1c82:	30 e0       	ldi	r19, 0x00	; 0
    1c84:	40 e0       	ldi	r20, 0x00	; 0
    1c86:	50 e0       	ldi	r21, 0x00	; 0
    1c88:	a9 01       	movw	r20, r18
    1c8a:	33 27       	eor	r19, r19
    1c8c:	22 27       	eor	r18, r18
    1c8e:	26 2b       	or	r18, r22
    1c90:	37 2b       	or	r19, r23
    1c92:	48 2b       	or	r20, r24
    1c94:	59 2b       	or	r21, r25
    1c96:	63 81       	ldd	r22, Z+3	; 0x03
    1c98:	70 e0       	ldi	r23, 0x00	; 0
    1c9a:	80 e0       	ldi	r24, 0x00	; 0
    1c9c:	90 e0       	ldi	r25, 0x00	; 0
    1c9e:	96 2f       	mov	r25, r22
    1ca0:	88 27       	eor	r24, r24
    1ca2:	77 27       	eor	r23, r23
    1ca4:	66 27       	eor	r22, r22
    1ca6:	62 2b       	or	r22, r18
    1ca8:	73 2b       	or	r23, r19
    1caa:	84 2b       	or	r24, r20
    1cac:	95 2b       	or	r25, r21
    1cae:	f6 01       	movw	r30, r12
    1cb0:	66 8b       	std	Z+22, r22	; 0x16
    1cb2:	77 8b       	std	Z+23, r23	; 0x17
    1cb4:	80 8f       	std	Z+24, r24	; 0x18
    1cb6:	91 8f       	std	Z+25, r25	; 0x19
    1cb8:	bd 01       	movw	r22, r26
    1cba:	6c 5f       	subi	r22, 0xFC	; 252
    1cbc:	7f 4f       	sbci	r23, 0xFF	; 255
    1cbe:	fe 01       	movw	r30, r28
    1cc0:	e6 0f       	add	r30, r22
    1cc2:	f7 1f       	adc	r31, r23
    1cc4:	21 81       	ldd	r18, Z+1	; 0x01
    1cc6:	30 e0       	ldi	r19, 0x00	; 0
    1cc8:	40 e0       	ldi	r20, 0x00	; 0
    1cca:	50 e0       	ldi	r21, 0x00	; 0
    1ccc:	54 2f       	mov	r21, r20
    1cce:	43 2f       	mov	r20, r19
    1cd0:	32 2f       	mov	r19, r18
    1cd2:	22 27       	eor	r18, r18
    1cd4:	82 81       	ldd	r24, Z+2	; 0x02
    1cd6:	90 e0       	ldi	r25, 0x00	; 0
    1cd8:	a0 e0       	ldi	r26, 0x00	; 0
    1cda:	b0 e0       	ldi	r27, 0x00	; 0
    1cdc:	dc 01       	movw	r26, r24
    1cde:	99 27       	eor	r25, r25
    1ce0:	88 27       	eor	r24, r24
    1ce2:	28 2b       	or	r18, r24
    1ce4:	39 2b       	or	r19, r25
    1ce6:	4a 2b       	or	r20, r26
    1ce8:	5b 2b       	or	r21, r27
    1cea:	e0 80       	ld	r14, Z
    1cec:	ff 24       	eor	r15, r15
    1cee:	00 e0       	ldi	r16, 0x00	; 0
    1cf0:	10 e0       	ldi	r17, 0x00	; 0
    1cf2:	2e 29       	or	r18, r14
    1cf4:	3f 29       	or	r19, r15
    1cf6:	40 2b       	or	r20, r16
    1cf8:	51 2b       	or	r21, r17
    1cfa:	83 81       	ldd	r24, Z+3	; 0x03
    1cfc:	90 e0       	ldi	r25, 0x00	; 0
    1cfe:	a0 e0       	ldi	r26, 0x00	; 0
    1d00:	b0 e0       	ldi	r27, 0x00	; 0
    1d02:	b8 2f       	mov	r27, r24
    1d04:	aa 27       	eor	r26, r26
    1d06:	99 27       	eor	r25, r25
    1d08:	88 27       	eor	r24, r24
    1d0a:	28 2b       	or	r18, r24
    1d0c:	39 2b       	or	r19, r25
    1d0e:	4a 2b       	or	r20, r26
    1d10:	5b 2b       	or	r21, r27
    1d12:	f6 01       	movw	r30, r12
    1d14:	22 8f       	std	Z+26, r18	; 0x1a
    1d16:	33 8f       	std	Z+27, r19	; 0x1b
    1d18:	44 8f       	std	Z+28, r20	; 0x1c
    1d1a:	55 8f       	std	Z+29, r21	; 0x1d
    1d1c:	6c 5f       	subi	r22, 0xFC	; 252
    1d1e:	7f 4f       	sbci	r23, 0xFF	; 255
    1d20:	fe 01       	movw	r30, r28
    1d22:	e6 0f       	add	r30, r22
    1d24:	f7 1f       	adc	r31, r23
    1d26:	21 81       	ldd	r18, Z+1	; 0x01
    1d28:	30 e0       	ldi	r19, 0x00	; 0
    1d2a:	40 e0       	ldi	r20, 0x00	; 0
    1d2c:	50 e0       	ldi	r21, 0x00	; 0
    1d2e:	54 2f       	mov	r21, r20
    1d30:	43 2f       	mov	r20, r19
    1d32:	32 2f       	mov	r19, r18
    1d34:	22 27       	eor	r18, r18
    1d36:	82 81       	ldd	r24, Z+2	; 0x02
    1d38:	90 e0       	ldi	r25, 0x00	; 0
    1d3a:	a0 e0       	ldi	r26, 0x00	; 0
    1d3c:	b0 e0       	ldi	r27, 0x00	; 0
    1d3e:	dc 01       	movw	r26, r24
    1d40:	99 27       	eor	r25, r25
    1d42:	88 27       	eor	r24, r24
    1d44:	28 2b       	or	r18, r24
    1d46:	39 2b       	or	r19, r25
    1d48:	4a 2b       	or	r20, r26
    1d4a:	5b 2b       	or	r21, r27
    1d4c:	80 81       	ld	r24, Z
    1d4e:	90 e0       	ldi	r25, 0x00	; 0
    1d50:	a0 e0       	ldi	r26, 0x00	; 0
    1d52:	b0 e0       	ldi	r27, 0x00	; 0
    1d54:	28 2b       	or	r18, r24
    1d56:	39 2b       	or	r19, r25
    1d58:	4a 2b       	or	r20, r26
    1d5a:	5b 2b       	or	r21, r27
    1d5c:	83 81       	ldd	r24, Z+3	; 0x03
    1d5e:	90 e0       	ldi	r25, 0x00	; 0
    1d60:	a0 e0       	ldi	r26, 0x00	; 0
    1d62:	b0 e0       	ldi	r27, 0x00	; 0
    1d64:	b8 2f       	mov	r27, r24
    1d66:	aa 27       	eor	r26, r26
    1d68:	99 27       	eor	r25, r25
    1d6a:	88 27       	eor	r24, r24
    1d6c:	28 2b       	or	r18, r24
    1d6e:	39 2b       	or	r19, r25
    1d70:	4a 2b       	or	r20, r26
    1d72:	5b 2b       	or	r21, r27
    1d74:	f6 01       	movw	r30, r12
    1d76:	26 8f       	std	Z+30, r18	; 0x1e
    1d78:	37 8f       	std	Z+31, r19	; 0x1f
    1d7a:	40 a3       	std	Z+32, r20	; 0x20
    1d7c:	51 a3       	std	Z+33, r21	; 0x21
    1d7e:	6c 5f       	subi	r22, 0xFC	; 252
    1d80:	7f 4f       	sbci	r23, 0xFF	; 255
    1d82:	fe 01       	movw	r30, r28
    1d84:	e6 0f       	add	r30, r22
    1d86:	f7 1f       	adc	r31, r23
    1d88:	21 81       	ldd	r18, Z+1	; 0x01
    1d8a:	30 e0       	ldi	r19, 0x00	; 0
    1d8c:	40 e0       	ldi	r20, 0x00	; 0
    1d8e:	50 e0       	ldi	r21, 0x00	; 0
    1d90:	54 2f       	mov	r21, r20
    1d92:	43 2f       	mov	r20, r19
    1d94:	32 2f       	mov	r19, r18
    1d96:	22 27       	eor	r18, r18
    1d98:	82 81       	ldd	r24, Z+2	; 0x02
    1d9a:	90 e0       	ldi	r25, 0x00	; 0
    1d9c:	a0 e0       	ldi	r26, 0x00	; 0
    1d9e:	b0 e0       	ldi	r27, 0x00	; 0
    1da0:	dc 01       	movw	r26, r24
    1da2:	99 27       	eor	r25, r25
    1da4:	88 27       	eor	r24, r24
    1da6:	28 2b       	or	r18, r24
    1da8:	39 2b       	or	r19, r25
    1daa:	4a 2b       	or	r20, r26
    1dac:	5b 2b       	or	r21, r27
    1dae:	80 81       	ld	r24, Z
    1db0:	90 e0       	ldi	r25, 0x00	; 0
    1db2:	a0 e0       	ldi	r26, 0x00	; 0
    1db4:	b0 e0       	ldi	r27, 0x00	; 0
    1db6:	28 2b       	or	r18, r24
    1db8:	39 2b       	or	r19, r25
    1dba:	4a 2b       	or	r20, r26
    1dbc:	5b 2b       	or	r21, r27
    1dbe:	83 81       	ldd	r24, Z+3	; 0x03
    1dc0:	90 e0       	ldi	r25, 0x00	; 0
    1dc2:	a0 e0       	ldi	r26, 0x00	; 0
    1dc4:	b0 e0       	ldi	r27, 0x00	; 0
    1dc6:	b8 2f       	mov	r27, r24
    1dc8:	aa 27       	eor	r26, r26
    1dca:	99 27       	eor	r25, r25
    1dcc:	88 27       	eor	r24, r24
    1dce:	28 2b       	or	r18, r24
    1dd0:	39 2b       	or	r19, r25
    1dd2:	4a 2b       	or	r20, r26
    1dd4:	5b 2b       	or	r21, r27
    1dd6:	f6 01       	movw	r30, r12
    1dd8:	22 a3       	std	Z+34, r18	; 0x22
    1dda:	33 a3       	std	Z+35, r19	; 0x23
    1ddc:	44 a3       	std	Z+36, r20	; 0x24
    1dde:	55 a3       	std	Z+37, r21	; 0x25
    1de0:	6c 5f       	subi	r22, 0xFC	; 252
    1de2:	7f 4f       	sbci	r23, 0xFF	; 255
    1de4:	fe 01       	movw	r30, r28
    1de6:	e6 0f       	add	r30, r22
    1de8:	f7 1f       	adc	r31, r23
    1dea:	21 81       	ldd	r18, Z+1	; 0x01
    1dec:	30 e0       	ldi	r19, 0x00	; 0
    1dee:	40 e0       	ldi	r20, 0x00	; 0
    1df0:	50 e0       	ldi	r21, 0x00	; 0
    1df2:	54 2f       	mov	r21, r20
    1df4:	43 2f       	mov	r20, r19
    1df6:	32 2f       	mov	r19, r18
    1df8:	22 27       	eor	r18, r18
    1dfa:	82 81       	ldd	r24, Z+2	; 0x02
    1dfc:	90 e0       	ldi	r25, 0x00	; 0
    1dfe:	a0 e0       	ldi	r26, 0x00	; 0
    1e00:	b0 e0       	ldi	r27, 0x00	; 0
    1e02:	dc 01       	movw	r26, r24
    1e04:	99 27       	eor	r25, r25
    1e06:	88 27       	eor	r24, r24
    1e08:	28 2b       	or	r18, r24
    1e0a:	39 2b       	or	r19, r25
    1e0c:	4a 2b       	or	r20, r26
    1e0e:	5b 2b       	or	r21, r27
    1e10:	80 81       	ld	r24, Z
    1e12:	90 e0       	ldi	r25, 0x00	; 0
    1e14:	a0 e0       	ldi	r26, 0x00	; 0
    1e16:	b0 e0       	ldi	r27, 0x00	; 0
    1e18:	28 2b       	or	r18, r24
    1e1a:	39 2b       	or	r19, r25
    1e1c:	4a 2b       	or	r20, r26
    1e1e:	5b 2b       	or	r21, r27
    1e20:	83 81       	ldd	r24, Z+3	; 0x03
    1e22:	90 e0       	ldi	r25, 0x00	; 0
    1e24:	a0 e0       	ldi	r26, 0x00	; 0
    1e26:	b0 e0       	ldi	r27, 0x00	; 0
    1e28:	b8 2f       	mov	r27, r24
    1e2a:	aa 27       	eor	r26, r26
    1e2c:	99 27       	eor	r25, r25
    1e2e:	88 27       	eor	r24, r24
    1e30:	28 2b       	or	r18, r24
    1e32:	39 2b       	or	r19, r25
    1e34:	4a 2b       	or	r20, r26
    1e36:	5b 2b       	or	r21, r27
    1e38:	f6 01       	movw	r30, r12
    1e3a:	26 a3       	std	Z+38, r18	; 0x26
    1e3c:	37 a3       	std	Z+39, r19	; 0x27
    1e3e:	40 a7       	std	Z+40, r20	; 0x28
    1e40:	51 a7       	std	Z+41, r21	; 0x29
    1e42:	db 01       	movw	r26, r22
    1e44:	14 96       	adiw	r26, 0x04	; 4
    1e46:	fe 01       	movw	r30, r28
    1e48:	ea 0f       	add	r30, r26
    1e4a:	fb 1f       	adc	r31, r27
    1e4c:	61 81       	ldd	r22, Z+1	; 0x01
    1e4e:	70 e0       	ldi	r23, 0x00	; 0
    1e50:	80 e0       	ldi	r24, 0x00	; 0
    1e52:	90 e0       	ldi	r25, 0x00	; 0
    1e54:	98 2f       	mov	r25, r24
    1e56:	87 2f       	mov	r24, r23
    1e58:	76 2f       	mov	r23, r22
    1e5a:	66 27       	eor	r22, r22
    1e5c:	20 81       	ld	r18, Z
    1e5e:	30 e0       	ldi	r19, 0x00	; 0
    1e60:	40 e0       	ldi	r20, 0x00	; 0
    1e62:	50 e0       	ldi	r21, 0x00	; 0
    1e64:	62 2b       	or	r22, r18
    1e66:	73 2b       	or	r23, r19
    1e68:	84 2b       	or	r24, r20
    1e6a:	95 2b       	or	r25, r21
    1e6c:	22 81       	ldd	r18, Z+2	; 0x02
    1e6e:	30 e0       	ldi	r19, 0x00	; 0
    1e70:	40 e0       	ldi	r20, 0x00	; 0
    1e72:	50 e0       	ldi	r21, 0x00	; 0
    1e74:	a9 01       	movw	r20, r18
    1e76:	33 27       	eor	r19, r19
    1e78:	22 27       	eor	r18, r18
    1e7a:	26 2b       	or	r18, r22
    1e7c:	37 2b       	or	r19, r23
    1e7e:	48 2b       	or	r20, r24
    1e80:	59 2b       	or	r21, r25
    1e82:	63 81       	ldd	r22, Z+3	; 0x03
    1e84:	70 e0       	ldi	r23, 0x00	; 0
    1e86:	80 e0       	ldi	r24, 0x00	; 0
    1e88:	90 e0       	ldi	r25, 0x00	; 0
    1e8a:	96 2f       	mov	r25, r22
    1e8c:	88 27       	eor	r24, r24
    1e8e:	77 27       	eor	r23, r23
    1e90:	66 27       	eor	r22, r22
    1e92:	62 2b       	or	r22, r18
    1e94:	73 2b       	or	r23, r19
    1e96:	84 2b       	or	r24, r20
    1e98:	95 2b       	or	r25, r21
    1e9a:	f6 01       	movw	r30, r12
    1e9c:	62 a7       	std	Z+42, r22	; 0x2a
    1e9e:	73 a7       	std	Z+43, r23	; 0x2b
    1ea0:	84 a7       	std	Z+44, r24	; 0x2c
    1ea2:	95 a7       	std	Z+45, r25	; 0x2d
    1ea4:	14 96       	adiw	r26, 0x04	; 4
    1ea6:	ca 0f       	add	r28, r26
    1ea8:	db 1f       	adc	r29, r27
    1eaa:	69 81       	ldd	r22, Y+1	; 0x01
    1eac:	70 e0       	ldi	r23, 0x00	; 0
    1eae:	80 e0       	ldi	r24, 0x00	; 0
    1eb0:	90 e0       	ldi	r25, 0x00	; 0
    1eb2:	98 2f       	mov	r25, r24
    1eb4:	87 2f       	mov	r24, r23
    1eb6:	76 2f       	mov	r23, r22
    1eb8:	66 27       	eor	r22, r22
    1eba:	28 81       	ld	r18, Y
    1ebc:	30 e0       	ldi	r19, 0x00	; 0
    1ebe:	40 e0       	ldi	r20, 0x00	; 0
    1ec0:	50 e0       	ldi	r21, 0x00	; 0
    1ec2:	62 2b       	or	r22, r18
    1ec4:	73 2b       	or	r23, r19
    1ec6:	84 2b       	or	r24, r20
    1ec8:	95 2b       	or	r25, r21
    1eca:	2a 81       	ldd	r18, Y+2	; 0x02
    1ecc:	30 e0       	ldi	r19, 0x00	; 0
    1ece:	40 e0       	ldi	r20, 0x00	; 0
    1ed0:	50 e0       	ldi	r21, 0x00	; 0
    1ed2:	a9 01       	movw	r20, r18
    1ed4:	33 27       	eor	r19, r19
    1ed6:	22 27       	eor	r18, r18
    1ed8:	26 2b       	or	r18, r22
    1eda:	37 2b       	or	r19, r23
    1edc:	48 2b       	or	r20, r24
    1ede:	59 2b       	or	r21, r25
    1ee0:	6b 81       	ldd	r22, Y+3	; 0x03
    1ee2:	70 e0       	ldi	r23, 0x00	; 0
    1ee4:	80 e0       	ldi	r24, 0x00	; 0
    1ee6:	90 e0       	ldi	r25, 0x00	; 0
    1ee8:	96 2f       	mov	r25, r22
    1eea:	88 27       	eor	r24, r24
    1eec:	77 27       	eor	r23, r23
    1eee:	66 27       	eor	r22, r22
    1ef0:	62 2b       	or	r22, r18
    1ef2:	73 2b       	or	r23, r19
    1ef4:	84 2b       	or	r24, r20
    1ef6:	95 2b       	or	r25, r21
    1ef8:	66 a7       	std	Z+46, r22	; 0x2e
    1efa:	77 a7       	std	Z+47, r23	; 0x2f
    1efc:	80 ab       	std	Z+48, r24	; 0x30
    1efe:	91 ab       	std	Z+49, r25	; 0x31
    1f00:	14 96       	adiw	r26, 0x04	; 4
    1f02:	cd 01       	movw	r24, r26
    1f04:	df 91       	pop	r29
    1f06:	cf 91       	pop	r28
    1f08:	1f 91       	pop	r17
    1f0a:	0f 91       	pop	r16
    1f0c:	ff 90       	pop	r15
    1f0e:	ef 90       	pop	r14
    1f10:	df 90       	pop	r13
    1f12:	cf 90       	pop	r12
    1f14:	08 95       	ret

00001f16 <_ZN5rover7Encoder7getTypeEv>:
    1f16:	8b e7       	ldi	r24, 0x7B	; 123
    1f18:	93 e0       	ldi	r25, 0x03	; 3
    1f1a:	08 95       	ret

00001f1c <_ZN5rover7Encoder6getMD5Ev>:
    1f1c:	89 e8       	ldi	r24, 0x89	; 137
    1f1e:	93 e0       	ldi	r25, 0x03	; 3
    1f20:	08 95       	ret

00001f22 <_ZN5rover12CondensedIMU11deserializeEPh>:
    1f22:	0f 93       	push	r16
    1f24:	1f 93       	push	r17
    1f26:	cf 93       	push	r28
    1f28:	df 93       	push	r29
    1f2a:	8c 01       	movw	r16, r24
    1f2c:	eb 01       	movw	r28, r22
    1f2e:	02 96       	adiw	r24, 0x02	; 2
    1f30:	0e 94 d6 0b 	call	0x17ac	; 0x17ac <_ZN8std_msgs6Header11deserializeEPh>
    1f34:	dc 01       	movw	r26, r24
    1f36:	fe 01       	movw	r30, r28
    1f38:	e8 0f       	add	r30, r24
    1f3a:	f9 1f       	adc	r31, r25
    1f3c:	61 81       	ldd	r22, Z+1	; 0x01
    1f3e:	70 e0       	ldi	r23, 0x00	; 0
    1f40:	80 e0       	ldi	r24, 0x00	; 0
    1f42:	90 e0       	ldi	r25, 0x00	; 0
    1f44:	98 2f       	mov	r25, r24
    1f46:	87 2f       	mov	r24, r23
    1f48:	76 2f       	mov	r23, r22
    1f4a:	66 27       	eor	r22, r22
    1f4c:	20 81       	ld	r18, Z
    1f4e:	30 e0       	ldi	r19, 0x00	; 0
    1f50:	40 e0       	ldi	r20, 0x00	; 0
    1f52:	50 e0       	ldi	r21, 0x00	; 0
    1f54:	62 2b       	or	r22, r18
    1f56:	73 2b       	or	r23, r19
    1f58:	84 2b       	or	r24, r20
    1f5a:	95 2b       	or	r25, r21
    1f5c:	22 81       	ldd	r18, Z+2	; 0x02
    1f5e:	30 e0       	ldi	r19, 0x00	; 0
    1f60:	40 e0       	ldi	r20, 0x00	; 0
    1f62:	50 e0       	ldi	r21, 0x00	; 0
    1f64:	a9 01       	movw	r20, r18
    1f66:	33 27       	eor	r19, r19
    1f68:	22 27       	eor	r18, r18
    1f6a:	26 2b       	or	r18, r22
    1f6c:	37 2b       	or	r19, r23
    1f6e:	48 2b       	or	r20, r24
    1f70:	59 2b       	or	r21, r25
    1f72:	63 81       	ldd	r22, Z+3	; 0x03
    1f74:	70 e0       	ldi	r23, 0x00	; 0
    1f76:	80 e0       	ldi	r24, 0x00	; 0
    1f78:	90 e0       	ldi	r25, 0x00	; 0
    1f7a:	96 2f       	mov	r25, r22
    1f7c:	88 27       	eor	r24, r24
    1f7e:	77 27       	eor	r23, r23
    1f80:	66 27       	eor	r22, r22
    1f82:	62 2b       	or	r22, r18
    1f84:	73 2b       	or	r23, r19
    1f86:	84 2b       	or	r24, r20
    1f88:	95 2b       	or	r25, r21
    1f8a:	f8 01       	movw	r30, r16
    1f8c:	62 8b       	std	Z+18, r22	; 0x12
    1f8e:	73 8b       	std	Z+19, r23	; 0x13
    1f90:	84 8b       	std	Z+20, r24	; 0x14
    1f92:	95 8b       	std	Z+21, r25	; 0x15
    1f94:	14 96       	adiw	r26, 0x04	; 4
    1f96:	fe 01       	movw	r30, r28
    1f98:	ea 0f       	add	r30, r26
    1f9a:	fb 1f       	adc	r31, r27
    1f9c:	61 81       	ldd	r22, Z+1	; 0x01
    1f9e:	70 e0       	ldi	r23, 0x00	; 0
    1fa0:	80 e0       	ldi	r24, 0x00	; 0
    1fa2:	90 e0       	ldi	r25, 0x00	; 0
    1fa4:	98 2f       	mov	r25, r24
    1fa6:	87 2f       	mov	r24, r23
    1fa8:	76 2f       	mov	r23, r22
    1faa:	66 27       	eor	r22, r22
    1fac:	20 81       	ld	r18, Z
    1fae:	30 e0       	ldi	r19, 0x00	; 0
    1fb0:	40 e0       	ldi	r20, 0x00	; 0
    1fb2:	50 e0       	ldi	r21, 0x00	; 0
    1fb4:	62 2b       	or	r22, r18
    1fb6:	73 2b       	or	r23, r19
    1fb8:	84 2b       	or	r24, r20
    1fba:	95 2b       	or	r25, r21
    1fbc:	22 81       	ldd	r18, Z+2	; 0x02
    1fbe:	30 e0       	ldi	r19, 0x00	; 0
    1fc0:	40 e0       	ldi	r20, 0x00	; 0
    1fc2:	50 e0       	ldi	r21, 0x00	; 0
    1fc4:	a9 01       	movw	r20, r18
    1fc6:	33 27       	eor	r19, r19
    1fc8:	22 27       	eor	r18, r18
    1fca:	26 2b       	or	r18, r22
    1fcc:	37 2b       	or	r19, r23
    1fce:	48 2b       	or	r20, r24
    1fd0:	59 2b       	or	r21, r25
    1fd2:	63 81       	ldd	r22, Z+3	; 0x03
    1fd4:	70 e0       	ldi	r23, 0x00	; 0
    1fd6:	80 e0       	ldi	r24, 0x00	; 0
    1fd8:	90 e0       	ldi	r25, 0x00	; 0
    1fda:	96 2f       	mov	r25, r22
    1fdc:	88 27       	eor	r24, r24
    1fde:	77 27       	eor	r23, r23
    1fe0:	66 27       	eor	r22, r22
    1fe2:	62 2b       	or	r22, r18
    1fe4:	73 2b       	or	r23, r19
    1fe6:	84 2b       	or	r24, r20
    1fe8:	95 2b       	or	r25, r21
    1fea:	f8 01       	movw	r30, r16
    1fec:	66 8b       	std	Z+22, r22	; 0x16
    1fee:	77 8b       	std	Z+23, r23	; 0x17
    1ff0:	80 8f       	std	Z+24, r24	; 0x18
    1ff2:	91 8f       	std	Z+25, r25	; 0x19
    1ff4:	14 96       	adiw	r26, 0x04	; 4
    1ff6:	fe 01       	movw	r30, r28
    1ff8:	ea 0f       	add	r30, r26
    1ffa:	fb 1f       	adc	r31, r27
    1ffc:	61 81       	ldd	r22, Z+1	; 0x01
    1ffe:	70 e0       	ldi	r23, 0x00	; 0
    2000:	80 e0       	ldi	r24, 0x00	; 0
    2002:	90 e0       	ldi	r25, 0x00	; 0
    2004:	98 2f       	mov	r25, r24
    2006:	87 2f       	mov	r24, r23
    2008:	76 2f       	mov	r23, r22
    200a:	66 27       	eor	r22, r22
    200c:	20 81       	ld	r18, Z
    200e:	30 e0       	ldi	r19, 0x00	; 0
    2010:	40 e0       	ldi	r20, 0x00	; 0
    2012:	50 e0       	ldi	r21, 0x00	; 0
    2014:	62 2b       	or	r22, r18
    2016:	73 2b       	or	r23, r19
    2018:	84 2b       	or	r24, r20
    201a:	95 2b       	or	r25, r21
    201c:	22 81       	ldd	r18, Z+2	; 0x02
    201e:	30 e0       	ldi	r19, 0x00	; 0
    2020:	40 e0       	ldi	r20, 0x00	; 0
    2022:	50 e0       	ldi	r21, 0x00	; 0
    2024:	a9 01       	movw	r20, r18
    2026:	33 27       	eor	r19, r19
    2028:	22 27       	eor	r18, r18
    202a:	26 2b       	or	r18, r22
    202c:	37 2b       	or	r19, r23
    202e:	48 2b       	or	r20, r24
    2030:	59 2b       	or	r21, r25
    2032:	63 81       	ldd	r22, Z+3	; 0x03
    2034:	70 e0       	ldi	r23, 0x00	; 0
    2036:	80 e0       	ldi	r24, 0x00	; 0
    2038:	90 e0       	ldi	r25, 0x00	; 0
    203a:	96 2f       	mov	r25, r22
    203c:	88 27       	eor	r24, r24
    203e:	77 27       	eor	r23, r23
    2040:	66 27       	eor	r22, r22
    2042:	62 2b       	or	r22, r18
    2044:	73 2b       	or	r23, r19
    2046:	84 2b       	or	r24, r20
    2048:	95 2b       	or	r25, r21
    204a:	f8 01       	movw	r30, r16
    204c:	62 8f       	std	Z+26, r22	; 0x1a
    204e:	73 8f       	std	Z+27, r23	; 0x1b
    2050:	84 8f       	std	Z+28, r24	; 0x1c
    2052:	95 8f       	std	Z+29, r25	; 0x1d
    2054:	14 96       	adiw	r26, 0x04	; 4
    2056:	fe 01       	movw	r30, r28
    2058:	ea 0f       	add	r30, r26
    205a:	fb 1f       	adc	r31, r27
    205c:	61 81       	ldd	r22, Z+1	; 0x01
    205e:	70 e0       	ldi	r23, 0x00	; 0
    2060:	80 e0       	ldi	r24, 0x00	; 0
    2062:	90 e0       	ldi	r25, 0x00	; 0
    2064:	98 2f       	mov	r25, r24
    2066:	87 2f       	mov	r24, r23
    2068:	76 2f       	mov	r23, r22
    206a:	66 27       	eor	r22, r22
    206c:	20 81       	ld	r18, Z
    206e:	30 e0       	ldi	r19, 0x00	; 0
    2070:	40 e0       	ldi	r20, 0x00	; 0
    2072:	50 e0       	ldi	r21, 0x00	; 0
    2074:	62 2b       	or	r22, r18
    2076:	73 2b       	or	r23, r19
    2078:	84 2b       	or	r24, r20
    207a:	95 2b       	or	r25, r21
    207c:	22 81       	ldd	r18, Z+2	; 0x02
    207e:	30 e0       	ldi	r19, 0x00	; 0
    2080:	40 e0       	ldi	r20, 0x00	; 0
    2082:	50 e0       	ldi	r21, 0x00	; 0
    2084:	a9 01       	movw	r20, r18
    2086:	33 27       	eor	r19, r19
    2088:	22 27       	eor	r18, r18
    208a:	26 2b       	or	r18, r22
    208c:	37 2b       	or	r19, r23
    208e:	48 2b       	or	r20, r24
    2090:	59 2b       	or	r21, r25
    2092:	63 81       	ldd	r22, Z+3	; 0x03
    2094:	70 e0       	ldi	r23, 0x00	; 0
    2096:	80 e0       	ldi	r24, 0x00	; 0
    2098:	90 e0       	ldi	r25, 0x00	; 0
    209a:	96 2f       	mov	r25, r22
    209c:	88 27       	eor	r24, r24
    209e:	77 27       	eor	r23, r23
    20a0:	66 27       	eor	r22, r22
    20a2:	62 2b       	or	r22, r18
    20a4:	73 2b       	or	r23, r19
    20a6:	84 2b       	or	r24, r20
    20a8:	95 2b       	or	r25, r21
    20aa:	f8 01       	movw	r30, r16
    20ac:	66 8f       	std	Z+30, r22	; 0x1e
    20ae:	77 8f       	std	Z+31, r23	; 0x1f
    20b0:	80 a3       	std	Z+32, r24	; 0x20
    20b2:	91 a3       	std	Z+33, r25	; 0x21
    20b4:	14 96       	adiw	r26, 0x04	; 4
    20b6:	fe 01       	movw	r30, r28
    20b8:	ea 0f       	add	r30, r26
    20ba:	fb 1f       	adc	r31, r27
    20bc:	61 81       	ldd	r22, Z+1	; 0x01
    20be:	70 e0       	ldi	r23, 0x00	; 0
    20c0:	80 e0       	ldi	r24, 0x00	; 0
    20c2:	90 e0       	ldi	r25, 0x00	; 0
    20c4:	98 2f       	mov	r25, r24
    20c6:	87 2f       	mov	r24, r23
    20c8:	76 2f       	mov	r23, r22
    20ca:	66 27       	eor	r22, r22
    20cc:	20 81       	ld	r18, Z
    20ce:	30 e0       	ldi	r19, 0x00	; 0
    20d0:	40 e0       	ldi	r20, 0x00	; 0
    20d2:	50 e0       	ldi	r21, 0x00	; 0
    20d4:	62 2b       	or	r22, r18
    20d6:	73 2b       	or	r23, r19
    20d8:	84 2b       	or	r24, r20
    20da:	95 2b       	or	r25, r21
    20dc:	22 81       	ldd	r18, Z+2	; 0x02
    20de:	30 e0       	ldi	r19, 0x00	; 0
    20e0:	40 e0       	ldi	r20, 0x00	; 0
    20e2:	50 e0       	ldi	r21, 0x00	; 0
    20e4:	a9 01       	movw	r20, r18
    20e6:	33 27       	eor	r19, r19
    20e8:	22 27       	eor	r18, r18
    20ea:	26 2b       	or	r18, r22
    20ec:	37 2b       	or	r19, r23
    20ee:	48 2b       	or	r20, r24
    20f0:	59 2b       	or	r21, r25
    20f2:	63 81       	ldd	r22, Z+3	; 0x03
    20f4:	70 e0       	ldi	r23, 0x00	; 0
    20f6:	80 e0       	ldi	r24, 0x00	; 0
    20f8:	90 e0       	ldi	r25, 0x00	; 0
    20fa:	96 2f       	mov	r25, r22
    20fc:	88 27       	eor	r24, r24
    20fe:	77 27       	eor	r23, r23
    2100:	66 27       	eor	r22, r22
    2102:	62 2b       	or	r22, r18
    2104:	73 2b       	or	r23, r19
    2106:	84 2b       	or	r24, r20
    2108:	95 2b       	or	r25, r21
    210a:	f8 01       	movw	r30, r16
    210c:	62 a3       	std	Z+34, r22	; 0x22
    210e:	73 a3       	std	Z+35, r23	; 0x23
    2110:	84 a3       	std	Z+36, r24	; 0x24
    2112:	95 a3       	std	Z+37, r25	; 0x25
    2114:	bd 01       	movw	r22, r26
    2116:	6c 5f       	subi	r22, 0xFC	; 252
    2118:	7f 4f       	sbci	r23, 0xFF	; 255
    211a:	fe 01       	movw	r30, r28
    211c:	e6 0f       	add	r30, r22
    211e:	f7 1f       	adc	r31, r23
    2120:	21 81       	ldd	r18, Z+1	; 0x01
    2122:	30 e0       	ldi	r19, 0x00	; 0
    2124:	40 e0       	ldi	r20, 0x00	; 0
    2126:	50 e0       	ldi	r21, 0x00	; 0
    2128:	54 2f       	mov	r21, r20
    212a:	43 2f       	mov	r20, r19
    212c:	32 2f       	mov	r19, r18
    212e:	22 27       	eor	r18, r18
    2130:	80 81       	ld	r24, Z
    2132:	90 e0       	ldi	r25, 0x00	; 0
    2134:	a0 e0       	ldi	r26, 0x00	; 0
    2136:	b0 e0       	ldi	r27, 0x00	; 0
    2138:	28 2b       	or	r18, r24
    213a:	39 2b       	or	r19, r25
    213c:	4a 2b       	or	r20, r26
    213e:	5b 2b       	or	r21, r27
    2140:	82 81       	ldd	r24, Z+2	; 0x02
    2142:	90 e0       	ldi	r25, 0x00	; 0
    2144:	a0 e0       	ldi	r26, 0x00	; 0
    2146:	b0 e0       	ldi	r27, 0x00	; 0
    2148:	dc 01       	movw	r26, r24
    214a:	99 27       	eor	r25, r25
    214c:	88 27       	eor	r24, r24
    214e:	82 2b       	or	r24, r18
    2150:	93 2b       	or	r25, r19
    2152:	a4 2b       	or	r26, r20
    2154:	b5 2b       	or	r27, r21
    2156:	23 81       	ldd	r18, Z+3	; 0x03
    2158:	30 e0       	ldi	r19, 0x00	; 0
    215a:	40 e0       	ldi	r20, 0x00	; 0
    215c:	50 e0       	ldi	r21, 0x00	; 0
    215e:	52 2f       	mov	r21, r18
    2160:	44 27       	eor	r20, r20
    2162:	33 27       	eor	r19, r19
    2164:	22 27       	eor	r18, r18
    2166:	28 2b       	or	r18, r24
    2168:	39 2b       	or	r19, r25
    216a:	4a 2b       	or	r20, r26
    216c:	5b 2b       	or	r21, r27
    216e:	f8 01       	movw	r30, r16
    2170:	26 a3       	std	Z+38, r18	; 0x26
    2172:	37 a3       	std	Z+39, r19	; 0x27
    2174:	40 a7       	std	Z+40, r20	; 0x28
    2176:	51 a7       	std	Z+41, r21	; 0x29
    2178:	db 01       	movw	r26, r22
    217a:	14 96       	adiw	r26, 0x04	; 4
    217c:	fe 01       	movw	r30, r28
    217e:	ea 0f       	add	r30, r26
    2180:	fb 1f       	adc	r31, r27
    2182:	61 81       	ldd	r22, Z+1	; 0x01
    2184:	70 e0       	ldi	r23, 0x00	; 0
    2186:	80 e0       	ldi	r24, 0x00	; 0
    2188:	90 e0       	ldi	r25, 0x00	; 0
    218a:	98 2f       	mov	r25, r24
    218c:	87 2f       	mov	r24, r23
    218e:	76 2f       	mov	r23, r22
    2190:	66 27       	eor	r22, r22
    2192:	20 81       	ld	r18, Z
    2194:	30 e0       	ldi	r19, 0x00	; 0
    2196:	40 e0       	ldi	r20, 0x00	; 0
    2198:	50 e0       	ldi	r21, 0x00	; 0
    219a:	62 2b       	or	r22, r18
    219c:	73 2b       	or	r23, r19
    219e:	84 2b       	or	r24, r20
    21a0:	95 2b       	or	r25, r21
    21a2:	22 81       	ldd	r18, Z+2	; 0x02
    21a4:	30 e0       	ldi	r19, 0x00	; 0
    21a6:	40 e0       	ldi	r20, 0x00	; 0
    21a8:	50 e0       	ldi	r21, 0x00	; 0
    21aa:	a9 01       	movw	r20, r18
    21ac:	33 27       	eor	r19, r19
    21ae:	22 27       	eor	r18, r18
    21b0:	26 2b       	or	r18, r22
    21b2:	37 2b       	or	r19, r23
    21b4:	48 2b       	or	r20, r24
    21b6:	59 2b       	or	r21, r25
    21b8:	63 81       	ldd	r22, Z+3	; 0x03
    21ba:	70 e0       	ldi	r23, 0x00	; 0
    21bc:	80 e0       	ldi	r24, 0x00	; 0
    21be:	90 e0       	ldi	r25, 0x00	; 0
    21c0:	96 2f       	mov	r25, r22
    21c2:	88 27       	eor	r24, r24
    21c4:	77 27       	eor	r23, r23
    21c6:	66 27       	eor	r22, r22
    21c8:	62 2b       	or	r22, r18
    21ca:	73 2b       	or	r23, r19
    21cc:	84 2b       	or	r24, r20
    21ce:	95 2b       	or	r25, r21
    21d0:	f8 01       	movw	r30, r16
    21d2:	62 a7       	std	Z+42, r22	; 0x2a
    21d4:	73 a7       	std	Z+43, r23	; 0x2b
    21d6:	84 a7       	std	Z+44, r24	; 0x2c
    21d8:	95 a7       	std	Z+45, r25	; 0x2d
    21da:	14 96       	adiw	r26, 0x04	; 4
    21dc:	fe 01       	movw	r30, r28
    21de:	ea 0f       	add	r30, r26
    21e0:	fb 1f       	adc	r31, r27
    21e2:	61 81       	ldd	r22, Z+1	; 0x01
    21e4:	70 e0       	ldi	r23, 0x00	; 0
    21e6:	80 e0       	ldi	r24, 0x00	; 0
    21e8:	90 e0       	ldi	r25, 0x00	; 0
    21ea:	98 2f       	mov	r25, r24
    21ec:	87 2f       	mov	r24, r23
    21ee:	76 2f       	mov	r23, r22
    21f0:	66 27       	eor	r22, r22
    21f2:	20 81       	ld	r18, Z
    21f4:	30 e0       	ldi	r19, 0x00	; 0
    21f6:	40 e0       	ldi	r20, 0x00	; 0
    21f8:	50 e0       	ldi	r21, 0x00	; 0
    21fa:	62 2b       	or	r22, r18
    21fc:	73 2b       	or	r23, r19
    21fe:	84 2b       	or	r24, r20
    2200:	95 2b       	or	r25, r21
    2202:	22 81       	ldd	r18, Z+2	; 0x02
    2204:	30 e0       	ldi	r19, 0x00	; 0
    2206:	40 e0       	ldi	r20, 0x00	; 0
    2208:	50 e0       	ldi	r21, 0x00	; 0
    220a:	a9 01       	movw	r20, r18
    220c:	33 27       	eor	r19, r19
    220e:	22 27       	eor	r18, r18
    2210:	26 2b       	or	r18, r22
    2212:	37 2b       	or	r19, r23
    2214:	48 2b       	or	r20, r24
    2216:	59 2b       	or	r21, r25
    2218:	63 81       	ldd	r22, Z+3	; 0x03
    221a:	70 e0       	ldi	r23, 0x00	; 0
    221c:	80 e0       	ldi	r24, 0x00	; 0
    221e:	90 e0       	ldi	r25, 0x00	; 0
    2220:	96 2f       	mov	r25, r22
    2222:	88 27       	eor	r24, r24
    2224:	77 27       	eor	r23, r23
    2226:	66 27       	eor	r22, r22
    2228:	62 2b       	or	r22, r18
    222a:	73 2b       	or	r23, r19
    222c:	84 2b       	or	r24, r20
    222e:	95 2b       	or	r25, r21
    2230:	f8 01       	movw	r30, r16
    2232:	66 a7       	std	Z+46, r22	; 0x2e
    2234:	77 a7       	std	Z+47, r23	; 0x2f
    2236:	80 ab       	std	Z+48, r24	; 0x30
    2238:	91 ab       	std	Z+49, r25	; 0x31
    223a:	14 96       	adiw	r26, 0x04	; 4
    223c:	fe 01       	movw	r30, r28
    223e:	ea 0f       	add	r30, r26
    2240:	fb 1f       	adc	r31, r27
    2242:	61 81       	ldd	r22, Z+1	; 0x01
    2244:	70 e0       	ldi	r23, 0x00	; 0
    2246:	80 e0       	ldi	r24, 0x00	; 0
    2248:	90 e0       	ldi	r25, 0x00	; 0
    224a:	98 2f       	mov	r25, r24
    224c:	87 2f       	mov	r24, r23
    224e:	76 2f       	mov	r23, r22
    2250:	66 27       	eor	r22, r22
    2252:	20 81       	ld	r18, Z
    2254:	30 e0       	ldi	r19, 0x00	; 0
    2256:	40 e0       	ldi	r20, 0x00	; 0
    2258:	50 e0       	ldi	r21, 0x00	; 0
    225a:	62 2b       	or	r22, r18
    225c:	73 2b       	or	r23, r19
    225e:	84 2b       	or	r24, r20
    2260:	95 2b       	or	r25, r21
    2262:	22 81       	ldd	r18, Z+2	; 0x02
    2264:	30 e0       	ldi	r19, 0x00	; 0
    2266:	40 e0       	ldi	r20, 0x00	; 0
    2268:	50 e0       	ldi	r21, 0x00	; 0
    226a:	a9 01       	movw	r20, r18
    226c:	33 27       	eor	r19, r19
    226e:	22 27       	eor	r18, r18
    2270:	26 2b       	or	r18, r22
    2272:	37 2b       	or	r19, r23
    2274:	48 2b       	or	r20, r24
    2276:	59 2b       	or	r21, r25
    2278:	63 81       	ldd	r22, Z+3	; 0x03
    227a:	70 e0       	ldi	r23, 0x00	; 0
    227c:	80 e0       	ldi	r24, 0x00	; 0
    227e:	90 e0       	ldi	r25, 0x00	; 0
    2280:	96 2f       	mov	r25, r22
    2282:	88 27       	eor	r24, r24
    2284:	77 27       	eor	r23, r23
    2286:	66 27       	eor	r22, r22
    2288:	62 2b       	or	r22, r18
    228a:	73 2b       	or	r23, r19
    228c:	84 2b       	or	r24, r20
    228e:	95 2b       	or	r25, r21
    2290:	f8 01       	movw	r30, r16
    2292:	62 ab       	std	Z+50, r22	; 0x32
    2294:	73 ab       	std	Z+51, r23	; 0x33
    2296:	84 ab       	std	Z+52, r24	; 0x34
    2298:	95 ab       	std	Z+53, r25	; 0x35
    229a:	14 96       	adiw	r26, 0x04	; 4
    229c:	ca 0f       	add	r28, r26
    229e:	db 1f       	adc	r29, r27
    22a0:	69 81       	ldd	r22, Y+1	; 0x01
    22a2:	70 e0       	ldi	r23, 0x00	; 0
    22a4:	80 e0       	ldi	r24, 0x00	; 0
    22a6:	90 e0       	ldi	r25, 0x00	; 0
    22a8:	98 2f       	mov	r25, r24
    22aa:	87 2f       	mov	r24, r23
    22ac:	76 2f       	mov	r23, r22
    22ae:	66 27       	eor	r22, r22
    22b0:	28 81       	ld	r18, Y
    22b2:	30 e0       	ldi	r19, 0x00	; 0
    22b4:	40 e0       	ldi	r20, 0x00	; 0
    22b6:	50 e0       	ldi	r21, 0x00	; 0
    22b8:	62 2b       	or	r22, r18
    22ba:	73 2b       	or	r23, r19
    22bc:	84 2b       	or	r24, r20
    22be:	95 2b       	or	r25, r21
    22c0:	2a 81       	ldd	r18, Y+2	; 0x02
    22c2:	30 e0       	ldi	r19, 0x00	; 0
    22c4:	40 e0       	ldi	r20, 0x00	; 0
    22c6:	50 e0       	ldi	r21, 0x00	; 0
    22c8:	a9 01       	movw	r20, r18
    22ca:	33 27       	eor	r19, r19
    22cc:	22 27       	eor	r18, r18
    22ce:	26 2b       	or	r18, r22
    22d0:	37 2b       	or	r19, r23
    22d2:	48 2b       	or	r20, r24
    22d4:	59 2b       	or	r21, r25
    22d6:	6b 81       	ldd	r22, Y+3	; 0x03
    22d8:	70 e0       	ldi	r23, 0x00	; 0
    22da:	80 e0       	ldi	r24, 0x00	; 0
    22dc:	90 e0       	ldi	r25, 0x00	; 0
    22de:	96 2f       	mov	r25, r22
    22e0:	88 27       	eor	r24, r24
    22e2:	77 27       	eor	r23, r23
    22e4:	66 27       	eor	r22, r22
    22e6:	62 2b       	or	r22, r18
    22e8:	73 2b       	or	r23, r19
    22ea:	84 2b       	or	r24, r20
    22ec:	95 2b       	or	r25, r21
    22ee:	66 ab       	std	Z+54, r22	; 0x36
    22f0:	77 ab       	std	Z+55, r23	; 0x37
    22f2:	80 af       	std	Z+56, r24	; 0x38
    22f4:	91 af       	std	Z+57, r25	; 0x39
    22f6:	14 96       	adiw	r26, 0x04	; 4
    22f8:	cd 01       	movw	r24, r26
    22fa:	df 91       	pop	r29
    22fc:	cf 91       	pop	r28
    22fe:	1f 91       	pop	r17
    2300:	0f 91       	pop	r16
    2302:	08 95       	ret

00002304 <_ZN5rover12CondensedIMU7getTypeEv>:
    2304:	8a ea       	ldi	r24, 0xAA	; 170
    2306:	93 e0       	ldi	r25, 0x03	; 3
    2308:	08 95       	ret

0000230a <_ZN5rover12CondensedIMU6getMD5Ev>:
    230a:	8d eb       	ldi	r24, 0xBD	; 189
    230c:	93 e0       	ldi	r25, 0x03	; 3
    230e:	08 95       	ret

00002310 <_ZN8std_msgs19MultiArrayDimension11deserializeEPh>:
    2310:	8f 92       	push	r8
    2312:	9f 92       	push	r9
    2314:	af 92       	push	r10
    2316:	bf 92       	push	r11
    2318:	cf 92       	push	r12
    231a:	df 92       	push	r13
    231c:	ef 92       	push	r14
    231e:	ff 92       	push	r15
    2320:	0f 93       	push	r16
    2322:	1f 93       	push	r17
    2324:	cf 93       	push	r28
    2326:	df 93       	push	r29
    2328:	fc 01       	movw	r30, r24
    232a:	4b 01       	movw	r8, r22
    232c:	db 01       	movw	r26, r22
    232e:	ed 90       	ld	r14, X+
    2330:	fd 90       	ld	r15, X+
    2332:	0d 91       	ld	r16, X+
    2334:	1c 91       	ld	r17, X
    2336:	6d 5f       	subi	r22, 0xFD	; 253
    2338:	7f 4f       	sbci	r23, 0xFF	; 255
    233a:	db 01       	movw	r26, r22
    233c:	84 e0       	ldi	r24, 0x04	; 4
    233e:	90 e0       	ldi	r25, 0x00	; 0
    2340:	24 e0       	ldi	r18, 0x04	; 4
    2342:	a2 2e       	mov	r10, r18
    2344:	b1 2c       	mov	r11, r1
    2346:	c1 2c       	mov	r12, r1
    2348:	d1 2c       	mov	r13, r1
    234a:	ae 0c       	add	r10, r14
    234c:	bf 1c       	adc	r11, r15
    234e:	c0 1e       	adc	r12, r16
    2350:	d1 1e       	adc	r13, r17
    2352:	05 c0       	rjmp	.+10     	; 0x235e <_ZN8std_msgs19MultiArrayDimension11deserializeEPh+0x4e>
    2354:	11 96       	adiw	r26, 0x01	; 1
    2356:	2c 91       	ld	r18, X
    2358:	11 97       	sbiw	r26, 0x01	; 1
    235a:	2d 93       	st	X+, r18
    235c:	01 96       	adiw	r24, 0x01	; 1
    235e:	9c 01       	movw	r18, r24
    2360:	40 e0       	ldi	r20, 0x00	; 0
    2362:	50 e0       	ldi	r21, 0x00	; 0
    2364:	2a 15       	cp	r18, r10
    2366:	3b 05       	cpc	r19, r11
    2368:	4c 05       	cpc	r20, r12
    236a:	5d 05       	cpc	r21, r13
    236c:	98 f3       	brcs	.-26     	; 0x2354 <_ZN8std_msgs19MultiArrayDimension11deserializeEPh+0x44>
    236e:	87 01       	movw	r16, r14
    2370:	0c 5f       	subi	r16, 0xFC	; 252
    2372:	1f 4f       	sbci	r17, 0xFF	; 255
    2374:	e4 01       	movw	r28, r8
    2376:	c0 0f       	add	r28, r16
    2378:	d1 1f       	adc	r29, r17
    237a:	de 01       	movw	r26, r28
    237c:	11 97       	sbiw	r26, 0x01	; 1
    237e:	1c 92       	st	X, r1
    2380:	73 83       	std	Z+3, r23	; 0x03
    2382:	62 83       	std	Z+2, r22	; 0x02
    2384:	88 81       	ld	r24, Y
    2386:	90 e0       	ldi	r25, 0x00	; 0
    2388:	a0 e0       	ldi	r26, 0x00	; 0
    238a:	b0 e0       	ldi	r27, 0x00	; 0
    238c:	24 81       	ldd	r18, Z+4	; 0x04
    238e:	35 81       	ldd	r19, Z+5	; 0x05
    2390:	46 81       	ldd	r20, Z+6	; 0x06
    2392:	57 81       	ldd	r21, Z+7	; 0x07
    2394:	82 2b       	or	r24, r18
    2396:	93 2b       	or	r25, r19
    2398:	a4 2b       	or	r26, r20
    239a:	b5 2b       	or	r27, r21
    239c:	84 83       	std	Z+4, r24	; 0x04
    239e:	95 83       	std	Z+5, r25	; 0x05
    23a0:	a6 83       	std	Z+6, r26	; 0x06
    23a2:	b7 83       	std	Z+7, r27	; 0x07
    23a4:	29 81       	ldd	r18, Y+1	; 0x01
    23a6:	30 e0       	ldi	r19, 0x00	; 0
    23a8:	40 e0       	ldi	r20, 0x00	; 0
    23aa:	50 e0       	ldi	r21, 0x00	; 0
    23ac:	54 2f       	mov	r21, r20
    23ae:	43 2f       	mov	r20, r19
    23b0:	32 2f       	mov	r19, r18
    23b2:	22 27       	eor	r18, r18
    23b4:	28 2b       	or	r18, r24
    23b6:	39 2b       	or	r19, r25
    23b8:	4a 2b       	or	r20, r26
    23ba:	5b 2b       	or	r21, r27
    23bc:	24 83       	std	Z+4, r18	; 0x04
    23be:	35 83       	std	Z+5, r19	; 0x05
    23c0:	46 83       	std	Z+6, r20	; 0x06
    23c2:	57 83       	std	Z+7, r21	; 0x07
    23c4:	8a 81       	ldd	r24, Y+2	; 0x02
    23c6:	90 e0       	ldi	r25, 0x00	; 0
    23c8:	a0 e0       	ldi	r26, 0x00	; 0
    23ca:	b0 e0       	ldi	r27, 0x00	; 0
    23cc:	dc 01       	movw	r26, r24
    23ce:	99 27       	eor	r25, r25
    23d0:	88 27       	eor	r24, r24
    23d2:	82 2b       	or	r24, r18
    23d4:	93 2b       	or	r25, r19
    23d6:	a4 2b       	or	r26, r20
    23d8:	b5 2b       	or	r27, r21
    23da:	84 83       	std	Z+4, r24	; 0x04
    23dc:	95 83       	std	Z+5, r25	; 0x05
    23de:	a6 83       	std	Z+6, r26	; 0x06
    23e0:	b7 83       	std	Z+7, r27	; 0x07
    23e2:	2b 81       	ldd	r18, Y+3	; 0x03
    23e4:	30 e0       	ldi	r19, 0x00	; 0
    23e6:	40 e0       	ldi	r20, 0x00	; 0
    23e8:	50 e0       	ldi	r21, 0x00	; 0
    23ea:	52 2f       	mov	r21, r18
    23ec:	44 27       	eor	r20, r20
    23ee:	33 27       	eor	r19, r19
    23f0:	22 27       	eor	r18, r18
    23f2:	28 2b       	or	r18, r24
    23f4:	39 2b       	or	r19, r25
    23f6:	4a 2b       	or	r20, r26
    23f8:	5b 2b       	or	r21, r27
    23fa:	24 83       	std	Z+4, r18	; 0x04
    23fc:	35 83       	std	Z+5, r19	; 0x05
    23fe:	46 83       	std	Z+6, r20	; 0x06
    2400:	57 83       	std	Z+7, r21	; 0x07
    2402:	b8 01       	movw	r22, r16
    2404:	6c 5f       	subi	r22, 0xFC	; 252
    2406:	7f 4f       	sbci	r23, 0xFF	; 255
    2408:	e4 01       	movw	r28, r8
    240a:	c6 0f       	add	r28, r22
    240c:	d7 1f       	adc	r29, r23
    240e:	88 81       	ld	r24, Y
    2410:	90 e0       	ldi	r25, 0x00	; 0
    2412:	a0 e0       	ldi	r26, 0x00	; 0
    2414:	b0 e0       	ldi	r27, 0x00	; 0
    2416:	20 85       	ldd	r18, Z+8	; 0x08
    2418:	31 85       	ldd	r19, Z+9	; 0x09
    241a:	42 85       	ldd	r20, Z+10	; 0x0a
    241c:	53 85       	ldd	r21, Z+11	; 0x0b
    241e:	82 2b       	or	r24, r18
    2420:	93 2b       	or	r25, r19
    2422:	a4 2b       	or	r26, r20
    2424:	b5 2b       	or	r27, r21
    2426:	80 87       	std	Z+8, r24	; 0x08
    2428:	91 87       	std	Z+9, r25	; 0x09
    242a:	a2 87       	std	Z+10, r26	; 0x0a
    242c:	b3 87       	std	Z+11, r27	; 0x0b
    242e:	29 81       	ldd	r18, Y+1	; 0x01
    2430:	30 e0       	ldi	r19, 0x00	; 0
    2432:	40 e0       	ldi	r20, 0x00	; 0
    2434:	50 e0       	ldi	r21, 0x00	; 0
    2436:	54 2f       	mov	r21, r20
    2438:	43 2f       	mov	r20, r19
    243a:	32 2f       	mov	r19, r18
    243c:	22 27       	eor	r18, r18
    243e:	28 2b       	or	r18, r24
    2440:	39 2b       	or	r19, r25
    2442:	4a 2b       	or	r20, r26
    2444:	5b 2b       	or	r21, r27
    2446:	20 87       	std	Z+8, r18	; 0x08
    2448:	31 87       	std	Z+9, r19	; 0x09
    244a:	42 87       	std	Z+10, r20	; 0x0a
    244c:	53 87       	std	Z+11, r21	; 0x0b
    244e:	8a 81       	ldd	r24, Y+2	; 0x02
    2450:	90 e0       	ldi	r25, 0x00	; 0
    2452:	a0 e0       	ldi	r26, 0x00	; 0
    2454:	b0 e0       	ldi	r27, 0x00	; 0
    2456:	dc 01       	movw	r26, r24
    2458:	99 27       	eor	r25, r25
    245a:	88 27       	eor	r24, r24
    245c:	82 2b       	or	r24, r18
    245e:	93 2b       	or	r25, r19
    2460:	a4 2b       	or	r26, r20
    2462:	b5 2b       	or	r27, r21
    2464:	80 87       	std	Z+8, r24	; 0x08
    2466:	91 87       	std	Z+9, r25	; 0x09
    2468:	a2 87       	std	Z+10, r26	; 0x0a
    246a:	b3 87       	std	Z+11, r27	; 0x0b
    246c:	2b 81       	ldd	r18, Y+3	; 0x03
    246e:	30 e0       	ldi	r19, 0x00	; 0
    2470:	40 e0       	ldi	r20, 0x00	; 0
    2472:	50 e0       	ldi	r21, 0x00	; 0
    2474:	52 2f       	mov	r21, r18
    2476:	44 27       	eor	r20, r20
    2478:	33 27       	eor	r19, r19
    247a:	22 27       	eor	r18, r18
    247c:	28 2b       	or	r18, r24
    247e:	39 2b       	or	r19, r25
    2480:	4a 2b       	or	r20, r26
    2482:	5b 2b       	or	r21, r27
    2484:	20 87       	std	Z+8, r18	; 0x08
    2486:	31 87       	std	Z+9, r19	; 0x09
    2488:	42 87       	std	Z+10, r20	; 0x0a
    248a:	53 87       	std	Z+11, r21	; 0x0b
    248c:	6c 5f       	subi	r22, 0xFC	; 252
    248e:	7f 4f       	sbci	r23, 0xFF	; 255
    2490:	cb 01       	movw	r24, r22
    2492:	df 91       	pop	r29
    2494:	cf 91       	pop	r28
    2496:	1f 91       	pop	r17
    2498:	0f 91       	pop	r16
    249a:	ff 90       	pop	r15
    249c:	ef 90       	pop	r14
    249e:	df 90       	pop	r13
    24a0:	cf 90       	pop	r12
    24a2:	bf 90       	pop	r11
    24a4:	af 90       	pop	r10
    24a6:	9f 90       	pop	r9
    24a8:	8f 90       	pop	r8
    24aa:	08 95       	ret

000024ac <_ZN8std_msgs19MultiArrayDimension7getTypeEv>:
    24ac:	8e ed       	ldi	r24, 0xDE	; 222
    24ae:	93 e0       	ldi	r25, 0x03	; 3
    24b0:	08 95       	ret

000024b2 <_ZN8std_msgs19MultiArrayDimension6getMD5Ev>:
    24b2:	8b ef       	ldi	r24, 0xFB	; 251
    24b4:	93 e0       	ldi	r25, 0x03	; 3
    24b6:	08 95       	ret

000024b8 <_ZNK8std_msgs16MultiArrayLayout9serializeEPh>:
    24b8:	cf 92       	push	r12
    24ba:	df 92       	push	r13
    24bc:	ef 92       	push	r14
    24be:	ff 92       	push	r15
    24c0:	0f 93       	push	r16
    24c2:	1f 93       	push	r17
    24c4:	df 93       	push	r29
    24c6:	cf 93       	push	r28
    24c8:	0f 92       	push	r0
    24ca:	0f 92       	push	r0
    24cc:	cd b7       	in	r28, 0x3d	; 61
    24ce:	de b7       	in	r29, 0x3e	; 62
    24d0:	6c 01       	movw	r12, r24
    24d2:	8b 01       	movw	r16, r22
    24d4:	dc 01       	movw	r26, r24
    24d6:	12 96       	adiw	r26, 0x02	; 2
    24d8:	8c 91       	ld	r24, X
    24da:	12 97       	sbiw	r26, 0x02	; 2
    24dc:	fb 01       	movw	r30, r22
    24de:	80 83       	st	Z, r24
    24e0:	11 82       	std	Z+1, r1	; 0x01
    24e2:	12 82       	std	Z+2, r1	; 0x02
    24e4:	13 82       	std	Z+3, r1	; 0x03
    24e6:	20 e0       	ldi	r18, 0x00	; 0
    24e8:	34 e0       	ldi	r19, 0x04	; 4
    24ea:	e3 2e       	mov	r14, r19
    24ec:	f1 2c       	mov	r15, r1
    24ee:	3c e0       	ldi	r19, 0x0C	; 12
    24f0:	18 c0       	rjmp	.+48     	; 0x2522 <_ZNK8std_msgs16MultiArrayLayout9serializeEPh+0x6a>
    24f2:	23 9f       	mul	r18, r19
    24f4:	a0 01       	movw	r20, r0
    24f6:	11 24       	eor	r1, r1
    24f8:	f6 01       	movw	r30, r12
    24fa:	87 85       	ldd	r24, Z+15	; 0x0f
    24fc:	90 89       	ldd	r25, Z+16	; 0x10
    24fe:	84 0f       	add	r24, r20
    2500:	95 1f       	adc	r25, r21
    2502:	fc 01       	movw	r30, r24
    2504:	40 81       	ld	r20, Z
    2506:	51 81       	ldd	r21, Z+1	; 0x01
    2508:	fa 01       	movw	r30, r20
    250a:	40 81       	ld	r20, Z
    250c:	51 81       	ldd	r21, Z+1	; 0x01
    250e:	bd 01       	movw	r22, r26
    2510:	29 83       	std	Y+1, r18	; 0x01
    2512:	3a 83       	std	Y+2, r19	; 0x02
    2514:	fa 01       	movw	r30, r20
    2516:	19 95       	eicall
    2518:	e8 0e       	add	r14, r24
    251a:	f9 1e       	adc	r15, r25
    251c:	29 81       	ldd	r18, Y+1	; 0x01
    251e:	2f 5f       	subi	r18, 0xFF	; 255
    2520:	3a 81       	ldd	r19, Y+2	; 0x02
    2522:	d6 01       	movw	r26, r12
    2524:	12 96       	adiw	r26, 0x02	; 2
    2526:	8c 91       	ld	r24, X
    2528:	d8 01       	movw	r26, r16
    252a:	ae 0d       	add	r26, r14
    252c:	bf 1d       	adc	r27, r15
    252e:	28 17       	cp	r18, r24
    2530:	00 f3       	brcs	.-64     	; 0x24f2 <_ZNK8std_msgs16MultiArrayLayout9serializeEPh+0x3a>
    2532:	f6 01       	movw	r30, r12
    2534:	81 89       	ldd	r24, Z+17	; 0x11
    2536:	8c 93       	st	X, r24
    2538:	82 89       	ldd	r24, Z+18	; 0x12
    253a:	11 96       	adiw	r26, 0x01	; 1
    253c:	8c 93       	st	X, r24
    253e:	11 97       	sbiw	r26, 0x01	; 1
    2540:	83 89       	ldd	r24, Z+19	; 0x13
    2542:	12 96       	adiw	r26, 0x02	; 2
    2544:	8c 93       	st	X, r24
    2546:	12 97       	sbiw	r26, 0x02	; 2
    2548:	84 89       	ldd	r24, Z+20	; 0x14
    254a:	13 96       	adiw	r26, 0x03	; 3
    254c:	8c 93       	st	X, r24
    254e:	13 97       	sbiw	r26, 0x03	; 3
    2550:	97 01       	movw	r18, r14
    2552:	2c 5f       	subi	r18, 0xFC	; 252
    2554:	3f 4f       	sbci	r19, 0xFF	; 255
    2556:	c9 01       	movw	r24, r18
    2558:	0f 90       	pop	r0
    255a:	0f 90       	pop	r0
    255c:	cf 91       	pop	r28
    255e:	df 91       	pop	r29
    2560:	1f 91       	pop	r17
    2562:	0f 91       	pop	r16
    2564:	ff 90       	pop	r15
    2566:	ef 90       	pop	r14
    2568:	df 90       	pop	r13
    256a:	cf 90       	pop	r12
    256c:	08 95       	ret

0000256e <_ZN8std_msgs16MultiArrayLayout7getTypeEv>:
    256e:	8c e1       	ldi	r24, 0x1C	; 28
    2570:	94 e0       	ldi	r25, 0x04	; 4
    2572:	08 95       	ret

00002574 <_ZN8std_msgs16MultiArrayLayout6getMD5Ev>:
    2574:	86 e3       	ldi	r24, 0x36	; 54
    2576:	94 e0       	ldi	r25, 0x04	; 4
    2578:	08 95       	ret

0000257a <_ZNK8std_msgs15UInt8MultiArray9serializeEPh>:
    257a:	0f 93       	push	r16
    257c:	1f 93       	push	r17
    257e:	cf 93       	push	r28
    2580:	df 93       	push	r29
    2582:	8c 01       	movw	r16, r24
    2584:	eb 01       	movw	r28, r22
    2586:	02 96       	adiw	r24, 0x02	; 2
    2588:	0e 94 5c 12 	call	0x24b8	; 0x24b8 <_ZNK8std_msgs16MultiArrayLayout9serializeEPh>
    258c:	fe 01       	movw	r30, r28
    258e:	e8 0f       	add	r30, r24
    2590:	f9 1f       	adc	r31, r25
    2592:	d8 01       	movw	r26, r16
    2594:	57 96       	adiw	r26, 0x17	; 23
    2596:	2c 91       	ld	r18, X
    2598:	57 97       	sbiw	r26, 0x17	; 23
    259a:	20 83       	st	Z, r18
    259c:	9c 01       	movw	r18, r24
    259e:	2f 5f       	subi	r18, 0xFF	; 255
    25a0:	3f 4f       	sbci	r19, 0xFF	; 255
    25a2:	fe 01       	movw	r30, r28
    25a4:	e2 0f       	add	r30, r18
    25a6:	f3 1f       	adc	r31, r19
    25a8:	10 82       	st	Z, r1
    25aa:	2f 5f       	subi	r18, 0xFF	; 255
    25ac:	3f 4f       	sbci	r19, 0xFF	; 255
    25ae:	fe 01       	movw	r30, r28
    25b0:	e2 0f       	add	r30, r18
    25b2:	f3 1f       	adc	r31, r19
    25b4:	10 82       	st	Z, r1
    25b6:	2f 5f       	subi	r18, 0xFF	; 255
    25b8:	3f 4f       	sbci	r19, 0xFF	; 255
    25ba:	fe 01       	movw	r30, r28
    25bc:	e2 0f       	add	r30, r18
    25be:	f3 1f       	adc	r31, r19
    25c0:	10 82       	st	Z, r1
    25c2:	2f 5f       	subi	r18, 0xFF	; 255
    25c4:	3f 4f       	sbci	r19, 0xFF	; 255
    25c6:	fc 01       	movw	r30, r24
    25c8:	34 96       	adiw	r30, 0x04	; 4
    25ca:	ec 0f       	add	r30, r28
    25cc:	fd 1f       	adc	r31, r29
    25ce:	80 e0       	ldi	r24, 0x00	; 0
    25d0:	0a c0       	rjmp	.+20     	; 0x25e6 <_ZNK8std_msgs15UInt8MultiArray9serializeEPh+0x6c>
    25d2:	e8 01       	movw	r28, r16
    25d4:	a9 8d       	ldd	r26, Y+25	; 0x19
    25d6:	ba 8d       	ldd	r27, Y+26	; 0x1a
    25d8:	a8 0f       	add	r26, r24
    25da:	b1 1d       	adc	r27, r1
    25dc:	9c 91       	ld	r25, X
    25de:	91 93       	st	Z+, r25
    25e0:	2f 5f       	subi	r18, 0xFF	; 255
    25e2:	3f 4f       	sbci	r19, 0xFF	; 255
    25e4:	8f 5f       	subi	r24, 0xFF	; 255
    25e6:	d8 01       	movw	r26, r16
    25e8:	57 96       	adiw	r26, 0x17	; 23
    25ea:	9c 91       	ld	r25, X
    25ec:	57 97       	sbiw	r26, 0x17	; 23
    25ee:	89 17       	cp	r24, r25
    25f0:	80 f3       	brcs	.-32     	; 0x25d2 <_ZNK8std_msgs15UInt8MultiArray9serializeEPh+0x58>
    25f2:	c9 01       	movw	r24, r18
    25f4:	df 91       	pop	r29
    25f6:	cf 91       	pop	r28
    25f8:	1f 91       	pop	r17
    25fa:	0f 91       	pop	r16
    25fc:	08 95       	ret

000025fe <_ZN8std_msgs15UInt8MultiArray7getTypeEv>:
    25fe:	87 e5       	ldi	r24, 0x57	; 87
    2600:	94 e0       	ldi	r25, 0x04	; 4
    2602:	08 95       	ret

00002604 <_ZN8std_msgs15UInt8MultiArray6getMD5Ev>:
    2604:	80 e7       	ldi	r24, 0x70	; 112
    2606:	94 e0       	ldi	r25, 0x04	; 4
    2608:	08 95       	ret

0000260a <_Z8enablecbRKN5rover7EnabledE>:
    260a:	fc 01       	movw	r30, r24
    260c:	82 81       	ldd	r24, Z+2	; 0x02
    260e:	80 93 e4 07 	sts	0x07E4, r24
    2612:	83 81       	ldd	r24, Z+3	; 0x03
    2614:	80 93 70 0d 	sts	0x0D70, r24
    2618:	08 95       	ret

0000261a <_ZN3ros11NodeHandle_I15ArduinoHardwareLi25ELi25ELi512ELi512EE9connectedEv>:
    261a:	fc 01       	movw	r30, r24
    261c:	ee 57       	subi	r30, 0x7E	; 126
    261e:	fb 4f       	sbci	r31, 0xFB	; 251
    2620:	80 81       	ld	r24, Z
    2622:	08 95       	ret

00002624 <_ZN3ros10SubscriberIN8std_msgs15UInt8MultiArrayEE15getEndpointTypeEv>:
    2624:	fc 01       	movw	r30, r24
    2626:	83 a1       	ldd	r24, Z+35	; 0x23
    2628:	94 a1       	ldd	r25, Z+36	; 0x24
    262a:	08 95       	ret

0000262c <_ZN3ros10SubscriberIN8std_msgs15UInt8MultiArrayEE10getMsgTypeEv>:
    262c:	87 e5       	ldi	r24, 0x57	; 87
    262e:	94 e0       	ldi	r25, 0x04	; 4
    2630:	08 95       	ret

00002632 <_ZN3ros10SubscriberIN8std_msgs15UInt8MultiArrayEE9getMsgMD5Ev>:
    2632:	80 e7       	ldi	r24, 0x70	; 112
    2634:	94 e0       	ldi	r25, 0x04	; 4
    2636:	08 95       	ret

00002638 <_ZN3ros10SubscriberIN5rover7EnabledEE8callbackEPh>:
    2638:	0f 93       	push	r16
    263a:	1f 93       	push	r17
    263c:	cf 93       	push	r28
    263e:	df 93       	push	r29
    2640:	ec 01       	movw	r28, r24
    2642:	8c 01       	movw	r16, r24
    2644:	0a 5f       	subi	r16, 0xFA	; 250
    2646:	1f 4f       	sbci	r17, 0xFF	; 255
    2648:	c8 01       	movw	r24, r16
    264a:	0e 94 c5 0b 	call	0x178a	; 0x178a <_ZN5rover7Enabled11deserializeEPh>
    264e:	ea 85       	ldd	r30, Y+10	; 0x0a
    2650:	fb 85       	ldd	r31, Y+11	; 0x0b
    2652:	c8 01       	movw	r24, r16
    2654:	19 95       	eicall
    2656:	df 91       	pop	r29
    2658:	cf 91       	pop	r28
    265a:	1f 91       	pop	r17
    265c:	0f 91       	pop	r16
    265e:	08 95       	ret

00002660 <_ZN3ros10SubscriberIN5rover7EnabledEE15getEndpointTypeEv>:
    2660:	fc 01       	movw	r30, r24
    2662:	84 85       	ldd	r24, Z+12	; 0x0c
    2664:	95 85       	ldd	r25, Z+13	; 0x0d
    2666:	08 95       	ret

00002668 <_ZN3ros10SubscriberIN5rover7EnabledEE10getMsgTypeEv>:
    2668:	8e eb       	ldi	r24, 0xBE	; 190
    266a:	92 e0       	ldi	r25, 0x02	; 2
    266c:	08 95       	ret

0000266e <_ZN3ros10SubscriberIN5rover7EnabledEE9getMsgMD5Ev>:
    266e:	8c ec       	ldi	r24, 0xCC	; 204
    2670:	92 e0       	ldi	r25, 0x02	; 2
    2672:	08 95       	ret

00002674 <_ZN3ros10SubscriberIN5rover6MotorsEE8callbackEPh>:
    2674:	0f 93       	push	r16
    2676:	1f 93       	push	r17
    2678:	cf 93       	push	r28
    267a:	df 93       	push	r29
    267c:	ec 01       	movw	r28, r24
    267e:	8c 01       	movw	r16, r24
    2680:	0a 5f       	subi	r16, 0xFA	; 250
    2682:	1f 4f       	sbci	r17, 0xFF	; 255
    2684:	c8 01       	movw	r24, r16
    2686:	0e 94 f1 0c 	call	0x19e2	; 0x19e2 <_ZN5rover6Motors11deserializeEPh>
    268a:	e8 a1       	ldd	r30, Y+32	; 0x20
    268c:	f9 a1       	ldd	r31, Y+33	; 0x21
    268e:	c8 01       	movw	r24, r16
    2690:	19 95       	eicall
    2692:	df 91       	pop	r29
    2694:	cf 91       	pop	r28
    2696:	1f 91       	pop	r17
    2698:	0f 91       	pop	r16
    269a:	08 95       	ret

0000269c <_ZN3ros10SubscriberIN5rover6MotorsEE15getEndpointTypeEv>:
    269c:	fc 01       	movw	r30, r24
    269e:	82 a1       	ldd	r24, Z+34	; 0x22
    26a0:	93 a1       	ldd	r25, Z+35	; 0x23
    26a2:	08 95       	ret

000026a4 <_ZN3ros10SubscriberIN5rover6MotorsEE10getMsgTypeEv>:
    26a4:	8e e1       	ldi	r24, 0x1E	; 30
    26a6:	93 e0       	ldi	r25, 0x03	; 3
    26a8:	08 95       	ret

000026aa <_ZN3ros10SubscriberIN5rover6MotorsEE9getMsgMD5Ev>:
    26aa:	8b e2       	ldi	r24, 0x2B	; 43
    26ac:	93 e0       	ldi	r25, 0x03	; 3
    26ae:	08 95       	ret

000026b0 <_ZNK14rosserial_msgs9TopicInfo9serializeEPh>:
    26b0:	8f 92       	push	r8
    26b2:	9f 92       	push	r9
    26b4:	af 92       	push	r10
    26b6:	bf 92       	push	r11
    26b8:	cf 92       	push	r12
    26ba:	df 92       	push	r13
    26bc:	ef 92       	push	r14
    26be:	ff 92       	push	r15
    26c0:	0f 93       	push	r16
    26c2:	1f 93       	push	r17
    26c4:	cf 93       	push	r28
    26c6:	df 93       	push	r29
    26c8:	ec 01       	movw	r28, r24
    26ca:	8b 01       	movw	r16, r22
    26cc:	8a 81       	ldd	r24, Y+2	; 0x02
    26ce:	db 01       	movw	r26, r22
    26d0:	8c 93       	st	X, r24
    26d2:	8b 81       	ldd	r24, Y+3	; 0x03
    26d4:	11 96       	adiw	r26, 0x01	; 1
    26d6:	8c 93       	st	X, r24
    26d8:	6c 81       	ldd	r22, Y+4	; 0x04
    26da:	7d 81       	ldd	r23, Y+5	; 0x05
    26dc:	db 01       	movw	r26, r22
    26de:	fd 01       	movw	r30, r26
    26e0:	01 90       	ld	r0, Z+
    26e2:	00 20       	and	r0, r0
    26e4:	e9 f7       	brne	.-6      	; 0x26e0 <_ZNK14rosserial_msgs9TopicInfo9serializeEPh+0x30>
    26e6:	31 97       	sbiw	r30, 0x01	; 1
    26e8:	ea 1b       	sub	r30, r26
    26ea:	fb 0b       	sbc	r31, r27
    26ec:	9f 01       	movw	r18, r30
    26ee:	40 e0       	ldi	r20, 0x00	; 0
    26f0:	50 e0       	ldi	r21, 0x00	; 0
    26f2:	d8 01       	movw	r26, r16
    26f4:	12 96       	adiw	r26, 0x02	; 2
    26f6:	2d 93       	st	X+, r18
    26f8:	3d 93       	st	X+, r19
    26fa:	4d 93       	st	X+, r20
    26fc:	5c 93       	st	X, r21
    26fe:	15 97       	sbiw	r26, 0x05	; 5
    2700:	98 01       	movw	r18, r16
    2702:	2a 5f       	subi	r18, 0xFA	; 250
    2704:	3f 4f       	sbci	r19, 0xFF	; 255
    2706:	c9 01       	movw	r24, r18
    2708:	af 01       	movw	r20, r30
    270a:	0e 94 4f 3d 	call	0x7a9e	; 0x7a9e <memcpy>
    270e:	f8 01       	movw	r30, r16
    2710:	22 81       	ldd	r18, Z+2	; 0x02
    2712:	33 81       	ldd	r19, Z+3	; 0x03
    2714:	66 e0       	ldi	r22, 0x06	; 6
    2716:	e6 2e       	mov	r14, r22
    2718:	f1 2c       	mov	r15, r1
    271a:	e2 0e       	add	r14, r18
    271c:	f3 1e       	adc	r15, r19
    271e:	e0 0e       	add	r14, r16
    2720:	f1 1e       	adc	r15, r17
    2722:	6e 81       	ldd	r22, Y+6	; 0x06
    2724:	7f 81       	ldd	r23, Y+7	; 0x07
    2726:	db 01       	movw	r26, r22
    2728:	fd 01       	movw	r30, r26
    272a:	01 90       	ld	r0, Z+
    272c:	00 20       	and	r0, r0
    272e:	e9 f7       	brne	.-6      	; 0x272a <_ZNK14rosserial_msgs9TopicInfo9serializeEPh+0x7a>
    2730:	31 97       	sbiw	r30, 0x01	; 1
    2732:	ea 1b       	sub	r30, r26
    2734:	fb 0b       	sbc	r31, r27
    2736:	5f 01       	movw	r10, r30
    2738:	cc 24       	eor	r12, r12
    273a:	dd 24       	eor	r13, r13
    273c:	d7 01       	movw	r26, r14
    273e:	ad 92       	st	X+, r10
    2740:	bd 92       	st	X+, r11
    2742:	cd 92       	st	X+, r12
    2744:	dc 92       	st	X, r13
    2746:	13 97       	sbiw	r26, 0x03	; 3
    2748:	5a e0       	ldi	r21, 0x0A	; 10
    274a:	c5 2e       	mov	r12, r21
    274c:	d1 2c       	mov	r13, r1
    274e:	c2 0e       	add	r12, r18
    2750:	d3 1e       	adc	r13, r19
    2752:	98 01       	movw	r18, r16
    2754:	2c 0d       	add	r18, r12
    2756:	3d 1d       	adc	r19, r13
    2758:	c9 01       	movw	r24, r18
    275a:	af 01       	movw	r20, r30
    275c:	0e 94 4f 3d 	call	0x7a9e	; 0x7a9e <memcpy>
    2760:	f7 01       	movw	r30, r14
    2762:	20 81       	ld	r18, Z
    2764:	31 81       	ldd	r19, Z+1	; 0x01
    2766:	2c 0d       	add	r18, r12
    2768:	3d 1d       	adc	r19, r13
    276a:	68 01       	movw	r12, r16
    276c:	c2 0e       	add	r12, r18
    276e:	d3 1e       	adc	r13, r19
    2770:	68 85       	ldd	r22, Y+8	; 0x08
    2772:	79 85       	ldd	r23, Y+9	; 0x09
    2774:	db 01       	movw	r26, r22
    2776:	fd 01       	movw	r30, r26
    2778:	01 90       	ld	r0, Z+
    277a:	00 20       	and	r0, r0
    277c:	e9 f7       	brne	.-6      	; 0x2778 <_ZNK14rosserial_msgs9TopicInfo9serializeEPh+0xc8>
    277e:	31 97       	sbiw	r30, 0x01	; 1
    2780:	ea 1b       	sub	r30, r26
    2782:	fb 0b       	sbc	r31, r27
    2784:	4f 01       	movw	r8, r30
    2786:	aa 24       	eor	r10, r10
    2788:	bb 24       	eor	r11, r11
    278a:	d6 01       	movw	r26, r12
    278c:	8d 92       	st	X+, r8
    278e:	9d 92       	st	X+, r9
    2790:	ad 92       	st	X+, r10
    2792:	bc 92       	st	X, r11
    2794:	13 97       	sbiw	r26, 0x03	; 3
    2796:	44 e0       	ldi	r20, 0x04	; 4
    2798:	e4 2e       	mov	r14, r20
    279a:	f1 2c       	mov	r15, r1
    279c:	e2 0e       	add	r14, r18
    279e:	f3 1e       	adc	r15, r19
    27a0:	98 01       	movw	r18, r16
    27a2:	2e 0d       	add	r18, r14
    27a4:	3f 1d       	adc	r19, r15
    27a6:	c9 01       	movw	r24, r18
    27a8:	af 01       	movw	r20, r30
    27aa:	0e 94 4f 3d 	call	0x7a9e	; 0x7a9e <memcpy>
    27ae:	f6 01       	movw	r30, r12
    27b0:	20 81       	ld	r18, Z
    27b2:	31 81       	ldd	r19, Z+1	; 0x01
    27b4:	2e 0d       	add	r18, r14
    27b6:	3f 1d       	adc	r19, r15
    27b8:	5a 85       	ldd	r21, Y+10	; 0x0a
    27ba:	4b 85       	ldd	r20, Y+11	; 0x0b
    27bc:	9c 85       	ldd	r25, Y+12	; 0x0c
    27be:	8d 85       	ldd	r24, Y+13	; 0x0d
    27c0:	f8 01       	movw	r30, r16
    27c2:	e2 0f       	add	r30, r18
    27c4:	f3 1f       	adc	r31, r19
    27c6:	50 83       	st	Z, r21
    27c8:	41 83       	std	Z+1, r20	; 0x01
    27ca:	92 83       	std	Z+2, r25	; 0x02
    27cc:	83 83       	std	Z+3, r24	; 0x03
    27ce:	2c 5f       	subi	r18, 0xFC	; 252
    27d0:	3f 4f       	sbci	r19, 0xFF	; 255
    27d2:	c9 01       	movw	r24, r18
    27d4:	df 91       	pop	r29
    27d6:	cf 91       	pop	r28
    27d8:	1f 91       	pop	r17
    27da:	0f 91       	pop	r16
    27dc:	ff 90       	pop	r15
    27de:	ef 90       	pop	r14
    27e0:	df 90       	pop	r13
    27e2:	cf 90       	pop	r12
    27e4:	bf 90       	pop	r11
    27e6:	af 90       	pop	r10
    27e8:	9f 90       	pop	r9
    27ea:	8f 90       	pop	r8
    27ec:	08 95       	ret

000027ee <_ZNK14rosserial_msgs3Log9serializeEPh>:
    27ee:	cf 93       	push	r28
    27f0:	df 93       	push	r29
    27f2:	fc 01       	movw	r30, r24
    27f4:	eb 01       	movw	r28, r22
    27f6:	82 81       	ldd	r24, Z+2	; 0x02
    27f8:	88 83       	st	Y, r24
    27fa:	63 81       	ldd	r22, Z+3	; 0x03
    27fc:	74 81       	ldd	r23, Z+4	; 0x04
    27fe:	db 01       	movw	r26, r22
    2800:	fd 01       	movw	r30, r26
    2802:	01 90       	ld	r0, Z+
    2804:	00 20       	and	r0, r0
    2806:	e9 f7       	brne	.-6      	; 0x2802 <_ZNK14rosserial_msgs3Log9serializeEPh+0x14>
    2808:	31 97       	sbiw	r30, 0x01	; 1
    280a:	ea 1b       	sub	r30, r26
    280c:	fb 0b       	sbc	r31, r27
    280e:	cf 01       	movw	r24, r30
    2810:	a0 e0       	ldi	r26, 0x00	; 0
    2812:	b0 e0       	ldi	r27, 0x00	; 0
    2814:	89 83       	std	Y+1, r24	; 0x01
    2816:	9a 83       	std	Y+2, r25	; 0x02
    2818:	ab 83       	std	Y+3, r26	; 0x03
    281a:	bc 83       	std	Y+4, r27	; 0x04
    281c:	9e 01       	movw	r18, r28
    281e:	2b 5f       	subi	r18, 0xFB	; 251
    2820:	3f 4f       	sbci	r19, 0xFF	; 255
    2822:	c9 01       	movw	r24, r18
    2824:	af 01       	movw	r20, r30
    2826:	0e 94 4f 3d 	call	0x7a9e	; 0x7a9e <memcpy>
    282a:	29 81       	ldd	r18, Y+1	; 0x01
    282c:	3a 81       	ldd	r19, Y+2	; 0x02
    282e:	2b 5f       	subi	r18, 0xFB	; 251
    2830:	3f 4f       	sbci	r19, 0xFF	; 255
    2832:	c9 01       	movw	r24, r18
    2834:	df 91       	pop	r29
    2836:	cf 91       	pop	r28
    2838:	08 95       	ret

0000283a <_ZNK14rosserial_msgs20RequestParamResponse9serializeEPh>:
    283a:	6f 92       	push	r6
    283c:	7f 92       	push	r7
    283e:	8f 92       	push	r8
    2840:	9f 92       	push	r9
    2842:	af 92       	push	r10
    2844:	bf 92       	push	r11
    2846:	cf 92       	push	r12
    2848:	df 92       	push	r13
    284a:	ff 92       	push	r15
    284c:	0f 93       	push	r16
    284e:	1f 93       	push	r17
    2850:	cf 93       	push	r28
    2852:	df 93       	push	r29
    2854:	8c 01       	movw	r16, r24
    2856:	eb 01       	movw	r28, r22
    2858:	dc 01       	movw	r26, r24
    285a:	12 96       	adiw	r26, 0x02	; 2
    285c:	8c 91       	ld	r24, X
    285e:	12 97       	sbiw	r26, 0x02	; 2
    2860:	88 83       	st	Y, r24
    2862:	19 82       	std	Y+1, r1	; 0x01
    2864:	1a 82       	std	Y+2, r1	; 0x02
    2866:	1b 82       	std	Y+3, r1	; 0x03
    2868:	6b 01       	movw	r12, r22
    286a:	40 e0       	ldi	r20, 0x00	; 0
    286c:	24 e0       	ldi	r18, 0x04	; 4
    286e:	30 e0       	ldi	r19, 0x00	; 0
    2870:	21 c0       	rjmp	.+66     	; 0x28b4 <_ZNK14rosserial_msgs20RequestParamResponse9serializeEPh+0x7a>
    2872:	84 2f       	mov	r24, r20
    2874:	90 e0       	ldi	r25, 0x00	; 0
    2876:	88 0f       	add	r24, r24
    2878:	99 1f       	adc	r25, r25
    287a:	88 0f       	add	r24, r24
    287c:	99 1f       	adc	r25, r25
    287e:	f8 01       	movw	r30, r16
    2880:	a7 81       	ldd	r26, Z+7	; 0x07
    2882:	b0 85       	ldd	r27, Z+8	; 0x08
    2884:	a8 0f       	add	r26, r24
    2886:	b9 1f       	adc	r27, r25
    2888:	6c 91       	ld	r22, X
    288a:	11 96       	adiw	r26, 0x01	; 1
    288c:	5c 91       	ld	r21, X
    288e:	11 97       	sbiw	r26, 0x01	; 1
    2890:	12 96       	adiw	r26, 0x02	; 2
    2892:	9c 91       	ld	r25, X
    2894:	12 97       	sbiw	r26, 0x02	; 2
    2896:	13 96       	adiw	r26, 0x03	; 3
    2898:	8c 91       	ld	r24, X
    289a:	d6 01       	movw	r26, r12
    289c:	6c 93       	st	X, r22
    289e:	11 96       	adiw	r26, 0x01	; 1
    28a0:	5c 93       	st	X, r21
    28a2:	11 97       	sbiw	r26, 0x01	; 1
    28a4:	12 96       	adiw	r26, 0x02	; 2
    28a6:	9c 93       	st	X, r25
    28a8:	12 97       	sbiw	r26, 0x02	; 2
    28aa:	13 96       	adiw	r26, 0x03	; 3
    28ac:	8c 93       	st	X, r24
    28ae:	2c 5f       	subi	r18, 0xFC	; 252
    28b0:	3f 4f       	sbci	r19, 0xFF	; 255
    28b2:	4f 5f       	subi	r20, 0xFF	; 255
    28b4:	e4 e0       	ldi	r30, 0x04	; 4
    28b6:	f0 e0       	ldi	r31, 0x00	; 0
    28b8:	ce 0e       	add	r12, r30
    28ba:	df 1e       	adc	r13, r31
    28bc:	d8 01       	movw	r26, r16
    28be:	12 96       	adiw	r26, 0x02	; 2
    28c0:	8c 91       	ld	r24, X
    28c2:	12 97       	sbiw	r26, 0x02	; 2
    28c4:	48 17       	cp	r20, r24
    28c6:	a8 f2       	brcs	.-86     	; 0x2872 <_ZNK14rosserial_msgs20RequestParamResponse9serializeEPh+0x38>
    28c8:	fe 01       	movw	r30, r28
    28ca:	e2 0f       	add	r30, r18
    28cc:	f3 1f       	adc	r31, r19
    28ce:	19 96       	adiw	r26, 0x09	; 9
    28d0:	8c 91       	ld	r24, X
    28d2:	80 83       	st	Z, r24
    28d4:	2f 5f       	subi	r18, 0xFF	; 255
    28d6:	3f 4f       	sbci	r19, 0xFF	; 255
    28d8:	de 01       	movw	r26, r28
    28da:	a2 0f       	add	r26, r18
    28dc:	b3 1f       	adc	r27, r19
    28de:	1c 92       	st	X, r1
    28e0:	2f 5f       	subi	r18, 0xFF	; 255
    28e2:	3f 4f       	sbci	r19, 0xFF	; 255
    28e4:	de 01       	movw	r26, r28
    28e6:	a2 0f       	add	r26, r18
    28e8:	b3 1f       	adc	r27, r19
    28ea:	1c 92       	st	X, r1
    28ec:	2f 5f       	subi	r18, 0xFF	; 255
    28ee:	3f 4f       	sbci	r19, 0xFF	; 255
    28f0:	de 01       	movw	r26, r28
    28f2:	a2 0f       	add	r26, r18
    28f4:	b3 1f       	adc	r27, r19
    28f6:	1c 92       	st	X, r1
    28f8:	2f 5f       	subi	r18, 0xFF	; 255
    28fa:	3f 4f       	sbci	r19, 0xFF	; 255
    28fc:	6f 01       	movw	r12, r30
    28fe:	40 e0       	ldi	r20, 0x00	; 0
    2900:	21 c0       	rjmp	.+66     	; 0x2944 <_ZNK14rosserial_msgs20RequestParamResponse9serializeEPh+0x10a>
    2902:	84 2f       	mov	r24, r20
    2904:	90 e0       	ldi	r25, 0x00	; 0
    2906:	88 0f       	add	r24, r24
    2908:	99 1f       	adc	r25, r25
    290a:	88 0f       	add	r24, r24
    290c:	99 1f       	adc	r25, r25
    290e:	f8 01       	movw	r30, r16
    2910:	a6 85       	ldd	r26, Z+14	; 0x0e
    2912:	b7 85       	ldd	r27, Z+15	; 0x0f
    2914:	a8 0f       	add	r26, r24
    2916:	b9 1f       	adc	r27, r25
    2918:	6c 91       	ld	r22, X
    291a:	11 96       	adiw	r26, 0x01	; 1
    291c:	5c 91       	ld	r21, X
    291e:	11 97       	sbiw	r26, 0x01	; 1
    2920:	12 96       	adiw	r26, 0x02	; 2
    2922:	9c 91       	ld	r25, X
    2924:	12 97       	sbiw	r26, 0x02	; 2
    2926:	13 96       	adiw	r26, 0x03	; 3
    2928:	8c 91       	ld	r24, X
    292a:	d6 01       	movw	r26, r12
    292c:	6c 93       	st	X, r22
    292e:	11 96       	adiw	r26, 0x01	; 1
    2930:	5c 93       	st	X, r21
    2932:	11 97       	sbiw	r26, 0x01	; 1
    2934:	12 96       	adiw	r26, 0x02	; 2
    2936:	9c 93       	st	X, r25
    2938:	12 97       	sbiw	r26, 0x02	; 2
    293a:	13 96       	adiw	r26, 0x03	; 3
    293c:	8c 93       	st	X, r24
    293e:	2c 5f       	subi	r18, 0xFC	; 252
    2940:	3f 4f       	sbci	r19, 0xFF	; 255
    2942:	4f 5f       	subi	r20, 0xFF	; 255
    2944:	e4 e0       	ldi	r30, 0x04	; 4
    2946:	f0 e0       	ldi	r31, 0x00	; 0
    2948:	ce 0e       	add	r12, r30
    294a:	df 1e       	adc	r13, r31
    294c:	d8 01       	movw	r26, r16
    294e:	19 96       	adiw	r26, 0x09	; 9
    2950:	8c 91       	ld	r24, X
    2952:	19 97       	sbiw	r26, 0x09	; 9
    2954:	48 17       	cp	r20, r24
    2956:	a8 f2       	brcs	.-86     	; 0x2902 <_ZNK14rosserial_msgs20RequestParamResponse9serializeEPh+0xc8>
    2958:	fe 01       	movw	r30, r28
    295a:	e2 0f       	add	r30, r18
    295c:	f3 1f       	adc	r31, r19
    295e:	50 96       	adiw	r26, 0x10	; 16
    2960:	8c 91       	ld	r24, X
    2962:	50 97       	sbiw	r26, 0x10	; 16
    2964:	80 83       	st	Z, r24
    2966:	2f 5f       	subi	r18, 0xFF	; 255
    2968:	3f 4f       	sbci	r19, 0xFF	; 255
    296a:	fe 01       	movw	r30, r28
    296c:	e2 0f       	add	r30, r18
    296e:	f3 1f       	adc	r31, r19
    2970:	10 82       	st	Z, r1
    2972:	2f 5f       	subi	r18, 0xFF	; 255
    2974:	3f 4f       	sbci	r19, 0xFF	; 255
    2976:	fe 01       	movw	r30, r28
    2978:	e2 0f       	add	r30, r18
    297a:	f3 1f       	adc	r31, r19
    297c:	10 82       	st	Z, r1
    297e:	2f 5f       	subi	r18, 0xFF	; 255
    2980:	3f 4f       	sbci	r19, 0xFF	; 255
    2982:	fe 01       	movw	r30, r28
    2984:	e2 0f       	add	r30, r18
    2986:	f3 1f       	adc	r31, r19
    2988:	10 82       	st	Z, r1
    298a:	2f 5f       	subi	r18, 0xFF	; 255
    298c:	3f 4f       	sbci	r19, 0xFF	; 255
    298e:	ff 24       	eor	r15, r15
    2990:	33 c0       	rjmp	.+102    	; 0x29f8 <_ZNK14rosserial_msgs20RequestParamResponse9serializeEPh+0x1be>
    2992:	5e 01       	movw	r10, r28
    2994:	a2 0e       	add	r10, r18
    2996:	b3 1e       	adc	r11, r19
    2998:	8f 2d       	mov	r24, r15
    299a:	90 e0       	ldi	r25, 0x00	; 0
    299c:	88 0f       	add	r24, r24
    299e:	99 1f       	adc	r25, r25
    29a0:	d8 01       	movw	r26, r16
    29a2:	53 96       	adiw	r26, 0x13	; 19
    29a4:	ed 91       	ld	r30, X+
    29a6:	fc 91       	ld	r31, X
    29a8:	54 97       	sbiw	r26, 0x14	; 20
    29aa:	e8 0f       	add	r30, r24
    29ac:	f9 1f       	adc	r31, r25
    29ae:	60 81       	ld	r22, Z
    29b0:	71 81       	ldd	r23, Z+1	; 0x01
    29b2:	db 01       	movw	r26, r22
    29b4:	fd 01       	movw	r30, r26
    29b6:	01 90       	ld	r0, Z+
    29b8:	00 20       	and	r0, r0
    29ba:	e9 f7       	brne	.-6      	; 0x29b6 <_ZNK14rosserial_msgs20RequestParamResponse9serializeEPh+0x17c>
    29bc:	31 97       	sbiw	r30, 0x01	; 1
    29be:	ea 1b       	sub	r30, r26
    29c0:	fb 0b       	sbc	r31, r27
    29c2:	3f 01       	movw	r6, r30
    29c4:	88 24       	eor	r8, r8
    29c6:	99 24       	eor	r9, r9
    29c8:	d5 01       	movw	r26, r10
    29ca:	6d 92       	st	X+, r6
    29cc:	7d 92       	st	X+, r7
    29ce:	8d 92       	st	X+, r8
    29d0:	9c 92       	st	X, r9
    29d2:	13 97       	sbiw	r26, 0x03	; 3
    29d4:	a4 e0       	ldi	r26, 0x04	; 4
    29d6:	ca 2e       	mov	r12, r26
    29d8:	d1 2c       	mov	r13, r1
    29da:	c2 0e       	add	r12, r18
    29dc:	d3 1e       	adc	r13, r19
    29de:	9e 01       	movw	r18, r28
    29e0:	2c 0d       	add	r18, r12
    29e2:	3d 1d       	adc	r19, r13
    29e4:	c9 01       	movw	r24, r18
    29e6:	af 01       	movw	r20, r30
    29e8:	0e 94 4f 3d 	call	0x7a9e	; 0x7a9e <memcpy>
    29ec:	f5 01       	movw	r30, r10
    29ee:	20 81       	ld	r18, Z
    29f0:	31 81       	ldd	r19, Z+1	; 0x01
    29f2:	2c 0d       	add	r18, r12
    29f4:	3d 1d       	adc	r19, r13
    29f6:	f3 94       	inc	r15
    29f8:	d8 01       	movw	r26, r16
    29fa:	50 96       	adiw	r26, 0x10	; 16
    29fc:	8c 91       	ld	r24, X
    29fe:	50 97       	sbiw	r26, 0x10	; 16
    2a00:	f8 16       	cp	r15, r24
    2a02:	38 f2       	brcs	.-114    	; 0x2992 <_ZNK14rosserial_msgs20RequestParamResponse9serializeEPh+0x158>
    2a04:	c9 01       	movw	r24, r18
    2a06:	df 91       	pop	r29
    2a08:	cf 91       	pop	r28
    2a0a:	1f 91       	pop	r17
    2a0c:	0f 91       	pop	r16
    2a0e:	ff 90       	pop	r15
    2a10:	df 90       	pop	r13
    2a12:	cf 90       	pop	r12
    2a14:	bf 90       	pop	r11
    2a16:	af 90       	pop	r10
    2a18:	9f 90       	pop	r9
    2a1a:	8f 90       	pop	r8
    2a1c:	7f 90       	pop	r7
    2a1e:	6f 90       	pop	r6
    2a20:	08 95       	ret

00002a22 <_ZNK8std_msgs6Header9serializeEPh>:
    2a22:	cf 93       	push	r28
    2a24:	df 93       	push	r29
    2a26:	fc 01       	movw	r30, r24
    2a28:	eb 01       	movw	r28, r22
    2a2a:	82 81       	ldd	r24, Z+2	; 0x02
    2a2c:	88 83       	st	Y, r24
    2a2e:	83 81       	ldd	r24, Z+3	; 0x03
    2a30:	89 83       	std	Y+1, r24	; 0x01
    2a32:	84 81       	ldd	r24, Z+4	; 0x04
    2a34:	8a 83       	std	Y+2, r24	; 0x02
    2a36:	85 81       	ldd	r24, Z+5	; 0x05
    2a38:	8b 83       	std	Y+3, r24	; 0x03
    2a3a:	86 81       	ldd	r24, Z+6	; 0x06
    2a3c:	8c 83       	std	Y+4, r24	; 0x04
    2a3e:	87 81       	ldd	r24, Z+7	; 0x07
    2a40:	8d 83       	std	Y+5, r24	; 0x05
    2a42:	80 85       	ldd	r24, Z+8	; 0x08
    2a44:	8e 83       	std	Y+6, r24	; 0x06
    2a46:	81 85       	ldd	r24, Z+9	; 0x09
    2a48:	8f 83       	std	Y+7, r24	; 0x07
    2a4a:	82 85       	ldd	r24, Z+10	; 0x0a
    2a4c:	88 87       	std	Y+8, r24	; 0x08
    2a4e:	83 85       	ldd	r24, Z+11	; 0x0b
    2a50:	89 87       	std	Y+9, r24	; 0x09
    2a52:	84 85       	ldd	r24, Z+12	; 0x0c
    2a54:	8a 87       	std	Y+10, r24	; 0x0a
    2a56:	85 85       	ldd	r24, Z+13	; 0x0d
    2a58:	8b 87       	std	Y+11, r24	; 0x0b
    2a5a:	66 85       	ldd	r22, Z+14	; 0x0e
    2a5c:	77 85       	ldd	r23, Z+15	; 0x0f
    2a5e:	db 01       	movw	r26, r22
    2a60:	fd 01       	movw	r30, r26
    2a62:	01 90       	ld	r0, Z+
    2a64:	00 20       	and	r0, r0
    2a66:	e9 f7       	brne	.-6      	; 0x2a62 <_ZNK8std_msgs6Header9serializeEPh+0x40>
    2a68:	31 97       	sbiw	r30, 0x01	; 1
    2a6a:	ea 1b       	sub	r30, r26
    2a6c:	fb 0b       	sbc	r31, r27
    2a6e:	cf 01       	movw	r24, r30
    2a70:	a0 e0       	ldi	r26, 0x00	; 0
    2a72:	b0 e0       	ldi	r27, 0x00	; 0
    2a74:	8c 87       	std	Y+12, r24	; 0x0c
    2a76:	9d 87       	std	Y+13, r25	; 0x0d
    2a78:	ae 87       	std	Y+14, r26	; 0x0e
    2a7a:	bf 87       	std	Y+15, r27	; 0x0f
    2a7c:	9e 01       	movw	r18, r28
    2a7e:	20 5f       	subi	r18, 0xF0	; 240
    2a80:	3f 4f       	sbci	r19, 0xFF	; 255
    2a82:	c9 01       	movw	r24, r18
    2a84:	af 01       	movw	r20, r30
    2a86:	0e 94 4f 3d 	call	0x7a9e	; 0x7a9e <memcpy>
    2a8a:	2c 85       	ldd	r18, Y+12	; 0x0c
    2a8c:	3d 85       	ldd	r19, Y+13	; 0x0d
    2a8e:	20 5f       	subi	r18, 0xF0	; 240
    2a90:	3f 4f       	sbci	r19, 0xFF	; 255
    2a92:	c9 01       	movw	r24, r18
    2a94:	df 91       	pop	r29
    2a96:	cf 91       	pop	r28
    2a98:	08 95       	ret

00002a9a <_ZNK5rover7Encoder9serializeEPh>:
    2a9a:	0f 93       	push	r16
    2a9c:	1f 93       	push	r17
    2a9e:	cf 93       	push	r28
    2aa0:	df 93       	push	r29
    2aa2:	ec 01       	movw	r28, r24
    2aa4:	8b 01       	movw	r16, r22
    2aa6:	02 96       	adiw	r24, 0x02	; 2
    2aa8:	0e 94 11 15 	call	0x2a22	; 0x2a22 <_ZNK8std_msgs6Header9serializeEPh>
    2aac:	9c 01       	movw	r18, r24
    2aae:	5a 89       	ldd	r21, Y+18	; 0x12
    2ab0:	4b 89       	ldd	r20, Y+19	; 0x13
    2ab2:	9c 89       	ldd	r25, Y+20	; 0x14
    2ab4:	8d 89       	ldd	r24, Y+21	; 0x15
    2ab6:	f8 01       	movw	r30, r16
    2ab8:	e2 0f       	add	r30, r18
    2aba:	f3 1f       	adc	r31, r19
    2abc:	50 83       	st	Z, r21
    2abe:	41 83       	std	Z+1, r20	; 0x01
    2ac0:	92 83       	std	Z+2, r25	; 0x02
    2ac2:	83 83       	std	Z+3, r24	; 0x03
    2ac4:	2c 5f       	subi	r18, 0xFC	; 252
    2ac6:	3f 4f       	sbci	r19, 0xFF	; 255
    2ac8:	5e 89       	ldd	r21, Y+22	; 0x16
    2aca:	4f 89       	ldd	r20, Y+23	; 0x17
    2acc:	98 8d       	ldd	r25, Y+24	; 0x18
    2ace:	89 8d       	ldd	r24, Y+25	; 0x19
    2ad0:	f8 01       	movw	r30, r16
    2ad2:	e2 0f       	add	r30, r18
    2ad4:	f3 1f       	adc	r31, r19
    2ad6:	50 83       	st	Z, r21
    2ad8:	41 83       	std	Z+1, r20	; 0x01
    2ada:	92 83       	std	Z+2, r25	; 0x02
    2adc:	83 83       	std	Z+3, r24	; 0x03
    2ade:	2c 5f       	subi	r18, 0xFC	; 252
    2ae0:	3f 4f       	sbci	r19, 0xFF	; 255
    2ae2:	5a 8d       	ldd	r21, Y+26	; 0x1a
    2ae4:	4b 8d       	ldd	r20, Y+27	; 0x1b
    2ae6:	9c 8d       	ldd	r25, Y+28	; 0x1c
    2ae8:	8d 8d       	ldd	r24, Y+29	; 0x1d
    2aea:	f8 01       	movw	r30, r16
    2aec:	e2 0f       	add	r30, r18
    2aee:	f3 1f       	adc	r31, r19
    2af0:	50 83       	st	Z, r21
    2af2:	41 83       	std	Z+1, r20	; 0x01
    2af4:	92 83       	std	Z+2, r25	; 0x02
    2af6:	83 83       	std	Z+3, r24	; 0x03
    2af8:	2c 5f       	subi	r18, 0xFC	; 252
    2afa:	3f 4f       	sbci	r19, 0xFF	; 255
    2afc:	5e 8d       	ldd	r21, Y+30	; 0x1e
    2afe:	4f 8d       	ldd	r20, Y+31	; 0x1f
    2b00:	98 a1       	ldd	r25, Y+32	; 0x20
    2b02:	89 a1       	ldd	r24, Y+33	; 0x21
    2b04:	f8 01       	movw	r30, r16
    2b06:	e2 0f       	add	r30, r18
    2b08:	f3 1f       	adc	r31, r19
    2b0a:	50 83       	st	Z, r21
    2b0c:	41 83       	std	Z+1, r20	; 0x01
    2b0e:	92 83       	std	Z+2, r25	; 0x02
    2b10:	83 83       	std	Z+3, r24	; 0x03
    2b12:	2c 5f       	subi	r18, 0xFC	; 252
    2b14:	3f 4f       	sbci	r19, 0xFF	; 255
    2b16:	5a a1       	ldd	r21, Y+34	; 0x22
    2b18:	4b a1       	ldd	r20, Y+35	; 0x23
    2b1a:	9c a1       	ldd	r25, Y+36	; 0x24
    2b1c:	8d a1       	ldd	r24, Y+37	; 0x25
    2b1e:	f8 01       	movw	r30, r16
    2b20:	e2 0f       	add	r30, r18
    2b22:	f3 1f       	adc	r31, r19
    2b24:	50 83       	st	Z, r21
    2b26:	41 83       	std	Z+1, r20	; 0x01
    2b28:	92 83       	std	Z+2, r25	; 0x02
    2b2a:	83 83       	std	Z+3, r24	; 0x03
    2b2c:	2c 5f       	subi	r18, 0xFC	; 252
    2b2e:	3f 4f       	sbci	r19, 0xFF	; 255
    2b30:	5e a1       	ldd	r21, Y+38	; 0x26
    2b32:	4f a1       	ldd	r20, Y+39	; 0x27
    2b34:	98 a5       	ldd	r25, Y+40	; 0x28
    2b36:	89 a5       	ldd	r24, Y+41	; 0x29
    2b38:	f8 01       	movw	r30, r16
    2b3a:	e2 0f       	add	r30, r18
    2b3c:	f3 1f       	adc	r31, r19
    2b3e:	50 83       	st	Z, r21
    2b40:	41 83       	std	Z+1, r20	; 0x01
    2b42:	92 83       	std	Z+2, r25	; 0x02
    2b44:	83 83       	std	Z+3, r24	; 0x03
    2b46:	2c 5f       	subi	r18, 0xFC	; 252
    2b48:	3f 4f       	sbci	r19, 0xFF	; 255
    2b4a:	5a a5       	ldd	r21, Y+42	; 0x2a
    2b4c:	4b a5       	ldd	r20, Y+43	; 0x2b
    2b4e:	9c a5       	ldd	r25, Y+44	; 0x2c
    2b50:	8d a5       	ldd	r24, Y+45	; 0x2d
    2b52:	f8 01       	movw	r30, r16
    2b54:	e2 0f       	add	r30, r18
    2b56:	f3 1f       	adc	r31, r19
    2b58:	50 83       	st	Z, r21
    2b5a:	41 83       	std	Z+1, r20	; 0x01
    2b5c:	92 83       	std	Z+2, r25	; 0x02
    2b5e:	83 83       	std	Z+3, r24	; 0x03
    2b60:	2c 5f       	subi	r18, 0xFC	; 252
    2b62:	3f 4f       	sbci	r19, 0xFF	; 255
    2b64:	5e a5       	ldd	r21, Y+46	; 0x2e
    2b66:	4f a5       	ldd	r20, Y+47	; 0x2f
    2b68:	98 a9       	ldd	r25, Y+48	; 0x30
    2b6a:	89 a9       	ldd	r24, Y+49	; 0x31
    2b6c:	f8 01       	movw	r30, r16
    2b6e:	e2 0f       	add	r30, r18
    2b70:	f3 1f       	adc	r31, r19
    2b72:	50 83       	st	Z, r21
    2b74:	41 83       	std	Z+1, r20	; 0x01
    2b76:	92 83       	std	Z+2, r25	; 0x02
    2b78:	83 83       	std	Z+3, r24	; 0x03
    2b7a:	2c 5f       	subi	r18, 0xFC	; 252
    2b7c:	3f 4f       	sbci	r19, 0xFF	; 255
    2b7e:	c9 01       	movw	r24, r18
    2b80:	df 91       	pop	r29
    2b82:	cf 91       	pop	r28
    2b84:	1f 91       	pop	r17
    2b86:	0f 91       	pop	r16
    2b88:	08 95       	ret

00002b8a <_ZNK5rover7Battery9serializeEPh>:
    2b8a:	0f 93       	push	r16
    2b8c:	1f 93       	push	r17
    2b8e:	cf 93       	push	r28
    2b90:	df 93       	push	r29
    2b92:	ec 01       	movw	r28, r24
    2b94:	8b 01       	movw	r16, r22
    2b96:	02 96       	adiw	r24, 0x02	; 2
    2b98:	0e 94 11 15 	call	0x2a22	; 0x2a22 <_ZNK8std_msgs6Header9serializeEPh>
    2b9c:	9c 01       	movw	r18, r24
    2b9e:	5a 89       	ldd	r21, Y+18	; 0x12
    2ba0:	4b 89       	ldd	r20, Y+19	; 0x13
    2ba2:	9c 89       	ldd	r25, Y+20	; 0x14
    2ba4:	8d 89       	ldd	r24, Y+21	; 0x15
    2ba6:	f8 01       	movw	r30, r16
    2ba8:	e2 0f       	add	r30, r18
    2baa:	f3 1f       	adc	r31, r19
    2bac:	50 83       	st	Z, r21
    2bae:	41 83       	std	Z+1, r20	; 0x01
    2bb0:	92 83       	std	Z+2, r25	; 0x02
    2bb2:	83 83       	std	Z+3, r24	; 0x03
    2bb4:	2c 5f       	subi	r18, 0xFC	; 252
    2bb6:	3f 4f       	sbci	r19, 0xFF	; 255
    2bb8:	5e 89       	ldd	r21, Y+22	; 0x16
    2bba:	4f 89       	ldd	r20, Y+23	; 0x17
    2bbc:	98 8d       	ldd	r25, Y+24	; 0x18
    2bbe:	89 8d       	ldd	r24, Y+25	; 0x19
    2bc0:	f8 01       	movw	r30, r16
    2bc2:	e2 0f       	add	r30, r18
    2bc4:	f3 1f       	adc	r31, r19
    2bc6:	50 83       	st	Z, r21
    2bc8:	41 83       	std	Z+1, r20	; 0x01
    2bca:	92 83       	std	Z+2, r25	; 0x02
    2bcc:	83 83       	std	Z+3, r24	; 0x03
    2bce:	2c 5f       	subi	r18, 0xFC	; 252
    2bd0:	3f 4f       	sbci	r19, 0xFF	; 255
    2bd2:	c9 01       	movw	r24, r18
    2bd4:	df 91       	pop	r29
    2bd6:	cf 91       	pop	r28
    2bd8:	1f 91       	pop	r17
    2bda:	0f 91       	pop	r16
    2bdc:	08 95       	ret

00002bde <_ZNK5rover12CondensedIMU9serializeEPh>:
    2bde:	0f 93       	push	r16
    2be0:	1f 93       	push	r17
    2be2:	cf 93       	push	r28
    2be4:	df 93       	push	r29
    2be6:	ec 01       	movw	r28, r24
    2be8:	8b 01       	movw	r16, r22
    2bea:	02 96       	adiw	r24, 0x02	; 2
    2bec:	0e 94 11 15 	call	0x2a22	; 0x2a22 <_ZNK8std_msgs6Header9serializeEPh>
    2bf0:	9c 01       	movw	r18, r24
    2bf2:	5a 89       	ldd	r21, Y+18	; 0x12
    2bf4:	4b 89       	ldd	r20, Y+19	; 0x13
    2bf6:	9c 89       	ldd	r25, Y+20	; 0x14
    2bf8:	8d 89       	ldd	r24, Y+21	; 0x15
    2bfa:	f8 01       	movw	r30, r16
    2bfc:	e2 0f       	add	r30, r18
    2bfe:	f3 1f       	adc	r31, r19
    2c00:	50 83       	st	Z, r21
    2c02:	41 83       	std	Z+1, r20	; 0x01
    2c04:	92 83       	std	Z+2, r25	; 0x02
    2c06:	83 83       	std	Z+3, r24	; 0x03
    2c08:	2c 5f       	subi	r18, 0xFC	; 252
    2c0a:	3f 4f       	sbci	r19, 0xFF	; 255
    2c0c:	5e 89       	ldd	r21, Y+22	; 0x16
    2c0e:	4f 89       	ldd	r20, Y+23	; 0x17
    2c10:	98 8d       	ldd	r25, Y+24	; 0x18
    2c12:	89 8d       	ldd	r24, Y+25	; 0x19
    2c14:	f8 01       	movw	r30, r16
    2c16:	e2 0f       	add	r30, r18
    2c18:	f3 1f       	adc	r31, r19
    2c1a:	50 83       	st	Z, r21
    2c1c:	41 83       	std	Z+1, r20	; 0x01
    2c1e:	92 83       	std	Z+2, r25	; 0x02
    2c20:	83 83       	std	Z+3, r24	; 0x03
    2c22:	2c 5f       	subi	r18, 0xFC	; 252
    2c24:	3f 4f       	sbci	r19, 0xFF	; 255
    2c26:	5a 8d       	ldd	r21, Y+26	; 0x1a
    2c28:	4b 8d       	ldd	r20, Y+27	; 0x1b
    2c2a:	9c 8d       	ldd	r25, Y+28	; 0x1c
    2c2c:	8d 8d       	ldd	r24, Y+29	; 0x1d
    2c2e:	f8 01       	movw	r30, r16
    2c30:	e2 0f       	add	r30, r18
    2c32:	f3 1f       	adc	r31, r19
    2c34:	50 83       	st	Z, r21
    2c36:	41 83       	std	Z+1, r20	; 0x01
    2c38:	92 83       	std	Z+2, r25	; 0x02
    2c3a:	83 83       	std	Z+3, r24	; 0x03
    2c3c:	2c 5f       	subi	r18, 0xFC	; 252
    2c3e:	3f 4f       	sbci	r19, 0xFF	; 255
    2c40:	5e 8d       	ldd	r21, Y+30	; 0x1e
    2c42:	4f 8d       	ldd	r20, Y+31	; 0x1f
    2c44:	98 a1       	ldd	r25, Y+32	; 0x20
    2c46:	89 a1       	ldd	r24, Y+33	; 0x21
    2c48:	f8 01       	movw	r30, r16
    2c4a:	e2 0f       	add	r30, r18
    2c4c:	f3 1f       	adc	r31, r19
    2c4e:	50 83       	st	Z, r21
    2c50:	41 83       	std	Z+1, r20	; 0x01
    2c52:	92 83       	std	Z+2, r25	; 0x02
    2c54:	83 83       	std	Z+3, r24	; 0x03
    2c56:	2c 5f       	subi	r18, 0xFC	; 252
    2c58:	3f 4f       	sbci	r19, 0xFF	; 255
    2c5a:	5a a1       	ldd	r21, Y+34	; 0x22
    2c5c:	4b a1       	ldd	r20, Y+35	; 0x23
    2c5e:	9c a1       	ldd	r25, Y+36	; 0x24
    2c60:	8d a1       	ldd	r24, Y+37	; 0x25
    2c62:	f8 01       	movw	r30, r16
    2c64:	e2 0f       	add	r30, r18
    2c66:	f3 1f       	adc	r31, r19
    2c68:	50 83       	st	Z, r21
    2c6a:	41 83       	std	Z+1, r20	; 0x01
    2c6c:	92 83       	std	Z+2, r25	; 0x02
    2c6e:	83 83       	std	Z+3, r24	; 0x03
    2c70:	2c 5f       	subi	r18, 0xFC	; 252
    2c72:	3f 4f       	sbci	r19, 0xFF	; 255
    2c74:	5e a1       	ldd	r21, Y+38	; 0x26
    2c76:	4f a1       	ldd	r20, Y+39	; 0x27
    2c78:	98 a5       	ldd	r25, Y+40	; 0x28
    2c7a:	89 a5       	ldd	r24, Y+41	; 0x29
    2c7c:	f8 01       	movw	r30, r16
    2c7e:	e2 0f       	add	r30, r18
    2c80:	f3 1f       	adc	r31, r19
    2c82:	50 83       	st	Z, r21
    2c84:	41 83       	std	Z+1, r20	; 0x01
    2c86:	92 83       	std	Z+2, r25	; 0x02
    2c88:	83 83       	std	Z+3, r24	; 0x03
    2c8a:	2c 5f       	subi	r18, 0xFC	; 252
    2c8c:	3f 4f       	sbci	r19, 0xFF	; 255
    2c8e:	5a a5       	ldd	r21, Y+42	; 0x2a
    2c90:	4b a5       	ldd	r20, Y+43	; 0x2b
    2c92:	9c a5       	ldd	r25, Y+44	; 0x2c
    2c94:	8d a5       	ldd	r24, Y+45	; 0x2d
    2c96:	f8 01       	movw	r30, r16
    2c98:	e2 0f       	add	r30, r18
    2c9a:	f3 1f       	adc	r31, r19
    2c9c:	50 83       	st	Z, r21
    2c9e:	41 83       	std	Z+1, r20	; 0x01
    2ca0:	92 83       	std	Z+2, r25	; 0x02
    2ca2:	83 83       	std	Z+3, r24	; 0x03
    2ca4:	2c 5f       	subi	r18, 0xFC	; 252
    2ca6:	3f 4f       	sbci	r19, 0xFF	; 255
    2ca8:	5e a5       	ldd	r21, Y+46	; 0x2e
    2caa:	4f a5       	ldd	r20, Y+47	; 0x2f
    2cac:	98 a9       	ldd	r25, Y+48	; 0x30
    2cae:	89 a9       	ldd	r24, Y+49	; 0x31
    2cb0:	f8 01       	movw	r30, r16
    2cb2:	e2 0f       	add	r30, r18
    2cb4:	f3 1f       	adc	r31, r19
    2cb6:	50 83       	st	Z, r21
    2cb8:	41 83       	std	Z+1, r20	; 0x01
    2cba:	92 83       	std	Z+2, r25	; 0x02
    2cbc:	83 83       	std	Z+3, r24	; 0x03
    2cbe:	2c 5f       	subi	r18, 0xFC	; 252
    2cc0:	3f 4f       	sbci	r19, 0xFF	; 255
    2cc2:	5a a9       	ldd	r21, Y+50	; 0x32
    2cc4:	4b a9       	ldd	r20, Y+51	; 0x33
    2cc6:	9c a9       	ldd	r25, Y+52	; 0x34
    2cc8:	8d a9       	ldd	r24, Y+53	; 0x35
    2cca:	f8 01       	movw	r30, r16
    2ccc:	e2 0f       	add	r30, r18
    2cce:	f3 1f       	adc	r31, r19
    2cd0:	50 83       	st	Z, r21
    2cd2:	41 83       	std	Z+1, r20	; 0x01
    2cd4:	92 83       	std	Z+2, r25	; 0x02
    2cd6:	83 83       	std	Z+3, r24	; 0x03
    2cd8:	2c 5f       	subi	r18, 0xFC	; 252
    2cda:	3f 4f       	sbci	r19, 0xFF	; 255
    2cdc:	5e a9       	ldd	r21, Y+54	; 0x36
    2cde:	4f a9       	ldd	r20, Y+55	; 0x37
    2ce0:	98 ad       	ldd	r25, Y+56	; 0x38
    2ce2:	89 ad       	ldd	r24, Y+57	; 0x39
    2ce4:	f8 01       	movw	r30, r16
    2ce6:	e2 0f       	add	r30, r18
    2ce8:	f3 1f       	adc	r31, r19
    2cea:	50 83       	st	Z, r21
    2cec:	41 83       	std	Z+1, r20	; 0x01
    2cee:	92 83       	std	Z+2, r25	; 0x02
    2cf0:	83 83       	std	Z+3, r24	; 0x03
    2cf2:	2c 5f       	subi	r18, 0xFC	; 252
    2cf4:	3f 4f       	sbci	r19, 0xFF	; 255
    2cf6:	c9 01       	movw	r24, r18
    2cf8:	df 91       	pop	r29
    2cfa:	cf 91       	pop	r28
    2cfc:	1f 91       	pop	r17
    2cfe:	0f 91       	pop	r16
    2d00:	08 95       	ret

00002d02 <_ZNK5rover6Motors9serializeEPh>:
    2d02:	0f 93       	push	r16
    2d04:	1f 93       	push	r17
    2d06:	cf 93       	push	r28
    2d08:	df 93       	push	r29
    2d0a:	ec 01       	movw	r28, r24
    2d0c:	8b 01       	movw	r16, r22
    2d0e:	02 96       	adiw	r24, 0x02	; 2
    2d10:	0e 94 11 15 	call	0x2a22	; 0x2a22 <_ZNK8std_msgs6Header9serializeEPh>
    2d14:	9c 01       	movw	r18, r24
    2d16:	5a 89       	ldd	r21, Y+18	; 0x12
    2d18:	4b 89       	ldd	r20, Y+19	; 0x13
    2d1a:	9c 89       	ldd	r25, Y+20	; 0x14
    2d1c:	8d 89       	ldd	r24, Y+21	; 0x15
    2d1e:	f8 01       	movw	r30, r16
    2d20:	e2 0f       	add	r30, r18
    2d22:	f3 1f       	adc	r31, r19
    2d24:	50 83       	st	Z, r21
    2d26:	41 83       	std	Z+1, r20	; 0x01
    2d28:	92 83       	std	Z+2, r25	; 0x02
    2d2a:	83 83       	std	Z+3, r24	; 0x03
    2d2c:	2c 5f       	subi	r18, 0xFC	; 252
    2d2e:	3f 4f       	sbci	r19, 0xFF	; 255
    2d30:	5e 89       	ldd	r21, Y+22	; 0x16
    2d32:	4f 89       	ldd	r20, Y+23	; 0x17
    2d34:	98 8d       	ldd	r25, Y+24	; 0x18
    2d36:	89 8d       	ldd	r24, Y+25	; 0x19
    2d38:	f8 01       	movw	r30, r16
    2d3a:	e2 0f       	add	r30, r18
    2d3c:	f3 1f       	adc	r31, r19
    2d3e:	50 83       	st	Z, r21
    2d40:	41 83       	std	Z+1, r20	; 0x01
    2d42:	92 83       	std	Z+2, r25	; 0x02
    2d44:	83 83       	std	Z+3, r24	; 0x03
    2d46:	2c 5f       	subi	r18, 0xFC	; 252
    2d48:	3f 4f       	sbci	r19, 0xFF	; 255
    2d4a:	c9 01       	movw	r24, r18
    2d4c:	df 91       	pop	r29
    2d4e:	cf 91       	pop	r28
    2d50:	1f 91       	pop	r17
    2d52:	0f 91       	pop	r16
    2d54:	08 95       	ret

00002d56 <_ZNK8std_msgs19MultiArrayDimension9serializeEPh>:
    2d56:	0f 93       	push	r16
    2d58:	1f 93       	push	r17
    2d5a:	cf 93       	push	r28
    2d5c:	df 93       	push	r29
    2d5e:	ec 01       	movw	r28, r24
    2d60:	8b 01       	movw	r16, r22
    2d62:	6a 81       	ldd	r22, Y+2	; 0x02
    2d64:	7b 81       	ldd	r23, Y+3	; 0x03
    2d66:	db 01       	movw	r26, r22
    2d68:	fd 01       	movw	r30, r26
    2d6a:	01 90       	ld	r0, Z+
    2d6c:	00 20       	and	r0, r0
    2d6e:	e9 f7       	brne	.-6      	; 0x2d6a <_ZNK8std_msgs19MultiArrayDimension9serializeEPh+0x14>
    2d70:	31 97       	sbiw	r30, 0x01	; 1
    2d72:	ea 1b       	sub	r30, r26
    2d74:	fb 0b       	sbc	r31, r27
    2d76:	9f 01       	movw	r18, r30
    2d78:	40 e0       	ldi	r20, 0x00	; 0
    2d7a:	50 e0       	ldi	r21, 0x00	; 0
    2d7c:	d8 01       	movw	r26, r16
    2d7e:	2d 93       	st	X+, r18
    2d80:	3d 93       	st	X+, r19
    2d82:	4d 93       	st	X+, r20
    2d84:	5d 93       	st	X+, r21
    2d86:	cd 01       	movw	r24, r26
    2d88:	af 01       	movw	r20, r30
    2d8a:	0e 94 4f 3d 	call	0x7a9e	; 0x7a9e <memcpy>
    2d8e:	f8 01       	movw	r30, r16
    2d90:	20 81       	ld	r18, Z
    2d92:	31 81       	ldd	r19, Z+1	; 0x01
    2d94:	2c 5f       	subi	r18, 0xFC	; 252
    2d96:	3f 4f       	sbci	r19, 0xFF	; 255
    2d98:	e2 0f       	add	r30, r18
    2d9a:	f3 1f       	adc	r31, r19
    2d9c:	8c 81       	ldd	r24, Y+4	; 0x04
    2d9e:	80 83       	st	Z, r24
    2da0:	8d 81       	ldd	r24, Y+5	; 0x05
    2da2:	81 83       	std	Z+1, r24	; 0x01
    2da4:	8e 81       	ldd	r24, Y+6	; 0x06
    2da6:	82 83       	std	Z+2, r24	; 0x02
    2da8:	8f 81       	ldd	r24, Y+7	; 0x07
    2daa:	83 83       	std	Z+3, r24	; 0x03
    2dac:	2c 5f       	subi	r18, 0xFC	; 252
    2dae:	3f 4f       	sbci	r19, 0xFF	; 255
    2db0:	f8 01       	movw	r30, r16
    2db2:	e2 0f       	add	r30, r18
    2db4:	f3 1f       	adc	r31, r19
    2db6:	88 85       	ldd	r24, Y+8	; 0x08
    2db8:	80 83       	st	Z, r24
    2dba:	89 85       	ldd	r24, Y+9	; 0x09
    2dbc:	81 83       	std	Z+1, r24	; 0x01
    2dbe:	8a 85       	ldd	r24, Y+10	; 0x0a
    2dc0:	82 83       	std	Z+2, r24	; 0x02
    2dc2:	8b 85       	ldd	r24, Y+11	; 0x0b
    2dc4:	83 83       	std	Z+3, r24	; 0x03
    2dc6:	2c 5f       	subi	r18, 0xFC	; 252
    2dc8:	3f 4f       	sbci	r19, 0xFF	; 255
    2dca:	c9 01       	movw	r24, r18
    2dcc:	df 91       	pop	r29
    2dce:	cf 91       	pop	r28
    2dd0:	1f 91       	pop	r17
    2dd2:	0f 91       	pop	r16
    2dd4:	08 95       	ret

00002dd6 <_ZN14rosserial_msgs20RequestParamResponse11deserializeEPh>:
    2dd6:	6f 92       	push	r6
    2dd8:	7f 92       	push	r7
    2dda:	8f 92       	push	r8
    2ddc:	9f 92       	push	r9
    2dde:	af 92       	push	r10
    2de0:	bf 92       	push	r11
    2de2:	cf 92       	push	r12
    2de4:	df 92       	push	r13
    2de6:	ef 92       	push	r14
    2de8:	ff 92       	push	r15
    2dea:	0f 93       	push	r16
    2dec:	1f 93       	push	r17
    2dee:	cf 93       	push	r28
    2df0:	df 93       	push	r29
    2df2:	ec 01       	movw	r28, r24
    2df4:	5b 01       	movw	r10, r22
    2df6:	db 01       	movw	r26, r22
    2df8:	0c 91       	ld	r16, X
    2dfa:	8a 81       	ldd	r24, Y+2	; 0x02
    2dfc:	80 17       	cp	r24, r16
    2dfe:	60 f4       	brcc	.+24     	; 0x2e18 <_ZN14rosserial_msgs20RequestParamResponse11deserializeEPh+0x42>
    2e00:	60 2f       	mov	r22, r16
    2e02:	70 e0       	ldi	r23, 0x00	; 0
    2e04:	66 0f       	add	r22, r22
    2e06:	77 1f       	adc	r23, r23
    2e08:	66 0f       	add	r22, r22
    2e0a:	77 1f       	adc	r23, r23
    2e0c:	8f 81       	ldd	r24, Y+7	; 0x07
    2e0e:	98 85       	ldd	r25, Y+8	; 0x08
    2e10:	0e 94 73 3c 	call	0x78e6	; 0x78e6 <realloc>
    2e14:	8f 83       	std	Y+7, r24	; 0x07
    2e16:	98 87       	std	Y+8, r25	; 0x08
    2e18:	0a 83       	std	Y+2, r16	; 0x02
    2e1a:	f5 01       	movw	r30, r10
    2e1c:	60 e0       	ldi	r22, 0x00	; 0
    2e1e:	34 e0       	ldi	r19, 0x04	; 4
    2e20:	c3 2e       	mov	r12, r19
    2e22:	d1 2c       	mov	r13, r1
    2e24:	8e 01       	movw	r16, r28
    2e26:	0d 5f       	subi	r16, 0xFD	; 253
    2e28:	1f 4f       	sbci	r17, 0xFF	; 255
    2e2a:	45 c0       	rjmp	.+138    	; 0x2eb6 <_ZN14rosserial_msgs20RequestParamResponse11deserializeEPh+0xe0>
    2e2c:	81 81       	ldd	r24, Z+1	; 0x01
    2e2e:	90 e0       	ldi	r25, 0x00	; 0
    2e30:	a0 e0       	ldi	r26, 0x00	; 0
    2e32:	b0 e0       	ldi	r27, 0x00	; 0
    2e34:	ba 2f       	mov	r27, r26
    2e36:	a9 2f       	mov	r26, r25
    2e38:	98 2f       	mov	r25, r24
    2e3a:	88 27       	eor	r24, r24
    2e3c:	22 81       	ldd	r18, Z+2	; 0x02
    2e3e:	30 e0       	ldi	r19, 0x00	; 0
    2e40:	40 e0       	ldi	r20, 0x00	; 0
    2e42:	50 e0       	ldi	r21, 0x00	; 0
    2e44:	a9 01       	movw	r20, r18
    2e46:	33 27       	eor	r19, r19
    2e48:	22 27       	eor	r18, r18
    2e4a:	82 2b       	or	r24, r18
    2e4c:	93 2b       	or	r25, r19
    2e4e:	a4 2b       	or	r26, r20
    2e50:	b5 2b       	or	r27, r21
    2e52:	20 81       	ld	r18, Z
    2e54:	30 e0       	ldi	r19, 0x00	; 0
    2e56:	40 e0       	ldi	r20, 0x00	; 0
    2e58:	50 e0       	ldi	r21, 0x00	; 0
    2e5a:	82 2b       	or	r24, r18
    2e5c:	93 2b       	or	r25, r19
    2e5e:	a4 2b       	or	r26, r20
    2e60:	b5 2b       	or	r27, r21
    2e62:	23 81       	ldd	r18, Z+3	; 0x03
    2e64:	30 e0       	ldi	r19, 0x00	; 0
    2e66:	40 e0       	ldi	r20, 0x00	; 0
    2e68:	50 e0       	ldi	r21, 0x00	; 0
    2e6a:	52 2f       	mov	r21, r18
    2e6c:	44 27       	eor	r20, r20
    2e6e:	33 27       	eor	r19, r19
    2e70:	22 27       	eor	r18, r18
    2e72:	82 2b       	or	r24, r18
    2e74:	93 2b       	or	r25, r19
    2e76:	a4 2b       	or	r26, r20
    2e78:	b5 2b       	or	r27, r21
    2e7a:	8b 83       	std	Y+3, r24	; 0x03
    2e7c:	9c 83       	std	Y+4, r25	; 0x04
    2e7e:	ad 83       	std	Y+5, r26	; 0x05
    2e80:	be 83       	std	Y+6, r27	; 0x06
    2e82:	84 e0       	ldi	r24, 0x04	; 4
    2e84:	90 e0       	ldi	r25, 0x00	; 0
    2e86:	c8 0e       	add	r12, r24
    2e88:	d9 1e       	adc	r13, r25
    2e8a:	86 2f       	mov	r24, r22
    2e8c:	90 e0       	ldi	r25, 0x00	; 0
    2e8e:	88 0f       	add	r24, r24
    2e90:	99 1f       	adc	r25, r25
    2e92:	88 0f       	add	r24, r24
    2e94:	99 1f       	adc	r25, r25
    2e96:	2f 81       	ldd	r18, Y+7	; 0x07
    2e98:	38 85       	ldd	r19, Y+8	; 0x08
    2e9a:	28 0f       	add	r18, r24
    2e9c:	39 1f       	adc	r19, r25
    2e9e:	d8 01       	movw	r26, r16
    2ea0:	6d 90       	ld	r6, X+
    2ea2:	7d 90       	ld	r7, X+
    2ea4:	8d 90       	ld	r8, X+
    2ea6:	9c 90       	ld	r9, X
    2ea8:	d9 01       	movw	r26, r18
    2eaa:	6d 92       	st	X+, r6
    2eac:	7d 92       	st	X+, r7
    2eae:	8d 92       	st	X+, r8
    2eb0:	9c 92       	st	X, r9
    2eb2:	13 97       	sbiw	r26, 0x03	; 3
    2eb4:	6f 5f       	subi	r22, 0xFF	; 255
    2eb6:	34 96       	adiw	r30, 0x04	; 4
    2eb8:	8a 81       	ldd	r24, Y+2	; 0x02
    2eba:	68 17       	cp	r22, r24
    2ebc:	08 f4       	brcc	.+2      	; 0x2ec0 <_ZN14rosserial_msgs20RequestParamResponse11deserializeEPh+0xea>
    2ebe:	b6 cf       	rjmp	.-148    	; 0x2e2c <_ZN14rosserial_msgs20RequestParamResponse11deserializeEPh+0x56>
    2ec0:	85 01       	movw	r16, r10
    2ec2:	0c 0d       	add	r16, r12
    2ec4:	1d 1d       	adc	r17, r13
    2ec6:	f8 01       	movw	r30, r16
    2ec8:	80 80       	ld	r8, Z
    2eca:	89 85       	ldd	r24, Y+9	; 0x09
    2ecc:	88 15       	cp	r24, r8
    2ece:	60 f4       	brcc	.+24     	; 0x2ee8 <_ZN14rosserial_msgs20RequestParamResponse11deserializeEPh+0x112>
    2ed0:	68 2d       	mov	r22, r8
    2ed2:	70 e0       	ldi	r23, 0x00	; 0
    2ed4:	66 0f       	add	r22, r22
    2ed6:	77 1f       	adc	r23, r23
    2ed8:	66 0f       	add	r22, r22
    2eda:	77 1f       	adc	r23, r23
    2edc:	8e 85       	ldd	r24, Y+14	; 0x0e
    2ede:	9f 85       	ldd	r25, Y+15	; 0x0f
    2ee0:	0e 94 73 3c 	call	0x78e6	; 0x78e6 <realloc>
    2ee4:	8e 87       	std	Y+14, r24	; 0x0e
    2ee6:	9f 87       	std	Y+15, r25	; 0x0f
    2ee8:	84 e0       	ldi	r24, 0x04	; 4
    2eea:	90 e0       	ldi	r25, 0x00	; 0
    2eec:	c8 0e       	add	r12, r24
    2eee:	d9 1e       	adc	r13, r25
    2ef0:	89 86       	std	Y+9, r8	; 0x09
    2ef2:	f8 01       	movw	r30, r16
    2ef4:	60 e0       	ldi	r22, 0x00	; 0
    2ef6:	8e 01       	movw	r16, r28
    2ef8:	06 5f       	subi	r16, 0xF6	; 246
    2efa:	1f 4f       	sbci	r17, 0xFF	; 255
    2efc:	45 c0       	rjmp	.+138    	; 0x2f88 <_ZN14rosserial_msgs20RequestParamResponse11deserializeEPh+0x1b2>
    2efe:	20 81       	ld	r18, Z
    2f00:	30 e0       	ldi	r19, 0x00	; 0
    2f02:	40 e0       	ldi	r20, 0x00	; 0
    2f04:	50 e0       	ldi	r21, 0x00	; 0
    2f06:	81 81       	ldd	r24, Z+1	; 0x01
    2f08:	90 e0       	ldi	r25, 0x00	; 0
    2f0a:	a0 e0       	ldi	r26, 0x00	; 0
    2f0c:	b0 e0       	ldi	r27, 0x00	; 0
    2f0e:	ba 2f       	mov	r27, r26
    2f10:	a9 2f       	mov	r26, r25
    2f12:	98 2f       	mov	r25, r24
    2f14:	88 27       	eor	r24, r24
    2f16:	82 2b       	or	r24, r18
    2f18:	93 2b       	or	r25, r19
    2f1a:	a4 2b       	or	r26, r20
    2f1c:	b5 2b       	or	r27, r21
    2f1e:	22 81       	ldd	r18, Z+2	; 0x02
    2f20:	30 e0       	ldi	r19, 0x00	; 0
    2f22:	40 e0       	ldi	r20, 0x00	; 0
    2f24:	50 e0       	ldi	r21, 0x00	; 0
    2f26:	a9 01       	movw	r20, r18
    2f28:	33 27       	eor	r19, r19
    2f2a:	22 27       	eor	r18, r18
    2f2c:	28 2b       	or	r18, r24
    2f2e:	39 2b       	or	r19, r25
    2f30:	4a 2b       	or	r20, r26
    2f32:	5b 2b       	or	r21, r27
    2f34:	83 81       	ldd	r24, Z+3	; 0x03
    2f36:	90 e0       	ldi	r25, 0x00	; 0
    2f38:	a0 e0       	ldi	r26, 0x00	; 0
    2f3a:	b0 e0       	ldi	r27, 0x00	; 0
    2f3c:	b8 2f       	mov	r27, r24
    2f3e:	aa 27       	eor	r26, r26
    2f40:	99 27       	eor	r25, r25
    2f42:	88 27       	eor	r24, r24
    2f44:	82 2b       	or	r24, r18
    2f46:	93 2b       	or	r25, r19
    2f48:	a4 2b       	or	r26, r20
    2f4a:	b5 2b       	or	r27, r21
    2f4c:	8a 87       	std	Y+10, r24	; 0x0a
    2f4e:	9b 87       	std	Y+11, r25	; 0x0b
    2f50:	ac 87       	std	Y+12, r26	; 0x0c
    2f52:	bd 87       	std	Y+13, r27	; 0x0d
    2f54:	a4 e0       	ldi	r26, 0x04	; 4
    2f56:	b0 e0       	ldi	r27, 0x00	; 0
    2f58:	ca 0e       	add	r12, r26
    2f5a:	db 1e       	adc	r13, r27
    2f5c:	86 2f       	mov	r24, r22
    2f5e:	90 e0       	ldi	r25, 0x00	; 0
    2f60:	88 0f       	add	r24, r24
    2f62:	99 1f       	adc	r25, r25
    2f64:	88 0f       	add	r24, r24
    2f66:	99 1f       	adc	r25, r25
    2f68:	2e 85       	ldd	r18, Y+14	; 0x0e
    2f6a:	3f 85       	ldd	r19, Y+15	; 0x0f
    2f6c:	28 0f       	add	r18, r24
    2f6e:	39 1f       	adc	r19, r25
    2f70:	d8 01       	movw	r26, r16
    2f72:	6d 90       	ld	r6, X+
    2f74:	7d 90       	ld	r7, X+
    2f76:	8d 90       	ld	r8, X+
    2f78:	9c 90       	ld	r9, X
    2f7a:	d9 01       	movw	r26, r18
    2f7c:	6d 92       	st	X+, r6
    2f7e:	7d 92       	st	X+, r7
    2f80:	8d 92       	st	X+, r8
    2f82:	9c 92       	st	X, r9
    2f84:	13 97       	sbiw	r26, 0x03	; 3
    2f86:	6f 5f       	subi	r22, 0xFF	; 255
    2f88:	34 96       	adiw	r30, 0x04	; 4
    2f8a:	89 85       	ldd	r24, Y+9	; 0x09
    2f8c:	68 17       	cp	r22, r24
    2f8e:	08 f4       	brcc	.+2      	; 0x2f92 <_ZN14rosserial_msgs20RequestParamResponse11deserializeEPh+0x1bc>
    2f90:	b6 cf       	rjmp	.-148    	; 0x2efe <_ZN14rosserial_msgs20RequestParamResponse11deserializeEPh+0x128>
    2f92:	f5 01       	movw	r30, r10
    2f94:	ec 0d       	add	r30, r12
    2f96:	fd 1d       	adc	r31, r13
    2f98:	00 81       	ld	r16, Z
    2f9a:	88 89       	ldd	r24, Y+16	; 0x10
    2f9c:	80 17       	cp	r24, r16
    2f9e:	50 f4       	brcc	.+20     	; 0x2fb4 <_ZN14rosserial_msgs20RequestParamResponse11deserializeEPh+0x1de>
    2fa0:	60 2f       	mov	r22, r16
    2fa2:	70 e0       	ldi	r23, 0x00	; 0
    2fa4:	66 0f       	add	r22, r22
    2fa6:	77 1f       	adc	r23, r23
    2fa8:	8b 89       	ldd	r24, Y+19	; 0x13
    2faa:	9c 89       	ldd	r25, Y+20	; 0x14
    2fac:	0e 94 73 3c 	call	0x78e6	; 0x78e6 <realloc>
    2fb0:	8b 8b       	std	Y+19, r24	; 0x13
    2fb2:	9c 8b       	std	Y+20, r25	; 0x14
    2fb4:	f6 01       	movw	r30, r12
    2fb6:	34 96       	adiw	r30, 0x04	; 4
    2fb8:	08 8b       	std	Y+16, r16	; 0x10
    2fba:	77 24       	eor	r7, r7
    2fbc:	a1 e1       	ldi	r26, 0x11	; 17
    2fbe:	8a 2e       	mov	r8, r26
    2fc0:	91 2c       	mov	r9, r1
    2fc2:	8c 0e       	add	r8, r28
    2fc4:	9d 1e       	adc	r9, r29
    2fc6:	41 c0       	rjmp	.+130    	; 0x304a <_ZN14rosserial_msgs20RequestParamResponse11deserializeEPh+0x274>
    2fc8:	d5 01       	movw	r26, r10
    2fca:	ae 0f       	add	r26, r30
    2fcc:	bf 1f       	adc	r27, r31
    2fce:	cd 90       	ld	r12, X+
    2fd0:	dd 90       	ld	r13, X+
    2fd2:	ed 90       	ld	r14, X+
    2fd4:	fc 90       	ld	r15, X
    2fd6:	df 01       	movw	r26, r30
    2fd8:	14 96       	adiw	r26, 0x04	; 4
    2fda:	33 96       	adiw	r30, 0x03	; 3
    2fdc:	ea 0d       	add	r30, r10
    2fde:	fb 1d       	adc	r31, r11
    2fe0:	8d 01       	movw	r16, r26
    2fe2:	9d 01       	movw	r18, r26
    2fe4:	44 27       	eor	r20, r20
    2fe6:	37 fd       	sbrc	r19, 7
    2fe8:	40 95       	com	r20
    2fea:	54 2f       	mov	r21, r20
    2fec:	2c 0d       	add	r18, r12
    2fee:	3d 1d       	adc	r19, r13
    2ff0:	4e 1d       	adc	r20, r14
    2ff2:	5f 1d       	adc	r21, r15
    2ff4:	04 c0       	rjmp	.+8      	; 0x2ffe <_ZN14rosserial_msgs20RequestParamResponse11deserializeEPh+0x228>
    2ff6:	81 81       	ldd	r24, Z+1	; 0x01
    2ff8:	81 93       	st	Z+, r24
    2ffa:	0f 5f       	subi	r16, 0xFF	; 255
    2ffc:	1f 4f       	sbci	r17, 0xFF	; 255
    2ffe:	b8 01       	movw	r22, r16
    3000:	80 e0       	ldi	r24, 0x00	; 0
    3002:	90 e0       	ldi	r25, 0x00	; 0
    3004:	62 17       	cp	r22, r18
    3006:	73 07       	cpc	r23, r19
    3008:	84 07       	cpc	r24, r20
    300a:	95 07       	cpc	r25, r21
    300c:	a0 f3       	brcs	.-24     	; 0x2ff6 <_ZN14rosserial_msgs20RequestParamResponse11deserializeEPh+0x220>
    300e:	ca 0e       	add	r12, r26
    3010:	db 1e       	adc	r13, r27
    3012:	c5 01       	movw	r24, r10
    3014:	8c 0d       	add	r24, r12
    3016:	9d 1d       	adc	r25, r13
    3018:	01 97       	sbiw	r24, 0x01	; 1
    301a:	fc 01       	movw	r30, r24
    301c:	10 82       	st	Z, r1
    301e:	11 97       	sbiw	r26, 0x01	; 1
    3020:	aa 0d       	add	r26, r10
    3022:	bb 1d       	adc	r27, r11
    3024:	ba 8b       	std	Y+18, r27	; 0x12
    3026:	a9 8b       	std	Y+17, r26	; 0x11
    3028:	f6 01       	movw	r30, r12
    302a:	87 2d       	mov	r24, r7
    302c:	90 e0       	ldi	r25, 0x00	; 0
    302e:	88 0f       	add	r24, r24
    3030:	99 1f       	adc	r25, r25
    3032:	2b 89       	ldd	r18, Y+19	; 0x13
    3034:	3c 89       	ldd	r19, Y+20	; 0x14
    3036:	28 0f       	add	r18, r24
    3038:	39 1f       	adc	r19, r25
    303a:	d4 01       	movw	r26, r8
    303c:	8d 91       	ld	r24, X+
    303e:	9c 91       	ld	r25, X
    3040:	d9 01       	movw	r26, r18
    3042:	11 96       	adiw	r26, 0x01	; 1
    3044:	9c 93       	st	X, r25
    3046:	8e 93       	st	-X, r24
    3048:	73 94       	inc	r7
    304a:	88 89       	ldd	r24, Y+16	; 0x10
    304c:	78 16       	cp	r7, r24
    304e:	08 f4       	brcc	.+2      	; 0x3052 <_ZN14rosserial_msgs20RequestParamResponse11deserializeEPh+0x27c>
    3050:	bb cf       	rjmp	.-138    	; 0x2fc8 <_ZN14rosserial_msgs20RequestParamResponse11deserializeEPh+0x1f2>
    3052:	cf 01       	movw	r24, r30
    3054:	df 91       	pop	r29
    3056:	cf 91       	pop	r28
    3058:	1f 91       	pop	r17
    305a:	0f 91       	pop	r16
    305c:	ff 90       	pop	r15
    305e:	ef 90       	pop	r14
    3060:	df 90       	pop	r13
    3062:	cf 90       	pop	r12
    3064:	bf 90       	pop	r11
    3066:	af 90       	pop	r10
    3068:	9f 90       	pop	r9
    306a:	8f 90       	pop	r8
    306c:	7f 90       	pop	r7
    306e:	6f 90       	pop	r6
    3070:	08 95       	ret

00003072 <_ZN8std_msgs16MultiArrayLayout11deserializeEPh>:
    3072:	af 92       	push	r10
    3074:	bf 92       	push	r11
    3076:	cf 92       	push	r12
    3078:	df 92       	push	r13
    307a:	ef 92       	push	r14
    307c:	ff 92       	push	r15
    307e:	0f 93       	push	r16
    3080:	1f 93       	push	r17
    3082:	df 93       	push	r29
    3084:	cf 93       	push	r28
    3086:	0f 92       	push	r0
    3088:	0f 92       	push	r0
    308a:	cd b7       	in	r28, 0x3d	; 61
    308c:	de b7       	in	r29, 0x3e	; 62
    308e:	5c 01       	movw	r10, r24
    3090:	8b 01       	movw	r16, r22
    3092:	db 01       	movw	r26, r22
    3094:	ec 90       	ld	r14, X
    3096:	fc 01       	movw	r30, r24
    3098:	82 81       	ldd	r24, Z+2	; 0x02
    309a:	8e 15       	cp	r24, r14
    309c:	78 f4       	brcc	.+30     	; 0x30bc <_ZN8std_msgs16MultiArrayLayout11deserializeEPh+0x4a>
    309e:	6c e0       	ldi	r22, 0x0C	; 12
    30a0:	fe 2d       	mov	r31, r14
    30a2:	f6 9f       	mul	r31, r22
    30a4:	b0 01       	movw	r22, r0
    30a6:	11 24       	eor	r1, r1
    30a8:	d5 01       	movw	r26, r10
    30aa:	1f 96       	adiw	r26, 0x0f	; 15
    30ac:	8d 91       	ld	r24, X+
    30ae:	9c 91       	ld	r25, X
    30b0:	50 97       	sbiw	r26, 0x10	; 16
    30b2:	0e 94 73 3c 	call	0x78e6	; 0x78e6 <realloc>
    30b6:	f5 01       	movw	r30, r10
    30b8:	87 87       	std	Z+15, r24	; 0x0f
    30ba:	90 8b       	std	Z+16, r25	; 0x10
    30bc:	d5 01       	movw	r26, r10
    30be:	12 96       	adiw	r26, 0x02	; 2
    30c0:	ec 92       	st	X, r14
    30c2:	12 97       	sbiw	r26, 0x02	; 2
    30c4:	20 e0       	ldi	r18, 0x00	; 0
    30c6:	94 e0       	ldi	r25, 0x04	; 4
    30c8:	c9 2e       	mov	r12, r25
    30ca:	d1 2c       	mov	r13, r1
    30cc:	83 e0       	ldi	r24, 0x03	; 3
    30ce:	e8 2e       	mov	r14, r24
    30d0:	f1 2c       	mov	r15, r1
    30d2:	ea 0c       	add	r14, r10
    30d4:	fb 1c       	adc	r15, r11
    30d6:	3c e0       	ldi	r19, 0x0C	; 12
    30d8:	1a c0       	rjmp	.+52     	; 0x310e <_ZN8std_msgs16MultiArrayLayout11deserializeEPh+0x9c>
    30da:	c7 01       	movw	r24, r14
    30dc:	29 83       	std	Y+1, r18	; 0x01
    30de:	3a 83       	std	Y+2, r19	; 0x02
    30e0:	0e 94 88 11 	call	0x2310	; 0x2310 <_ZN8std_msgs19MultiArrayDimension11deserializeEPh>
    30e4:	c8 0e       	add	r12, r24
    30e6:	d9 1e       	adc	r13, r25
    30e8:	29 81       	ldd	r18, Y+1	; 0x01
    30ea:	3a 81       	ldd	r19, Y+2	; 0x02
    30ec:	23 9f       	mul	r18, r19
    30ee:	c0 01       	movw	r24, r0
    30f0:	11 24       	eor	r1, r1
    30f2:	d5 01       	movw	r26, r10
    30f4:	1f 96       	adiw	r26, 0x0f	; 15
    30f6:	ed 91       	ld	r30, X+
    30f8:	fc 91       	ld	r31, X
    30fa:	50 97       	sbiw	r26, 0x10	; 16
    30fc:	e8 0f       	add	r30, r24
    30fe:	f9 1f       	adc	r31, r25
    3100:	d7 01       	movw	r26, r14
    3102:	8c e0       	ldi	r24, 0x0C	; 12
    3104:	0d 90       	ld	r0, X+
    3106:	01 92       	st	Z+, r0
    3108:	81 50       	subi	r24, 0x01	; 1
    310a:	e1 f7       	brne	.-8      	; 0x3104 <_ZN8std_msgs16MultiArrayLayout11deserializeEPh+0x92>
    310c:	2f 5f       	subi	r18, 0xFF	; 255
    310e:	f5 01       	movw	r30, r10
    3110:	82 81       	ldd	r24, Z+2	; 0x02
    3112:	b8 01       	movw	r22, r16
    3114:	6c 0d       	add	r22, r12
    3116:	7d 1d       	adc	r23, r13
    3118:	28 17       	cp	r18, r24
    311a:	f8 f2       	brcs	.-66     	; 0x30da <_ZN8std_msgs16MultiArrayLayout11deserializeEPh+0x68>
    311c:	db 01       	movw	r26, r22
    311e:	8c 91       	ld	r24, X
    3120:	90 e0       	ldi	r25, 0x00	; 0
    3122:	a0 e0       	ldi	r26, 0x00	; 0
    3124:	b0 e0       	ldi	r27, 0x00	; 0
    3126:	21 89       	ldd	r18, Z+17	; 0x11
    3128:	32 89       	ldd	r19, Z+18	; 0x12
    312a:	43 89       	ldd	r20, Z+19	; 0x13
    312c:	54 89       	ldd	r21, Z+20	; 0x14
    312e:	82 2b       	or	r24, r18
    3130:	93 2b       	or	r25, r19
    3132:	a4 2b       	or	r26, r20
    3134:	b5 2b       	or	r27, r21
    3136:	81 8b       	std	Z+17, r24	; 0x11
    3138:	92 8b       	std	Z+18, r25	; 0x12
    313a:	a3 8b       	std	Z+19, r26	; 0x13
    313c:	b4 8b       	std	Z+20, r27	; 0x14
    313e:	fb 01       	movw	r30, r22
    3140:	21 81       	ldd	r18, Z+1	; 0x01
    3142:	30 e0       	ldi	r19, 0x00	; 0
    3144:	40 e0       	ldi	r20, 0x00	; 0
    3146:	50 e0       	ldi	r21, 0x00	; 0
    3148:	54 2f       	mov	r21, r20
    314a:	43 2f       	mov	r20, r19
    314c:	32 2f       	mov	r19, r18
    314e:	22 27       	eor	r18, r18
    3150:	28 2b       	or	r18, r24
    3152:	39 2b       	or	r19, r25
    3154:	4a 2b       	or	r20, r26
    3156:	5b 2b       	or	r21, r27
    3158:	d5 01       	movw	r26, r10
    315a:	51 96       	adiw	r26, 0x11	; 17
    315c:	2d 93       	st	X+, r18
    315e:	3d 93       	st	X+, r19
    3160:	4d 93       	st	X+, r20
    3162:	5c 93       	st	X, r21
    3164:	54 97       	sbiw	r26, 0x14	; 20
    3166:	82 81       	ldd	r24, Z+2	; 0x02
    3168:	90 e0       	ldi	r25, 0x00	; 0
    316a:	a0 e0       	ldi	r26, 0x00	; 0
    316c:	b0 e0       	ldi	r27, 0x00	; 0
    316e:	dc 01       	movw	r26, r24
    3170:	99 27       	eor	r25, r25
    3172:	88 27       	eor	r24, r24
    3174:	82 2b       	or	r24, r18
    3176:	93 2b       	or	r25, r19
    3178:	a4 2b       	or	r26, r20
    317a:	b5 2b       	or	r27, r21
    317c:	f5 01       	movw	r30, r10
    317e:	81 8b       	std	Z+17, r24	; 0x11
    3180:	92 8b       	std	Z+18, r25	; 0x12
    3182:	a3 8b       	std	Z+19, r26	; 0x13
    3184:	b4 8b       	std	Z+20, r27	; 0x14
    3186:	fb 01       	movw	r30, r22
    3188:	23 81       	ldd	r18, Z+3	; 0x03
    318a:	30 e0       	ldi	r19, 0x00	; 0
    318c:	40 e0       	ldi	r20, 0x00	; 0
    318e:	50 e0       	ldi	r21, 0x00	; 0
    3190:	52 2f       	mov	r21, r18
    3192:	44 27       	eor	r20, r20
    3194:	33 27       	eor	r19, r19
    3196:	22 27       	eor	r18, r18
    3198:	28 2b       	or	r18, r24
    319a:	39 2b       	or	r19, r25
    319c:	4a 2b       	or	r20, r26
    319e:	5b 2b       	or	r21, r27
    31a0:	d5 01       	movw	r26, r10
    31a2:	51 96       	adiw	r26, 0x11	; 17
    31a4:	2d 93       	st	X+, r18
    31a6:	3d 93       	st	X+, r19
    31a8:	4d 93       	st	X+, r20
    31aa:	5c 93       	st	X, r21
    31ac:	54 97       	sbiw	r26, 0x14	; 20
    31ae:	96 01       	movw	r18, r12
    31b0:	2c 5f       	subi	r18, 0xFC	; 252
    31b2:	3f 4f       	sbci	r19, 0xFF	; 255
    31b4:	c9 01       	movw	r24, r18
    31b6:	0f 90       	pop	r0
    31b8:	0f 90       	pop	r0
    31ba:	cf 91       	pop	r28
    31bc:	df 91       	pop	r29
    31be:	1f 91       	pop	r17
    31c0:	0f 91       	pop	r16
    31c2:	ff 90       	pop	r15
    31c4:	ef 90       	pop	r14
    31c6:	df 90       	pop	r13
    31c8:	cf 90       	pop	r12
    31ca:	bf 90       	pop	r11
    31cc:	af 90       	pop	r10
    31ce:	08 95       	ret

000031d0 <_ZN8std_msgs15UInt8MultiArray11deserializeEPh>:
    31d0:	df 92       	push	r13
    31d2:	ef 92       	push	r14
    31d4:	ff 92       	push	r15
    31d6:	0f 93       	push	r16
    31d8:	1f 93       	push	r17
    31da:	cf 93       	push	r28
    31dc:	df 93       	push	r29
    31de:	ec 01       	movw	r28, r24
    31e0:	8b 01       	movw	r16, r22
    31e2:	02 96       	adiw	r24, 0x02	; 2
    31e4:	0e 94 39 18 	call	0x3072	; 0x3072 <_ZN8std_msgs16MultiArrayLayout11deserializeEPh>
    31e8:	7c 01       	movw	r14, r24
    31ea:	f8 01       	movw	r30, r16
    31ec:	e8 0f       	add	r30, r24
    31ee:	f9 1f       	adc	r31, r25
    31f0:	d0 80       	ld	r13, Z
    31f2:	8f 89       	ldd	r24, Y+23	; 0x17
    31f4:	8d 15       	cp	r24, r13
    31f6:	40 f4       	brcc	.+16     	; 0x3208 <_ZN8std_msgs15UInt8MultiArray11deserializeEPh+0x38>
    31f8:	89 8d       	ldd	r24, Y+25	; 0x19
    31fa:	9a 8d       	ldd	r25, Y+26	; 0x1a
    31fc:	6d 2d       	mov	r22, r13
    31fe:	70 e0       	ldi	r23, 0x00	; 0
    3200:	0e 94 73 3c 	call	0x78e6	; 0x78e6 <realloc>
    3204:	89 8f       	std	Y+25, r24	; 0x19
    3206:	9a 8f       	std	Y+26, r25	; 0x1a
    3208:	97 01       	movw	r18, r14
    320a:	2c 5f       	subi	r18, 0xFC	; 252
    320c:	3f 4f       	sbci	r19, 0xFF	; 255
    320e:	df 8a       	std	Y+23, r13	; 0x17
    3210:	02 0f       	add	r16, r18
    3212:	13 1f       	adc	r17, r19
    3214:	40 e0       	ldi	r20, 0x00	; 0
    3216:	ce 01       	movw	r24, r28
    3218:	48 96       	adiw	r24, 0x18	; 24
    321a:	10 c0       	rjmp	.+32     	; 0x323c <_ZN8std_msgs15UInt8MultiArray11deserializeEPh+0x6c>
    321c:	d8 01       	movw	r26, r16
    321e:	6d 91       	ld	r22, X+
    3220:	8d 01       	movw	r16, r26
    3222:	58 8d       	ldd	r21, Y+24	; 0x18
    3224:	56 2b       	or	r21, r22
    3226:	58 8f       	std	Y+24, r21	; 0x18
    3228:	2f 5f       	subi	r18, 0xFF	; 255
    322a:	3f 4f       	sbci	r19, 0xFF	; 255
    322c:	e9 8d       	ldd	r30, Y+25	; 0x19
    322e:	fa 8d       	ldd	r31, Y+26	; 0x1a
    3230:	e4 0f       	add	r30, r20
    3232:	f1 1d       	adc	r31, r1
    3234:	dc 01       	movw	r26, r24
    3236:	5c 91       	ld	r21, X
    3238:	50 83       	st	Z, r21
    323a:	4f 5f       	subi	r20, 0xFF	; 255
    323c:	5f 89       	ldd	r21, Y+23	; 0x17
    323e:	45 17       	cp	r20, r21
    3240:	68 f3       	brcs	.-38     	; 0x321c <_ZN8std_msgs15UInt8MultiArray11deserializeEPh+0x4c>
    3242:	c9 01       	movw	r24, r18
    3244:	df 91       	pop	r29
    3246:	cf 91       	pop	r28
    3248:	1f 91       	pop	r17
    324a:	0f 91       	pop	r16
    324c:	ff 90       	pop	r15
    324e:	ef 90       	pop	r14
    3250:	df 90       	pop	r13
    3252:	08 95       	ret

00003254 <_ZN3ros10SubscriberIN8std_msgs15UInt8MultiArrayEE8callbackEPh>:
    3254:	0f 93       	push	r16
    3256:	1f 93       	push	r17
    3258:	cf 93       	push	r28
    325a:	df 93       	push	r29
    325c:	ec 01       	movw	r28, r24
    325e:	8c 01       	movw	r16, r24
    3260:	0a 5f       	subi	r16, 0xFA	; 250
    3262:	1f 4f       	sbci	r17, 0xFF	; 255
    3264:	c8 01       	movw	r24, r16
    3266:	0e 94 e8 18 	call	0x31d0	; 0x31d0 <_ZN8std_msgs15UInt8MultiArray11deserializeEPh>
    326a:	e9 a1       	ldd	r30, Y+33	; 0x21
    326c:	fa a1       	ldd	r31, Y+34	; 0x22
    326e:	c8 01       	movw	r24, r16
    3270:	19 95       	eicall
    3272:	df 91       	pop	r29
    3274:	cf 91       	pop	r28
    3276:	1f 91       	pop	r17
    3278:	0f 91       	pop	r16
    327a:	08 95       	ret

0000327c <_Z7servocbRKN8std_msgs15UInt8MultiArrayE>:
    327c:	0f 93       	push	r16
    327e:	1f 93       	push	r17
    3280:	cf 93       	push	r28
    3282:	df 93       	push	r29
    3284:	8c 01       	movw	r16, r24
    3286:	c0 e0       	ldi	r28, 0x00	; 0
    3288:	d0 e0       	ldi	r29, 0x00	; 0
    328a:	d8 01       	movw	r26, r16
    328c:	57 96       	adiw	r26, 0x17	; 23
    328e:	8c 91       	ld	r24, X
    3290:	57 97       	sbiw	r26, 0x17	; 23
    3292:	c8 17       	cp	r28, r24
    3294:	b0 f4       	brcc	.+44     	; 0x32c2 <_Z7servocbRKN8std_msgs15UInt8MultiArrayE+0x46>
    3296:	c2 30       	cpi	r28, 0x02	; 2
    3298:	d1 05       	cpc	r29, r1
    329a:	99 f0       	breq	.+38     	; 0x32c2 <_Z7servocbRKN8std_msgs15UInt8MultiArrayE+0x46>
    329c:	ce 01       	movw	r24, r28
    329e:	88 0f       	add	r24, r24
    32a0:	99 1f       	adc	r25, r25
    32a2:	8c 0f       	add	r24, r28
    32a4:	9d 1f       	adc	r25, r29
    32a6:	59 96       	adiw	r26, 0x19	; 25
    32a8:	ed 91       	ld	r30, X+
    32aa:	fc 91       	ld	r31, X
    32ac:	5a 97       	sbiw	r26, 0x1a	; 26
    32ae:	ec 0f       	add	r30, r28
    32b0:	fd 1f       	adc	r31, r29
    32b2:	60 81       	ld	r22, Z
    32b4:	82 55       	subi	r24, 0x52	; 82
    32b6:	98 4f       	sbci	r25, 0xF8	; 248
    32b8:	70 e0       	ldi	r23, 0x00	; 0
    32ba:	0e 94 4f 38 	call	0x709e	; 0x709e <_ZN5Servo5writeEi>
    32be:	21 96       	adiw	r28, 0x01	; 1
    32c0:	e4 cf       	rjmp	.-56     	; 0x328a <_Z7servocbRKN8std_msgs15UInt8MultiArrayE+0xe>
    32c2:	df 91       	pop	r29
    32c4:	cf 91       	pop	r28
    32c6:	1f 91       	pop	r17
    32c8:	0f 91       	pop	r16
    32ca:	08 95       	ret

000032cc <_Z7drivecbRKN5rover6MotorsE>:
    32cc:	af 92       	push	r10
    32ce:	bf 92       	push	r11
    32d0:	cf 92       	push	r12
    32d2:	df 92       	push	r13
    32d4:	ef 92       	push	r14
    32d6:	ff 92       	push	r15
    32d8:	0f 93       	push	r16
    32da:	1f 93       	push	r17
    32dc:	cf 93       	push	r28
    32de:	df 93       	push	r29
    32e0:	ec 01       	movw	r28, r24
    32e2:	6a 89       	ldd	r22, Y+18	; 0x12
    32e4:	7b 89       	ldd	r23, Y+19	; 0x13
    32e6:	8c 89       	ldd	r24, Y+20	; 0x14
    32e8:	9d 89       	ldd	r25, Y+21	; 0x15
    32ea:	20 91 c0 07 	lds	r18, 0x07C0
    32ee:	30 91 c1 07 	lds	r19, 0x07C1
    32f2:	40 91 c2 07 	lds	r20, 0x07C2
    32f6:	50 91 c3 07 	lds	r21, 0x07C3
    32fa:	0e 94 3d 3e 	call	0x7c7a	; 0x7c7a <__divsf3>
    32fe:	0e 94 a5 3e 	call	0x7d4a	; 0x7d4a <__fixsfsi>
    3302:	d6 2e       	mov	r13, r22
    3304:	c7 2e       	mov	r12, r23
    3306:	b8 2e       	mov	r11, r24
    3308:	a9 2e       	mov	r10, r25
    330a:	6e 89       	ldd	r22, Y+22	; 0x16
    330c:	7f 89       	ldd	r23, Y+23	; 0x17
    330e:	88 8d       	ldd	r24, Y+24	; 0x18
    3310:	99 8d       	ldd	r25, Y+25	; 0x19
    3312:	20 91 d8 07 	lds	r18, 0x07D8
    3316:	30 91 d9 07 	lds	r19, 0x07D9
    331a:	40 91 da 07 	lds	r20, 0x07DA
    331e:	50 91 db 07 	lds	r21, 0x07DB
    3322:	0e 94 3d 3e 	call	0x7c7a	; 0x7c7a <__divsf3>
    3326:	0e 94 a5 3e 	call	0x7d4a	; 0x7d4a <__fixsfsi>
    332a:	16 2f       	mov	r17, r22
    332c:	07 2f       	mov	r16, r23
    332e:	f8 2e       	mov	r15, r24
    3330:	e9 2e       	mov	r14, r25
    3332:	c9 e2       	ldi	r28, 0x29	; 41
    3334:	d0 e1       	ldi	r29, 0x10	; 16
    3336:	ce 01       	movw	r24, r28
    3338:	4d 2d       	mov	r20, r13
    333a:	5c 2d       	mov	r21, r12
    333c:	6b 2d       	mov	r22, r11
    333e:	7a 2d       	mov	r23, r10
    3340:	2a e0       	ldi	r18, 0x0A	; 10
    3342:	30 e0       	ldi	r19, 0x00	; 0
    3344:	0e 94 72 33 	call	0x66e4	; 0x66e4 <_ZN5Print5printEli>
    3348:	ce 01       	movw	r24, r28
    334a:	61 e9       	ldi	r22, 0x91	; 145
    334c:	74 e0       	ldi	r23, 0x04	; 4
    334e:	0e 94 e7 32 	call	0x65ce	; 0x65ce <_ZN5Print5printEPKc>
    3352:	ce 01       	movw	r24, r28
    3354:	41 2f       	mov	r20, r17
    3356:	50 2f       	mov	r21, r16
    3358:	6f 2d       	mov	r22, r15
    335a:	7e 2d       	mov	r23, r14
    335c:	2a e0       	ldi	r18, 0x0A	; 10
    335e:	30 e0       	ldi	r19, 0x00	; 0
    3360:	0e 94 bf 33 	call	0x677e	; 0x677e <_ZN5Print7printlnEli>
    3364:	c5 ee       	ldi	r28, 0xE5	; 229
    3366:	d7 e0       	ldi	r29, 0x07	; 7
    3368:	ce 01       	movw	r24, r28
    336a:	60 e8       	ldi	r22, 0x80	; 128
    336c:	2d 2d       	mov	r18, r13
    336e:	3c 2d       	mov	r19, r12
    3370:	4b 2d       	mov	r20, r11
    3372:	5a 2d       	mov	r21, r10
    3374:	0e 94 0a 07 	call	0xe14	; 0xe14 <_ZN8RoboClaw7SpeedM1Ehl>
    3378:	ce 01       	movw	r24, r28
    337a:	60 e8       	ldi	r22, 0x80	; 128
    337c:	21 2f       	mov	r18, r17
    337e:	30 2f       	mov	r19, r16
    3380:	4f 2d       	mov	r20, r15
    3382:	5e 2d       	mov	r21, r14
    3384:	0e 94 34 07 	call	0xe68	; 0xe68 <_ZN8RoboClaw7SpeedM2Ehl>
    3388:	df 91       	pop	r29
    338a:	cf 91       	pop	r28
    338c:	1f 91       	pop	r17
    338e:	0f 91       	pop	r16
    3390:	ff 90       	pop	r15
    3392:	ef 90       	pop	r14
    3394:	df 90       	pop	r13
    3396:	cf 90       	pop	r12
    3398:	bf 90       	pop	r11
    339a:	af 90       	pop	r10
    339c:	08 95       	ret

0000339e <_ZN3ros9Publisher7publishEPKNS_3MsgE>:
    339e:	cf 93       	push	r28
    33a0:	df 93       	push	r29
    33a2:	fc 01       	movw	r30, r24
    33a4:	ab 01       	movw	r20, r22
    33a6:	86 81       	ldd	r24, Z+6	; 0x06
    33a8:	97 81       	ldd	r25, Z+7	; 0x07
    33aa:	ec 01       	movw	r28, r24
    33ac:	a8 81       	ld	r26, Y
    33ae:	b9 81       	ldd	r27, Y+1	; 0x01
    33b0:	64 81       	ldd	r22, Z+4	; 0x04
    33b2:	75 81       	ldd	r23, Z+5	; 0x05
    33b4:	ed 91       	ld	r30, X+
    33b6:	fc 91       	ld	r31, X
    33b8:	19 95       	eicall
    33ba:	df 91       	pop	r29
    33bc:	cf 91       	pop	r28
    33be:	08 95       	ret

000033c0 <_ZN15ArduinoHardware4initEv>:
    33c0:	fc 01       	movw	r30, r24
    33c2:	42 81       	ldd	r20, Z+2	; 0x02
    33c4:	53 81       	ldd	r21, Z+3	; 0x03
    33c6:	64 81       	ldd	r22, Z+4	; 0x04
    33c8:	75 81       	ldd	r23, Z+5	; 0x05
    33ca:	80 81       	ld	r24, Z
    33cc:	91 81       	ldd	r25, Z+1	; 0x01
    33ce:	0e 94 f8 30 	call	0x61f0	; 0x61f0 <_ZN14HardwareSerial5beginEl>
    33d2:	08 95       	ret

000033d4 <_ZN3IMU15Compass_HeadingEv>:
    33d4:	2f 92       	push	r2
    33d6:	3f 92       	push	r3
    33d8:	4f 92       	push	r4
    33da:	5f 92       	push	r5
    33dc:	6f 92       	push	r6
    33de:	7f 92       	push	r7
    33e0:	8f 92       	push	r8
    33e2:	9f 92       	push	r9
    33e4:	af 92       	push	r10
    33e6:	bf 92       	push	r11
    33e8:	cf 92       	push	r12
    33ea:	df 92       	push	r13
    33ec:	ef 92       	push	r14
    33ee:	ff 92       	push	r15
    33f0:	0f 93       	push	r16
    33f2:	1f 93       	push	r17
    33f4:	df 93       	push	r29
    33f6:	cf 93       	push	r28
    33f8:	cd b7       	in	r28, 0x3d	; 61
    33fa:	de b7       	in	r29, 0x3e	; 62
    33fc:	64 97       	sbiw	r28, 0x14	; 20
    33fe:	0f b6       	in	r0, 0x3f	; 63
    3400:	f8 94       	cli
    3402:	de bf       	out	0x3e, r29	; 62
    3404:	0f be       	out	0x3f, r0	; 63
    3406:	cd bf       	out	0x3d, r28	; 61
    3408:	e0 90 19 07 	lds	r14, 0x0719
    340c:	f0 90 1a 07 	lds	r15, 0x071A
    3410:	00 91 1b 07 	lds	r16, 0x071B
    3414:	10 91 1c 07 	lds	r17, 0x071C
    3418:	c8 01       	movw	r24, r16
    341a:	b7 01       	movw	r22, r14
    341c:	0e 94 3a 3e 	call	0x7c74	; 0x7c74 <cos>
    3420:	69 83       	std	Y+1, r22	; 0x01
    3422:	7a 83       	std	Y+2, r23	; 0x02
    3424:	8b 83       	std	Y+3, r24	; 0x03
    3426:	9c 83       	std	Y+4, r25	; 0x04
    3428:	c8 01       	movw	r24, r16
    342a:	b7 01       	movw	r22, r14
    342c:	0e 94 80 40 	call	0x8100	; 0x8100 <sin>
    3430:	6d 83       	std	Y+5, r22	; 0x05
    3432:	7e 83       	std	Y+6, r23	; 0x06
    3434:	8f 83       	std	Y+7, r24	; 0x07
    3436:	98 87       	std	Y+8, r25	; 0x08
    3438:	e0 90 1d 07 	lds	r14, 0x071D
    343c:	f0 90 1e 07 	lds	r15, 0x071E
    3440:	00 91 1f 07 	lds	r16, 0x071F
    3444:	10 91 20 07 	lds	r17, 0x0720
    3448:	c8 01       	movw	r24, r16
    344a:	b7 01       	movw	r22, r14
    344c:	0e 94 3a 3e 	call	0x7c74	; 0x7c74 <cos>
    3450:	6d 87       	std	Y+13, r22	; 0x0d
    3452:	7e 87       	std	Y+14, r23	; 0x0e
    3454:	8f 87       	std	Y+15, r24	; 0x0f
    3456:	98 8b       	std	Y+16, r25	; 0x10
    3458:	c8 01       	movw	r24, r16
    345a:	b7 01       	movw	r22, r14
    345c:	0e 94 80 40 	call	0x8100	; 0x8100 <sin>
    3460:	69 87       	std	Y+9, r22	; 0x09
    3462:	7a 87       	std	Y+10, r23	; 0x0a
    3464:	8b 87       	std	Y+11, r24	; 0x0b
    3466:	9c 87       	std	Y+12, r25	; 0x0c
    3468:	e0 90 2f 05 	lds	r14, 0x052F
    346c:	f0 90 30 05 	lds	r15, 0x0530
    3470:	81 eb       	ldi	r24, 0xB1	; 177
    3472:	91 e0       	ldi	r25, 0x01	; 1
    3474:	e8 9e       	mul	r14, r24
    3476:	b0 01       	movw	r22, r0
    3478:	e9 9e       	mul	r14, r25
    347a:	70 0d       	add	r23, r0
    347c:	f8 9e       	mul	r15, r24
    347e:	70 0d       	add	r23, r0
    3480:	11 24       	eor	r1, r1
    3482:	80 91 bb 06 	lds	r24, 0x06BB
    3486:	90 91 bc 06 	lds	r25, 0x06BC
    348a:	68 0f       	add	r22, r24
    348c:	79 1f       	adc	r23, r25
    348e:	88 27       	eor	r24, r24
    3490:	77 fd       	sbrc	r23, 7
    3492:	80 95       	com	r24
    3494:	98 2f       	mov	r25, r24
    3496:	0e 94 d8 3e 	call	0x7db0	; 0x7db0 <__floatsisf>
    349a:	20 e0       	ldi	r18, 0x00	; 0
    349c:	30 e0       	ldi	r19, 0x00	; 0
    349e:	49 ea       	ldi	r20, 0xA9	; 169
    34a0:	53 e4       	ldi	r21, 0x43	; 67
    34a2:	0e 94 3d 3e 	call	0x7c7a	; 0x7c7a <__divsf3>
    34a6:	5b 01       	movw	r10, r22
    34a8:	6c 01       	movw	r12, r24
    34aa:	b7 01       	movw	r22, r14
    34ac:	88 27       	eor	r24, r24
    34ae:	77 fd       	sbrc	r23, 7
    34b0:	80 95       	com	r24
    34b2:	98 2f       	mov	r25, r24
    34b4:	0e 94 d8 3e 	call	0x7db0	; 0x7db0 <__floatsisf>
    34b8:	20 e0       	ldi	r18, 0x00	; 0
    34ba:	30 e0       	ldi	r19, 0x00	; 0
    34bc:	40 e0       	ldi	r20, 0x00	; 0
    34be:	5f e3       	ldi	r21, 0x3F	; 63
    34c0:	0e 94 1d 40 	call	0x803a	; 0x803a <__mulsf3>
    34c4:	9b 01       	movw	r18, r22
    34c6:	ac 01       	movw	r20, r24
    34c8:	c6 01       	movw	r24, r12
    34ca:	b5 01       	movw	r22, r10
    34cc:	0e 94 58 3d 	call	0x7ab0	; 0x7ab0 <__subsf3>
    34d0:	56 2e       	mov	r5, r22
    34d2:	47 2e       	mov	r4, r23
    34d4:	38 2e       	mov	r3, r24
    34d6:	29 2e       	mov	r2, r25
    34d8:	a2 01       	movw	r20, r4
    34da:	91 01       	movw	r18, r2
    34dc:	85 2f       	mov	r24, r21
    34de:	94 2f       	mov	r25, r20
    34e0:	a3 2f       	mov	r26, r19
    34e2:	b2 2f       	mov	r27, r18
    34e4:	80 93 c1 06 	sts	0x06C1, r24
    34e8:	90 93 c2 06 	sts	0x06C2, r25
    34ec:	a0 93 c3 06 	sts	0x06C3, r26
    34f0:	b0 93 c4 06 	sts	0x06C4, r27
    34f4:	e0 90 31 05 	lds	r14, 0x0531
    34f8:	f0 90 32 05 	lds	r15, 0x0532
    34fc:	86 e9       	ldi	r24, 0x96	; 150
    34fe:	91 e0       	ldi	r25, 0x01	; 1
    3500:	e8 9e       	mul	r14, r24
    3502:	b0 01       	movw	r22, r0
    3504:	e9 9e       	mul	r14, r25
    3506:	70 0d       	add	r23, r0
    3508:	f8 9e       	mul	r15, r24
    350a:	70 0d       	add	r23, r0
    350c:	11 24       	eor	r1, r1
    350e:	80 91 bd 06 	lds	r24, 0x06BD
    3512:	90 91 be 06 	lds	r25, 0x06BE
    3516:	68 0f       	add	r22, r24
    3518:	79 1f       	adc	r23, r25
    351a:	88 27       	eor	r24, r24
    351c:	77 fd       	sbrc	r23, 7
    351e:	80 95       	com	r24
    3520:	98 2f       	mov	r25, r24
    3522:	0e 94 d8 3e 	call	0x7db0	; 0x7db0 <__floatsisf>
    3526:	20 e0       	ldi	r18, 0x00	; 0
    3528:	30 e8       	ldi	r19, 0x80	; 128
    352a:	4f ed       	ldi	r20, 0xDF	; 223
    352c:	53 e4       	ldi	r21, 0x43	; 67
    352e:	0e 94 3d 3e 	call	0x7c7a	; 0x7c7a <__divsf3>
    3532:	5b 01       	movw	r10, r22
    3534:	6c 01       	movw	r12, r24
    3536:	b7 01       	movw	r22, r14
    3538:	88 27       	eor	r24, r24
    353a:	77 fd       	sbrc	r23, 7
    353c:	80 95       	com	r24
    353e:	98 2f       	mov	r25, r24
    3540:	0e 94 d8 3e 	call	0x7db0	; 0x7db0 <__floatsisf>
    3544:	20 e0       	ldi	r18, 0x00	; 0
    3546:	30 e0       	ldi	r19, 0x00	; 0
    3548:	40 e0       	ldi	r20, 0x00	; 0
    354a:	5f e3       	ldi	r21, 0x3F	; 63
    354c:	0e 94 1d 40 	call	0x803a	; 0x803a <__mulsf3>
    3550:	9b 01       	movw	r18, r22
    3552:	ac 01       	movw	r20, r24
    3554:	c6 01       	movw	r24, r12
    3556:	b5 01       	movw	r22, r10
    3558:	0e 94 58 3d 	call	0x7ab0	; 0x7ab0 <__subsf3>
    355c:	d6 2e       	mov	r13, r22
    355e:	c7 2e       	mov	r12, r23
    3560:	b8 2e       	mov	r11, r24
    3562:	a9 2e       	mov	r10, r25
    3564:	a6 01       	movw	r20, r12
    3566:	95 01       	movw	r18, r10
    3568:	85 2f       	mov	r24, r21
    356a:	94 2f       	mov	r25, r20
    356c:	a3 2f       	mov	r26, r19
    356e:	b2 2f       	mov	r27, r18
    3570:	80 93 c5 06 	sts	0x06C5, r24
    3574:	90 93 c6 06 	sts	0x06C6, r25
    3578:	a0 93 c7 06 	sts	0x06C7, r26
    357c:	b0 93 c8 06 	sts	0x06C8, r27
    3580:	e0 90 33 05 	lds	r14, 0x0533
    3584:	f0 90 34 05 	lds	r15, 0x0534
    3588:	85 ec       	ldi	r24, 0xC5	; 197
    358a:	90 e0       	ldi	r25, 0x00	; 0
    358c:	e8 9e       	mul	r14, r24
    358e:	b0 01       	movw	r22, r0
    3590:	e9 9e       	mul	r14, r25
    3592:	70 0d       	add	r23, r0
    3594:	f8 9e       	mul	r15, r24
    3596:	70 0d       	add	r23, r0
    3598:	11 24       	eor	r1, r1
    359a:	80 91 bf 06 	lds	r24, 0x06BF
    359e:	90 91 c0 06 	lds	r25, 0x06C0
    35a2:	68 0f       	add	r22, r24
    35a4:	79 1f       	adc	r23, r25
    35a6:	88 27       	eor	r24, r24
    35a8:	77 fd       	sbrc	r23, 7
    35aa:	80 95       	com	r24
    35ac:	98 2f       	mov	r25, r24
    35ae:	0e 94 d8 3e 	call	0x7db0	; 0x7db0 <__floatsisf>
    35b2:	20 e0       	ldi	r18, 0x00	; 0
    35b4:	30 e0       	ldi	r19, 0x00	; 0
    35b6:	48 ec       	ldi	r20, 0xC8	; 200
    35b8:	53 e4       	ldi	r21, 0x43	; 67
    35ba:	0e 94 3d 3e 	call	0x7c7a	; 0x7c7a <__divsf3>
    35be:	3b 01       	movw	r6, r22
    35c0:	4c 01       	movw	r8, r24
    35c2:	b7 01       	movw	r22, r14
    35c4:	88 27       	eor	r24, r24
    35c6:	77 fd       	sbrc	r23, 7
    35c8:	80 95       	com	r24
    35ca:	98 2f       	mov	r25, r24
    35cc:	0e 94 d8 3e 	call	0x7db0	; 0x7db0 <__floatsisf>
    35d0:	20 e0       	ldi	r18, 0x00	; 0
    35d2:	30 e0       	ldi	r19, 0x00	; 0
    35d4:	40 e0       	ldi	r20, 0x00	; 0
    35d6:	5f e3       	ldi	r21, 0x3F	; 63
    35d8:	0e 94 1d 40 	call	0x803a	; 0x803a <__mulsf3>
    35dc:	9b 01       	movw	r18, r22
    35de:	ac 01       	movw	r20, r24
    35e0:	c4 01       	movw	r24, r8
    35e2:	b3 01       	movw	r22, r6
    35e4:	0e 94 58 3d 	call	0x7ab0	; 0x7ab0 <__subsf3>
    35e8:	8b 01       	movw	r16, r22
    35ea:	7c 01       	movw	r14, r24
    35ec:	86 2f       	mov	r24, r22
    35ee:	91 2f       	mov	r25, r17
    35f0:	ae 2d       	mov	r26, r14
    35f2:	bf 2d       	mov	r27, r15
    35f4:	80 93 c9 06 	sts	0x06C9, r24
    35f8:	90 93 ca 06 	sts	0x06CA, r25
    35fc:	a0 93 cb 06 	sts	0x06CB, r26
    3600:	b0 93 cc 06 	sts	0x06CC, r27
    3604:	a6 01       	movw	r20, r12
    3606:	95 01       	movw	r18, r10
    3608:	65 2f       	mov	r22, r21
    360a:	74 2f       	mov	r23, r20
    360c:	83 2f       	mov	r24, r19
    360e:	92 2f       	mov	r25, r18
    3610:	29 81       	ldd	r18, Y+1	; 0x01
    3612:	3a 81       	ldd	r19, Y+2	; 0x02
    3614:	4b 81       	ldd	r20, Y+3	; 0x03
    3616:	5c 81       	ldd	r21, Y+4	; 0x04
    3618:	0e 94 1d 40 	call	0x803a	; 0x803a <__mulsf3>
    361c:	3b 01       	movw	r6, r22
    361e:	4c 01       	movw	r8, r24
    3620:	60 2f       	mov	r22, r16
    3622:	71 2f       	mov	r23, r17
    3624:	8e 2d       	mov	r24, r14
    3626:	9f 2d       	mov	r25, r15
    3628:	2d 81       	ldd	r18, Y+5	; 0x05
    362a:	3e 81       	ldd	r19, Y+6	; 0x06
    362c:	4f 81       	ldd	r20, Y+7	; 0x07
    362e:	58 85       	ldd	r21, Y+8	; 0x08
    3630:	0e 94 1d 40 	call	0x803a	; 0x803a <__mulsf3>
    3634:	9b 01       	movw	r18, r22
    3636:	ac 01       	movw	r20, r24
    3638:	c4 01       	movw	r24, r8
    363a:	b3 01       	movw	r22, r6
    363c:	0e 94 58 3d 	call	0x7ab0	; 0x7ab0 <__subsf3>
    3640:	9b 01       	movw	r18, r22
    3642:	ac 01       	movw	r20, r24
    3644:	50 58       	subi	r21, 0x80	; 128
    3646:	29 8b       	std	Y+17, r18	; 0x11
    3648:	3a 8b       	std	Y+18, r19	; 0x12
    364a:	4b 8b       	std	Y+19, r20	; 0x13
    364c:	5c 8b       	std	Y+20, r21	; 0x14
    364e:	a2 01       	movw	r20, r4
    3650:	91 01       	movw	r18, r2
    3652:	65 2f       	mov	r22, r21
    3654:	74 2f       	mov	r23, r20
    3656:	83 2f       	mov	r24, r19
    3658:	92 2f       	mov	r25, r18
    365a:	2d 85       	ldd	r18, Y+13	; 0x0d
    365c:	3e 85       	ldd	r19, Y+14	; 0x0e
    365e:	4f 85       	ldd	r20, Y+15	; 0x0f
    3660:	58 89       	ldd	r21, Y+16	; 0x10
    3662:	0e 94 1d 40 	call	0x803a	; 0x803a <__mulsf3>
    3666:	3b 01       	movw	r6, r22
    3668:	4c 01       	movw	r8, r24
    366a:	a6 01       	movw	r20, r12
    366c:	95 01       	movw	r18, r10
    366e:	65 2f       	mov	r22, r21
    3670:	74 2f       	mov	r23, r20
    3672:	83 2f       	mov	r24, r19
    3674:	92 2f       	mov	r25, r18
    3676:	2d 81       	ldd	r18, Y+5	; 0x05
    3678:	3e 81       	ldd	r19, Y+6	; 0x06
    367a:	4f 81       	ldd	r20, Y+7	; 0x07
    367c:	58 85       	ldd	r21, Y+8	; 0x08
    367e:	0e 94 1d 40 	call	0x803a	; 0x803a <__mulsf3>
    3682:	29 85       	ldd	r18, Y+9	; 0x09
    3684:	3a 85       	ldd	r19, Y+10	; 0x0a
    3686:	4b 85       	ldd	r20, Y+11	; 0x0b
    3688:	5c 85       	ldd	r21, Y+12	; 0x0c
    368a:	0e 94 1d 40 	call	0x803a	; 0x803a <__mulsf3>
    368e:	9b 01       	movw	r18, r22
    3690:	ac 01       	movw	r20, r24
    3692:	c4 01       	movw	r24, r8
    3694:	b3 01       	movw	r22, r6
    3696:	0e 94 59 3d 	call	0x7ab2	; 0x7ab2 <__addsf3>
    369a:	5b 01       	movw	r10, r22
    369c:	6c 01       	movw	r12, r24
    369e:	60 2f       	mov	r22, r16
    36a0:	71 2f       	mov	r23, r17
    36a2:	8e 2d       	mov	r24, r14
    36a4:	9f 2d       	mov	r25, r15
    36a6:	29 81       	ldd	r18, Y+1	; 0x01
    36a8:	3a 81       	ldd	r19, Y+2	; 0x02
    36aa:	4b 81       	ldd	r20, Y+3	; 0x03
    36ac:	5c 81       	ldd	r21, Y+4	; 0x04
    36ae:	0e 94 1d 40 	call	0x803a	; 0x803a <__mulsf3>
    36b2:	29 85       	ldd	r18, Y+9	; 0x09
    36b4:	3a 85       	ldd	r19, Y+10	; 0x0a
    36b6:	4b 85       	ldd	r20, Y+11	; 0x0b
    36b8:	5c 85       	ldd	r21, Y+12	; 0x0c
    36ba:	0e 94 1d 40 	call	0x803a	; 0x803a <__mulsf3>
    36be:	9b 01       	movw	r18, r22
    36c0:	ac 01       	movw	r20, r24
    36c2:	c6 01       	movw	r24, r12
    36c4:	b5 01       	movw	r22, r10
    36c6:	0e 94 59 3d 	call	0x7ab2	; 0x7ab2 <__addsf3>
    36ca:	9b 01       	movw	r18, r22
    36cc:	ac 01       	movw	r20, r24
    36ce:	69 89       	ldd	r22, Y+17	; 0x11
    36d0:	7a 89       	ldd	r23, Y+18	; 0x12
    36d2:	8b 89       	ldd	r24, Y+19	; 0x13
    36d4:	9c 89       	ldd	r25, Y+20	; 0x14
    36d6:	0e 94 e3 3d 	call	0x7bc6	; 0x7bc6 <atan2>
    36da:	60 93 cd 06 	sts	0x06CD, r22
    36de:	70 93 ce 06 	sts	0x06CE, r23
    36e2:	80 93 cf 06 	sts	0x06CF, r24
    36e6:	90 93 d0 06 	sts	0x06D0, r25
    36ea:	64 96       	adiw	r28, 0x14	; 20
    36ec:	0f b6       	in	r0, 0x3f	; 63
    36ee:	f8 94       	cli
    36f0:	de bf       	out	0x3e, r29	; 62
    36f2:	0f be       	out	0x3f, r0	; 63
    36f4:	cd bf       	out	0x3d, r28	; 61
    36f6:	cf 91       	pop	r28
    36f8:	df 91       	pop	r29
    36fa:	1f 91       	pop	r17
    36fc:	0f 91       	pop	r16
    36fe:	ff 90       	pop	r15
    3700:	ef 90       	pop	r14
    3702:	df 90       	pop	r13
    3704:	cf 90       	pop	r12
    3706:	bf 90       	pop	r11
    3708:	af 90       	pop	r10
    370a:	9f 90       	pop	r9
    370c:	8f 90       	pop	r8
    370e:	7f 90       	pop	r7
    3710:	6f 90       	pop	r6
    3712:	5f 90       	pop	r5
    3714:	4f 90       	pop	r4
    3716:	3f 90       	pop	r3
    3718:	2f 90       	pop	r2
    371a:	08 95       	ret

0000371c <_ZN3IMU12Euler_anglesEv>:
    371c:	60 91 51 05 	lds	r22, 0x0551
    3720:	70 91 52 05 	lds	r23, 0x0552
    3724:	80 91 53 05 	lds	r24, 0x0553
    3728:	90 91 54 05 	lds	r25, 0x0554
    372c:	0e 94 bd 3d 	call	0x7b7a	; 0x7b7a <asin>
    3730:	90 58       	subi	r25, 0x80	; 128
    3732:	60 93 1d 07 	sts	0x071D, r22
    3736:	70 93 1e 07 	sts	0x071E, r23
    373a:	80 93 1f 07 	sts	0x071F, r24
    373e:	90 93 20 07 	sts	0x0720, r25
    3742:	60 91 55 05 	lds	r22, 0x0555
    3746:	70 91 56 05 	lds	r23, 0x0556
    374a:	80 91 57 05 	lds	r24, 0x0557
    374e:	90 91 58 05 	lds	r25, 0x0558
    3752:	20 91 59 05 	lds	r18, 0x0559
    3756:	30 91 5a 05 	lds	r19, 0x055A
    375a:	40 91 5b 05 	lds	r20, 0x055B
    375e:	50 91 5c 05 	lds	r21, 0x055C
    3762:	0e 94 e3 3d 	call	0x7bc6	; 0x7bc6 <atan2>
    3766:	60 93 19 07 	sts	0x0719, r22
    376a:	70 93 1a 07 	sts	0x071A, r23
    376e:	80 93 1b 07 	sts	0x071B, r24
    3772:	90 93 1c 07 	sts	0x071C, r25
    3776:	60 91 45 05 	lds	r22, 0x0545
    377a:	70 91 46 05 	lds	r23, 0x0546
    377e:	80 91 47 05 	lds	r24, 0x0547
    3782:	90 91 48 05 	lds	r25, 0x0548
    3786:	20 91 39 05 	lds	r18, 0x0539
    378a:	30 91 3a 05 	lds	r19, 0x053A
    378e:	40 91 3b 05 	lds	r20, 0x053B
    3792:	50 91 3c 05 	lds	r21, 0x053C
    3796:	0e 94 e3 3d 	call	0x7bc6	; 0x7bc6 <atan2>
    379a:	60 93 21 07 	sts	0x0721, r22
    379e:	70 93 22 07 	sts	0x0722, r23
    37a2:	80 93 23 07 	sts	0x0723, r24
    37a6:	90 93 24 07 	sts	0x0724, r25
    37aa:	08 95       	ret

000037ac <_ZN3IMU7initI2CEv>:
    37ac:	8b e8       	ldi	r24, 0x8B	; 139
    37ae:	90 e1       	ldi	r25, 0x10	; 16
    37b0:	0e 94 fe 35 	call	0x6bfc	; 0x6bfc <_ZN7TwoWire5beginEv>
    37b4:	08 95       	ret

000037b6 <_ZN3IMU8initGyroEv>:
    37b6:	cf 93       	push	r28
    37b8:	df 93       	push	r29
    37ba:	c3 e6       	ldi	r28, 0x63	; 99
    37bc:	d7 e0       	ldi	r29, 0x07	; 7
    37be:	ce 01       	movw	r24, r28
    37c0:	60 e2       	ldi	r22, 0x20	; 32
    37c2:	4f e0       	ldi	r20, 0x0F	; 15
    37c4:	0e 94 15 02 	call	0x42a	; 0x42a <_ZN8L3G4200D8writeRegEhh>
    37c8:	ce 01       	movw	r24, r28
    37ca:	63 e2       	ldi	r22, 0x23	; 35
    37cc:	40 e2       	ldi	r20, 0x20	; 32
    37ce:	0e 94 15 02 	call	0x42a	; 0x42a <_ZN8L3G4200D8writeRegEhh>
    37d2:	df 91       	pop	r29
    37d4:	cf 91       	pop	r28
    37d6:	08 95       	ret

000037d8 <_ZN3IMU8readGyroEv>:
    37d8:	0f 93       	push	r16
    37da:	1f 93       	push	r17
    37dc:	cf 93       	push	r28
    37de:	df 93       	push	r29
    37e0:	83 e6       	ldi	r24, 0x63	; 99
    37e2:	97 e0       	ldi	r25, 0x07	; 7
    37e4:	0e 94 3b 02 	call	0x476	; 0x476 <_ZN8L3G4200D4readEv>
    37e8:	60 91 63 07 	lds	r22, 0x0763
    37ec:	70 91 64 07 	lds	r23, 0x0764
    37f0:	80 91 65 07 	lds	r24, 0x0765
    37f4:	90 91 66 07 	lds	r25, 0x0766
    37f8:	0e 94 a5 3e 	call	0x7d4a	; 0x7d4a <__fixsfsi>
    37fc:	eb 01       	movw	r28, r22
    37fe:	70 93 98 06 	sts	0x0698, r23
    3802:	60 93 97 06 	sts	0x0697, r22
    3806:	60 91 67 07 	lds	r22, 0x0767
    380a:	70 91 68 07 	lds	r23, 0x0768
    380e:	80 91 69 07 	lds	r24, 0x0769
    3812:	90 91 6a 07 	lds	r25, 0x076A
    3816:	0e 94 a5 3e 	call	0x7d4a	; 0x7d4a <__fixsfsi>
    381a:	8b 01       	movw	r16, r22
    381c:	70 93 9a 06 	sts	0x069A, r23
    3820:	60 93 99 06 	sts	0x0699, r22
    3824:	60 91 6b 07 	lds	r22, 0x076B
    3828:	70 91 6c 07 	lds	r23, 0x076C
    382c:	80 91 6d 07 	lds	r24, 0x076D
    3830:	90 91 6e 07 	lds	r25, 0x076E
    3834:	0e 94 a5 3e 	call	0x7d4a	; 0x7d4a <__fixsfsi>
    3838:	9b 01       	movw	r18, r22
    383a:	70 93 9c 06 	sts	0x069C, r23
    383e:	60 93 9b 06 	sts	0x069B, r22
    3842:	80 91 a3 06 	lds	r24, 0x06A3
    3846:	90 91 a4 06 	lds	r25, 0x06A4
    384a:	c8 1b       	sub	r28, r24
    384c:	d9 0b       	sbc	r29, r25
    384e:	40 91 23 05 	lds	r20, 0x0523
    3852:	50 91 24 05 	lds	r21, 0x0524
    3856:	c4 9f       	mul	r28, r20
    3858:	c0 01       	movw	r24, r0
    385a:	c5 9f       	mul	r28, r21
    385c:	90 0d       	add	r25, r0
    385e:	d4 9f       	mul	r29, r20
    3860:	90 0d       	add	r25, r0
    3862:	11 24       	eor	r1, r1
    3864:	90 93 b0 06 	sts	0x06B0, r25
    3868:	80 93 af 06 	sts	0x06AF, r24
    386c:	80 91 a5 06 	lds	r24, 0x06A5
    3870:	90 91 a6 06 	lds	r25, 0x06A6
    3874:	08 1b       	sub	r16, r24
    3876:	19 0b       	sbc	r17, r25
    3878:	40 91 25 05 	lds	r20, 0x0525
    387c:	50 91 26 05 	lds	r21, 0x0526
    3880:	04 9f       	mul	r16, r20
    3882:	c0 01       	movw	r24, r0
    3884:	05 9f       	mul	r16, r21
    3886:	90 0d       	add	r25, r0
    3888:	14 9f       	mul	r17, r20
    388a:	90 0d       	add	r25, r0
    388c:	11 24       	eor	r1, r1
    388e:	90 93 b2 06 	sts	0x06B2, r25
    3892:	80 93 b1 06 	sts	0x06B1, r24
    3896:	80 91 a7 06 	lds	r24, 0x06A7
    389a:	90 91 a8 06 	lds	r25, 0x06A8
    389e:	28 1b       	sub	r18, r24
    38a0:	39 0b       	sbc	r19, r25
    38a2:	40 91 27 05 	lds	r20, 0x0527
    38a6:	50 91 28 05 	lds	r21, 0x0528
    38aa:	24 9f       	mul	r18, r20
    38ac:	c0 01       	movw	r24, r0
    38ae:	25 9f       	mul	r18, r21
    38b0:	90 0d       	add	r25, r0
    38b2:	34 9f       	mul	r19, r20
    38b4:	90 0d       	add	r25, r0
    38b6:	11 24       	eor	r1, r1
    38b8:	90 93 b4 06 	sts	0x06B4, r25
    38bc:	80 93 b3 06 	sts	0x06B3, r24
    38c0:	df 91       	pop	r29
    38c2:	cf 91       	pop	r28
    38c4:	1f 91       	pop	r17
    38c6:	0f 91       	pop	r16
    38c8:	08 95       	ret

000038ca <_ZN3IMU9initAccelEv>:
    38ca:	cf 93       	push	r28
    38cc:	df 93       	push	r29
    38ce:	cf e6       	ldi	r28, 0x6F	; 111
    38d0:	d7 e0       	ldi	r29, 0x07	; 7
    38d2:	ce 01       	movw	r24, r28
    38d4:	60 e2       	ldi	r22, 0x20	; 32
    38d6:	47 e2       	ldi	r20, 0x27	; 39
    38d8:	0e 94 ef 02 	call	0x5de	; 0x5de <_ZN6LSM30311writeAccRegEhh>
    38dc:	ce 01       	movw	r24, r28
    38de:	63 e2       	ldi	r22, 0x23	; 35
    38e0:	40 e3       	ldi	r20, 0x30	; 48
    38e2:	0e 94 ef 02 	call	0x5de	; 0x5de <_ZN6LSM30311writeAccRegEhh>
    38e6:	df 91       	pop	r29
    38e8:	cf 91       	pop	r28
    38ea:	08 95       	ret

000038ec <_ZN3IMU9readAccelEv>:
    38ec:	0f 93       	push	r16
    38ee:	1f 93       	push	r17
    38f0:	cf 93       	push	r28
    38f2:	df 93       	push	r29
    38f4:	8f e6       	ldi	r24, 0x6F	; 111
    38f6:	97 e0       	ldi	r25, 0x07	; 7
    38f8:	0e 94 97 03 	call	0x72e	; 0x72e <_ZN6LSM3037readAccEv>
    38fc:	60 91 6f 07 	lds	r22, 0x076F
    3900:	70 91 70 07 	lds	r23, 0x0770
    3904:	80 91 71 07 	lds	r24, 0x0771
    3908:	90 91 72 07 	lds	r25, 0x0772
    390c:	0e 94 a5 3e 	call	0x7d4a	; 0x7d4a <__fixsfsi>
    3910:	eb 01       	movw	r28, r22
    3912:	70 93 9e 06 	sts	0x069E, r23
    3916:	60 93 9d 06 	sts	0x069D, r22
    391a:	60 91 73 07 	lds	r22, 0x0773
    391e:	70 91 74 07 	lds	r23, 0x0774
    3922:	80 91 75 07 	lds	r24, 0x0775
    3926:	90 91 76 07 	lds	r25, 0x0776
    392a:	0e 94 a5 3e 	call	0x7d4a	; 0x7d4a <__fixsfsi>
    392e:	8b 01       	movw	r16, r22
    3930:	70 93 a0 06 	sts	0x06A0, r23
    3934:	60 93 9f 06 	sts	0x069F, r22
    3938:	60 91 77 07 	lds	r22, 0x0777
    393c:	70 91 78 07 	lds	r23, 0x0778
    3940:	80 91 79 07 	lds	r24, 0x0779
    3944:	90 91 7a 07 	lds	r25, 0x077A
    3948:	0e 94 a5 3e 	call	0x7d4a	; 0x7d4a <__fixsfsi>
    394c:	9b 01       	movw	r18, r22
    394e:	70 93 a2 06 	sts	0x06A2, r23
    3952:	60 93 a1 06 	sts	0x06A1, r22
    3956:	80 91 a9 06 	lds	r24, 0x06A9
    395a:	90 91 aa 06 	lds	r25, 0x06AA
    395e:	c8 1b       	sub	r28, r24
    3960:	d9 0b       	sbc	r29, r25
    3962:	40 91 29 05 	lds	r20, 0x0529
    3966:	50 91 2a 05 	lds	r21, 0x052A
    396a:	c4 9f       	mul	r28, r20
    396c:	c0 01       	movw	r24, r0
    396e:	c5 9f       	mul	r28, r21
    3970:	90 0d       	add	r25, r0
    3972:	d4 9f       	mul	r29, r20
    3974:	90 0d       	add	r25, r0
    3976:	11 24       	eor	r1, r1
    3978:	90 93 b6 06 	sts	0x06B6, r25
    397c:	80 93 b5 06 	sts	0x06B5, r24
    3980:	80 91 ab 06 	lds	r24, 0x06AB
    3984:	90 91 ac 06 	lds	r25, 0x06AC
    3988:	08 1b       	sub	r16, r24
    398a:	19 0b       	sbc	r17, r25
    398c:	40 91 2b 05 	lds	r20, 0x052B
    3990:	50 91 2c 05 	lds	r21, 0x052C
    3994:	04 9f       	mul	r16, r20
    3996:	c0 01       	movw	r24, r0
    3998:	05 9f       	mul	r16, r21
    399a:	90 0d       	add	r25, r0
    399c:	14 9f       	mul	r17, r20
    399e:	90 0d       	add	r25, r0
    39a0:	11 24       	eor	r1, r1
    39a2:	90 93 b8 06 	sts	0x06B8, r25
    39a6:	80 93 b7 06 	sts	0x06B7, r24
    39aa:	80 91 ad 06 	lds	r24, 0x06AD
    39ae:	90 91 ae 06 	lds	r25, 0x06AE
    39b2:	28 1b       	sub	r18, r24
    39b4:	39 0b       	sbc	r19, r25
    39b6:	40 91 2d 05 	lds	r20, 0x052D
    39ba:	50 91 2e 05 	lds	r21, 0x052E
    39be:	24 9f       	mul	r18, r20
    39c0:	c0 01       	movw	r24, r0
    39c2:	25 9f       	mul	r18, r21
    39c4:	90 0d       	add	r25, r0
    39c6:	34 9f       	mul	r19, r20
    39c8:	90 0d       	add	r25, r0
    39ca:	11 24       	eor	r1, r1
    39cc:	90 93 ba 06 	sts	0x06BA, r25
    39d0:	80 93 b9 06 	sts	0x06B9, r24
    39d4:	df 91       	pop	r29
    39d6:	cf 91       	pop	r28
    39d8:	1f 91       	pop	r17
    39da:	0f 91       	pop	r16
    39dc:	08 95       	ret

000039de <_ZN3IMU11initCompassEv>:
    39de:	cf 93       	push	r28
    39e0:	df 93       	push	r29
    39e2:	cf e6       	ldi	r28, 0x6F	; 111
    39e4:	d7 e0       	ldi	r29, 0x07	; 7
    39e6:	ce 01       	movw	r24, r28
    39e8:	63 e0       	ldi	r22, 0x03	; 3
    39ea:	42 e0       	ldi	r20, 0x02	; 2
    39ec:	0e 94 dd 04 	call	0x9ba	; 0x9ba <_ZN6LSM3034initEhh>
    39f0:	ce 01       	movw	r24, r28
    39f2:	62 e0       	ldi	r22, 0x02	; 2
    39f4:	40 e0       	ldi	r20, 0x00	; 0
    39f6:	0e 94 15 03 	call	0x62a	; 0x62a <_ZN6LSM30311writeMagRegEhh>
    39fa:	df 91       	pop	r29
    39fc:	cf 91       	pop	r28
    39fe:	08 95       	ret

00003a00 <_ZN3IMU7initIMUEv>:
    3a00:	0f 93       	push	r16
    3a02:	1f 93       	push	r17
    3a04:	cf 93       	push	r28
    3a06:	df 93       	push	r29
    3a08:	89 e2       	ldi	r24, 0x29	; 41
    3a0a:	90 e1       	ldi	r25, 0x10	; 16
    3a0c:	40 e0       	ldi	r20, 0x00	; 0
    3a0e:	52 ec       	ldi	r21, 0xC2	; 194
    3a10:	61 e0       	ldi	r22, 0x01	; 1
    3a12:	70 e0       	ldi	r23, 0x00	; 0
    3a14:	0e 94 f8 30 	call	0x61f0	; 0x61f0 <_ZN14HardwareSerial5beginEl>
    3a18:	8d e0       	ldi	r24, 0x0D	; 13
    3a1a:	61 e0       	ldi	r22, 0x01	; 1
    3a1c:	0e 94 4b 35 	call	0x6a96	; 0x6a96 <pinMode>
    3a20:	0e 94 d6 1b 	call	0x37ac	; 0x37ac <_ZN3IMU7initI2CEv>
    3a24:	8d e0       	ldi	r24, 0x0D	; 13
    3a26:	60 e0       	ldi	r22, 0x00	; 0
    3a28:	0e 94 6f 35 	call	0x6ade	; 0x6ade <digitalWrite>
    3a2c:	66 e9       	ldi	r22, 0x96	; 150
    3a2e:	70 e0       	ldi	r23, 0x00	; 0
    3a30:	80 e0       	ldi	r24, 0x00	; 0
    3a32:	90 e0       	ldi	r25, 0x00	; 0
    3a34:	0e 94 8f 34 	call	0x691e	; 0x691e <delay>
    3a38:	0e 94 65 1c 	call	0x38ca	; 0x38ca <_ZN3IMU9initAccelEv>
    3a3c:	0e 94 ef 1c 	call	0x39de	; 0x39de <_ZN3IMU11initCompassEv>
    3a40:	0e 94 db 1b 	call	0x37b6	; 0x37b6 <_ZN3IMU8initGyroEv>
    3a44:	64 e1       	ldi	r22, 0x14	; 20
    3a46:	70 e0       	ldi	r23, 0x00	; 0
    3a48:	80 e0       	ldi	r24, 0x00	; 0
    3a4a:	90 e0       	ldi	r25, 0x00	; 0
    3a4c:	0e 94 8f 34 	call	0x691e	; 0x691e <delay>
    3a50:	00 e2       	ldi	r16, 0x20	; 32
    3a52:	10 e0       	ldi	r17, 0x00	; 0
    3a54:	0e 94 ec 1b 	call	0x37d8	; 0x37d8 <_ZN3IMU8readGyroEv>
    3a58:	0e 94 76 1c 	call	0x38ec	; 0x38ec <_ZN3IMU9readAccelEv>
    3a5c:	a7 e9       	ldi	r26, 0x97	; 151
    3a5e:	b6 e0       	ldi	r27, 0x06	; 6
    3a60:	c3 ea       	ldi	r28, 0xA3	; 163
    3a62:	d6 e0       	ldi	r29, 0x06	; 6
    3a64:	fe 01       	movw	r30, r28
    3a66:	2d 91       	ld	r18, X+
    3a68:	3d 91       	ld	r19, X+
    3a6a:	80 81       	ld	r24, Z
    3a6c:	91 81       	ldd	r25, Z+1	; 0x01
    3a6e:	82 0f       	add	r24, r18
    3a70:	93 1f       	adc	r25, r19
    3a72:	81 93       	st	Z+, r24
    3a74:	91 93       	st	Z+, r25
    3a76:	86 e0       	ldi	r24, 0x06	; 6
    3a78:	a3 3a       	cpi	r26, 0xA3	; 163
    3a7a:	b8 07       	cpc	r27, r24
    3a7c:	a1 f7       	brne	.-24     	; 0x3a66 <_ZN3IMU7initIMUEv+0x66>
    3a7e:	64 e1       	ldi	r22, 0x14	; 20
    3a80:	70 e0       	ldi	r23, 0x00	; 0
    3a82:	80 e0       	ldi	r24, 0x00	; 0
    3a84:	90 e0       	ldi	r25, 0x00	; 0
    3a86:	0e 94 8f 34 	call	0x691e	; 0x691e <delay>
    3a8a:	01 50       	subi	r16, 0x01	; 1
    3a8c:	10 40       	sbci	r17, 0x00	; 0
    3a8e:	11 f7       	brne	.-60     	; 0x3a54 <_ZN3IMU7initIMUEv+0x54>
    3a90:	20 e2       	ldi	r18, 0x20	; 32
    3a92:	30 e0       	ldi	r19, 0x00	; 0
    3a94:	88 81       	ld	r24, Y
    3a96:	99 81       	ldd	r25, Y+1	; 0x01
    3a98:	b9 01       	movw	r22, r18
    3a9a:	0e 94 13 41 	call	0x8226	; 0x8226 <__divmodhi4>
    3a9e:	69 93       	st	Y+, r22
    3aa0:	79 93       	st	Y+, r23
    3aa2:	86 e0       	ldi	r24, 0x06	; 6
    3aa4:	cf 3a       	cpi	r28, 0xAF	; 175
    3aa6:	d8 07       	cpc	r29, r24
    3aa8:	a9 f7       	brne	.-22     	; 0x3a94 <_ZN3IMU7initIMUEv+0x94>
    3aaa:	40 91 2d 05 	lds	r20, 0x052D
    3aae:	50 91 2e 05 	lds	r21, 0x052E
    3ab2:	20 e0       	ldi	r18, 0x00	; 0
    3ab4:	3f ef       	ldi	r19, 0xFF	; 255
    3ab6:	42 9f       	mul	r20, r18
    3ab8:	c0 01       	movw	r24, r0
    3aba:	43 9f       	mul	r20, r19
    3abc:	90 0d       	add	r25, r0
    3abe:	52 9f       	mul	r21, r18
    3ac0:	90 0d       	add	r25, r0
    3ac2:	11 24       	eor	r1, r1
    3ac4:	20 91 ad 06 	lds	r18, 0x06AD
    3ac8:	30 91 ae 06 	lds	r19, 0x06AE
    3acc:	82 0f       	add	r24, r18
    3ace:	93 1f       	adc	r25, r19
    3ad0:	90 93 ae 06 	sts	0x06AE, r25
    3ad4:	80 93 ad 06 	sts	0x06AD, r24
    3ad8:	8d e0       	ldi	r24, 0x0D	; 13
    3ada:	61 e0       	ldi	r22, 0x01	; 1
    3adc:	0e 94 6f 35 	call	0x6ade	; 0x6ade <digitalWrite>
    3ae0:	0e 94 5b 34 	call	0x68b6	; 0x68b6 <millis>
    3ae4:	60 93 8f 06 	sts	0x068F, r22
    3ae8:	70 93 90 06 	sts	0x0690, r23
    3aec:	80 93 91 06 	sts	0x0691, r24
    3af0:	90 93 92 06 	sts	0x0692, r25
    3af4:	10 92 3e 07 	sts	0x073E, r1
    3af8:	10 92 3d 07 	sts	0x073D, r1
    3afc:	df 91       	pop	r29
    3afe:	cf 91       	pop	r28
    3b00:	1f 91       	pop	r17
    3b02:	0f 91       	pop	r16
    3b04:	08 95       	ret

00003b06 <_ZN3IMU11readCompassEv>:
    3b06:	8f e6       	ldi	r24, 0x6F	; 111
    3b08:	97 e0       	ldi	r25, 0x07	; 7
    3b0a:	0e 94 21 04 	call	0x842	; 0x842 <_ZN6LSM3037readMagEv>
    3b0e:	60 91 2f 05 	lds	r22, 0x052F
    3b12:	70 91 30 05 	lds	r23, 0x0530
    3b16:	88 27       	eor	r24, r24
    3b18:	77 fd       	sbrc	r23, 7
    3b1a:	80 95       	com	r24
    3b1c:	98 2f       	mov	r25, r24
    3b1e:	0e 94 d8 3e 	call	0x7db0	; 0x7db0 <__floatsisf>
    3b22:	20 91 7b 07 	lds	r18, 0x077B
    3b26:	30 91 7c 07 	lds	r19, 0x077C
    3b2a:	40 91 7d 07 	lds	r20, 0x077D
    3b2e:	50 91 7e 07 	lds	r21, 0x077E
    3b32:	0e 94 1d 40 	call	0x803a	; 0x803a <__mulsf3>
    3b36:	0e 94 a5 3e 	call	0x7d4a	; 0x7d4a <__fixsfsi>
    3b3a:	70 93 bc 06 	sts	0x06BC, r23
    3b3e:	60 93 bb 06 	sts	0x06BB, r22
    3b42:	60 91 31 05 	lds	r22, 0x0531
    3b46:	70 91 32 05 	lds	r23, 0x0532
    3b4a:	88 27       	eor	r24, r24
    3b4c:	77 fd       	sbrc	r23, 7
    3b4e:	80 95       	com	r24
    3b50:	98 2f       	mov	r25, r24
    3b52:	0e 94 d8 3e 	call	0x7db0	; 0x7db0 <__floatsisf>
    3b56:	20 91 7f 07 	lds	r18, 0x077F
    3b5a:	30 91 80 07 	lds	r19, 0x0780
    3b5e:	40 91 81 07 	lds	r20, 0x0781
    3b62:	50 91 82 07 	lds	r21, 0x0782
    3b66:	0e 94 1d 40 	call	0x803a	; 0x803a <__mulsf3>
    3b6a:	0e 94 a5 3e 	call	0x7d4a	; 0x7d4a <__fixsfsi>
    3b6e:	70 93 be 06 	sts	0x06BE, r23
    3b72:	60 93 bd 06 	sts	0x06BD, r22
    3b76:	60 91 33 05 	lds	r22, 0x0533
    3b7a:	70 91 34 05 	lds	r23, 0x0534
    3b7e:	88 27       	eor	r24, r24
    3b80:	77 fd       	sbrc	r23, 7
    3b82:	80 95       	com	r24
    3b84:	98 2f       	mov	r25, r24
    3b86:	0e 94 d8 3e 	call	0x7db0	; 0x7db0 <__floatsisf>
    3b8a:	20 91 83 07 	lds	r18, 0x0783
    3b8e:	30 91 84 07 	lds	r19, 0x0784
    3b92:	40 91 85 07 	lds	r20, 0x0785
    3b96:	50 91 86 07 	lds	r21, 0x0786
    3b9a:	0e 94 1d 40 	call	0x803a	; 0x803a <__mulsf3>
    3b9e:	0e 94 a5 3e 	call	0x7d4a	; 0x7d4a <__fixsfsi>
    3ba2:	70 93 c0 06 	sts	0x06C0, r23
    3ba6:	60 93 bf 06 	sts	0x06BF, r22
    3baa:	08 95       	ret

00003bac <_ZN3IMU16vectorDotProductEPfS0_>:
    3bac:	af 92       	push	r10
    3bae:	bf 92       	push	r11
    3bb0:	cf 92       	push	r12
    3bb2:	df 92       	push	r13
    3bb4:	ef 92       	push	r14
    3bb6:	ff 92       	push	r15
    3bb8:	0f 93       	push	r16
    3bba:	1f 93       	push	r17
    3bbc:	cf 93       	push	r28
    3bbe:	df 93       	push	r29
    3bc0:	c8 2e       	mov	r12, r24
    3bc2:	d9 2e       	mov	r13, r25
    3bc4:	a6 2e       	mov	r10, r22
    3bc6:	b7 2e       	mov	r11, r23
    3bc8:	c3 e0       	ldi	r28, 0x03	; 3
    3bca:	d0 e0       	ldi	r29, 0x00	; 0
    3bcc:	10 e0       	ldi	r17, 0x00	; 0
    3bce:	00 e0       	ldi	r16, 0x00	; 0
    3bd0:	ff 24       	eor	r15, r15
    3bd2:	ee 24       	eor	r14, r14
    3bd4:	f6 01       	movw	r30, r12
    3bd6:	61 91       	ld	r22, Z+
    3bd8:	71 91       	ld	r23, Z+
    3bda:	81 91       	ld	r24, Z+
    3bdc:	91 91       	ld	r25, Z+
    3bde:	6f 01       	movw	r12, r30
    3be0:	f5 01       	movw	r30, r10
    3be2:	21 91       	ld	r18, Z+
    3be4:	31 91       	ld	r19, Z+
    3be6:	41 91       	ld	r20, Z+
    3be8:	51 91       	ld	r21, Z+
    3bea:	5f 01       	movw	r10, r30
    3bec:	0e 94 1d 40 	call	0x803a	; 0x803a <__mulsf3>
    3bf0:	9b 01       	movw	r18, r22
    3bf2:	ac 01       	movw	r20, r24
    3bf4:	d8 01       	movw	r26, r16
    3bf6:	f7 01       	movw	r30, r14
    3bf8:	6b 2f       	mov	r22, r27
    3bfa:	70 2f       	mov	r23, r16
    3bfc:	8f 2f       	mov	r24, r31
    3bfe:	9e 2d       	mov	r25, r14
    3c00:	0e 94 59 3d 	call	0x7ab2	; 0x7ab2 <__addsf3>
    3c04:	16 2f       	mov	r17, r22
    3c06:	07 2f       	mov	r16, r23
    3c08:	f8 2e       	mov	r15, r24
    3c0a:	e9 2e       	mov	r14, r25
    3c0c:	21 97       	sbiw	r28, 0x01	; 1
    3c0e:	11 f7       	brne	.-60     	; 0x3bd4 <_ZN3IMU16vectorDotProductEPfS0_+0x28>
    3c10:	a8 01       	movw	r20, r16
    3c12:	97 01       	movw	r18, r14
    3c14:	65 2f       	mov	r22, r21
    3c16:	74 2f       	mov	r23, r20
    3c18:	83 2f       	mov	r24, r19
    3c1a:	92 2f       	mov	r25, r18
    3c1c:	df 91       	pop	r29
    3c1e:	cf 91       	pop	r28
    3c20:	1f 91       	pop	r17
    3c22:	0f 91       	pop	r16
    3c24:	ff 90       	pop	r15
    3c26:	ef 90       	pop	r14
    3c28:	df 90       	pop	r13
    3c2a:	cf 90       	pop	r12
    3c2c:	bf 90       	pop	r11
    3c2e:	af 90       	pop	r10
    3c30:	08 95       	ret

00003c32 <_ZN3IMU18vectorCrossProductEPfS0_S0_>:
    3c32:	af 92       	push	r10
    3c34:	bf 92       	push	r11
    3c36:	cf 92       	push	r12
    3c38:	df 92       	push	r13
    3c3a:	ef 92       	push	r14
    3c3c:	ff 92       	push	r15
    3c3e:	0f 93       	push	r16
    3c40:	1f 93       	push	r17
    3c42:	cf 93       	push	r28
    3c44:	df 93       	push	r29
    3c46:	7c 01       	movw	r14, r24
    3c48:	eb 01       	movw	r28, r22
    3c4a:	8a 01       	movw	r16, r20
    3c4c:	6c 81       	ldd	r22, Y+4	; 0x04
    3c4e:	7d 81       	ldd	r23, Y+5	; 0x05
    3c50:	8e 81       	ldd	r24, Y+6	; 0x06
    3c52:	9f 81       	ldd	r25, Y+7	; 0x07
    3c54:	fa 01       	movw	r30, r20
    3c56:	20 85       	ldd	r18, Z+8	; 0x08
    3c58:	31 85       	ldd	r19, Z+9	; 0x09
    3c5a:	42 85       	ldd	r20, Z+10	; 0x0a
    3c5c:	53 85       	ldd	r21, Z+11	; 0x0b
    3c5e:	0e 94 1d 40 	call	0x803a	; 0x803a <__mulsf3>
    3c62:	5b 01       	movw	r10, r22
    3c64:	6c 01       	movw	r12, r24
    3c66:	68 85       	ldd	r22, Y+8	; 0x08
    3c68:	79 85       	ldd	r23, Y+9	; 0x09
    3c6a:	8a 85       	ldd	r24, Y+10	; 0x0a
    3c6c:	9b 85       	ldd	r25, Y+11	; 0x0b
    3c6e:	f8 01       	movw	r30, r16
    3c70:	24 81       	ldd	r18, Z+4	; 0x04
    3c72:	35 81       	ldd	r19, Z+5	; 0x05
    3c74:	46 81       	ldd	r20, Z+6	; 0x06
    3c76:	57 81       	ldd	r21, Z+7	; 0x07
    3c78:	0e 94 1d 40 	call	0x803a	; 0x803a <__mulsf3>
    3c7c:	9b 01       	movw	r18, r22
    3c7e:	ac 01       	movw	r20, r24
    3c80:	c6 01       	movw	r24, r12
    3c82:	b5 01       	movw	r22, r10
    3c84:	0e 94 58 3d 	call	0x7ab0	; 0x7ab0 <__subsf3>
    3c88:	f7 01       	movw	r30, r14
    3c8a:	60 83       	st	Z, r22
    3c8c:	71 83       	std	Z+1, r23	; 0x01
    3c8e:	82 83       	std	Z+2, r24	; 0x02
    3c90:	93 83       	std	Z+3, r25	; 0x03
    3c92:	68 85       	ldd	r22, Y+8	; 0x08
    3c94:	79 85       	ldd	r23, Y+9	; 0x09
    3c96:	8a 85       	ldd	r24, Y+10	; 0x0a
    3c98:	9b 85       	ldd	r25, Y+11	; 0x0b
    3c9a:	f8 01       	movw	r30, r16
    3c9c:	20 81       	ld	r18, Z
    3c9e:	31 81       	ldd	r19, Z+1	; 0x01
    3ca0:	42 81       	ldd	r20, Z+2	; 0x02
    3ca2:	53 81       	ldd	r21, Z+3	; 0x03
    3ca4:	0e 94 1d 40 	call	0x803a	; 0x803a <__mulsf3>
    3ca8:	5b 01       	movw	r10, r22
    3caa:	6c 01       	movw	r12, r24
    3cac:	68 81       	ld	r22, Y
    3cae:	79 81       	ldd	r23, Y+1	; 0x01
    3cb0:	8a 81       	ldd	r24, Y+2	; 0x02
    3cb2:	9b 81       	ldd	r25, Y+3	; 0x03
    3cb4:	f8 01       	movw	r30, r16
    3cb6:	20 85       	ldd	r18, Z+8	; 0x08
    3cb8:	31 85       	ldd	r19, Z+9	; 0x09
    3cba:	42 85       	ldd	r20, Z+10	; 0x0a
    3cbc:	53 85       	ldd	r21, Z+11	; 0x0b
    3cbe:	0e 94 1d 40 	call	0x803a	; 0x803a <__mulsf3>
    3cc2:	9b 01       	movw	r18, r22
    3cc4:	ac 01       	movw	r20, r24
    3cc6:	c6 01       	movw	r24, r12
    3cc8:	b5 01       	movw	r22, r10
    3cca:	0e 94 58 3d 	call	0x7ab0	; 0x7ab0 <__subsf3>
    3cce:	f7 01       	movw	r30, r14
    3cd0:	64 83       	std	Z+4, r22	; 0x04
    3cd2:	75 83       	std	Z+5, r23	; 0x05
    3cd4:	86 83       	std	Z+6, r24	; 0x06
    3cd6:	97 83       	std	Z+7, r25	; 0x07
    3cd8:	68 81       	ld	r22, Y
    3cda:	79 81       	ldd	r23, Y+1	; 0x01
    3cdc:	8a 81       	ldd	r24, Y+2	; 0x02
    3cde:	9b 81       	ldd	r25, Y+3	; 0x03
    3ce0:	f8 01       	movw	r30, r16
    3ce2:	24 81       	ldd	r18, Z+4	; 0x04
    3ce4:	35 81       	ldd	r19, Z+5	; 0x05
    3ce6:	46 81       	ldd	r20, Z+6	; 0x06
    3ce8:	57 81       	ldd	r21, Z+7	; 0x07
    3cea:	0e 94 1d 40 	call	0x803a	; 0x803a <__mulsf3>
    3cee:	5b 01       	movw	r10, r22
    3cf0:	6c 01       	movw	r12, r24
    3cf2:	6c 81       	ldd	r22, Y+4	; 0x04
    3cf4:	7d 81       	ldd	r23, Y+5	; 0x05
    3cf6:	8e 81       	ldd	r24, Y+6	; 0x06
    3cf8:	9f 81       	ldd	r25, Y+7	; 0x07
    3cfa:	f8 01       	movw	r30, r16
    3cfc:	20 81       	ld	r18, Z
    3cfe:	31 81       	ldd	r19, Z+1	; 0x01
    3d00:	42 81       	ldd	r20, Z+2	; 0x02
    3d02:	53 81       	ldd	r21, Z+3	; 0x03
    3d04:	0e 94 1d 40 	call	0x803a	; 0x803a <__mulsf3>
    3d08:	9b 01       	movw	r18, r22
    3d0a:	ac 01       	movw	r20, r24
    3d0c:	c6 01       	movw	r24, r12
    3d0e:	b5 01       	movw	r22, r10
    3d10:	0e 94 58 3d 	call	0x7ab0	; 0x7ab0 <__subsf3>
    3d14:	f7 01       	movw	r30, r14
    3d16:	60 87       	std	Z+8, r22	; 0x08
    3d18:	71 87       	std	Z+9, r23	; 0x09
    3d1a:	82 87       	std	Z+10, r24	; 0x0a
    3d1c:	93 87       	std	Z+11, r25	; 0x0b
    3d1e:	df 91       	pop	r29
    3d20:	cf 91       	pop	r28
    3d22:	1f 91       	pop	r17
    3d24:	0f 91       	pop	r16
    3d26:	ff 90       	pop	r15
    3d28:	ef 90       	pop	r14
    3d2a:	df 90       	pop	r13
    3d2c:	cf 90       	pop	r12
    3d2e:	bf 90       	pop	r11
    3d30:	af 90       	pop	r10
    3d32:	08 95       	ret

00003d34 <_ZN3IMU11vectorScaleEPfS0_f>:
    3d34:	cf 92       	push	r12
    3d36:	df 92       	push	r13
    3d38:	ef 92       	push	r14
    3d3a:	ff 92       	push	r15
    3d3c:	0f 93       	push	r16
    3d3e:	1f 93       	push	r17
    3d40:	cf 93       	push	r28
    3d42:	df 93       	push	r29
    3d44:	6c 01       	movw	r12, r24
    3d46:	eb 01       	movw	r28, r22
    3d48:	79 01       	movw	r14, r18
    3d4a:	8a 01       	movw	r16, r20
    3d4c:	68 81       	ld	r22, Y
    3d4e:	79 81       	ldd	r23, Y+1	; 0x01
    3d50:	8a 81       	ldd	r24, Y+2	; 0x02
    3d52:	9b 81       	ldd	r25, Y+3	; 0x03
    3d54:	0e 94 1d 40 	call	0x803a	; 0x803a <__mulsf3>
    3d58:	f6 01       	movw	r30, r12
    3d5a:	60 83       	st	Z, r22
    3d5c:	71 83       	std	Z+1, r23	; 0x01
    3d5e:	82 83       	std	Z+2, r24	; 0x02
    3d60:	93 83       	std	Z+3, r25	; 0x03
    3d62:	6c 81       	ldd	r22, Y+4	; 0x04
    3d64:	7d 81       	ldd	r23, Y+5	; 0x05
    3d66:	8e 81       	ldd	r24, Y+6	; 0x06
    3d68:	9f 81       	ldd	r25, Y+7	; 0x07
    3d6a:	a8 01       	movw	r20, r16
    3d6c:	97 01       	movw	r18, r14
    3d6e:	0e 94 1d 40 	call	0x803a	; 0x803a <__mulsf3>
    3d72:	f6 01       	movw	r30, r12
    3d74:	64 83       	std	Z+4, r22	; 0x04
    3d76:	75 83       	std	Z+5, r23	; 0x05
    3d78:	86 83       	std	Z+6, r24	; 0x06
    3d7a:	97 83       	std	Z+7, r25	; 0x07
    3d7c:	68 85       	ldd	r22, Y+8	; 0x08
    3d7e:	79 85       	ldd	r23, Y+9	; 0x09
    3d80:	8a 85       	ldd	r24, Y+10	; 0x0a
    3d82:	9b 85       	ldd	r25, Y+11	; 0x0b
    3d84:	a8 01       	movw	r20, r16
    3d86:	97 01       	movw	r18, r14
    3d88:	0e 94 1d 40 	call	0x803a	; 0x803a <__mulsf3>
    3d8c:	f6 01       	movw	r30, r12
    3d8e:	60 87       	std	Z+8, r22	; 0x08
    3d90:	71 87       	std	Z+9, r23	; 0x09
    3d92:	82 87       	std	Z+10, r24	; 0x0a
    3d94:	93 87       	std	Z+11, r25	; 0x0b
    3d96:	df 91       	pop	r29
    3d98:	cf 91       	pop	r28
    3d9a:	1f 91       	pop	r17
    3d9c:	0f 91       	pop	r16
    3d9e:	ff 90       	pop	r15
    3da0:	ef 90       	pop	r14
    3da2:	df 90       	pop	r13
    3da4:	cf 90       	pop	r12
    3da6:	08 95       	ret

00003da8 <_ZN3IMU9vectorAddEPfS0_S0_>:
    3da8:	cf 92       	push	r12
    3daa:	df 92       	push	r13
    3dac:	ef 92       	push	r14
    3dae:	ff 92       	push	r15
    3db0:	0f 93       	push	r16
    3db2:	1f 93       	push	r17
    3db4:	cf 93       	push	r28
    3db6:	df 93       	push	r29
    3db8:	06 2f       	mov	r16, r22
    3dba:	17 2f       	mov	r17, r23
    3dbc:	e4 2e       	mov	r14, r20
    3dbe:	f5 2e       	mov	r15, r21
    3dc0:	c8 2e       	mov	r12, r24
    3dc2:	d9 2e       	mov	r13, r25
    3dc4:	c0 e0       	ldi	r28, 0x00	; 0
    3dc6:	d0 e0       	ldi	r29, 0x00	; 0
    3dc8:	f8 01       	movw	r30, r16
    3dca:	61 91       	ld	r22, Z+
    3dcc:	71 91       	ld	r23, Z+
    3dce:	81 91       	ld	r24, Z+
    3dd0:	91 91       	ld	r25, Z+
    3dd2:	8f 01       	movw	r16, r30
    3dd4:	f7 01       	movw	r30, r14
    3dd6:	21 91       	ld	r18, Z+
    3dd8:	31 91       	ld	r19, Z+
    3dda:	41 91       	ld	r20, Z+
    3ddc:	51 91       	ld	r21, Z+
    3dde:	7f 01       	movw	r14, r30
    3de0:	0e 94 59 3d 	call	0x7ab2	; 0x7ab2 <__addsf3>
    3de4:	f6 01       	movw	r30, r12
    3de6:	61 93       	st	Z+, r22
    3de8:	71 93       	st	Z+, r23
    3dea:	81 93       	st	Z+, r24
    3dec:	91 93       	st	Z+, r25
    3dee:	6f 01       	movw	r12, r30
    3df0:	21 96       	adiw	r28, 0x01	; 1
    3df2:	c3 30       	cpi	r28, 0x03	; 3
    3df4:	d1 05       	cpc	r29, r1
    3df6:	41 f7       	brne	.-48     	; 0x3dc8 <_ZN3IMU9vectorAddEPfS0_S0_+0x20>
    3df8:	df 91       	pop	r29
    3dfa:	cf 91       	pop	r28
    3dfc:	1f 91       	pop	r17
    3dfe:	0f 91       	pop	r16
    3e00:	ff 90       	pop	r15
    3e02:	ef 90       	pop	r14
    3e04:	df 90       	pop	r13
    3e06:	cf 90       	pop	r12
    3e08:	08 95       	ret

00003e0a <_ZN3IMU16Drift_correctionEv>:
    3e0a:	6f 92       	push	r6
    3e0c:	7f 92       	push	r7
    3e0e:	8f 92       	push	r8
    3e10:	9f 92       	push	r9
    3e12:	af 92       	push	r10
    3e14:	bf 92       	push	r11
    3e16:	cf 92       	push	r12
    3e18:	df 92       	push	r13
    3e1a:	ef 92       	push	r14
    3e1c:	ff 92       	push	r15
    3e1e:	0f 93       	push	r16
    3e20:	1f 93       	push	r17
    3e22:	20 91 d1 06 	lds	r18, 0x06D1
    3e26:	30 91 d2 06 	lds	r19, 0x06D2
    3e2a:	40 91 d3 06 	lds	r20, 0x06D3
    3e2e:	50 91 d4 06 	lds	r21, 0x06D4
    3e32:	e0 90 d5 06 	lds	r14, 0x06D5
    3e36:	f0 90 d6 06 	lds	r15, 0x06D6
    3e3a:	00 91 d7 06 	lds	r16, 0x06D7
    3e3e:	10 91 d8 06 	lds	r17, 0x06D8
    3e42:	a0 90 d9 06 	lds	r10, 0x06D9
    3e46:	b0 90 da 06 	lds	r11, 0x06DA
    3e4a:	c0 90 db 06 	lds	r12, 0x06DB
    3e4e:	d0 90 dc 06 	lds	r13, 0x06DC
    3e52:	ca 01       	movw	r24, r20
    3e54:	b9 01       	movw	r22, r18
    3e56:	0e 94 1d 40 	call	0x803a	; 0x803a <__mulsf3>
    3e5a:	3b 01       	movw	r6, r22
    3e5c:	4c 01       	movw	r8, r24
    3e5e:	c8 01       	movw	r24, r16
    3e60:	b7 01       	movw	r22, r14
    3e62:	a8 01       	movw	r20, r16
    3e64:	97 01       	movw	r18, r14
    3e66:	0e 94 1d 40 	call	0x803a	; 0x803a <__mulsf3>
    3e6a:	9b 01       	movw	r18, r22
    3e6c:	ac 01       	movw	r20, r24
    3e6e:	c4 01       	movw	r24, r8
    3e70:	b3 01       	movw	r22, r6
    3e72:	0e 94 59 3d 	call	0x7ab2	; 0x7ab2 <__addsf3>
    3e76:	7b 01       	movw	r14, r22
    3e78:	8c 01       	movw	r16, r24
    3e7a:	c6 01       	movw	r24, r12
    3e7c:	b5 01       	movw	r22, r10
    3e7e:	a6 01       	movw	r20, r12
    3e80:	95 01       	movw	r18, r10
    3e82:	0e 94 1d 40 	call	0x803a	; 0x803a <__mulsf3>
    3e86:	9b 01       	movw	r18, r22
    3e88:	ac 01       	movw	r20, r24
    3e8a:	c8 01       	movw	r24, r16
    3e8c:	b7 01       	movw	r22, r14
    3e8e:	0e 94 59 3d 	call	0x7ab2	; 0x7ab2 <__addsf3>
    3e92:	0e 94 8a 40 	call	0x8114	; 0x8114 <sqrt>
    3e96:	20 e0       	ldi	r18, 0x00	; 0
    3e98:	30 e0       	ldi	r19, 0x00	; 0
    3e9a:	40 e8       	ldi	r20, 0x80	; 128
    3e9c:	5b e3       	ldi	r21, 0x3B	; 59
    3e9e:	0e 94 1d 40 	call	0x803a	; 0x803a <__mulsf3>
    3ea2:	9b 01       	movw	r18, r22
    3ea4:	ac 01       	movw	r20, r24
    3ea6:	60 e0       	ldi	r22, 0x00	; 0
    3ea8:	70 e0       	ldi	r23, 0x00	; 0
    3eaa:	80 e8       	ldi	r24, 0x80	; 128
    3eac:	9f e3       	ldi	r25, 0x3F	; 63
    3eae:	0e 94 58 3d 	call	0x7ab0	; 0x7ab0 <__subsf3>
    3eb2:	f6 2e       	mov	r15, r22
    3eb4:	07 2f       	mov	r16, r23
    3eb6:	18 2f       	mov	r17, r24
    3eb8:	e9 2e       	mov	r14, r25
    3eba:	20 e0       	ldi	r18, 0x00	; 0
    3ebc:	30 e0       	ldi	r19, 0x00	; 0
    3ebe:	a9 01       	movw	r20, r18
    3ec0:	0e 94 12 40 	call	0x8024	; 0x8024 <__gesf2>
    3ec4:	18 16       	cp	r1, r24
    3ec6:	d4 f4       	brge	.+52     	; 0x3efc <_ZN3IMU16Drift_correctionEv+0xf2>
    3ec8:	6f 2d       	mov	r22, r15
    3eca:	70 2f       	mov	r23, r16
    3ecc:	81 2f       	mov	r24, r17
    3ece:	9e 2d       	mov	r25, r14
    3ed0:	2f 2d       	mov	r18, r15
    3ed2:	30 2f       	mov	r19, r16
    3ed4:	41 2f       	mov	r20, r17
    3ed6:	5e 2d       	mov	r21, r14
    3ed8:	0e 94 59 3d 	call	0x7ab2	; 0x7ab2 <__addsf3>
    3edc:	9b 01       	movw	r18, r22
    3ede:	ac 01       	movw	r20, r24
    3ee0:	60 e0       	ldi	r22, 0x00	; 0
    3ee2:	70 e0       	ldi	r23, 0x00	; 0
    3ee4:	80 e8       	ldi	r24, 0x80	; 128
    3ee6:	9f e3       	ldi	r25, 0x3F	; 63
    3ee8:	0e 94 58 3d 	call	0x7ab0	; 0x7ab0 <__subsf3>
    3eec:	20 e0       	ldi	r18, 0x00	; 0
    3eee:	30 e0       	ldi	r19, 0x00	; 0
    3ef0:	a9 01       	movw	r20, r18
    3ef2:	0e 94 36 3e 	call	0x7c6c	; 0x7c6c <__cmpsf2>
    3ef6:	87 ff       	sbrs	r24, 7
    3ef8:	19 c0       	rjmp	.+50     	; 0x3f2c <_ZN3IMU16Drift_correctionEv+0x122>
    3efa:	75 c0       	rjmp	.+234    	; 0x3fe6 <_ZN3IMU16Drift_correctionEv+0x1dc>
    3efc:	6f 2d       	mov	r22, r15
    3efe:	70 2f       	mov	r23, r16
    3f00:	81 2f       	mov	r24, r17
    3f02:	9e 2d       	mov	r25, r14
    3f04:	2f 2d       	mov	r18, r15
    3f06:	30 2f       	mov	r19, r16
    3f08:	41 2f       	mov	r20, r17
    3f0a:	5e 2d       	mov	r21, r14
    3f0c:	0e 94 59 3d 	call	0x7ab2	; 0x7ab2 <__addsf3>
    3f10:	20 e0       	ldi	r18, 0x00	; 0
    3f12:	30 e0       	ldi	r19, 0x00	; 0
    3f14:	40 e8       	ldi	r20, 0x80	; 128
    3f16:	5f e3       	ldi	r21, 0x3F	; 63
    3f18:	0e 94 59 3d 	call	0x7ab2	; 0x7ab2 <__addsf3>
    3f1c:	20 e0       	ldi	r18, 0x00	; 0
    3f1e:	30 e0       	ldi	r19, 0x00	; 0
    3f20:	a9 01       	movw	r20, r18
    3f22:	0e 94 36 3e 	call	0x7c6c	; 0x7c6c <__cmpsf2>
    3f26:	87 ff       	sbrs	r24, 7
    3f28:	1d c0       	rjmp	.+58     	; 0x3f64 <_ZN3IMU16Drift_correctionEv+0x15a>
    3f2a:	5d c0       	rjmp	.+186    	; 0x3fe6 <_ZN3IMU16Drift_correctionEv+0x1dc>
    3f2c:	6f 2d       	mov	r22, r15
    3f2e:	70 2f       	mov	r23, r16
    3f30:	81 2f       	mov	r24, r17
    3f32:	9e 2d       	mov	r25, r14
    3f34:	2f 2d       	mov	r18, r15
    3f36:	30 2f       	mov	r19, r16
    3f38:	41 2f       	mov	r20, r17
    3f3a:	5e 2d       	mov	r21, r14
    3f3c:	0e 94 59 3d 	call	0x7ab2	; 0x7ab2 <__addsf3>
    3f40:	9b 01       	movw	r18, r22
    3f42:	ac 01       	movw	r20, r24
    3f44:	60 e0       	ldi	r22, 0x00	; 0
    3f46:	70 e0       	ldi	r23, 0x00	; 0
    3f48:	80 e8       	ldi	r24, 0x80	; 128
    3f4a:	9f e3       	ldi	r25, 0x3F	; 63
    3f4c:	0e 94 58 3d 	call	0x7ab0	; 0x7ab0 <__subsf3>
    3f50:	20 e0       	ldi	r18, 0x00	; 0
    3f52:	30 e0       	ldi	r19, 0x00	; 0
    3f54:	40 e8       	ldi	r20, 0x80	; 128
    3f56:	5f e3       	ldi	r21, 0x3F	; 63
    3f58:	0e 94 12 40 	call	0x8024	; 0x8024 <__gesf2>
    3f5c:	18 16       	cp	r1, r24
    3f5e:	0c f4       	brge	.+2      	; 0x3f62 <_ZN3IMU16Drift_correctionEv+0x158>
    3f60:	47 c0       	rjmp	.+142    	; 0x3ff0 <_ZN3IMU16Drift_correctionEv+0x1e6>
    3f62:	19 c0       	rjmp	.+50     	; 0x3f96 <_ZN3IMU16Drift_correctionEv+0x18c>
    3f64:	6f 2d       	mov	r22, r15
    3f66:	70 2f       	mov	r23, r16
    3f68:	81 2f       	mov	r24, r17
    3f6a:	9e 2d       	mov	r25, r14
    3f6c:	2f 2d       	mov	r18, r15
    3f6e:	30 2f       	mov	r19, r16
    3f70:	41 2f       	mov	r20, r17
    3f72:	5e 2d       	mov	r21, r14
    3f74:	0e 94 59 3d 	call	0x7ab2	; 0x7ab2 <__addsf3>
    3f78:	20 e0       	ldi	r18, 0x00	; 0
    3f7a:	30 e0       	ldi	r19, 0x00	; 0
    3f7c:	40 e8       	ldi	r20, 0x80	; 128
    3f7e:	5f e3       	ldi	r21, 0x3F	; 63
    3f80:	0e 94 59 3d 	call	0x7ab2	; 0x7ab2 <__addsf3>
    3f84:	20 e0       	ldi	r18, 0x00	; 0
    3f86:	30 e0       	ldi	r19, 0x00	; 0
    3f88:	40 e8       	ldi	r20, 0x80	; 128
    3f8a:	5f e3       	ldi	r21, 0x3F	; 63
    3f8c:	0e 94 12 40 	call	0x8024	; 0x8024 <__gesf2>
    3f90:	18 16       	cp	r1, r24
    3f92:	74 f1       	brlt	.+92     	; 0x3ff0 <_ZN3IMU16Drift_correctionEv+0x1e6>
    3f94:	13 c0       	rjmp	.+38     	; 0x3fbc <_ZN3IMU16Drift_correctionEv+0x1b2>
    3f96:	6f 2d       	mov	r22, r15
    3f98:	70 2f       	mov	r23, r16
    3f9a:	81 2f       	mov	r24, r17
    3f9c:	9e 2d       	mov	r25, r14
    3f9e:	2f 2d       	mov	r18, r15
    3fa0:	30 2f       	mov	r19, r16
    3fa2:	41 2f       	mov	r20, r17
    3fa4:	5e 2d       	mov	r21, r14
    3fa6:	0e 94 59 3d 	call	0x7ab2	; 0x7ab2 <__addsf3>
    3faa:	9b 01       	movw	r18, r22
    3fac:	ac 01       	movw	r20, r24
    3fae:	60 e0       	ldi	r22, 0x00	; 0
    3fb0:	70 e0       	ldi	r23, 0x00	; 0
    3fb2:	80 e8       	ldi	r24, 0x80	; 128
    3fb4:	9f e3       	ldi	r25, 0x3F	; 63
    3fb6:	0e 94 58 3d 	call	0x7ab0	; 0x7ab0 <__subsf3>
    3fba:	10 c0       	rjmp	.+32     	; 0x3fdc <_ZN3IMU16Drift_correctionEv+0x1d2>
    3fbc:	6f 2d       	mov	r22, r15
    3fbe:	70 2f       	mov	r23, r16
    3fc0:	81 2f       	mov	r24, r17
    3fc2:	9e 2d       	mov	r25, r14
    3fc4:	2f 2d       	mov	r18, r15
    3fc6:	30 2f       	mov	r19, r16
    3fc8:	41 2f       	mov	r20, r17
    3fca:	5e 2d       	mov	r21, r14
    3fcc:	0e 94 59 3d 	call	0x7ab2	; 0x7ab2 <__addsf3>
    3fd0:	20 e0       	ldi	r18, 0x00	; 0
    3fd2:	30 e0       	ldi	r19, 0x00	; 0
    3fd4:	40 e8       	ldi	r20, 0x80	; 128
    3fd6:	5f e3       	ldi	r21, 0x3F	; 63
    3fd8:	0e 94 59 3d 	call	0x7ab2	; 0x7ab2 <__addsf3>
    3fdc:	f6 2e       	mov	r15, r22
    3fde:	07 2f       	mov	r16, r23
    3fe0:	18 2f       	mov	r17, r24
    3fe2:	e9 2e       	mov	r14, r25
    3fe4:	0a c0       	rjmp	.+20     	; 0x3ffa <_ZN3IMU16Drift_correctionEv+0x1f0>
    3fe6:	ff 24       	eor	r15, r15
    3fe8:	00 e0       	ldi	r16, 0x00	; 0
    3fea:	10 e0       	ldi	r17, 0x00	; 0
    3fec:	ee 24       	eor	r14, r14
    3fee:	05 c0       	rjmp	.+10     	; 0x3ffa <_ZN3IMU16Drift_correctionEv+0x1f0>
    3ff0:	ff 24       	eor	r15, r15
    3ff2:	00 e0       	ldi	r16, 0x00	; 0
    3ff4:	10 e8       	ldi	r17, 0x80	; 128
    3ff6:	3f e3       	ldi	r19, 0x3F	; 63
    3ff8:	e3 2e       	mov	r14, r19
    3ffa:	85 e2       	ldi	r24, 0x25	; 37
    3ffc:	97 e0       	ldi	r25, 0x07	; 7
    3ffe:	61 ed       	ldi	r22, 0xD1	; 209
    4000:	76 e0       	ldi	r23, 0x06	; 6
    4002:	41 e5       	ldi	r20, 0x51	; 81
    4004:	55 e0       	ldi	r21, 0x05	; 5
    4006:	0e 94 19 1e 	call	0x3c32	; 0x3c32 <_ZN3IMU18vectorCrossProductEPfS0_S0_>
    400a:	6f 2d       	mov	r22, r15
    400c:	70 2f       	mov	r23, r16
    400e:	81 2f       	mov	r24, r17
    4010:	9e 2d       	mov	r25, r14
    4012:	2a e0       	ldi	r18, 0x0A	; 10
    4014:	37 ed       	ldi	r19, 0xD7	; 215
    4016:	43 ea       	ldi	r20, 0xA3	; 163
    4018:	5c e3       	ldi	r21, 0x3C	; 60
    401a:	0e 94 1d 40 	call	0x803a	; 0x803a <__mulsf3>
    401e:	9b 01       	movw	r18, r22
    4020:	ac 01       	movw	r20, r24
    4022:	85 ef       	ldi	r24, 0xF5	; 245
    4024:	96 e0       	ldi	r25, 0x06	; 6
    4026:	65 e2       	ldi	r22, 0x25	; 37
    4028:	77 e0       	ldi	r23, 0x07	; 7
    402a:	0e 94 9a 1e 	call	0x3d34	; 0x3d34 <_ZN3IMU11vectorScaleEPfS0_f>
    402e:	6f 2d       	mov	r22, r15
    4030:	70 2f       	mov	r23, r16
    4032:	81 2f       	mov	r24, r17
    4034:	9e 2d       	mov	r25, r14
    4036:	2c ea       	ldi	r18, 0xAC	; 172
    4038:	35 ec       	ldi	r19, 0xC5	; 197
    403a:	47 ea       	ldi	r20, 0xA7	; 167
    403c:	57 e3       	ldi	r21, 0x37	; 55
    403e:	0e 94 1d 40 	call	0x803a	; 0x803a <__mulsf3>
    4042:	9b 01       	movw	r18, r22
    4044:	ac 01       	movw	r20, r24
    4046:	88 ec       	ldi	r24, 0xC8	; 200
    4048:	9d e0       	ldi	r25, 0x0D	; 13
    404a:	65 e2       	ldi	r22, 0x25	; 37
    404c:	77 e0       	ldi	r23, 0x07	; 7
    404e:	0e 94 9a 1e 	call	0x3d34	; 0x3d34 <_ZN3IMU11vectorScaleEPfS0_f>
    4052:	81 e0       	ldi	r24, 0x01	; 1
    4054:	97 e0       	ldi	r25, 0x07	; 7
    4056:	bc 01       	movw	r22, r24
    4058:	48 ec       	ldi	r20, 0xC8	; 200
    405a:	5d e0       	ldi	r21, 0x0D	; 13
    405c:	0e 94 d4 1e 	call	0x3da8	; 0x3da8 <_ZN3IMU9vectorAddEPfS0_S0_>
    4060:	e0 90 cd 06 	lds	r14, 0x06CD
    4064:	f0 90 ce 06 	lds	r15, 0x06CE
    4068:	00 91 cf 06 	lds	r16, 0x06CF
    406c:	10 91 d0 06 	lds	r17, 0x06D0
    4070:	c8 01       	movw	r24, r16
    4072:	b7 01       	movw	r22, r14
    4074:	0e 94 3a 3e 	call	0x7c74	; 0x7c74 <cos>
    4078:	5b 01       	movw	r10, r22
    407a:	6c 01       	movw	r12, r24
    407c:	c8 01       	movw	r24, r16
    407e:	b7 01       	movw	r22, r14
    4080:	0e 94 80 40 	call	0x8100	; 0x8100 <sin>
    4084:	20 91 39 05 	lds	r18, 0x0539
    4088:	30 91 3a 05 	lds	r19, 0x053A
    408c:	40 91 3b 05 	lds	r20, 0x053B
    4090:	50 91 3c 05 	lds	r21, 0x053C
    4094:	0e 94 1d 40 	call	0x803a	; 0x803a <__mulsf3>
    4098:	7b 01       	movw	r14, r22
    409a:	8c 01       	movw	r16, r24
    409c:	c6 01       	movw	r24, r12
    409e:	b5 01       	movw	r22, r10
    40a0:	20 91 45 05 	lds	r18, 0x0545
    40a4:	30 91 46 05 	lds	r19, 0x0546
    40a8:	40 91 47 05 	lds	r20, 0x0547
    40ac:	50 91 48 05 	lds	r21, 0x0548
    40b0:	0e 94 1d 40 	call	0x803a	; 0x803a <__mulsf3>
    40b4:	9b 01       	movw	r18, r22
    40b6:	ac 01       	movw	r20, r24
    40b8:	c8 01       	movw	r24, r16
    40ba:	b7 01       	movw	r22, r14
    40bc:	0e 94 58 3d 	call	0x7ab0	; 0x7ab0 <__subsf3>
    40c0:	9b 01       	movw	r18, r22
    40c2:	ac 01       	movw	r20, r24
    40c4:	81 e3       	ldi	r24, 0x31	; 49
    40c6:	97 e0       	ldi	r25, 0x07	; 7
    40c8:	61 e5       	ldi	r22, 0x51	; 81
    40ca:	75 e0       	ldi	r23, 0x05	; 5
    40cc:	0e 94 9a 1e 	call	0x3d34	; 0x3d34 <_ZN3IMU11vectorScaleEPfS0_f>
    40d0:	84 ed       	ldi	r24, 0xD4	; 212
    40d2:	9d e0       	ldi	r25, 0x0D	; 13
    40d4:	61 e3       	ldi	r22, 0x31	; 49
    40d6:	77 e0       	ldi	r23, 0x07	; 7
    40d8:	2a e9       	ldi	r18, 0x9A	; 154
    40da:	39 e9       	ldi	r19, 0x99	; 153
    40dc:	49 e9       	ldi	r20, 0x99	; 153
    40de:	5f e3       	ldi	r21, 0x3F	; 63
    40e0:	0e 94 9a 1e 	call	0x3d34	; 0x3d34 <_ZN3IMU11vectorScaleEPfS0_f>
    40e4:	85 ef       	ldi	r24, 0xF5	; 245
    40e6:	96 e0       	ldi	r25, 0x06	; 6
    40e8:	bc 01       	movw	r22, r24
    40ea:	44 ed       	ldi	r20, 0xD4	; 212
    40ec:	5d e0       	ldi	r21, 0x0D	; 13
    40ee:	0e 94 d4 1e 	call	0x3da8	; 0x3da8 <_ZN3IMU9vectorAddEPfS0_S0_>
    40f2:	88 ec       	ldi	r24, 0xC8	; 200
    40f4:	9d e0       	ldi	r25, 0x0D	; 13
    40f6:	61 e3       	ldi	r22, 0x31	; 49
    40f8:	77 e0       	ldi	r23, 0x07	; 7
    40fa:	2c ea       	ldi	r18, 0xAC	; 172
    40fc:	35 ec       	ldi	r19, 0xC5	; 197
    40fe:	47 ea       	ldi	r20, 0xA7	; 167
    4100:	57 e3       	ldi	r21, 0x37	; 55
    4102:	0e 94 9a 1e 	call	0x3d34	; 0x3d34 <_ZN3IMU11vectorScaleEPfS0_f>
    4106:	81 e0       	ldi	r24, 0x01	; 1
    4108:	97 e0       	ldi	r25, 0x07	; 7
    410a:	bc 01       	movw	r22, r24
    410c:	48 ec       	ldi	r20, 0xC8	; 200
    410e:	5d e0       	ldi	r21, 0x0D	; 13
    4110:	0e 94 d4 1e 	call	0x3da8	; 0x3da8 <_ZN3IMU9vectorAddEPfS0_S0_>
    4114:	1f 91       	pop	r17
    4116:	0f 91       	pop	r16
    4118:	ff 90       	pop	r15
    411a:	ef 90       	pop	r14
    411c:	df 90       	pop	r13
    411e:	cf 90       	pop	r12
    4120:	bf 90       	pop	r11
    4122:	af 90       	pop	r10
    4124:	9f 90       	pop	r9
    4126:	8f 90       	pop	r8
    4128:	7f 90       	pop	r7
    412a:	6f 90       	pop	r6
    412c:	08 95       	ret

0000412e <_ZN3IMU9NormalizeEv>:
    412e:	6f 92       	push	r6
    4130:	7f 92       	push	r7
    4132:	8f 92       	push	r8
    4134:	9f 92       	push	r9
    4136:	af 92       	push	r10
    4138:	bf 92       	push	r11
    413a:	cf 92       	push	r12
    413c:	df 92       	push	r13
    413e:	ef 92       	push	r14
    4140:	ff 92       	push	r15
    4142:	0f 93       	push	r16
    4144:	1f 93       	push	r17
    4146:	df 93       	push	r29
    4148:	cf 93       	push	r28
    414a:	cd b7       	in	r28, 0x3d	; 61
    414c:	de b7       	in	r29, 0x3e	; 62
    414e:	a4 97       	sbiw	r28, 0x24	; 36
    4150:	0f b6       	in	r0, 0x3f	; 63
    4152:	f8 94       	cli
    4154:	de bf       	out	0x3e, r29	; 62
    4156:	0f be       	out	0x3f, r0	; 63
    4158:	cd bf       	out	0x3d, r28	; 61
    415a:	79 e3       	ldi	r23, 0x39	; 57
    415c:	c7 2e       	mov	r12, r23
    415e:	75 e0       	ldi	r23, 0x05	; 5
    4160:	d7 2e       	mov	r13, r23
    4162:	6c e0       	ldi	r22, 0x0C	; 12
    4164:	66 2e       	mov	r6, r22
    4166:	71 2c       	mov	r7, r1
    4168:	6c 0c       	add	r6, r12
    416a:	7d 1c       	adc	r7, r13
    416c:	c6 01       	movw	r24, r12
    416e:	b3 01       	movw	r22, r6
    4170:	0e 94 d6 1d 	call	0x3bac	; 0x3bac <_ZN3IMU16vectorDotProductEPfS0_>
    4174:	90 58       	subi	r25, 0x80	; 128
    4176:	20 e0       	ldi	r18, 0x00	; 0
    4178:	30 e0       	ldi	r19, 0x00	; 0
    417a:	40 e0       	ldi	r20, 0x00	; 0
    417c:	5f e3       	ldi	r21, 0x3F	; 63
    417e:	0e 94 1d 40 	call	0x803a	; 0x803a <__mulsf3>
    4182:	5b 01       	movw	r10, r22
    4184:	98 2e       	mov	r9, r24
    4186:	89 2e       	mov	r8, r25
    4188:	8e 01       	movw	r16, r28
    418a:	0f 5f       	subi	r16, 0xFF	; 255
    418c:	1f 4f       	sbci	r17, 0xFF	; 255
    418e:	c8 01       	movw	r24, r16
    4190:	b3 01       	movw	r22, r6
    4192:	f4 01       	movw	r30, r8
    4194:	2a 2d       	mov	r18, r10
    4196:	3b 2d       	mov	r19, r11
    4198:	4f 2f       	mov	r20, r31
    419a:	5e 2f       	mov	r21, r30
    419c:	0e 94 9a 1e 	call	0x3d34	; 0x3d34 <_ZN3IMU11vectorScaleEPfS0_f>
    41a0:	5d e0       	ldi	r21, 0x0D	; 13
    41a2:	e5 2e       	mov	r14, r21
    41a4:	f1 2c       	mov	r15, r1
    41a6:	ec 0e       	add	r14, r28
    41a8:	fd 1e       	adc	r15, r29
    41aa:	c7 01       	movw	r24, r14
    41ac:	b6 01       	movw	r22, r12
    41ae:	f4 01       	movw	r30, r8
    41b0:	2a 2d       	mov	r18, r10
    41b2:	3b 2d       	mov	r19, r11
    41b4:	4f 2f       	mov	r20, r31
    41b6:	5e 2f       	mov	r21, r30
    41b8:	0e 94 9a 1e 	call	0x3d34	; 0x3d34 <_ZN3IMU11vectorScaleEPfS0_f>
    41bc:	c8 01       	movw	r24, r16
    41be:	b8 01       	movw	r22, r16
    41c0:	a6 01       	movw	r20, r12
    41c2:	0e 94 d4 1e 	call	0x3da8	; 0x3da8 <_ZN3IMU9vectorAddEPfS0_S0_>
    41c6:	c7 01       	movw	r24, r14
    41c8:	b7 01       	movw	r22, r14
    41ca:	a3 01       	movw	r20, r6
    41cc:	0e 94 d4 1e 	call	0x3da8	; 0x3da8 <_ZN3IMU9vectorAddEPfS0_S0_>
    41d0:	49 e1       	ldi	r20, 0x19	; 25
    41d2:	a4 2e       	mov	r10, r20
    41d4:	b1 2c       	mov	r11, r1
    41d6:	ac 0e       	add	r10, r28
    41d8:	bd 1e       	adc	r11, r29
    41da:	c5 01       	movw	r24, r10
    41dc:	b8 01       	movw	r22, r16
    41de:	a7 01       	movw	r20, r14
    41e0:	0e 94 19 1e 	call	0x3c32	; 0x3c32 <_ZN3IMU18vectorCrossProductEPfS0_S0_>
    41e4:	c8 01       	movw	r24, r16
    41e6:	b8 01       	movw	r22, r16
    41e8:	0e 94 d6 1d 	call	0x3bac	; 0x3bac <_ZN3IMU16vectorDotProductEPfS0_>
    41ec:	9b 01       	movw	r18, r22
    41ee:	ac 01       	movw	r20, r24
    41f0:	60 e0       	ldi	r22, 0x00	; 0
    41f2:	70 e0       	ldi	r23, 0x00	; 0
    41f4:	80 e4       	ldi	r24, 0x40	; 64
    41f6:	90 e4       	ldi	r25, 0x40	; 64
    41f8:	0e 94 58 3d 	call	0x7ab0	; 0x7ab0 <__subsf3>
    41fc:	20 e0       	ldi	r18, 0x00	; 0
    41fe:	30 e0       	ldi	r19, 0x00	; 0
    4200:	40 e0       	ldi	r20, 0x00	; 0
    4202:	5f e3       	ldi	r21, 0x3F	; 63
    4204:	0e 94 1d 40 	call	0x803a	; 0x803a <__mulsf3>
    4208:	9b 01       	movw	r18, r22
    420a:	ac 01       	movw	r20, r24
    420c:	c6 01       	movw	r24, r12
    420e:	b8 01       	movw	r22, r16
    4210:	0e 94 9a 1e 	call	0x3d34	; 0x3d34 <_ZN3IMU11vectorScaleEPfS0_f>
    4214:	c7 01       	movw	r24, r14
    4216:	b7 01       	movw	r22, r14
    4218:	0e 94 d6 1d 	call	0x3bac	; 0x3bac <_ZN3IMU16vectorDotProductEPfS0_>
    421c:	9b 01       	movw	r18, r22
    421e:	ac 01       	movw	r20, r24
    4220:	60 e0       	ldi	r22, 0x00	; 0
    4222:	70 e0       	ldi	r23, 0x00	; 0
    4224:	80 e4       	ldi	r24, 0x40	; 64
    4226:	90 e4       	ldi	r25, 0x40	; 64
    4228:	0e 94 58 3d 	call	0x7ab0	; 0x7ab0 <__subsf3>
    422c:	20 e0       	ldi	r18, 0x00	; 0
    422e:	30 e0       	ldi	r19, 0x00	; 0
    4230:	40 e0       	ldi	r20, 0x00	; 0
    4232:	5f e3       	ldi	r21, 0x3F	; 63
    4234:	0e 94 1d 40 	call	0x803a	; 0x803a <__mulsf3>
    4238:	9b 01       	movw	r18, r22
    423a:	ac 01       	movw	r20, r24
    423c:	c3 01       	movw	r24, r6
    423e:	b7 01       	movw	r22, r14
    4240:	0e 94 9a 1e 	call	0x3d34	; 0x3d34 <_ZN3IMU11vectorScaleEPfS0_f>
    4244:	c5 01       	movw	r24, r10
    4246:	b5 01       	movw	r22, r10
    4248:	0e 94 d6 1d 	call	0x3bac	; 0x3bac <_ZN3IMU16vectorDotProductEPfS0_>
    424c:	9b 01       	movw	r18, r22
    424e:	ac 01       	movw	r20, r24
    4250:	60 e0       	ldi	r22, 0x00	; 0
    4252:	70 e0       	ldi	r23, 0x00	; 0
    4254:	80 e4       	ldi	r24, 0x40	; 64
    4256:	90 e4       	ldi	r25, 0x40	; 64
    4258:	0e 94 58 3d 	call	0x7ab0	; 0x7ab0 <__subsf3>
    425c:	20 e0       	ldi	r18, 0x00	; 0
    425e:	30 e0       	ldi	r19, 0x00	; 0
    4260:	40 e0       	ldi	r20, 0x00	; 0
    4262:	5f e3       	ldi	r21, 0x3F	; 63
    4264:	0e 94 1d 40 	call	0x803a	; 0x803a <__mulsf3>
    4268:	9b 01       	movw	r18, r22
    426a:	ac 01       	movw	r20, r24
    426c:	81 e5       	ldi	r24, 0x51	; 81
    426e:	95 e0       	ldi	r25, 0x05	; 5
    4270:	b5 01       	movw	r22, r10
    4272:	0e 94 9a 1e 	call	0x3d34	; 0x3d34 <_ZN3IMU11vectorScaleEPfS0_f>
    4276:	a4 96       	adiw	r28, 0x24	; 36
    4278:	0f b6       	in	r0, 0x3f	; 63
    427a:	f8 94       	cli
    427c:	de bf       	out	0x3e, r29	; 62
    427e:	0f be       	out	0x3f, r0	; 63
    4280:	cd bf       	out	0x3d, r28	; 61
    4282:	cf 91       	pop	r28
    4284:	df 91       	pop	r29
    4286:	1f 91       	pop	r17
    4288:	0f 91       	pop	r16
    428a:	ff 90       	pop	r15
    428c:	ef 90       	pop	r14
    428e:	df 90       	pop	r13
    4290:	cf 90       	pop	r12
    4292:	bf 90       	pop	r11
    4294:	af 90       	pop	r10
    4296:	9f 90       	pop	r9
    4298:	8f 90       	pop	r8
    429a:	7f 90       	pop	r7
    429c:	6f 90       	pop	r6
    429e:	08 95       	ret

000042a0 <_ZN3IMU14matrixMultiplyEPA3_fS1_S1_>:
    42a0:	2f 92       	push	r2
    42a2:	3f 92       	push	r3
    42a4:	4f 92       	push	r4
    42a6:	5f 92       	push	r5
    42a8:	6f 92       	push	r6
    42aa:	7f 92       	push	r7
    42ac:	8f 92       	push	r8
    42ae:	9f 92       	push	r9
    42b0:	af 92       	push	r10
    42b2:	bf 92       	push	r11
    42b4:	cf 92       	push	r12
    42b6:	df 92       	push	r13
    42b8:	ef 92       	push	r14
    42ba:	ff 92       	push	r15
    42bc:	0f 93       	push	r16
    42be:	1f 93       	push	r17
    42c0:	df 93       	push	r29
    42c2:	cf 93       	push	r28
    42c4:	cd b7       	in	r28, 0x3d	; 61
    42c6:	de b7       	in	r29, 0x3e	; 62
    42c8:	2e 97       	sbiw	r28, 0x0e	; 14
    42ca:	0f b6       	in	r0, 0x3f	; 63
    42cc:	f8 94       	cli
    42ce:	de bf       	out	0x3e, r29	; 62
    42d0:	0f be       	out	0x3f, r0	; 63
    42d2:	cd bf       	out	0x3d, r28	; 61
    42d4:	6d 87       	std	Y+13, r22	; 0x0d
    42d6:	7e 87       	std	Y+14, r23	; 0x0e
    42d8:	c4 2e       	mov	r12, r20
    42da:	d5 2e       	mov	r13, r21
    42dc:	e8 2e       	mov	r14, r24
    42de:	f9 2e       	mov	r15, r25
    42e0:	f4 e2       	ldi	r31, 0x24	; 36
    42e2:	2f 2e       	mov	r2, r31
    42e4:	31 2c       	mov	r3, r1
    42e6:	2c 0c       	add	r2, r12
    42e8:	3d 1c       	adc	r3, r13
    42ea:	50 c0       	rjmp	.+160    	; 0x438c <_ZN3IMU14matrixMultiplyEPA3_fS1_S1_+0xec>
    42ec:	f8 01       	movw	r30, r16
    42ee:	21 91       	ld	r18, Z+
    42f0:	31 91       	ld	r19, Z+
    42f2:	41 91       	ld	r20, Z+
    42f4:	51 91       	ld	r21, Z+
    42f6:	8f 01       	movw	r16, r30
    42f8:	f7 01       	movw	r30, r14
    42fa:	60 81       	ld	r22, Z
    42fc:	71 81       	ldd	r23, Z+1	; 0x01
    42fe:	82 81       	ldd	r24, Z+2	; 0x02
    4300:	93 81       	ldd	r25, Z+3	; 0x03
    4302:	0e 94 1d 40 	call	0x803a	; 0x803a <__mulsf3>
    4306:	4b 01       	movw	r8, r22
    4308:	5c 01       	movw	r10, r24
    430a:	69 83       	std	Y+1, r22	; 0x01
    430c:	7a 83       	std	Y+2, r23	; 0x02
    430e:	8b 83       	std	Y+3, r24	; 0x03
    4310:	9c 83       	std	Y+4, r25	; 0x04
    4312:	f7 01       	movw	r30, r14
    4314:	64 81       	ldd	r22, Z+4	; 0x04
    4316:	75 81       	ldd	r23, Z+5	; 0x05
    4318:	86 81       	ldd	r24, Z+6	; 0x06
    431a:	97 81       	ldd	r25, Z+7	; 0x07
    431c:	f8 01       	movw	r30, r16
    431e:	20 85       	ldd	r18, Z+8	; 0x08
    4320:	31 85       	ldd	r19, Z+9	; 0x09
    4322:	42 85       	ldd	r20, Z+10	; 0x0a
    4324:	53 85       	ldd	r21, Z+11	; 0x0b
    4326:	0e 94 1d 40 	call	0x803a	; 0x803a <__mulsf3>
    432a:	9b 01       	movw	r18, r22
    432c:	ac 01       	movw	r20, r24
    432e:	6d 83       	std	Y+5, r22	; 0x05
    4330:	7e 83       	std	Y+6, r23	; 0x06
    4332:	8f 83       	std	Y+7, r24	; 0x07
    4334:	98 87       	std	Y+8, r25	; 0x08
    4336:	c5 01       	movw	r24, r10
    4338:	b4 01       	movw	r22, r8
    433a:	0e 94 59 3d 	call	0x7ab2	; 0x7ab2 <__addsf3>
    433e:	4b 01       	movw	r8, r22
    4340:	5c 01       	movw	r10, r24
    4342:	f7 01       	movw	r30, r14
    4344:	60 85       	ldd	r22, Z+8	; 0x08
    4346:	71 85       	ldd	r23, Z+9	; 0x09
    4348:	82 85       	ldd	r24, Z+10	; 0x0a
    434a:	93 85       	ldd	r25, Z+11	; 0x0b
    434c:	f8 01       	movw	r30, r16
    434e:	24 89       	ldd	r18, Z+20	; 0x14
    4350:	35 89       	ldd	r19, Z+21	; 0x15
    4352:	46 89       	ldd	r20, Z+22	; 0x16
    4354:	57 89       	ldd	r21, Z+23	; 0x17
    4356:	0e 94 1d 40 	call	0x803a	; 0x803a <__mulsf3>
    435a:	9b 01       	movw	r18, r22
    435c:	ac 01       	movw	r20, r24
    435e:	c5 01       	movw	r24, r10
    4360:	b4 01       	movw	r22, r8
    4362:	0e 94 59 3d 	call	0x7ab2	; 0x7ab2 <__addsf3>
    4366:	f3 01       	movw	r30, r6
    4368:	61 93       	st	Z+, r22
    436a:	71 93       	st	Z+, r23
    436c:	81 93       	st	Z+, r24
    436e:	91 93       	st	Z+, r25
    4370:	3f 01       	movw	r6, r30
    4372:	04 15       	cp	r16, r4
    4374:	15 05       	cpc	r17, r5
    4376:	09 f0       	breq	.+2      	; 0x437a <_ZN3IMU14matrixMultiplyEPA3_fS1_S1_+0xda>
    4378:	b9 cf       	rjmp	.-142    	; 0x42ec <_ZN3IMU14matrixMultiplyEPA3_fS1_S1_+0x4c>
    437a:	8c e0       	ldi	r24, 0x0C	; 12
    437c:	90 e0       	ldi	r25, 0x00	; 0
    437e:	c8 0e       	add	r12, r24
    4380:	d9 1e       	adc	r13, r25
    4382:	e8 0e       	add	r14, r24
    4384:	f9 1e       	adc	r15, r25
    4386:	c2 14       	cp	r12, r2
    4388:	d3 04       	cpc	r13, r3
    438a:	59 f0       	breq	.+22     	; 0x43a2 <_ZN3IMU14matrixMultiplyEPA3_fS1_S1_+0x102>
    438c:	9d 85       	ldd	r25, Y+13	; 0x0d
    438e:	8e 85       	ldd	r24, Y+14	; 0x0e
    4390:	09 2f       	mov	r16, r25
    4392:	18 2f       	mov	r17, r24
    4394:	ec e0       	ldi	r30, 0x0C	; 12
    4396:	4e 2e       	mov	r4, r30
    4398:	51 2c       	mov	r5, r1
    439a:	40 0e       	add	r4, r16
    439c:	51 1e       	adc	r5, r17
    439e:	36 01       	movw	r6, r12
    43a0:	a5 cf       	rjmp	.-182    	; 0x42ec <_ZN3IMU14matrixMultiplyEPA3_fS1_S1_+0x4c>
    43a2:	2e 96       	adiw	r28, 0x0e	; 14
    43a4:	0f b6       	in	r0, 0x3f	; 63
    43a6:	f8 94       	cli
    43a8:	de bf       	out	0x3e, r29	; 62
    43aa:	0f be       	out	0x3f, r0	; 63
    43ac:	cd bf       	out	0x3d, r28	; 61
    43ae:	cf 91       	pop	r28
    43b0:	df 91       	pop	r29
    43b2:	1f 91       	pop	r17
    43b4:	0f 91       	pop	r16
    43b6:	ff 90       	pop	r15
    43b8:	ef 90       	pop	r14
    43ba:	df 90       	pop	r13
    43bc:	cf 90       	pop	r12
    43be:	bf 90       	pop	r11
    43c0:	af 90       	pop	r10
    43c2:	9f 90       	pop	r9
    43c4:	8f 90       	pop	r8
    43c6:	7f 90       	pop	r7
    43c8:	6f 90       	pop	r6
    43ca:	5f 90       	pop	r5
    43cc:	4f 90       	pop	r4
    43ce:	3f 90       	pop	r3
    43d0:	2f 90       	pop	r2
    43d2:	08 95       	ret

000043d4 <_ZN3IMU13Matrix_updateEv>:
    43d4:	2f 92       	push	r2
    43d6:	3f 92       	push	r3
    43d8:	4f 92       	push	r4
    43da:	5f 92       	push	r5
    43dc:	6f 92       	push	r6
    43de:	7f 92       	push	r7
    43e0:	8f 92       	push	r8
    43e2:	9f 92       	push	r9
    43e4:	af 92       	push	r10
    43e6:	bf 92       	push	r11
    43e8:	cf 92       	push	r12
    43ea:	df 92       	push	r13
    43ec:	ef 92       	push	r14
    43ee:	ff 92       	push	r15
    43f0:	0f 93       	push	r16
    43f2:	1f 93       	push	r17
    43f4:	df 93       	push	r29
    43f6:	cf 93       	push	r28
    43f8:	00 d0       	rcall	.+0      	; 0x43fa <_ZN3IMU13Matrix_updateEv+0x26>
    43fa:	0f 92       	push	r0
    43fc:	cd b7       	in	r28, 0x3d	; 61
    43fe:	de b7       	in	r29, 0x3e	; 62
    4400:	60 91 af 06 	lds	r22, 0x06AF
    4404:	70 91 b0 06 	lds	r23, 0x06B0
    4408:	88 27       	eor	r24, r24
    440a:	77 fd       	sbrc	r23, 7
    440c:	80 95       	com	r24
    440e:	98 2f       	mov	r25, r24
    4410:	0e 94 d8 3e 	call	0x7db0	; 0x7db0 <__floatsisf>
    4414:	29 e7       	ldi	r18, 0x79	; 121
    4416:	32 e2       	ldi	r19, 0x22	; 34
    4418:	40 ea       	ldi	r20, 0xA0	; 160
    441a:	5a e3       	ldi	r21, 0x3A	; 58
    441c:	0e 94 1d 40 	call	0x803a	; 0x803a <__mulsf3>
    4420:	60 93 dd 06 	sts	0x06DD, r22
    4424:	70 93 de 06 	sts	0x06DE, r23
    4428:	80 93 df 06 	sts	0x06DF, r24
    442c:	90 93 e0 06 	sts	0x06E0, r25
    4430:	60 91 b1 06 	lds	r22, 0x06B1
    4434:	70 91 b2 06 	lds	r23, 0x06B2
    4438:	88 27       	eor	r24, r24
    443a:	77 fd       	sbrc	r23, 7
    443c:	80 95       	com	r24
    443e:	98 2f       	mov	r25, r24
    4440:	0e 94 d8 3e 	call	0x7db0	; 0x7db0 <__floatsisf>
    4444:	29 e7       	ldi	r18, 0x79	; 121
    4446:	32 e2       	ldi	r19, 0x22	; 34
    4448:	40 ea       	ldi	r20, 0xA0	; 160
    444a:	5a e3       	ldi	r21, 0x3A	; 58
    444c:	0e 94 1d 40 	call	0x803a	; 0x803a <__mulsf3>
    4450:	60 93 e1 06 	sts	0x06E1, r22
    4454:	70 93 e2 06 	sts	0x06E2, r23
    4458:	80 93 e3 06 	sts	0x06E3, r24
    445c:	90 93 e4 06 	sts	0x06E4, r25
    4460:	60 91 b3 06 	lds	r22, 0x06B3
    4464:	70 91 b4 06 	lds	r23, 0x06B4
    4468:	88 27       	eor	r24, r24
    446a:	77 fd       	sbrc	r23, 7
    446c:	80 95       	com	r24
    446e:	98 2f       	mov	r25, r24
    4470:	0e 94 d8 3e 	call	0x7db0	; 0x7db0 <__floatsisf>
    4474:	29 e7       	ldi	r18, 0x79	; 121
    4476:	32 e2       	ldi	r19, 0x22	; 34
    4478:	40 ea       	ldi	r20, 0xA0	; 160
    447a:	5a e3       	ldi	r21, 0x3A	; 58
    447c:	0e 94 1d 40 	call	0x803a	; 0x803a <__mulsf3>
    4480:	60 93 e5 06 	sts	0x06E5, r22
    4484:	70 93 e6 06 	sts	0x06E6, r23
    4488:	80 93 e7 06 	sts	0x06E7, r24
    448c:	90 93 e8 06 	sts	0x06E8, r25
    4490:	60 91 b5 06 	lds	r22, 0x06B5
    4494:	70 91 b6 06 	lds	r23, 0x06B6
    4498:	88 27       	eor	r24, r24
    449a:	77 fd       	sbrc	r23, 7
    449c:	80 95       	com	r24
    449e:	98 2f       	mov	r25, r24
    44a0:	0e 94 d8 3e 	call	0x7db0	; 0x7db0 <__floatsisf>
    44a4:	60 93 d1 06 	sts	0x06D1, r22
    44a8:	70 93 d2 06 	sts	0x06D2, r23
    44ac:	80 93 d3 06 	sts	0x06D3, r24
    44b0:	90 93 d4 06 	sts	0x06D4, r25
    44b4:	60 91 b7 06 	lds	r22, 0x06B7
    44b8:	70 91 b8 06 	lds	r23, 0x06B8
    44bc:	88 27       	eor	r24, r24
    44be:	77 fd       	sbrc	r23, 7
    44c0:	80 95       	com	r24
    44c2:	98 2f       	mov	r25, r24
    44c4:	0e 94 d8 3e 	call	0x7db0	; 0x7db0 <__floatsisf>
    44c8:	60 93 d5 06 	sts	0x06D5, r22
    44cc:	70 93 d6 06 	sts	0x06D6, r23
    44d0:	80 93 d7 06 	sts	0x06D7, r24
    44d4:	90 93 d8 06 	sts	0x06D8, r25
    44d8:	60 91 b9 06 	lds	r22, 0x06B9
    44dc:	70 91 ba 06 	lds	r23, 0x06BA
    44e0:	88 27       	eor	r24, r24
    44e2:	77 fd       	sbrc	r23, 7
    44e4:	80 95       	com	r24
    44e6:	98 2f       	mov	r25, r24
    44e8:	0e 94 d8 3e 	call	0x7db0	; 0x7db0 <__floatsisf>
    44ec:	60 93 d9 06 	sts	0x06D9, r22
    44f0:	70 93 da 06 	sts	0x06DA, r23
    44f4:	80 93 db 06 	sts	0x06DB, r24
    44f8:	90 93 dc 06 	sts	0x06DC, r25
    44fc:	8d e0       	ldi	r24, 0x0D	; 13
    44fe:	97 e0       	ldi	r25, 0x07	; 7
    4500:	6d ed       	ldi	r22, 0xDD	; 221
    4502:	76 e0       	ldi	r23, 0x06	; 6
    4504:	41 e0       	ldi	r20, 0x01	; 1
    4506:	57 e0       	ldi	r21, 0x07	; 7
    4508:	0e 94 d4 1e 	call	0x3da8	; 0x3da8 <_ZN3IMU9vectorAddEPfS0_S0_>
    450c:	89 ee       	ldi	r24, 0xE9	; 233
    450e:	96 e0       	ldi	r25, 0x06	; 6
    4510:	6d e0       	ldi	r22, 0x0D	; 13
    4512:	77 e0       	ldi	r23, 0x07	; 7
    4514:	45 ef       	ldi	r20, 0xF5	; 245
    4516:	56 e0       	ldi	r21, 0x06	; 6
    4518:	0e 94 d4 1e 	call	0x3da8	; 0x3da8 <_ZN3IMU9vectorAddEPfS0_S0_>
    451c:	0f 2e       	mov	r0, r31
    451e:	f0 e0       	ldi	r31, 0x00	; 0
    4520:	2f 2e       	mov	r2, r31
    4522:	f0 e0       	ldi	r31, 0x00	; 0
    4524:	3f 2e       	mov	r3, r31
    4526:	f0 e0       	ldi	r31, 0x00	; 0
    4528:	4f 2e       	mov	r4, r31
    452a:	f0 e0       	ldi	r31, 0x00	; 0
    452c:	5f 2e       	mov	r5, r31
    452e:	f0 2d       	mov	r31, r0
    4530:	20 92 5d 05 	sts	0x055D, r2
    4534:	30 92 5e 05 	sts	0x055E, r3
    4538:	40 92 5f 05 	sts	0x055F, r4
    453c:	50 92 60 05 	sts	0x0560, r5
    4540:	e0 90 35 05 	lds	r14, 0x0535
    4544:	f0 90 36 05 	lds	r15, 0x0536
    4548:	00 91 37 05 	lds	r16, 0x0537
    454c:	10 91 38 05 	lds	r17, 0x0538
    4550:	57 01       	movw	r10, r14
    4552:	68 01       	movw	r12, r16
    4554:	d7 fa       	bst	r13, 7
    4556:	d0 94       	com	r13
    4558:	d7 f8       	bld	r13, 7
    455a:	d0 94       	com	r13
    455c:	60 90 f1 06 	lds	r6, 0x06F1
    4560:	70 90 f2 06 	lds	r7, 0x06F2
    4564:	80 90 f3 06 	lds	r8, 0x06F3
    4568:	90 90 f4 06 	lds	r9, 0x06F4
    456c:	c6 01       	movw	r24, r12
    456e:	b5 01       	movw	r22, r10
    4570:	a4 01       	movw	r20, r8
    4572:	93 01       	movw	r18, r6
    4574:	0e 94 1d 40 	call	0x803a	; 0x803a <__mulsf3>
    4578:	60 93 61 05 	sts	0x0561, r22
    457c:	70 93 62 05 	sts	0x0562, r23
    4580:	80 93 63 05 	sts	0x0563, r24
    4584:	90 93 64 05 	sts	0x0564, r25
    4588:	80 91 ed 06 	lds	r24, 0x06ED
    458c:	90 91 ee 06 	lds	r25, 0x06EE
    4590:	a0 91 ef 06 	lds	r26, 0x06EF
    4594:	b0 91 f0 06 	lds	r27, 0x06F0
    4598:	89 83       	std	Y+1, r24	; 0x01
    459a:	9a 83       	std	Y+2, r25	; 0x02
    459c:	ab 83       	std	Y+3, r26	; 0x03
    459e:	bc 83       	std	Y+4, r27	; 0x04
    45a0:	c8 01       	movw	r24, r16
    45a2:	b7 01       	movw	r22, r14
    45a4:	29 81       	ldd	r18, Y+1	; 0x01
    45a6:	3a 81       	ldd	r19, Y+2	; 0x02
    45a8:	4b 81       	ldd	r20, Y+3	; 0x03
    45aa:	5c 81       	ldd	r21, Y+4	; 0x04
    45ac:	0e 94 1d 40 	call	0x803a	; 0x803a <__mulsf3>
    45b0:	60 93 65 05 	sts	0x0565, r22
    45b4:	70 93 66 05 	sts	0x0566, r23
    45b8:	80 93 67 05 	sts	0x0567, r24
    45bc:	90 93 68 05 	sts	0x0568, r25
    45c0:	c8 01       	movw	r24, r16
    45c2:	b7 01       	movw	r22, r14
    45c4:	a4 01       	movw	r20, r8
    45c6:	93 01       	movw	r18, r6
    45c8:	0e 94 1d 40 	call	0x803a	; 0x803a <__mulsf3>
    45cc:	60 93 69 05 	sts	0x0569, r22
    45d0:	70 93 6a 05 	sts	0x056A, r23
    45d4:	80 93 6b 05 	sts	0x056B, r24
    45d8:	90 93 6c 05 	sts	0x056C, r25
    45dc:	20 92 6d 05 	sts	0x056D, r2
    45e0:	30 92 6e 05 	sts	0x056E, r3
    45e4:	40 92 6f 05 	sts	0x056F, r4
    45e8:	50 92 70 05 	sts	0x0570, r5
    45ec:	60 90 e9 06 	lds	r6, 0x06E9
    45f0:	70 90 ea 06 	lds	r7, 0x06EA
    45f4:	80 90 eb 06 	lds	r8, 0x06EB
    45f8:	90 90 ec 06 	lds	r9, 0x06EC
    45fc:	c6 01       	movw	r24, r12
    45fe:	b5 01       	movw	r22, r10
    4600:	a4 01       	movw	r20, r8
    4602:	93 01       	movw	r18, r6
    4604:	0e 94 1d 40 	call	0x803a	; 0x803a <__mulsf3>
    4608:	60 93 71 05 	sts	0x0571, r22
    460c:	70 93 72 05 	sts	0x0572, r23
    4610:	80 93 73 05 	sts	0x0573, r24
    4614:	90 93 74 05 	sts	0x0574, r25
    4618:	c6 01       	movw	r24, r12
    461a:	b5 01       	movw	r22, r10
    461c:	29 81       	ldd	r18, Y+1	; 0x01
    461e:	3a 81       	ldd	r19, Y+2	; 0x02
    4620:	4b 81       	ldd	r20, Y+3	; 0x03
    4622:	5c 81       	ldd	r21, Y+4	; 0x04
    4624:	0e 94 1d 40 	call	0x803a	; 0x803a <__mulsf3>
    4628:	60 93 75 05 	sts	0x0575, r22
    462c:	70 93 76 05 	sts	0x0576, r23
    4630:	80 93 77 05 	sts	0x0577, r24
    4634:	90 93 78 05 	sts	0x0578, r25
    4638:	c8 01       	movw	r24, r16
    463a:	b7 01       	movw	r22, r14
    463c:	a4 01       	movw	r20, r8
    463e:	93 01       	movw	r18, r6
    4640:	0e 94 1d 40 	call	0x803a	; 0x803a <__mulsf3>
    4644:	60 93 79 05 	sts	0x0579, r22
    4648:	70 93 7a 05 	sts	0x057A, r23
    464c:	80 93 7b 05 	sts	0x057B, r24
    4650:	90 93 7c 05 	sts	0x057C, r25
    4654:	20 92 7d 05 	sts	0x057D, r2
    4658:	30 92 7e 05 	sts	0x057E, r3
    465c:	40 92 7f 05 	sts	0x057F, r4
    4660:	50 92 80 05 	sts	0x0580, r5
    4664:	89 e3       	ldi	r24, 0x39	; 57
    4666:	95 e0       	ldi	r25, 0x05	; 5
    4668:	6d e5       	ldi	r22, 0x5D	; 93
    466a:	75 e0       	ldi	r23, 0x05	; 5
    466c:	4f e3       	ldi	r20, 0x3F	; 63
    466e:	57 e0       	ldi	r21, 0x07	; 7
    4670:	0e 94 50 21 	call	0x42a0	; 0x42a0 <_ZN3IMU14matrixMultiplyEPA3_fS1_S1_>
    4674:	a9 e3       	ldi	r26, 0x39	; 57
    4676:	ea 2e       	mov	r14, r26
    4678:	a5 e0       	ldi	r26, 0x05	; 5
    467a:	fa 2e       	mov	r15, r26
    467c:	0f e3       	ldi	r16, 0x3F	; 63
    467e:	17 e0       	ldi	r17, 0x07	; 7
    4680:	d7 01       	movw	r26, r14
    4682:	6d 91       	ld	r22, X+
    4684:	7d 91       	ld	r23, X+
    4686:	8d 91       	ld	r24, X+
    4688:	9c 91       	ld	r25, X
    468a:	f8 01       	movw	r30, r16
    468c:	20 81       	ld	r18, Z
    468e:	31 81       	ldd	r19, Z+1	; 0x01
    4690:	42 81       	ldd	r20, Z+2	; 0x02
    4692:	53 81       	ldd	r21, Z+3	; 0x03
    4694:	0e 94 59 3d 	call	0x7ab2	; 0x7ab2 <__addsf3>
    4698:	d7 01       	movw	r26, r14
    469a:	6d 93       	st	X+, r22
    469c:	7d 93       	st	X+, r23
    469e:	8d 93       	st	X+, r24
    46a0:	9c 93       	st	X, r25
    46a2:	13 97       	sbiw	r26, 0x03	; 3
    46a4:	14 96       	adiw	r26, 0x04	; 4
    46a6:	6d 91       	ld	r22, X+
    46a8:	7d 91       	ld	r23, X+
    46aa:	8d 91       	ld	r24, X+
    46ac:	9c 91       	ld	r25, X
    46ae:	17 97       	sbiw	r26, 0x07	; 7
    46b0:	f8 01       	movw	r30, r16
    46b2:	24 81       	ldd	r18, Z+4	; 0x04
    46b4:	35 81       	ldd	r19, Z+5	; 0x05
    46b6:	46 81       	ldd	r20, Z+6	; 0x06
    46b8:	57 81       	ldd	r21, Z+7	; 0x07
    46ba:	0e 94 59 3d 	call	0x7ab2	; 0x7ab2 <__addsf3>
    46be:	d7 01       	movw	r26, r14
    46c0:	14 96       	adiw	r26, 0x04	; 4
    46c2:	6d 93       	st	X+, r22
    46c4:	7d 93       	st	X+, r23
    46c6:	8d 93       	st	X+, r24
    46c8:	9c 93       	st	X, r25
    46ca:	17 97       	sbiw	r26, 0x07	; 7
    46cc:	18 96       	adiw	r26, 0x08	; 8
    46ce:	6d 91       	ld	r22, X+
    46d0:	7d 91       	ld	r23, X+
    46d2:	8d 91       	ld	r24, X+
    46d4:	9c 91       	ld	r25, X
    46d6:	1b 97       	sbiw	r26, 0x0b	; 11
    46d8:	f8 01       	movw	r30, r16
    46da:	20 85       	ldd	r18, Z+8	; 0x08
    46dc:	31 85       	ldd	r19, Z+9	; 0x09
    46de:	42 85       	ldd	r20, Z+10	; 0x0a
    46e0:	53 85       	ldd	r21, Z+11	; 0x0b
    46e2:	0e 94 59 3d 	call	0x7ab2	; 0x7ab2 <__addsf3>
    46e6:	d7 01       	movw	r26, r14
    46e8:	18 96       	adiw	r26, 0x08	; 8
    46ea:	6d 93       	st	X+, r22
    46ec:	7d 93       	st	X+, r23
    46ee:	8d 93       	st	X+, r24
    46f0:	9c 93       	st	X, r25
    46f2:	1b 97       	sbiw	r26, 0x0b	; 11
    46f4:	ec e0       	ldi	r30, 0x0C	; 12
    46f6:	f0 e0       	ldi	r31, 0x00	; 0
    46f8:	ee 0e       	add	r14, r30
    46fa:	ff 1e       	adc	r15, r31
    46fc:	04 5f       	subi	r16, 0xF4	; 244
    46fe:	1f 4f       	sbci	r17, 0xFF	; 255
    4700:	fd e5       	ldi	r31, 0x5D	; 93
    4702:	ef 16       	cp	r14, r31
    4704:	f5 e0       	ldi	r31, 0x05	; 5
    4706:	ff 06       	cpc	r15, r31
    4708:	09 f0       	breq	.+2      	; 0x470c <_ZN3IMU13Matrix_updateEv+0x338>
    470a:	ba cf       	rjmp	.-140    	; 0x4680 <_ZN3IMU13Matrix_updateEv+0x2ac>
    470c:	0f 90       	pop	r0
    470e:	0f 90       	pop	r0
    4710:	0f 90       	pop	r0
    4712:	0f 90       	pop	r0
    4714:	cf 91       	pop	r28
    4716:	df 91       	pop	r29
    4718:	1f 91       	pop	r17
    471a:	0f 91       	pop	r16
    471c:	ff 90       	pop	r15
    471e:	ef 90       	pop	r14
    4720:	df 90       	pop	r13
    4722:	cf 90       	pop	r12
    4724:	bf 90       	pop	r11
    4726:	af 90       	pop	r10
    4728:	9f 90       	pop	r9
    472a:	8f 90       	pop	r8
    472c:	7f 90       	pop	r7
    472e:	6f 90       	pop	r6
    4730:	5f 90       	pop	r5
    4732:	4f 90       	pop	r4
    4734:	3f 90       	pop	r3
    4736:	2f 90       	pop	r2
    4738:	08 95       	ret

0000473a <_ZN3IMU9updateIMUEv>:
    473a:	ef 92       	push	r14
    473c:	ff 92       	push	r15
    473e:	0f 93       	push	r16
    4740:	1f 93       	push	r17
    4742:	0e 94 5b 34 	call	0x68b6	; 0x68b6 <millis>
    4746:	20 91 8f 06 	lds	r18, 0x068F
    474a:	30 91 90 06 	lds	r19, 0x0690
    474e:	40 91 91 06 	lds	r20, 0x0691
    4752:	50 91 92 06 	lds	r21, 0x0692
    4756:	62 1b       	sub	r22, r18
    4758:	73 0b       	sbc	r23, r19
    475a:	84 0b       	sbc	r24, r20
    475c:	95 0b       	sbc	r25, r21
    475e:	64 31       	cpi	r22, 0x14	; 20
    4760:	71 05       	cpc	r23, r1
    4762:	81 05       	cpc	r24, r1
    4764:	91 05       	cpc	r25, r1
    4766:	08 f4       	brcc	.+2      	; 0x476a <_ZN3IMU9updateIMUEv+0x30>
    4768:	6b c0       	rjmp	.+214    	; 0x4840 <_ZN3IMU9updateIMUEv+0x106>
    476a:	80 91 3d 07 	lds	r24, 0x073D
    476e:	90 91 3e 07 	lds	r25, 0x073E
    4772:	01 96       	adiw	r24, 0x01	; 1
    4774:	90 93 3e 07 	sts	0x073E, r25
    4778:	80 93 3d 07 	sts	0x073D, r24
    477c:	20 93 93 06 	sts	0x0693, r18
    4780:	30 93 94 06 	sts	0x0694, r19
    4784:	40 93 95 06 	sts	0x0695, r20
    4788:	50 93 96 06 	sts	0x0696, r21
    478c:	0e 94 5b 34 	call	0x68b6	; 0x68b6 <millis>
    4790:	9b 01       	movw	r18, r22
    4792:	ac 01       	movw	r20, r24
    4794:	20 93 8f 06 	sts	0x068F, r18
    4798:	30 93 90 06 	sts	0x0690, r19
    479c:	40 93 91 06 	sts	0x0691, r20
    47a0:	50 93 92 06 	sts	0x0692, r21
    47a4:	80 91 93 06 	lds	r24, 0x0693
    47a8:	90 91 94 06 	lds	r25, 0x0694
    47ac:	a0 91 95 06 	lds	r26, 0x0695
    47b0:	b0 91 96 06 	lds	r27, 0x0696
    47b4:	82 17       	cp	r24, r18
    47b6:	93 07       	cpc	r25, r19
    47b8:	a4 07       	cpc	r26, r20
    47ba:	b5 07       	cpc	r27, r21
    47bc:	cc f4       	brge	.+50     	; 0x47f0 <_ZN3IMU9updateIMUEv+0xb6>
    47be:	79 01       	movw	r14, r18
    47c0:	8a 01       	movw	r16, r20
    47c2:	e8 1a       	sub	r14, r24
    47c4:	f9 0a       	sbc	r15, r25
    47c6:	0a 0b       	sbc	r16, r26
    47c8:	1b 0b       	sbc	r17, r27
    47ca:	c8 01       	movw	r24, r16
    47cc:	b7 01       	movw	r22, r14
    47ce:	0e 94 d8 3e 	call	0x7db0	; 0x7db0 <__floatsisf>
    47d2:	20 e0       	ldi	r18, 0x00	; 0
    47d4:	30 e0       	ldi	r19, 0x00	; 0
    47d6:	4a e7       	ldi	r20, 0x7A	; 122
    47d8:	54 e4       	ldi	r21, 0x44	; 68
    47da:	0e 94 3d 3e 	call	0x7c7a	; 0x7c7a <__divsf3>
    47de:	60 93 35 05 	sts	0x0535, r22
    47e2:	70 93 36 05 	sts	0x0536, r23
    47e6:	80 93 37 05 	sts	0x0537, r24
    47ea:	90 93 38 05 	sts	0x0538, r25
    47ee:	0b c0       	rjmp	.+22     	; 0x4806 <_ZN3IMU9updateIMUEv+0xcc>
    47f0:	80 e0       	ldi	r24, 0x00	; 0
    47f2:	90 e0       	ldi	r25, 0x00	; 0
    47f4:	dc 01       	movw	r26, r24
    47f6:	80 93 35 05 	sts	0x0535, r24
    47fa:	90 93 36 05 	sts	0x0536, r25
    47fe:	a0 93 37 05 	sts	0x0537, r26
    4802:	b0 93 38 05 	sts	0x0538, r27
    4806:	0e 94 ec 1b 	call	0x37d8	; 0x37d8 <_ZN3IMU8readGyroEv>
    480a:	0e 94 76 1c 	call	0x38ec	; 0x38ec <_ZN3IMU9readAccelEv>
    480e:	80 91 3d 07 	lds	r24, 0x073D
    4812:	90 91 3e 07 	lds	r25, 0x073E
    4816:	86 30       	cpi	r24, 0x06	; 6
    4818:	91 05       	cpc	r25, r1
    481a:	40 f0       	brcs	.+16     	; 0x482c <_ZN3IMU9updateIMUEv+0xf2>
    481c:	10 92 3e 07 	sts	0x073E, r1
    4820:	10 92 3d 07 	sts	0x073D, r1
    4824:	0e 94 83 1d 	call	0x3b06	; 0x3b06 <_ZN3IMU11readCompassEv>
    4828:	0e 94 ea 19 	call	0x33d4	; 0x33d4 <_ZN3IMU15Compass_HeadingEv>
    482c:	0e 94 ea 21 	call	0x43d4	; 0x43d4 <_ZN3IMU13Matrix_updateEv>
    4830:	0e 94 97 20 	call	0x412e	; 0x412e <_ZN3IMU9NormalizeEv>
    4834:	0e 94 05 1f 	call	0x3e0a	; 0x3e0a <_ZN3IMU16Drift_correctionEv>
    4838:	0e 94 8e 1b 	call	0x371c	; 0x371c <_ZN3IMU12Euler_anglesEv>
    483c:	81 e0       	ldi	r24, 0x01	; 1
    483e:	01 c0       	rjmp	.+2      	; 0x4842 <_ZN3IMU9updateIMUEv+0x108>
    4840:	80 e0       	ldi	r24, 0x00	; 0
    4842:	1f 91       	pop	r17
    4844:	0f 91       	pop	r16
    4846:	ff 90       	pop	r15
    4848:	ef 90       	pop	r14
    484a:	08 95       	ret

0000484c <_ZN12control_dataC1Ev>:
    484c:	cf 93       	push	r28
    484e:	df 93       	push	r29
    4850:	ec 01       	movw	r28, r24
    4852:	0e 94 3b 05 	call	0xa76	; 0xa76 <_ZN7BatteryC1Ev>
    4856:	ce 01       	movw	r24, r28
    4858:	05 96       	adiw	r24, 0x05	; 5
    485a:	0e 94 f0 37 	call	0x6fe0	; 0x6fe0 <_ZN5ServoC1Ev>
    485e:	ce 01       	movw	r24, r28
    4860:	08 96       	adiw	r24, 0x08	; 8
    4862:	0e 94 f0 37 	call	0x6fe0	; 0x6fe0 <_ZN5ServoC1Ev>
    4866:	df 91       	pop	r29
    4868:	cf 91       	pop	r28
    486a:	08 95       	ret

0000486c <_Z41__static_initialization_and_destruction_0ii.clone.11>:
    486c:	cf 93       	push	r28
    486e:	df 93       	push	r29
    4870:	ec 01       	movw	r28, r24
    4872:	81 30       	cpi	r24, 0x01	; 1
    4874:	91 05       	cpc	r25, r1
    4876:	09 f0       	breq	.+2      	; 0x487a <_Z41__static_initialization_and_destruction_0ii.clone.11+0xe>
    4878:	5d c1       	rjmp	.+698    	; 0x4b34 <_Z41__static_initialization_and_destruction_0ii.clone.11+0x2c8>
    487a:	8f e6       	ldi	r24, 0x6F	; 111
    487c:	97 e0       	ldi	r25, 0x07	; 7
    487e:	0e 94 b9 02 	call	0x572	; 0x572 <_ZN6LSM303C1Ev>
    4882:	89 ea       	ldi	r24, 0xA9	; 169
    4884:	97 e0       	ldi	r25, 0x07	; 7
    4886:	0e 94 26 24 	call	0x484c	; 0x484c <_ZN12control_dataC1Ev>
    488a:	85 ee       	ldi	r24, 0xE5	; 229
    488c:	97 e0       	ldi	r25, 0x07	; 7
    488e:	63 e0       	ldi	r22, 0x03	; 3
    4890:	70 e1       	ldi	r23, 0x10	; 16
    4892:	20 e0       	ldi	r18, 0x00	; 0
    4894:	36 e9       	ldi	r19, 0x96	; 150
    4896:	40 e0       	ldi	r20, 0x00	; 0
    4898:	50 e0       	ldi	r21, 0x00	; 0
    489a:	0e 94 86 05 	call	0xb0c	; 0xb0c <_ZN8RoboClawC1EP14HardwareSerialm>
    489e:	87 ee       	ldi	r24, 0xE7	; 231
    48a0:	97 e0       	ldi	r25, 0x07	; 7
    48a2:	6a e2       	ldi	r22, 0x2A	; 42
    48a4:	40 e0       	ldi	r20, 0x00	; 0
    48a6:	0e 94 b7 08 	call	0x116e	; 0x116e <_ZN17StrongDriveOutputC1Ehb>
    48aa:	80 e9       	ldi	r24, 0x90	; 144
    48ac:	95 e0       	ldi	r25, 0x05	; 5
    48ae:	90 93 ed 07 	sts	0x07ED, r25
    48b2:	80 93 ec 07 	sts	0x07EC, r24
    48b6:	80 ef       	ldi	r24, 0xF0	; 240
    48b8:	9f e0       	ldi	r25, 0x0F	; 15
    48ba:	90 93 ef 07 	sts	0x07EF, r25
    48be:	80 93 ee 07 	sts	0x07EE, r24
    48c2:	80 e0       	ldi	r24, 0x00	; 0
    48c4:	91 ee       	ldi	r25, 0xE1	; 225
    48c6:	a0 e0       	ldi	r26, 0x00	; 0
    48c8:	b0 e0       	ldi	r27, 0x00	; 0
    48ca:	80 93 f0 07 	sts	0x07F0, r24
    48ce:	90 93 f1 07 	sts	0x07F1, r25
    48d2:	a0 93 f2 07 	sts	0x07F2, r26
    48d6:	b0 93 f3 07 	sts	0x07F3, r27
    48da:	10 92 6e 0c 	sts	0x0C6E, r1
    48de:	8e eb       	ldi	r24, 0xBE	; 190
    48e0:	95 e0       	ldi	r25, 0x05	; 5
    48e2:	90 93 7d 0c 	sts	0x0C7D, r25
    48e6:	80 93 7c 0c 	sts	0x0C7C, r24
    48ea:	e6 ee       	ldi	r30, 0xE6	; 230
    48ec:	f5 e0       	ldi	r31, 0x05	; 5
    48ee:	f0 93 92 0c 	sts	0x0C92, r31
    48f2:	e0 93 91 0c 	sts	0x0C91, r30
    48f6:	8d e9       	ldi	r24, 0x9D	; 157
    48f8:	94 e0       	ldi	r25, 0x04	; 4
    48fa:	90 93 96 0c 	sts	0x0C96, r25
    48fe:	80 93 95 0c 	sts	0x0C95, r24
    4902:	81 e9       	ldi	r24, 0x91	; 145
    4904:	9c e0       	ldi	r25, 0x0C	; 12
    4906:	90 93 98 0c 	sts	0x0C98, r25
    490a:	80 93 97 0c 	sts	0x0C97, r24
    490e:	10 92 9e 0c 	sts	0x0C9E, r1
    4912:	10 92 9d 0c 	sts	0x0C9D, r1
    4916:	82 ef       	ldi	r24, 0xF2	; 242
    4918:	95 e0       	ldi	r25, 0x05	; 5
    491a:	90 93 a0 0c 	sts	0x0CA0, r25
    491e:	80 93 9f 0c 	sts	0x0C9F, r24
    4922:	8e ef       	ldi	r24, 0xFE	; 254
    4924:	95 e0       	ldi	r25, 0x05	; 5
    4926:	90 93 a2 0c 	sts	0x0CA2, r25
    492a:	80 93 a1 0c 	sts	0x0CA1, r24
    492e:	10 92 a7 0c 	sts	0x0CA7, r1
    4932:	10 92 a8 0c 	sts	0x0CA8, r1
    4936:	10 92 a9 0c 	sts	0x0CA9, r1
    493a:	10 92 aa 0c 	sts	0x0CAA, r1
    493e:	10 92 ab 0c 	sts	0x0CAB, r1
    4942:	10 92 ac 0c 	sts	0x0CAC, r1
    4946:	10 92 ad 0c 	sts	0x0CAD, r1
    494a:	10 92 ae 0c 	sts	0x0CAE, r1
    494e:	25 ea       	ldi	r18, 0xA5	; 165
    4950:	34 e0       	ldi	r19, 0x04	; 4
    4952:	30 93 d2 0c 	sts	0x0CD2, r19
    4956:	20 93 d1 0c 	sts	0x0CD1, r18
    495a:	2f e9       	ldi	r18, 0x9F	; 159
    495c:	3c e0       	ldi	r19, 0x0C	; 12
    495e:	30 93 d4 0c 	sts	0x0CD4, r19
    4962:	20 93 d3 0c 	sts	0x0CD3, r18
    4966:	10 92 da 0c 	sts	0x0CDA, r1
    496a:	10 92 d9 0c 	sts	0x0CD9, r1
    496e:	2a e0       	ldi	r18, 0x0A	; 10
    4970:	36 e0       	ldi	r19, 0x06	; 6
    4972:	30 93 dc 0c 	sts	0x0CDC, r19
    4976:	20 93 db 0c 	sts	0x0CDB, r18
    497a:	90 93 de 0c 	sts	0x0CDE, r25
    497e:	80 93 dd 0c 	sts	0x0CDD, r24
    4982:	10 92 e3 0c 	sts	0x0CE3, r1
    4986:	10 92 e4 0c 	sts	0x0CE4, r1
    498a:	10 92 e5 0c 	sts	0x0CE5, r1
    498e:	10 92 e6 0c 	sts	0x0CE6, r1
    4992:	10 92 e7 0c 	sts	0x0CE7, r1
    4996:	10 92 e8 0c 	sts	0x0CE8, r1
    499a:	10 92 e9 0c 	sts	0x0CE9, r1
    499e:	10 92 ea 0c 	sts	0x0CEA, r1
    49a2:	2e ea       	ldi	r18, 0xAE	; 174
    49a4:	34 e0       	ldi	r19, 0x04	; 4
    49a6:	30 93 f6 0c 	sts	0x0CF6, r19
    49aa:	20 93 f5 0c 	sts	0x0CF5, r18
    49ae:	2b ed       	ldi	r18, 0xDB	; 219
    49b0:	3c e0       	ldi	r19, 0x0C	; 12
    49b2:	30 93 f8 0c 	sts	0x0CF8, r19
    49b6:	20 93 f7 0c 	sts	0x0CF7, r18
    49ba:	10 92 fe 0c 	sts	0x0CFE, r1
    49be:	10 92 fd 0c 	sts	0x0CFD, r1
    49c2:	26 e1       	ldi	r18, 0x16	; 22
    49c4:	36 e0       	ldi	r19, 0x06	; 6
    49c6:	30 93 00 0d 	sts	0x0D00, r19
    49ca:	20 93 ff 0c 	sts	0x0CFF, r18
    49ce:	90 93 02 0d 	sts	0x0D02, r25
    49d2:	80 93 01 0d 	sts	0x0D01, r24
    49d6:	10 92 07 0d 	sts	0x0D07, r1
    49da:	10 92 08 0d 	sts	0x0D08, r1
    49de:	10 92 09 0d 	sts	0x0D09, r1
    49e2:	10 92 0a 0d 	sts	0x0D0A, r1
    49e6:	10 92 0b 0d 	sts	0x0D0B, r1
    49ea:	10 92 0c 0d 	sts	0x0D0C, r1
    49ee:	10 92 0d 0d 	sts	0x0D0D, r1
    49f2:	10 92 0e 0d 	sts	0x0D0E, r1
    49f6:	2c eb       	ldi	r18, 0xBC	; 188
    49f8:	34 e0       	ldi	r19, 0x04	; 4
    49fa:	30 93 3a 0d 	sts	0x0D3A, r19
    49fe:	20 93 39 0d 	sts	0x0D39, r18
    4a02:	2f ef       	ldi	r18, 0xFF	; 255
    4a04:	3c e0       	ldi	r19, 0x0C	; 12
    4a06:	30 93 3c 0d 	sts	0x0D3C, r19
    4a0a:	20 93 3b 0d 	sts	0x0D3B, r18
    4a0e:	10 92 42 0d 	sts	0x0D42, r1
    4a12:	10 92 41 0d 	sts	0x0D41, r1
    4a16:	62 e2       	ldi	r22, 0x22	; 34
    4a18:	76 e0       	ldi	r23, 0x06	; 6
    4a1a:	70 93 44 0d 	sts	0x0D44, r23
    4a1e:	60 93 43 0d 	sts	0x0D43, r22
    4a22:	4e e2       	ldi	r20, 0x2E	; 46
    4a24:	56 e0       	ldi	r21, 0x06	; 6
    4a26:	50 93 46 0d 	sts	0x0D46, r21
    4a2a:	40 93 45 0d 	sts	0x0D45, r20
    4a2e:	2a e3       	ldi	r18, 0x3A	; 58
    4a30:	36 e0       	ldi	r19, 0x06	; 6
    4a32:	30 93 49 0d 	sts	0x0D49, r19
    4a36:	20 93 48 0d 	sts	0x0D48, r18
    4a3a:	a4 ec       	ldi	r26, 0xC4	; 196
    4a3c:	b4 e0       	ldi	r27, 0x04	; 4
    4a3e:	b0 93 5f 0d 	sts	0x0D5F, r27
    4a42:	a0 93 5e 0d 	sts	0x0D5E, r26
    4a46:	a3 e4       	ldi	r26, 0x43	; 67
    4a48:	bd e0       	ldi	r27, 0x0D	; 13
    4a4a:	b0 93 61 0d 	sts	0x0D61, r27
    4a4e:	a0 93 60 0d 	sts	0x0D60, r26
    4a52:	10 92 67 0d 	sts	0x0D67, r1
    4a56:	10 92 66 0d 	sts	0x0D66, r1
    4a5a:	a6 e4       	ldi	r26, 0x46	; 70
    4a5c:	b6 e0       	ldi	r27, 0x06	; 6
    4a5e:	b0 93 72 0d 	sts	0x0D72, r27
    4a62:	a0 93 71 0d 	sts	0x0D71, r26
    4a66:	a2 e5       	ldi	r26, 0x52	; 82
    4a68:	b6 e0       	ldi	r27, 0x06	; 6
    4a6a:	b0 93 78 0d 	sts	0x0D78, r27
    4a6e:	a0 93 77 0d 	sts	0x0D77, r26
    4a72:	90 93 7a 0d 	sts	0x0D7A, r25
    4a76:	80 93 79 0d 	sts	0x0D79, r24
    4a7a:	10 92 7f 0d 	sts	0x0D7F, r1
    4a7e:	10 92 80 0d 	sts	0x0D80, r1
    4a82:	10 92 81 0d 	sts	0x0D81, r1
    4a86:	10 92 82 0d 	sts	0x0D82, r1
    4a8a:	10 92 83 0d 	sts	0x0D83, r1
    4a8e:	10 92 84 0d 	sts	0x0D84, r1
    4a92:	10 92 85 0d 	sts	0x0D85, r1
    4a96:	10 92 86 0d 	sts	0x0D86, r1
    4a9a:	86 e6       	ldi	r24, 0x66	; 102
    4a9c:	99 e1       	ldi	r25, 0x19	; 25
    4a9e:	90 93 92 0d 	sts	0x0D92, r25
    4aa2:	80 93 91 0d 	sts	0x0D91, r24
    4aa6:	d0 93 94 0d 	sts	0x0D94, r29
    4aaa:	c0 93 93 0d 	sts	0x0D93, r28
    4aae:	80 ed       	ldi	r24, 0xD0	; 208
    4ab0:	94 e0       	ldi	r25, 0x04	; 4
    4ab2:	90 93 76 0d 	sts	0x0D76, r25
    4ab6:	80 93 75 0d 	sts	0x0D75, r24
    4aba:	8e e5       	ldi	r24, 0x5E	; 94
    4abc:	96 e0       	ldi	r25, 0x06	; 6
    4abe:	90 93 96 0d 	sts	0x0D96, r25
    4ac2:	80 93 95 0d 	sts	0x0D95, r24
    4ac6:	f0 93 9c 0d 	sts	0x0D9C, r31
    4aca:	e0 93 9b 0d 	sts	0x0D9B, r30
    4ace:	85 e0       	ldi	r24, 0x05	; 5
    4ad0:	93 e1       	ldi	r25, 0x13	; 19
    4ad2:	90 93 a0 0d 	sts	0x0DA0, r25
    4ad6:	80 93 9f 0d 	sts	0x0D9F, r24
    4ada:	d0 93 a2 0d 	sts	0x0DA2, r29
    4ade:	c0 93 a1 0d 	sts	0x0DA1, r28
    4ae2:	86 ed       	ldi	r24, 0xD6	; 214
    4ae4:	94 e0       	ldi	r25, 0x04	; 4
    4ae6:	90 93 9a 0d 	sts	0x0D9A, r25
    4aea:	80 93 99 0d 	sts	0x0D99, r24
    4aee:	8a e6       	ldi	r24, 0x6A	; 106
    4af0:	96 e0       	ldi	r25, 0x06	; 6
    4af2:	90 93 a4 0d 	sts	0x0DA4, r25
    4af6:	80 93 a3 0d 	sts	0x0DA3, r24
    4afa:	70 93 aa 0d 	sts	0x0DAA, r23
    4afe:	60 93 a9 0d 	sts	0x0DA9, r22
    4b02:	50 93 ac 0d 	sts	0x0DAC, r21
    4b06:	40 93 ab 0d 	sts	0x0DAB, r20
    4b0a:	30 93 af 0d 	sts	0x0DAF, r19
    4b0e:	20 93 ae 0d 	sts	0x0DAE, r18
    4b12:	8e e3       	ldi	r24, 0x3E	; 62
    4b14:	99 e1       	ldi	r25, 0x19	; 25
    4b16:	90 93 c5 0d 	sts	0x0DC5, r25
    4b1a:	80 93 c4 0d 	sts	0x0DC4, r24
    4b1e:	d0 93 c7 0d 	sts	0x0DC7, r29
    4b22:	c0 93 c6 0d 	sts	0x0DC6, r28
    4b26:	8d ed       	ldi	r24, 0xDD	; 221
    4b28:	94 e0       	ldi	r25, 0x04	; 4
    4b2a:	90 93 a8 0d 	sts	0x0DA8, r25
    4b2e:	80 93 a7 0d 	sts	0x0DA7, r24
    4b32:	06 c0       	rjmp	.+12     	; 0x4b40 <_Z41__static_initialization_and_destruction_0ii.clone.11+0x2d4>
    4b34:	00 97       	sbiw	r24, 0x00	; 0
    4b36:	21 f4       	brne	.+8      	; 0x4b40 <_Z41__static_initialization_and_destruction_0ii.clone.11+0x2d4>
    4b38:	85 ee       	ldi	r24, 0xE5	; 229
    4b3a:	97 e0       	ldi	r25, 0x07	; 7
    4b3c:	0e 94 8f 05 	call	0xb1e	; 0xb1e <_ZN8RoboClawD1Ev>
    4b40:	df 91       	pop	r29
    4b42:	cf 91       	pop	r28
    4b44:	08 95       	ret

00004b46 <_ZN3ros11NodeHandle_I15ArduinoHardwareLi25ELi25ELi512ELi512EE3nowEv>:
    4b46:	cf 92       	push	r12
    4b48:	df 92       	push	r13
    4b4a:	ef 92       	push	r14
    4b4c:	ff 92       	push	r15
    4b4e:	0f 93       	push	r16
    4b50:	1f 93       	push	r17
    4b52:	df 93       	push	r29
    4b54:	cf 93       	push	r28
    4b56:	cd b7       	in	r28, 0x3d	; 61
    4b58:	de b7       	in	r29, 0x3e	; 62
    4b5a:	60 97       	sbiw	r28, 0x10	; 16
    4b5c:	0f b6       	in	r0, 0x3f	; 63
    4b5e:	f8 94       	cli
    4b60:	de bf       	out	0x3e, r29	; 62
    4b62:	0f be       	out	0x3f, r0	; 63
    4b64:	cd bf       	out	0x3d, r28	; 61
    4b66:	6c 01       	movw	r12, r24
    4b68:	0e 94 5b 34 	call	0x68b6	; 0x68b6 <millis>
    4b6c:	28 ee       	ldi	r18, 0xE8	; 232
    4b6e:	33 e0       	ldi	r19, 0x03	; 3
    4b70:	40 e0       	ldi	r20, 0x00	; 0
    4b72:	50 e0       	ldi	r21, 0x00	; 0
    4b74:	0e 94 26 41 	call	0x824c	; 0x824c <__udivmodsi4>
    4b78:	7b 01       	movw	r14, r22
    4b7a:	8c 01       	movw	r16, r24
    4b7c:	f6 01       	movw	r30, r12
    4b7e:	84 85       	ldd	r24, Z+12	; 0x0c
    4b80:	95 85       	ldd	r25, Z+13	; 0x0d
    4b82:	a6 85       	ldd	r26, Z+14	; 0x0e
    4b84:	b7 85       	ldd	r27, Z+15	; 0x0f
    4b86:	82 0f       	add	r24, r18
    4b88:	93 1f       	adc	r25, r19
    4b8a:	a4 1f       	adc	r26, r20
    4b8c:	b5 1f       	adc	r27, r21
    4b8e:	89 83       	std	Y+1, r24	; 0x01
    4b90:	9a 83       	std	Y+2, r25	; 0x02
    4b92:	ab 83       	std	Y+3, r26	; 0x03
    4b94:	bc 83       	std	Y+4, r27	; 0x04
    4b96:	c8 01       	movw	r24, r16
    4b98:	b7 01       	movw	r22, r14
    4b9a:	20 e4       	ldi	r18, 0x40	; 64
    4b9c:	32 e4       	ldi	r19, 0x42	; 66
    4b9e:	4f e0       	ldi	r20, 0x0F	; 15
    4ba0:	50 e0       	ldi	r21, 0x00	; 0
    4ba2:	0e 94 e0 40 	call	0x81c0	; 0x81c0 <__mulsi3>
    4ba6:	f6 01       	movw	r30, r12
    4ba8:	20 89       	ldd	r18, Z+16	; 0x10
    4baa:	31 89       	ldd	r19, Z+17	; 0x11
    4bac:	42 89       	ldd	r20, Z+18	; 0x12
    4bae:	53 89       	ldd	r21, Z+19	; 0x13
    4bb0:	62 0f       	add	r22, r18
    4bb2:	73 1f       	adc	r23, r19
    4bb4:	84 1f       	adc	r24, r20
    4bb6:	95 1f       	adc	r25, r21
    4bb8:	6d 83       	std	Y+5, r22	; 0x05
    4bba:	7e 83       	std	Y+6, r23	; 0x06
    4bbc:	8f 83       	std	Y+7, r24	; 0x07
    4bbe:	98 87       	std	Y+8, r25	; 0x08
    4bc0:	7e 01       	movw	r14, r28
    4bc2:	08 94       	sec
    4bc4:	e1 1c       	adc	r14, r1
    4bc6:	f1 1c       	adc	r15, r1
    4bc8:	c7 01       	movw	r24, r14
    4bca:	be 01       	movw	r22, r28
    4bcc:	6b 5f       	subi	r22, 0xFB	; 251
    4bce:	7f 4f       	sbci	r23, 0xFF	; 255
    4bd0:	0e 94 7d 01 	call	0x2fa	; 0x2fa <_ZN3ros16normalizeSecNSecERmS0_>
    4bd4:	de 01       	movw	r26, r28
    4bd6:	19 96       	adiw	r26, 0x09	; 9
    4bd8:	f7 01       	movw	r30, r14
    4bda:	88 e0       	ldi	r24, 0x08	; 8
    4bdc:	01 90       	ld	r0, Z+
    4bde:	0d 92       	st	X+, r0
    4be0:	81 50       	subi	r24, 0x01	; 1
    4be2:	e1 f7       	brne	.-8      	; 0x4bdc <_ZN3ros11NodeHandle_I15ArduinoHardwareLi25ELi25ELi512ELi512EE3nowEv+0x96>
    4be4:	29 85       	ldd	r18, Y+9	; 0x09
    4be6:	3a 85       	ldd	r19, Y+10	; 0x0a
    4be8:	4b 85       	ldd	r20, Y+11	; 0x0b
    4bea:	5c 85       	ldd	r21, Y+12	; 0x0c
    4bec:	6d 85       	ldd	r22, Y+13	; 0x0d
    4bee:	7e 85       	ldd	r23, Y+14	; 0x0e
    4bf0:	8f 85       	ldd	r24, Y+15	; 0x0f
    4bf2:	98 89       	ldd	r25, Y+16	; 0x10
    4bf4:	60 96       	adiw	r28, 0x10	; 16
    4bf6:	0f b6       	in	r0, 0x3f	; 63
    4bf8:	f8 94       	cli
    4bfa:	de bf       	out	0x3e, r29	; 62
    4bfc:	0f be       	out	0x3f, r0	; 63
    4bfe:	cd bf       	out	0x3d, r28	; 61
    4c00:	cf 91       	pop	r28
    4c02:	df 91       	pop	r29
    4c04:	1f 91       	pop	r17
    4c06:	0f 91       	pop	r16
    4c08:	ff 90       	pop	r15
    4c0a:	ef 90       	pop	r14
    4c0c:	df 90       	pop	r13
    4c0e:	cf 90       	pop	r12
    4c10:	08 95       	ret

00004c12 <_Z7publishv>:
    4c12:	ef 92       	push	r14
    4c14:	ff 92       	push	r15
    4c16:	0f 93       	push	r16
    4c18:	1f 93       	push	r17
    4c1a:	cf 93       	push	r28
    4c1c:	df 93       	push	r29
    4c1e:	80 91 68 0d 	lds	r24, 0x0D68
    4c22:	90 91 69 0d 	lds	r25, 0x0D69
    4c26:	a0 91 6a 0d 	lds	r26, 0x0D6A
    4c2a:	b0 91 6b 0d 	lds	r27, 0x0D6B
    4c2e:	01 96       	adiw	r24, 0x01	; 1
    4c30:	a1 1d       	adc	r26, r1
    4c32:	b1 1d       	adc	r27, r1
    4c34:	80 93 68 0d 	sts	0x0D68, r24
    4c38:	90 93 69 0d 	sts	0x0D69, r25
    4c3c:	a0 93 6a 0d 	sts	0x0D6A, r26
    4c40:	b0 93 6b 0d 	sts	0x0D6B, r27
    4c44:	80 91 e4 07 	lds	r24, 0x07E4
    4c48:	80 93 93 0c 	sts	0x0C93, r24
    4c4c:	85 e9       	ldi	r24, 0x95	; 149
    4c4e:	9c e0       	ldi	r25, 0x0C	; 12
    4c50:	61 e9       	ldi	r22, 0x91	; 145
    4c52:	7c e0       	ldi	r23, 0x0C	; 12
    4c54:	0e 94 cf 19 	call	0x339e	; 0x339e <_ZN3ros9Publisher7publishEPKNS_3MsgE>
    4c58:	01 e8       	ldi	r16, 0x81	; 129
    4c5a:	15 e0       	ldi	r17, 0x05	; 5
    4c5c:	10 93 ec 0c 	sts	0x0CEC, r17
    4c60:	00 93 eb 0c 	sts	0x0CEB, r16
    4c64:	c3 ee       	ldi	r28, 0xE3	; 227
    4c66:	dc e0       	ldi	r29, 0x0C	; 12
    4c68:	8c ee       	ldi	r24, 0xEC	; 236
    4c6a:	97 e0       	ldi	r25, 0x07	; 7
    4c6c:	0e 94 a3 25 	call	0x4b46	; 0x4b46 <_ZN3ros11NodeHandle_I15ArduinoHardwareLi25ELi25ELi512ELi512EE3nowEv>
    4c70:	20 93 e3 0c 	sts	0x0CE3, r18
    4c74:	39 83       	std	Y+1, r19	; 0x01
    4c76:	4a 83       	std	Y+2, r20	; 0x02
    4c78:	5b 83       	std	Y+3, r21	; 0x03
    4c7a:	6c 83       	std	Y+4, r22	; 0x04
    4c7c:	7d 83       	std	Y+5, r23	; 0x05
    4c7e:	8e 83       	std	Y+6, r24	; 0x06
    4c80:	9f 83       	std	Y+7, r25	; 0x07
    4c82:	80 91 68 0d 	lds	r24, 0x0D68
    4c86:	90 91 69 0d 	lds	r25, 0x0D69
    4c8a:	a0 91 6a 0d 	lds	r26, 0x0D6A
    4c8e:	b0 91 6b 0d 	lds	r27, 0x0D6B
    4c92:	80 93 df 0c 	sts	0x0CDF, r24
    4c96:	90 93 e0 0c 	sts	0x0CE0, r25
    4c9a:	a0 93 e1 0c 	sts	0x0CE1, r26
    4c9e:	b0 93 e2 0c 	sts	0x0CE2, r27
    4ca2:	89 ea       	ldi	r24, 0xA9	; 169
    4ca4:	97 e0       	ldi	r25, 0x07	; 7
    4ca6:	0e 94 50 05 	call	0xaa0	; 0xaa0 <_ZN7Battery10getVoltageEv>
    4caa:	60 93 ed 0c 	sts	0x0CED, r22
    4cae:	70 93 ee 0c 	sts	0x0CEE, r23
    4cb2:	80 93 ef 0c 	sts	0x0CEF, r24
    4cb6:	90 93 f0 0c 	sts	0x0CF0, r25
    4cba:	89 ea       	ldi	r24, 0xA9	; 169
    4cbc:	97 e0       	ldi	r25, 0x07	; 7
    4cbe:	0e 94 6b 05 	call	0xad6	; 0xad6 <_ZN7Battery10getCurrentEv>
    4cc2:	60 93 f1 0c 	sts	0x0CF1, r22
    4cc6:	70 93 f2 0c 	sts	0x0CF2, r23
    4cca:	80 93 f3 0c 	sts	0x0CF3, r24
    4cce:	90 93 f4 0c 	sts	0x0CF4, r25
    4cd2:	85 ef       	ldi	r24, 0xF5	; 245
    4cd4:	9c e0       	ldi	r25, 0x0C	; 12
    4cd6:	be 01       	movw	r22, r28
    4cd8:	68 50       	subi	r22, 0x08	; 8
    4cda:	70 40       	sbci	r23, 0x00	; 0
    4cdc:	0e 94 cf 19 	call	0x339e	; 0x339e <_ZN3ros9Publisher7publishEPKNS_3MsgE>
    4ce0:	10 93 10 0d 	sts	0x0D10, r17
    4ce4:	00 93 0f 0d 	sts	0x0D0F, r16
    4ce8:	c7 e0       	ldi	r28, 0x07	; 7
    4cea:	dd e0       	ldi	r29, 0x0D	; 13
    4cec:	8c ee       	ldi	r24, 0xEC	; 236
    4cee:	97 e0       	ldi	r25, 0x07	; 7
    4cf0:	0e 94 a3 25 	call	0x4b46	; 0x4b46 <_ZN3ros11NodeHandle_I15ArduinoHardwareLi25ELi25ELi512ELi512EE3nowEv>
    4cf4:	20 93 07 0d 	sts	0x0D07, r18
    4cf8:	39 83       	std	Y+1, r19	; 0x01
    4cfa:	4a 83       	std	Y+2, r20	; 0x02
    4cfc:	5b 83       	std	Y+3, r21	; 0x03
    4cfe:	6c 83       	std	Y+4, r22	; 0x04
    4d00:	7d 83       	std	Y+5, r23	; 0x05
    4d02:	8e 83       	std	Y+6, r24	; 0x06
    4d04:	9f 83       	std	Y+7, r25	; 0x07
    4d06:	80 91 68 0d 	lds	r24, 0x0D68
    4d0a:	90 91 69 0d 	lds	r25, 0x0D69
    4d0e:	a0 91 6a 0d 	lds	r26, 0x0D6A
    4d12:	b0 91 6b 0d 	lds	r27, 0x0D6B
    4d16:	80 93 03 0d 	sts	0x0D03, r24
    4d1a:	90 93 04 0d 	sts	0x0D04, r25
    4d1e:	a0 93 05 0d 	sts	0x0D05, r26
    4d22:	b0 93 06 0d 	sts	0x0D06, r27
    4d26:	80 91 19 07 	lds	r24, 0x0719
    4d2a:	90 91 1a 07 	lds	r25, 0x071A
    4d2e:	a0 91 1b 07 	lds	r26, 0x071B
    4d32:	b0 91 1c 07 	lds	r27, 0x071C
    4d36:	80 93 11 0d 	sts	0x0D11, r24
    4d3a:	90 93 12 0d 	sts	0x0D12, r25
    4d3e:	a0 93 13 0d 	sts	0x0D13, r26
    4d42:	b0 93 14 0d 	sts	0x0D14, r27
    4d46:	80 91 1d 07 	lds	r24, 0x071D
    4d4a:	90 91 1e 07 	lds	r25, 0x071E
    4d4e:	a0 91 1f 07 	lds	r26, 0x071F
    4d52:	b0 91 20 07 	lds	r27, 0x0720
    4d56:	80 93 15 0d 	sts	0x0D15, r24
    4d5a:	90 93 16 0d 	sts	0x0D16, r25
    4d5e:	a0 93 17 0d 	sts	0x0D17, r26
    4d62:	b0 93 18 0d 	sts	0x0D18, r27
    4d66:	80 91 21 07 	lds	r24, 0x0721
    4d6a:	90 91 22 07 	lds	r25, 0x0722
    4d6e:	a0 91 23 07 	lds	r26, 0x0723
    4d72:	b0 91 24 07 	lds	r27, 0x0724
    4d76:	80 93 19 0d 	sts	0x0D19, r24
    4d7a:	90 93 1a 0d 	sts	0x0D1A, r25
    4d7e:	a0 93 1b 0d 	sts	0x0D1B, r26
    4d82:	b0 93 1c 0d 	sts	0x0D1C, r27
    4d86:	80 91 dd 06 	lds	r24, 0x06DD
    4d8a:	90 91 de 06 	lds	r25, 0x06DE
    4d8e:	a0 91 df 06 	lds	r26, 0x06DF
    4d92:	b0 91 e0 06 	lds	r27, 0x06E0
    4d96:	80 93 1d 0d 	sts	0x0D1D, r24
    4d9a:	90 93 1e 0d 	sts	0x0D1E, r25
    4d9e:	a0 93 1f 0d 	sts	0x0D1F, r26
    4da2:	b0 93 20 0d 	sts	0x0D20, r27
    4da6:	80 91 e1 06 	lds	r24, 0x06E1
    4daa:	90 91 e2 06 	lds	r25, 0x06E2
    4dae:	a0 91 e3 06 	lds	r26, 0x06E3
    4db2:	b0 91 e4 06 	lds	r27, 0x06E4
    4db6:	80 93 21 0d 	sts	0x0D21, r24
    4dba:	90 93 22 0d 	sts	0x0D22, r25
    4dbe:	a0 93 23 0d 	sts	0x0D23, r26
    4dc2:	b0 93 24 0d 	sts	0x0D24, r27
    4dc6:	80 91 e5 06 	lds	r24, 0x06E5
    4dca:	90 91 e6 06 	lds	r25, 0x06E6
    4dce:	a0 91 e7 06 	lds	r26, 0x06E7
    4dd2:	b0 91 e8 06 	lds	r27, 0x06E8
    4dd6:	80 93 25 0d 	sts	0x0D25, r24
    4dda:	90 93 26 0d 	sts	0x0D26, r25
    4dde:	a0 93 27 0d 	sts	0x0D27, r26
    4de2:	b0 93 28 0d 	sts	0x0D28, r27
    4de6:	60 91 d1 06 	lds	r22, 0x06D1
    4dea:	70 91 d2 06 	lds	r23, 0x06D2
    4dee:	80 91 d3 06 	lds	r24, 0x06D3
    4df2:	90 91 d4 06 	lds	r25, 0x06D4
    4df6:	23 ec       	ldi	r18, 0xC3	; 195
    4df8:	35 ef       	ldi	r19, 0xF5	; 245
    4dfa:	4c e1       	ldi	r20, 0x1C	; 28
    4dfc:	51 e4       	ldi	r21, 0x41	; 65
    4dfe:	0e 94 1d 40 	call	0x803a	; 0x803a <__mulsf3>
    4e02:	2c e6       	ldi	r18, 0x6C	; 108
    4e04:	39 e0       	ldi	r19, 0x09	; 9
    4e06:	49 e7       	ldi	r20, 0x79	; 121
    4e08:	5b e3       	ldi	r21, 0x3B	; 59
    4e0a:	0e 94 1d 40 	call	0x803a	; 0x803a <__mulsf3>
    4e0e:	60 93 29 0d 	sts	0x0D29, r22
    4e12:	70 93 2a 0d 	sts	0x0D2A, r23
    4e16:	80 93 2b 0d 	sts	0x0D2B, r24
    4e1a:	90 93 2c 0d 	sts	0x0D2C, r25
    4e1e:	60 91 d5 06 	lds	r22, 0x06D5
    4e22:	70 91 d6 06 	lds	r23, 0x06D6
    4e26:	80 91 d7 06 	lds	r24, 0x06D7
    4e2a:	90 91 d8 06 	lds	r25, 0x06D8
    4e2e:	23 ec       	ldi	r18, 0xC3	; 195
    4e30:	35 ef       	ldi	r19, 0xF5	; 245
    4e32:	4c e1       	ldi	r20, 0x1C	; 28
    4e34:	51 e4       	ldi	r21, 0x41	; 65
    4e36:	0e 94 1d 40 	call	0x803a	; 0x803a <__mulsf3>
    4e3a:	2c e6       	ldi	r18, 0x6C	; 108
    4e3c:	39 e0       	ldi	r19, 0x09	; 9
    4e3e:	49 e7       	ldi	r20, 0x79	; 121
    4e40:	5b e3       	ldi	r21, 0x3B	; 59
    4e42:	0e 94 1d 40 	call	0x803a	; 0x803a <__mulsf3>
    4e46:	60 93 2d 0d 	sts	0x0D2D, r22
    4e4a:	70 93 2e 0d 	sts	0x0D2E, r23
    4e4e:	80 93 2f 0d 	sts	0x0D2F, r24
    4e52:	90 93 30 0d 	sts	0x0D30, r25
    4e56:	60 91 d9 06 	lds	r22, 0x06D9
    4e5a:	70 91 da 06 	lds	r23, 0x06DA
    4e5e:	80 91 db 06 	lds	r24, 0x06DB
    4e62:	90 91 dc 06 	lds	r25, 0x06DC
    4e66:	23 ec       	ldi	r18, 0xC3	; 195
    4e68:	35 ef       	ldi	r19, 0xF5	; 245
    4e6a:	4c e1       	ldi	r20, 0x1C	; 28
    4e6c:	51 e4       	ldi	r21, 0x41	; 65
    4e6e:	0e 94 1d 40 	call	0x803a	; 0x803a <__mulsf3>
    4e72:	2c e6       	ldi	r18, 0x6C	; 108
    4e74:	39 e0       	ldi	r19, 0x09	; 9
    4e76:	49 e7       	ldi	r20, 0x79	; 121
    4e78:	5b e3       	ldi	r21, 0x3B	; 59
    4e7a:	0e 94 1d 40 	call	0x803a	; 0x803a <__mulsf3>
    4e7e:	60 93 31 0d 	sts	0x0D31, r22
    4e82:	70 93 32 0d 	sts	0x0D32, r23
    4e86:	80 93 33 0d 	sts	0x0D33, r24
    4e8a:	90 93 34 0d 	sts	0x0D34, r25
    4e8e:	80 91 cd 06 	lds	r24, 0x06CD
    4e92:	90 91 ce 06 	lds	r25, 0x06CE
    4e96:	a0 91 cf 06 	lds	r26, 0x06CF
    4e9a:	b0 91 d0 06 	lds	r27, 0x06D0
    4e9e:	80 93 35 0d 	sts	0x0D35, r24
    4ea2:	90 93 36 0d 	sts	0x0D36, r25
    4ea6:	a0 93 37 0d 	sts	0x0D37, r26
    4eaa:	b0 93 38 0d 	sts	0x0D38, r27
    4eae:	89 e3       	ldi	r24, 0x39	; 57
    4eb0:	9d e0       	ldi	r25, 0x0D	; 13
    4eb2:	be 01       	movw	r22, r28
    4eb4:	68 50       	subi	r22, 0x08	; 8
    4eb6:	70 40       	sbci	r23, 0x00	; 0
    4eb8:	0e 94 cf 19 	call	0x339e	; 0x339e <_ZN3ros9Publisher7publishEPKNS_3MsgE>
    4ebc:	80 91 e4 07 	lds	r24, 0x07E4
    4ec0:	88 23       	and	r24, r24
    4ec2:	09 f4       	brne	.+2      	; 0x4ec6 <_Z7publishv+0x2b4>
    4ec4:	ae c0       	rjmp	.+348    	; 0x5022 <_Z7publishv+0x410>
    4ec6:	c0 91 5c 0d 	lds	r28, 0x0D5C
    4eca:	d0 91 5d 0d 	lds	r29, 0x0D5D
    4ece:	8e ea       	ldi	r24, 0xAE	; 174
    4ed0:	97 e0       	ldi	r25, 0x07	; 7
    4ed2:	0e 94 d2 38 	call	0x71a4	; 0x71a4 <_ZN5Servo4readEv>
    4ed6:	88 83       	st	Y, r24
    4ed8:	c0 91 5c 0d 	lds	r28, 0x0D5C
    4edc:	d0 91 5d 0d 	lds	r29, 0x0D5D
    4ee0:	81 eb       	ldi	r24, 0xB1	; 177
    4ee2:	97 e0       	ldi	r25, 0x07	; 7
    4ee4:	0e 94 d2 38 	call	0x71a4	; 0x71a4 <_ZN5Servo4readEv>
    4ee8:	89 83       	std	Y+1, r24	; 0x01
    4eea:	8e e5       	ldi	r24, 0x5E	; 94
    4eec:	9d e0       	ldi	r25, 0x0D	; 13
    4eee:	63 e4       	ldi	r22, 0x43	; 67
    4ef0:	7d e0       	ldi	r23, 0x0D	; 13
    4ef2:	0e 94 cf 19 	call	0x339e	; 0x339e <_ZN3ros9Publisher7publishEPKNS_3MsgE>
    4ef6:	10 93 b0 0c 	sts	0x0CB0, r17
    4efa:	00 93 af 0c 	sts	0x0CAF, r16
    4efe:	c7 ea       	ldi	r28, 0xA7	; 167
    4f00:	dc e0       	ldi	r29, 0x0C	; 12
    4f02:	8c ee       	ldi	r24, 0xEC	; 236
    4f04:	97 e0       	ldi	r25, 0x07	; 7
    4f06:	0e 94 a3 25 	call	0x4b46	; 0x4b46 <_ZN3ros11NodeHandle_I15ArduinoHardwareLi25ELi25ELi512ELi512EE3nowEv>
    4f0a:	20 93 a7 0c 	sts	0x0CA7, r18
    4f0e:	39 83       	std	Y+1, r19	; 0x01
    4f10:	4a 83       	std	Y+2, r20	; 0x02
    4f12:	5b 83       	std	Y+3, r21	; 0x03
    4f14:	6c 83       	std	Y+4, r22	; 0x04
    4f16:	7d 83       	std	Y+5, r23	; 0x05
    4f18:	8e 83       	std	Y+6, r24	; 0x06
    4f1a:	9f 83       	std	Y+7, r25	; 0x07
    4f1c:	80 91 68 0d 	lds	r24, 0x0D68
    4f20:	90 91 69 0d 	lds	r25, 0x0D69
    4f24:	a0 91 6a 0d 	lds	r26, 0x0D6A
    4f28:	b0 91 6b 0d 	lds	r27, 0x0D6B
    4f2c:	80 93 a3 0c 	sts	0x0CA3, r24
    4f30:	90 93 a4 0c 	sts	0x0CA4, r25
    4f34:	a0 93 a5 0c 	sts	0x0CA5, r26
    4f38:	b0 93 a6 0c 	sts	0x0CA6, r27
    4f3c:	e0 90 c0 07 	lds	r14, 0x07C0
    4f40:	f0 90 c1 07 	lds	r15, 0x07C1
    4f44:	00 91 c2 07 	lds	r16, 0x07C2
    4f48:	10 91 c3 07 	lds	r17, 0x07C3
    4f4c:	60 91 c8 07 	lds	r22, 0x07C8
    4f50:	70 91 c9 07 	lds	r23, 0x07C9
    4f54:	80 91 ca 07 	lds	r24, 0x07CA
    4f58:	90 91 cb 07 	lds	r25, 0x07CB
    4f5c:	0e 94 d8 3e 	call	0x7db0	; 0x7db0 <__floatsisf>
    4f60:	a8 01       	movw	r20, r16
    4f62:	97 01       	movw	r18, r14
    4f64:	0e 94 1d 40 	call	0x803a	; 0x803a <__mulsf3>
    4f68:	60 93 b1 0c 	sts	0x0CB1, r22
    4f6c:	70 93 b2 0c 	sts	0x0CB2, r23
    4f70:	80 93 b3 0c 	sts	0x0CB3, r24
    4f74:	90 93 b4 0c 	sts	0x0CB4, r25
    4f78:	80 91 c4 07 	lds	r24, 0x07C4
    4f7c:	90 91 c5 07 	lds	r25, 0x07C5
    4f80:	a0 91 c6 07 	lds	r26, 0x07C6
    4f84:	b0 91 c7 07 	lds	r27, 0x07C7
    4f88:	80 93 b9 0c 	sts	0x0CB9, r24
    4f8c:	90 93 ba 0c 	sts	0x0CBA, r25
    4f90:	a0 93 bb 0c 	sts	0x0CBB, r26
    4f94:	b0 93 bc 0c 	sts	0x0CBC, r27
    4f98:	e0 92 c9 0c 	sts	0x0CC9, r14
    4f9c:	f0 92 ca 0c 	sts	0x0CCA, r15
    4fa0:	00 93 cb 0c 	sts	0x0CCB, r16
    4fa4:	10 93 cc 0c 	sts	0x0CCC, r17
    4fa8:	e0 90 d8 07 	lds	r14, 0x07D8
    4fac:	f0 90 d9 07 	lds	r15, 0x07D9
    4fb0:	00 91 da 07 	lds	r16, 0x07DA
    4fb4:	10 91 db 07 	lds	r17, 0x07DB
    4fb8:	60 91 e0 07 	lds	r22, 0x07E0
    4fbc:	70 91 e1 07 	lds	r23, 0x07E1
    4fc0:	80 91 e2 07 	lds	r24, 0x07E2
    4fc4:	90 91 e3 07 	lds	r25, 0x07E3
    4fc8:	0e 94 d8 3e 	call	0x7db0	; 0x7db0 <__floatsisf>
    4fcc:	a8 01       	movw	r20, r16
    4fce:	97 01       	movw	r18, r14
    4fd0:	0e 94 1d 40 	call	0x803a	; 0x803a <__mulsf3>
    4fd4:	60 93 b5 0c 	sts	0x0CB5, r22
    4fd8:	70 93 b6 0c 	sts	0x0CB6, r23
    4fdc:	80 93 b7 0c 	sts	0x0CB7, r24
    4fe0:	90 93 b8 0c 	sts	0x0CB8, r25
    4fe4:	80 91 dc 07 	lds	r24, 0x07DC
    4fe8:	90 91 dd 07 	lds	r25, 0x07DD
    4fec:	a0 91 de 07 	lds	r26, 0x07DE
    4ff0:	b0 91 df 07 	lds	r27, 0x07DF
    4ff4:	80 93 bd 0c 	sts	0x0CBD, r24
    4ff8:	90 93 be 0c 	sts	0x0CBE, r25
    4ffc:	a0 93 bf 0c 	sts	0x0CBF, r26
    5000:	b0 93 c0 0c 	sts	0x0CC0, r27
    5004:	e0 92 cd 0c 	sts	0x0CCD, r14
    5008:	f0 92 ce 0c 	sts	0x0CCE, r15
    500c:	00 93 cf 0c 	sts	0x0CCF, r16
    5010:	10 93 d0 0c 	sts	0x0CD0, r17
    5014:	81 ed       	ldi	r24, 0xD1	; 209
    5016:	9c e0       	ldi	r25, 0x0C	; 12
    5018:	be 01       	movw	r22, r28
    501a:	68 50       	subi	r22, 0x08	; 8
    501c:	70 40       	sbci	r23, 0x00	; 0
    501e:	0e 94 cf 19 	call	0x339e	; 0x339e <_ZN3ros9Publisher7publishEPKNS_3MsgE>
    5022:	df 91       	pop	r29
    5024:	cf 91       	pop	r28
    5026:	1f 91       	pop	r17
    5028:	0f 91       	pop	r16
    502a:	ff 90       	pop	r15
    502c:	ef 90       	pop	r14
    502e:	08 95       	ret

00005030 <_ZN3ros11NodeHandle_I15ArduinoHardwareLi25ELi25ELi512ELi512EE9advertiseERNS_9PublisherE>:
    5030:	db 01       	movw	r26, r22
    5032:	fc 01       	movw	r30, r24
    5034:	ec 5e       	subi	r30, 0xEC	; 236
    5036:	fb 4f       	sbci	r31, 0xFB	; 251
    5038:	20 e0       	ldi	r18, 0x00	; 0
    503a:	30 e0       	ldi	r19, 0x00	; 0
    503c:	41 91       	ld	r20, Z+
    503e:	51 91       	ld	r21, Z+
    5040:	41 15       	cp	r20, r1
    5042:	51 05       	cpc	r21, r1
    5044:	a9 f4       	brne	.+42     	; 0x5070 <_ZN3ros11NodeHandle_I15ArduinoHardwareLi25ELi25ELi512ELi512EE9advertiseERNS_9PublisherE+0x40>
    5046:	f9 01       	movw	r30, r18
    5048:	e6 5f       	subi	r30, 0xF6	; 246
    504a:	fd 4f       	sbci	r31, 0xFD	; 253
    504c:	ee 0f       	add	r30, r30
    504e:	ff 1f       	adc	r31, r31
    5050:	e8 0f       	add	r30, r24
    5052:	f9 1f       	adc	r31, r25
    5054:	b1 83       	std	Z+1, r27	; 0x01
    5056:	a0 83       	st	Z, r26
    5058:	23 58       	subi	r18, 0x83	; 131
    505a:	3f 4f       	sbci	r19, 0xFF	; 255
    505c:	15 96       	adiw	r26, 0x05	; 5
    505e:	3c 93       	st	X, r19
    5060:	2e 93       	st	-X, r18
    5062:	14 97       	sbiw	r26, 0x04	; 4
    5064:	17 96       	adiw	r26, 0x07	; 7
    5066:	9c 93       	st	X, r25
    5068:	8e 93       	st	-X, r24
    506a:	16 97       	sbiw	r26, 0x06	; 6
    506c:	81 e0       	ldi	r24, 0x01	; 1
    506e:	08 95       	ret
    5070:	2f 5f       	subi	r18, 0xFF	; 255
    5072:	3f 4f       	sbci	r19, 0xFF	; 255
    5074:	29 31       	cpi	r18, 0x19	; 25
    5076:	31 05       	cpc	r19, r1
    5078:	09 f7       	brne	.-62     	; 0x503c <_ZN3ros11NodeHandle_I15ArduinoHardwareLi25ELi25ELi512ELi512EE9advertiseERNS_9PublisherE+0xc>
    507a:	80 e0       	ldi	r24, 0x00	; 0
    507c:	08 95       	ret

0000507e <_ZN3ros11NodeHandle_I15ArduinoHardwareLi25ELi25ELi512ELi512EE9subscribeIN5rover7EnabledEEEbRNS_10SubscriberIT_EE>:
    507e:	fc 01       	movw	r30, r24
    5080:	ea 5b       	subi	r30, 0xBA	; 186
    5082:	fb 4f       	sbci	r31, 0xFB	; 251
    5084:	20 e0       	ldi	r18, 0x00	; 0
    5086:	30 e0       	ldi	r19, 0x00	; 0
    5088:	41 91       	ld	r20, Z+
    508a:	51 91       	ld	r21, Z+
    508c:	41 15       	cp	r20, r1
    508e:	51 05       	cpc	r21, r1
    5090:	81 f4       	brne	.+32     	; 0x50b2 <_ZN3ros11NodeHandle_I15ArduinoHardwareLi25ELi25ELi512ELi512EE9subscribeIN5rover7EnabledEEEbRNS_10SubscriberIT_EE+0x34>
    5092:	f9 01       	movw	r30, r18
    5094:	ed 5d       	subi	r30, 0xDD	; 221
    5096:	fd 4f       	sbci	r31, 0xFD	; 253
    5098:	ee 0f       	add	r30, r30
    509a:	ff 1f       	adc	r31, r31
    509c:	e8 0f       	add	r30, r24
    509e:	f9 1f       	adc	r31, r25
    50a0:	71 83       	std	Z+1, r23	; 0x01
    50a2:	60 83       	st	Z, r22
    50a4:	2c 59       	subi	r18, 0x9C	; 156
    50a6:	3f 4f       	sbci	r19, 0xFF	; 255
    50a8:	fb 01       	movw	r30, r22
    50aa:	33 83       	std	Z+3, r19	; 0x03
    50ac:	22 83       	std	Z+2, r18	; 0x02
    50ae:	81 e0       	ldi	r24, 0x01	; 1
    50b0:	08 95       	ret
    50b2:	2f 5f       	subi	r18, 0xFF	; 255
    50b4:	3f 4f       	sbci	r19, 0xFF	; 255
    50b6:	29 31       	cpi	r18, 0x19	; 25
    50b8:	31 05       	cpc	r19, r1
    50ba:	31 f7       	brne	.-52     	; 0x5088 <_ZN3ros11NodeHandle_I15ArduinoHardwareLi25ELi25ELi512ELi512EE9subscribeIN5rover7EnabledEEEbRNS_10SubscriberIT_EE+0xa>
    50bc:	80 e0       	ldi	r24, 0x00	; 0
    50be:	08 95       	ret

000050c0 <_ZN3ros11NodeHandle_I15ArduinoHardwareLi25ELi25ELi512ELi512EE9subscribeIN5rover6MotorsEEEbRNS_10SubscriberIT_EE>:
    50c0:	fc 01       	movw	r30, r24
    50c2:	ea 5b       	subi	r30, 0xBA	; 186
    50c4:	fb 4f       	sbci	r31, 0xFB	; 251
    50c6:	20 e0       	ldi	r18, 0x00	; 0
    50c8:	30 e0       	ldi	r19, 0x00	; 0
    50ca:	41 91       	ld	r20, Z+
    50cc:	51 91       	ld	r21, Z+
    50ce:	41 15       	cp	r20, r1
    50d0:	51 05       	cpc	r21, r1
    50d2:	81 f4       	brne	.+32     	; 0x50f4 <_ZN3ros11NodeHandle_I15ArduinoHardwareLi25ELi25ELi512ELi512EE9subscribeIN5rover6MotorsEEEbRNS_10SubscriberIT_EE+0x34>
    50d4:	f9 01       	movw	r30, r18
    50d6:	ed 5d       	subi	r30, 0xDD	; 221
    50d8:	fd 4f       	sbci	r31, 0xFD	; 253
    50da:	ee 0f       	add	r30, r30
    50dc:	ff 1f       	adc	r31, r31
    50de:	e8 0f       	add	r30, r24
    50e0:	f9 1f       	adc	r31, r25
    50e2:	71 83       	std	Z+1, r23	; 0x01
    50e4:	60 83       	st	Z, r22
    50e6:	2c 59       	subi	r18, 0x9C	; 156
    50e8:	3f 4f       	sbci	r19, 0xFF	; 255
    50ea:	fb 01       	movw	r30, r22
    50ec:	33 83       	std	Z+3, r19	; 0x03
    50ee:	22 83       	std	Z+2, r18	; 0x02
    50f0:	81 e0       	ldi	r24, 0x01	; 1
    50f2:	08 95       	ret
    50f4:	2f 5f       	subi	r18, 0xFF	; 255
    50f6:	3f 4f       	sbci	r19, 0xFF	; 255
    50f8:	29 31       	cpi	r18, 0x19	; 25
    50fa:	31 05       	cpc	r19, r1
    50fc:	31 f7       	brne	.-52     	; 0x50ca <_ZN3ros11NodeHandle_I15ArduinoHardwareLi25ELi25ELi512ELi512EE9subscribeIN5rover6MotorsEEEbRNS_10SubscriberIT_EE+0xa>
    50fe:	80 e0       	ldi	r24, 0x00	; 0
    5100:	08 95       	ret

00005102 <_ZN3ros11NodeHandle_I15ArduinoHardwareLi25ELi25ELi512ELi512EE9subscribeIN8std_msgs15UInt8MultiArrayEEEbRNS_10SubscriberIT_EE>:
    5102:	fc 01       	movw	r30, r24
    5104:	ea 5b       	subi	r30, 0xBA	; 186
    5106:	fb 4f       	sbci	r31, 0xFB	; 251
    5108:	20 e0       	ldi	r18, 0x00	; 0
    510a:	30 e0       	ldi	r19, 0x00	; 0
    510c:	41 91       	ld	r20, Z+
    510e:	51 91       	ld	r21, Z+
    5110:	41 15       	cp	r20, r1
    5112:	51 05       	cpc	r21, r1
    5114:	81 f4       	brne	.+32     	; 0x5136 <_ZN3ros11NodeHandle_I15ArduinoHardwareLi25ELi25ELi512ELi512EE9subscribeIN8std_msgs15UInt8MultiArrayEEEbRNS_10SubscriberIT_EE+0x34>
    5116:	f9 01       	movw	r30, r18
    5118:	ed 5d       	subi	r30, 0xDD	; 221
    511a:	fd 4f       	sbci	r31, 0xFD	; 253
    511c:	ee 0f       	add	r30, r30
    511e:	ff 1f       	adc	r31, r31
    5120:	e8 0f       	add	r30, r24
    5122:	f9 1f       	adc	r31, r25
    5124:	71 83       	std	Z+1, r23	; 0x01
    5126:	60 83       	st	Z, r22
    5128:	2c 59       	subi	r18, 0x9C	; 156
    512a:	3f 4f       	sbci	r19, 0xFF	; 255
    512c:	fb 01       	movw	r30, r22
    512e:	33 83       	std	Z+3, r19	; 0x03
    5130:	22 83       	std	Z+2, r18	; 0x02
    5132:	81 e0       	ldi	r24, 0x01	; 1
    5134:	08 95       	ret
    5136:	2f 5f       	subi	r18, 0xFF	; 255
    5138:	3f 4f       	sbci	r19, 0xFF	; 255
    513a:	29 31       	cpi	r18, 0x19	; 25
    513c:	31 05       	cpc	r19, r1
    513e:	31 f7       	brne	.-52     	; 0x510c <_ZN3ros11NodeHandle_I15ArduinoHardwareLi25ELi25ELi512ELi512EE9subscribeIN8std_msgs15UInt8MultiArrayEEEbRNS_10SubscriberIT_EE+0xa>
    5140:	80 e0       	ldi	r24, 0x00	; 0
    5142:	08 95       	ret

00005144 <_ZN3ros11NodeHandle_I15ArduinoHardwareLi25ELi25ELi512ELi512EE15requestSyncTimeEv>:
    5144:	0f 93       	push	r16
    5146:	1f 93       	push	r17
    5148:	df 93       	push	r29
    514a:	cf 93       	push	r28
    514c:	cd b7       	in	r28, 0x3d	; 61
    514e:	de b7       	in	r29, 0x3e	; 62
    5150:	2a 97       	sbiw	r28, 0x0a	; 10
    5152:	0f b6       	in	r0, 0x3f	; 63
    5154:	f8 94       	cli
    5156:	de bf       	out	0x3e, r29	; 62
    5158:	0f be       	out	0x3f, r0	; 63
    515a:	cd bf       	out	0x3d, r28	; 61
    515c:	8c 01       	movw	r16, r24
    515e:	86 ea       	ldi	r24, 0xA6	; 166
    5160:	95 e0       	ldi	r25, 0x05	; 5
    5162:	9a 83       	std	Y+2, r25	; 0x02
    5164:	89 83       	std	Y+1, r24	; 0x01
    5166:	1b 82       	std	Y+3, r1	; 0x03
    5168:	1c 82       	std	Y+4, r1	; 0x04
    516a:	1d 82       	std	Y+5, r1	; 0x05
    516c:	1e 82       	std	Y+6, r1	; 0x06
    516e:	1f 82       	std	Y+7, r1	; 0x07
    5170:	18 86       	std	Y+8, r1	; 0x08
    5172:	19 86       	std	Y+9, r1	; 0x09
    5174:	1a 86       	std	Y+10, r1	; 0x0a
    5176:	d8 01       	movw	r26, r16
    5178:	ed 91       	ld	r30, X+
    517a:	fc 91       	ld	r31, X
    517c:	01 90       	ld	r0, Z+
    517e:	f0 81       	ld	r31, Z
    5180:	e0 2d       	mov	r30, r0
    5182:	c8 01       	movw	r24, r16
    5184:	6a e0       	ldi	r22, 0x0A	; 10
    5186:	70 e0       	ldi	r23, 0x00	; 0
    5188:	ae 01       	movw	r20, r28
    518a:	4f 5f       	subi	r20, 0xFF	; 255
    518c:	5f 4f       	sbci	r21, 0xFF	; 255
    518e:	19 95       	eicall
    5190:	0e 94 5b 34 	call	0x68b6	; 0x68b6 <millis>
    5194:	f8 01       	movw	r30, r16
    5196:	60 87       	std	Z+8, r22	; 0x08
    5198:	71 87       	std	Z+9, r23	; 0x09
    519a:	82 87       	std	Z+10, r24	; 0x0a
    519c:	93 87       	std	Z+11, r25	; 0x0b
    519e:	2a 96       	adiw	r28, 0x0a	; 10
    51a0:	0f b6       	in	r0, 0x3f	; 63
    51a2:	f8 94       	cli
    51a4:	de bf       	out	0x3e, r29	; 62
    51a6:	0f be       	out	0x3f, r0	; 63
    51a8:	cd bf       	out	0x3d, r28	; 61
    51aa:	cf 91       	pop	r28
    51ac:	df 91       	pop	r29
    51ae:	1f 91       	pop	r17
    51b0:	0f 91       	pop	r16
    51b2:	08 95       	ret

000051b4 <_ZN3ros11NodeHandle_I15ArduinoHardwareLi25ELi25ELi512ELi512EE15negotiateTopicsEv>:
    51b4:	4f 92       	push	r4
    51b6:	5f 92       	push	r5
    51b8:	6f 92       	push	r6
    51ba:	7f 92       	push	r7
    51bc:	8f 92       	push	r8
    51be:	9f 92       	push	r9
    51c0:	af 92       	push	r10
    51c2:	bf 92       	push	r11
    51c4:	cf 92       	push	r12
    51c6:	df 92       	push	r13
    51c8:	ef 92       	push	r14
    51ca:	ff 92       	push	r15
    51cc:	0f 93       	push	r16
    51ce:	1f 93       	push	r17
    51d0:	df 93       	push	r29
    51d2:	cf 93       	push	r28
    51d4:	cd b7       	in	r28, 0x3d	; 61
    51d6:	de b7       	in	r29, 0x3e	; 62
    51d8:	2e 97       	sbiw	r28, 0x0e	; 14
    51da:	0f b6       	in	r0, 0x3f	; 63
    51dc:	f8 94       	cli
    51de:	de bf       	out	0x3e, r29	; 62
    51e0:	0f be       	out	0x3f, r0	; 63
    51e2:	cd bf       	out	0x3d, r28	; 61
    51e4:	8c 01       	movw	r16, r24
    51e6:	fc 01       	movw	r30, r24
    51e8:	ee 57       	subi	r30, 0x7E	; 126
    51ea:	fb 4f       	sbci	r31, 0xFB	; 251
    51ec:	81 e0       	ldi	r24, 0x01	; 1
    51ee:	80 83       	st	Z, r24
    51f0:	8a e9       	ldi	r24, 0x9A	; 154
    51f2:	95 e0       	ldi	r25, 0x05	; 5
    51f4:	9a 83       	std	Y+2, r25	; 0x02
    51f6:	89 83       	std	Y+1, r24	; 0x01
    51f8:	54 e1       	ldi	r21, 0x14	; 20
    51fa:	e5 2e       	mov	r14, r21
    51fc:	54 e0       	ldi	r21, 0x04	; 4
    51fe:	f5 2e       	mov	r15, r21
    5200:	e0 0e       	add	r14, r16
    5202:	f1 1e       	adc	r15, r17
    5204:	46 e4       	ldi	r20, 0x46	; 70
    5206:	64 2e       	mov	r6, r20
    5208:	44 e0       	ldi	r20, 0x04	; 4
    520a:	74 2e       	mov	r7, r20
    520c:	60 0e       	add	r6, r16
    520e:	71 1e       	adc	r7, r17
    5210:	81 2c       	mov	r8, r1
    5212:	32 e0       	ldi	r19, 0x02	; 2
    5214:	93 2e       	mov	r9, r19
    5216:	a1 2c       	mov	r10, r1
    5218:	b1 2c       	mov	r11, r1
    521a:	6e 01       	movw	r12, r28
    521c:	08 94       	sec
    521e:	c1 1c       	adc	r12, r1
    5220:	d1 1c       	adc	r13, r1
    5222:	d7 01       	movw	r26, r14
    5224:	ed 91       	ld	r30, X+
    5226:	fc 91       	ld	r31, X
    5228:	11 97       	sbiw	r26, 0x01	; 1
    522a:	30 97       	sbiw	r30, 0x00	; 0
    522c:	a9 f1       	breq	.+106    	; 0x5298 <_ZN3ros11NodeHandle_I15ArduinoHardwareLi25ELi25ELi512ELi512EE15negotiateTopicsEv+0xe4>
    522e:	84 81       	ldd	r24, Z+4	; 0x04
    5230:	95 81       	ldd	r25, Z+5	; 0x05
    5232:	9c 83       	std	Y+4, r25	; 0x04
    5234:	8b 83       	std	Y+3, r24	; 0x03
    5236:	80 81       	ld	r24, Z
    5238:	91 81       	ldd	r25, Z+1	; 0x01
    523a:	9e 83       	std	Y+6, r25	; 0x06
    523c:	8d 83       	std	Y+5, r24	; 0x05
    523e:	82 81       	ldd	r24, Z+2	; 0x02
    5240:	93 81       	ldd	r25, Z+3	; 0x03
    5242:	dc 01       	movw	r26, r24
    5244:	ed 91       	ld	r30, X+
    5246:	fc 91       	ld	r31, X
    5248:	04 80       	ldd	r0, Z+4	; 0x04
    524a:	f5 81       	ldd	r31, Z+5	; 0x05
    524c:	e0 2d       	mov	r30, r0
    524e:	19 95       	eicall
    5250:	98 87       	std	Y+8, r25	; 0x08
    5252:	8f 83       	std	Y+7, r24	; 0x07
    5254:	d7 01       	movw	r26, r14
    5256:	ed 91       	ld	r30, X+
    5258:	fc 91       	ld	r31, X
    525a:	82 81       	ldd	r24, Z+2	; 0x02
    525c:	93 81       	ldd	r25, Z+3	; 0x03
    525e:	dc 01       	movw	r26, r24
    5260:	ed 91       	ld	r30, X+
    5262:	fc 91       	ld	r31, X
    5264:	06 80       	ldd	r0, Z+6	; 0x06
    5266:	f7 81       	ldd	r31, Z+7	; 0x07
    5268:	e0 2d       	mov	r30, r0
    526a:	19 95       	eicall
    526c:	9a 87       	std	Y+10, r25	; 0x0a
    526e:	89 87       	std	Y+9, r24	; 0x09
    5270:	8b 86       	std	Y+11, r8	; 0x0b
    5272:	9c 86       	std	Y+12, r9	; 0x0c
    5274:	ad 86       	std	Y+13, r10	; 0x0d
    5276:	be 86       	std	Y+14, r11	; 0x0e
    5278:	f8 01       	movw	r30, r16
    527a:	80 81       	ld	r24, Z
    527c:	91 81       	ldd	r25, Z+1	; 0x01
    527e:	f7 01       	movw	r30, r14
    5280:	a0 81       	ld	r26, Z
    5282:	b1 81       	ldd	r27, Z+1	; 0x01
    5284:	18 96       	adiw	r26, 0x08	; 8
    5286:	6d 91       	ld	r22, X+
    5288:	7c 91       	ld	r23, X
    528a:	19 97       	sbiw	r26, 0x09	; 9
    528c:	dc 01       	movw	r26, r24
    528e:	ed 91       	ld	r30, X+
    5290:	fc 91       	ld	r31, X
    5292:	c8 01       	movw	r24, r16
    5294:	a6 01       	movw	r20, r12
    5296:	19 95       	eicall
    5298:	e2 e0       	ldi	r30, 0x02	; 2
    529a:	f0 e0       	ldi	r31, 0x00	; 0
    529c:	ee 0e       	add	r14, r30
    529e:	ff 1e       	adc	r15, r31
    52a0:	e6 14       	cp	r14, r6
    52a2:	f7 04       	cpc	r15, r7
    52a4:	09 f0       	breq	.+2      	; 0x52a8 <_ZN3ros11NodeHandle_I15ArduinoHardwareLi25ELi25ELi512ELi512EE15negotiateTopicsEv+0xf4>
    52a6:	bd cf       	rjmp	.-134    	; 0x5222 <_ZN3ros11NodeHandle_I15ArduinoHardwareLi25ELi25ELi512ELi512EE15negotiateTopicsEv+0x6e>
    52a8:	26 e4       	ldi	r18, 0x46	; 70
    52aa:	e2 2e       	mov	r14, r18
    52ac:	24 e0       	ldi	r18, 0x04	; 4
    52ae:	f2 2e       	mov	r15, r18
    52b0:	e0 0e       	add	r14, r16
    52b2:	f1 1e       	adc	r15, r17
    52b4:	98 e7       	ldi	r25, 0x78	; 120
    52b6:	49 2e       	mov	r4, r25
    52b8:	94 e0       	ldi	r25, 0x04	; 4
    52ba:	59 2e       	mov	r5, r25
    52bc:	40 0e       	add	r4, r16
    52be:	51 1e       	adc	r5, r17
    52c0:	81 2c       	mov	r8, r1
    52c2:	82 e0       	ldi	r24, 0x02	; 2
    52c4:	98 2e       	mov	r9, r24
    52c6:	a1 2c       	mov	r10, r1
    52c8:	b1 2c       	mov	r11, r1
    52ca:	6e 01       	movw	r12, r28
    52cc:	08 94       	sec
    52ce:	c1 1c       	adc	r12, r1
    52d0:	d1 1c       	adc	r13, r1
    52d2:	f7 01       	movw	r30, r14
    52d4:	a0 81       	ld	r26, Z
    52d6:	b1 81       	ldd	r27, Z+1	; 0x01
    52d8:	10 97       	sbiw	r26, 0x00	; 0
    52da:	d1 f1       	breq	.+116    	; 0x5350 <_ZN3ros11NodeHandle_I15ArduinoHardwareLi25ELi25ELi512ELi512EE15negotiateTopicsEv+0x19c>
    52dc:	12 96       	adiw	r26, 0x02	; 2
    52de:	8d 91       	ld	r24, X+
    52e0:	9c 91       	ld	r25, X
    52e2:	13 97       	sbiw	r26, 0x03	; 3
    52e4:	9c 83       	std	Y+4, r25	; 0x04
    52e6:	8b 83       	std	Y+3, r24	; 0x03
    52e8:	14 96       	adiw	r26, 0x04	; 4
    52ea:	8d 91       	ld	r24, X+
    52ec:	9c 91       	ld	r25, X
    52ee:	15 97       	sbiw	r26, 0x05	; 5
    52f0:	9e 83       	std	Y+6, r25	; 0x06
    52f2:	8d 83       	std	Y+5, r24	; 0x05
    52f4:	ed 91       	ld	r30, X+
    52f6:	fc 91       	ld	r31, X
    52f8:	11 97       	sbiw	r26, 0x01	; 1
    52fa:	04 80       	ldd	r0, Z+4	; 0x04
    52fc:	f5 81       	ldd	r31, Z+5	; 0x05
    52fe:	e0 2d       	mov	r30, r0
    5300:	cd 01       	movw	r24, r26
    5302:	19 95       	eicall
    5304:	98 87       	std	Y+8, r25	; 0x08
    5306:	8f 83       	std	Y+7, r24	; 0x07
    5308:	d7 01       	movw	r26, r14
    530a:	8d 91       	ld	r24, X+
    530c:	9c 91       	ld	r25, X
    530e:	dc 01       	movw	r26, r24
    5310:	ed 91       	ld	r30, X+
    5312:	fc 91       	ld	r31, X
    5314:	06 80       	ldd	r0, Z+6	; 0x06
    5316:	f7 81       	ldd	r31, Z+7	; 0x07
    5318:	e0 2d       	mov	r30, r0
    531a:	19 95       	eicall
    531c:	9a 87       	std	Y+10, r25	; 0x0a
    531e:	89 87       	std	Y+9, r24	; 0x09
    5320:	8b 86       	std	Y+11, r8	; 0x0b
    5322:	9c 86       	std	Y+12, r9	; 0x0c
    5324:	ad 86       	std	Y+13, r10	; 0x0d
    5326:	be 86       	std	Y+14, r11	; 0x0e
    5328:	d8 01       	movw	r26, r16
    532a:	ed 91       	ld	r30, X+
    532c:	fc 91       	ld	r31, X
    532e:	60 80       	ld	r6, Z
    5330:	71 80       	ldd	r7, Z+1	; 0x01
    5332:	f7 01       	movw	r30, r14
    5334:	80 81       	ld	r24, Z
    5336:	91 81       	ldd	r25, Z+1	; 0x01
    5338:	dc 01       	movw	r26, r24
    533a:	ed 91       	ld	r30, X+
    533c:	fc 91       	ld	r31, X
    533e:	02 80       	ldd	r0, Z+2	; 0x02
    5340:	f3 81       	ldd	r31, Z+3	; 0x03
    5342:	e0 2d       	mov	r30, r0
    5344:	19 95       	eicall
    5346:	bc 01       	movw	r22, r24
    5348:	c8 01       	movw	r24, r16
    534a:	a6 01       	movw	r20, r12
    534c:	f3 01       	movw	r30, r6
    534e:	19 95       	eicall
    5350:	e2 e0       	ldi	r30, 0x02	; 2
    5352:	f0 e0       	ldi	r31, 0x00	; 0
    5354:	ee 0e       	add	r14, r30
    5356:	ff 1e       	adc	r15, r31
    5358:	e4 14       	cp	r14, r4
    535a:	f5 04       	cpc	r15, r5
    535c:	09 f0       	breq	.+2      	; 0x5360 <_ZN3ros11NodeHandle_I15ArduinoHardwareLi25ELi25ELi512ELi512EE15negotiateTopicsEv+0x1ac>
    535e:	b9 cf       	rjmp	.-142    	; 0x52d2 <_ZN3ros11NodeHandle_I15ArduinoHardwareLi25ELi25ELi512ELi512EE15negotiateTopicsEv+0x11e>
    5360:	2e 96       	adiw	r28, 0x0e	; 14
    5362:	0f b6       	in	r0, 0x3f	; 63
    5364:	f8 94       	cli
    5366:	de bf       	out	0x3e, r29	; 62
    5368:	0f be       	out	0x3f, r0	; 63
    536a:	cd bf       	out	0x3d, r28	; 61
    536c:	cf 91       	pop	r28
    536e:	df 91       	pop	r29
    5370:	1f 91       	pop	r17
    5372:	0f 91       	pop	r16
    5374:	ff 90       	pop	r15
    5376:	ef 90       	pop	r14
    5378:	df 90       	pop	r13
    537a:	cf 90       	pop	r12
    537c:	bf 90       	pop	r11
    537e:	af 90       	pop	r10
    5380:	9f 90       	pop	r9
    5382:	8f 90       	pop	r8
    5384:	7f 90       	pop	r7
    5386:	6f 90       	pop	r6
    5388:	5f 90       	pop	r5
    538a:	4f 90       	pop	r4
    538c:	08 95       	ret

0000538e <_ZN3ros11NodeHandle_I15ArduinoHardwareLi25ELi25ELi512ELi512EE6setNowERNS_4TimeE>:
    538e:	cf 92       	push	r12
    5390:	df 92       	push	r13
    5392:	ef 92       	push	r14
    5394:	ff 92       	push	r15
    5396:	0f 93       	push	r16
    5398:	1f 93       	push	r17
    539a:	cf 93       	push	r28
    539c:	df 93       	push	r29
    539e:	ec 01       	movw	r28, r24
    53a0:	6b 01       	movw	r12, r22
    53a2:	0e 94 5b 34 	call	0x68b6	; 0x68b6 <millis>
    53a6:	f6 01       	movw	r30, r12
    53a8:	e0 80       	ld	r14, Z
    53aa:	f1 80       	ldd	r15, Z+1	; 0x01
    53ac:	02 81       	ldd	r16, Z+2	; 0x02
    53ae:	13 81       	ldd	r17, Z+3	; 0x03
    53b0:	08 94       	sec
    53b2:	e1 08       	sbc	r14, r1
    53b4:	f1 08       	sbc	r15, r1
    53b6:	01 09       	sbc	r16, r1
    53b8:	11 09       	sbc	r17, r1
    53ba:	28 ee       	ldi	r18, 0xE8	; 232
    53bc:	33 e0       	ldi	r19, 0x03	; 3
    53be:	40 e0       	ldi	r20, 0x00	; 0
    53c0:	50 e0       	ldi	r21, 0x00	; 0
    53c2:	0e 94 26 41 	call	0x824c	; 0x824c <__udivmodsi4>
    53c6:	e2 1a       	sub	r14, r18
    53c8:	f3 0a       	sbc	r15, r19
    53ca:	04 0b       	sbc	r16, r20
    53cc:	15 0b       	sbc	r17, r21
    53ce:	ec 86       	std	Y+12, r14	; 0x0c
    53d0:	fd 86       	std	Y+13, r15	; 0x0d
    53d2:	0e 87       	std	Y+14, r16	; 0x0e
    53d4:	1f 87       	std	Y+15, r17	; 0x0f
    53d6:	f6 01       	movw	r30, r12
    53d8:	e4 80       	ldd	r14, Z+4	; 0x04
    53da:	f5 80       	ldd	r15, Z+5	; 0x05
    53dc:	06 81       	ldd	r16, Z+6	; 0x06
    53de:	17 81       	ldd	r17, Z+7	; 0x07
    53e0:	20 e0       	ldi	r18, 0x00	; 0
    53e2:	3a ec       	ldi	r19, 0xCA	; 202
    53e4:	4a e9       	ldi	r20, 0x9A	; 154
    53e6:	5b e3       	ldi	r21, 0x3B	; 59
    53e8:	e2 0e       	add	r14, r18
    53ea:	f3 1e       	adc	r15, r19
    53ec:	04 1f       	adc	r16, r20
    53ee:	15 1f       	adc	r17, r21
    53f0:	20 e4       	ldi	r18, 0x40	; 64
    53f2:	32 e4       	ldi	r19, 0x42	; 66
    53f4:	4f e0       	ldi	r20, 0x0F	; 15
    53f6:	50 e0       	ldi	r21, 0x00	; 0
    53f8:	0e 94 e0 40 	call	0x81c0	; 0x81c0 <__mulsi3>
    53fc:	e6 1a       	sub	r14, r22
    53fe:	f7 0a       	sbc	r15, r23
    5400:	08 0b       	sbc	r16, r24
    5402:	19 0b       	sbc	r17, r25
    5404:	e8 8a       	std	Y+16, r14	; 0x10
    5406:	f9 8a       	std	Y+17, r15	; 0x11
    5408:	0a 8b       	std	Y+18, r16	; 0x12
    540a:	1b 8b       	std	Y+19, r17	; 0x13
    540c:	be 01       	movw	r22, r28
    540e:	60 5f       	subi	r22, 0xF0	; 240
    5410:	7f 4f       	sbci	r23, 0xFF	; 255
    5412:	ce 01       	movw	r24, r28
    5414:	0c 96       	adiw	r24, 0x0c	; 12
    5416:	0e 94 7d 01 	call	0x2fa	; 0x2fa <_ZN3ros16normalizeSecNSecERmS0_>
    541a:	df 91       	pop	r29
    541c:	cf 91       	pop	r28
    541e:	1f 91       	pop	r17
    5420:	0f 91       	pop	r16
    5422:	ff 90       	pop	r15
    5424:	ef 90       	pop	r14
    5426:	df 90       	pop	r13
    5428:	cf 90       	pop	r12
    542a:	08 95       	ret

0000542c <_ZN3ros11NodeHandle_I15ArduinoHardwareLi25ELi25ELi512ELi512EE8syncTimeEPh>:
    542c:	af 92       	push	r10
    542e:	bf 92       	push	r11
    5430:	cf 92       	push	r12
    5432:	df 92       	push	r13
    5434:	ef 92       	push	r14
    5436:	ff 92       	push	r15
    5438:	0f 93       	push	r16
    543a:	1f 93       	push	r17
    543c:	df 93       	push	r29
    543e:	cf 93       	push	r28
    5440:	cd b7       	in	r28, 0x3d	; 61
    5442:	de b7       	in	r29, 0x3e	; 62
    5444:	2a 97       	sbiw	r28, 0x0a	; 10
    5446:	0f b6       	in	r0, 0x3f	; 63
    5448:	f8 94       	cli
    544a:	de bf       	out	0x3e, r29	; 62
    544c:	0f be       	out	0x3f, r0	; 63
    544e:	cd bf       	out	0x3d, r28	; 61
    5450:	5c 01       	movw	r10, r24
    5452:	6b 01       	movw	r12, r22
    5454:	86 ea       	ldi	r24, 0xA6	; 166
    5456:	95 e0       	ldi	r25, 0x05	; 5
    5458:	9a 83       	std	Y+2, r25	; 0x02
    545a:	89 83       	std	Y+1, r24	; 0x01
    545c:	1b 82       	std	Y+3, r1	; 0x03
    545e:	1c 82       	std	Y+4, r1	; 0x04
    5460:	1d 82       	std	Y+5, r1	; 0x05
    5462:	1e 82       	std	Y+6, r1	; 0x06
    5464:	1f 82       	std	Y+7, r1	; 0x07
    5466:	18 86       	std	Y+8, r1	; 0x08
    5468:	19 86       	std	Y+9, r1	; 0x09
    546a:	1a 86       	std	Y+10, r1	; 0x0a
    546c:	0e 94 5b 34 	call	0x68b6	; 0x68b6 <millis>
    5470:	7b 01       	movw	r14, r22
    5472:	8c 01       	movw	r16, r24
    5474:	f5 01       	movw	r30, r10
    5476:	80 85       	ldd	r24, Z+8	; 0x08
    5478:	91 85       	ldd	r25, Z+9	; 0x09
    547a:	a2 85       	ldd	r26, Z+10	; 0x0a
    547c:	b3 85       	ldd	r27, Z+11	; 0x0b
    547e:	e8 1a       	sub	r14, r24
    5480:	f9 0a       	sbc	r15, r25
    5482:	0a 0b       	sbc	r16, r26
    5484:	1b 0b       	sbc	r17, r27
    5486:	ce 01       	movw	r24, r28
    5488:	01 96       	adiw	r24, 0x01	; 1
    548a:	b6 01       	movw	r22, r12
    548c:	0e 94 cf 09 	call	0x139e	; 0x139e <_ZN8std_msgs4Time11deserializeEPh>
    5490:	c8 01       	movw	r24, r16
    5492:	b7 01       	movw	r22, r14
    5494:	28 ee       	ldi	r18, 0xE8	; 232
    5496:	33 e0       	ldi	r19, 0x03	; 3
    5498:	40 e0       	ldi	r20, 0x00	; 0
    549a:	50 e0       	ldi	r21, 0x00	; 0
    549c:	0e 94 26 41 	call	0x824c	; 0x824c <__udivmodsi4>
    54a0:	7b 01       	movw	r14, r22
    54a2:	8c 01       	movw	r16, r24
    54a4:	8b 81       	ldd	r24, Y+3	; 0x03
    54a6:	9c 81       	ldd	r25, Y+4	; 0x04
    54a8:	ad 81       	ldd	r26, Y+5	; 0x05
    54aa:	be 81       	ldd	r27, Y+6	; 0x06
    54ac:	82 0f       	add	r24, r18
    54ae:	93 1f       	adc	r25, r19
    54b0:	a4 1f       	adc	r26, r20
    54b2:	b5 1f       	adc	r27, r21
    54b4:	8b 83       	std	Y+3, r24	; 0x03
    54b6:	9c 83       	std	Y+4, r25	; 0x04
    54b8:	ad 83       	std	Y+5, r26	; 0x05
    54ba:	be 83       	std	Y+6, r27	; 0x06
    54bc:	c8 01       	movw	r24, r16
    54be:	b7 01       	movw	r22, r14
    54c0:	20 e4       	ldi	r18, 0x40	; 64
    54c2:	32 e4       	ldi	r19, 0x42	; 66
    54c4:	4f e0       	ldi	r20, 0x0F	; 15
    54c6:	50 e0       	ldi	r21, 0x00	; 0
    54c8:	0e 94 e0 40 	call	0x81c0	; 0x81c0 <__mulsi3>
    54cc:	9b 01       	movw	r18, r22
    54ce:	ac 01       	movw	r20, r24
    54d0:	8f 81       	ldd	r24, Y+7	; 0x07
    54d2:	98 85       	ldd	r25, Y+8	; 0x08
    54d4:	a9 85       	ldd	r26, Y+9	; 0x09
    54d6:	ba 85       	ldd	r27, Y+10	; 0x0a
    54d8:	82 0f       	add	r24, r18
    54da:	93 1f       	adc	r25, r19
    54dc:	a4 1f       	adc	r26, r20
    54de:	b5 1f       	adc	r27, r21
    54e0:	8f 83       	std	Y+7, r24	; 0x07
    54e2:	98 87       	std	Y+8, r25	; 0x08
    54e4:	a9 87       	std	Y+9, r26	; 0x09
    54e6:	ba 87       	std	Y+10, r27	; 0x0a
    54e8:	c5 01       	movw	r24, r10
    54ea:	be 01       	movw	r22, r28
    54ec:	6d 5f       	subi	r22, 0xFD	; 253
    54ee:	7f 4f       	sbci	r23, 0xFF	; 255
    54f0:	0e 94 c7 29 	call	0x538e	; 0x538e <_ZN3ros11NodeHandle_I15ArduinoHardwareLi25ELi25ELi512ELi512EE6setNowERNS_4TimeE>
    54f4:	0e 94 5b 34 	call	0x68b6	; 0x68b6 <millis>
    54f8:	f5 01       	movw	r30, r10
    54fa:	e9 57       	subi	r30, 0x79	; 121
    54fc:	fb 4f       	sbci	r31, 0xFB	; 251
    54fe:	60 83       	st	Z, r22
    5500:	71 83       	std	Z+1, r23	; 0x01
    5502:	82 83       	std	Z+2, r24	; 0x02
    5504:	93 83       	std	Z+3, r25	; 0x03
    5506:	2a 96       	adiw	r28, 0x0a	; 10
    5508:	0f b6       	in	r0, 0x3f	; 63
    550a:	f8 94       	cli
    550c:	de bf       	out	0x3e, r29	; 62
    550e:	0f be       	out	0x3f, r0	; 63
    5510:	cd bf       	out	0x3d, r28	; 61
    5512:	cf 91       	pop	r28
    5514:	df 91       	pop	r29
    5516:	1f 91       	pop	r17
    5518:	0f 91       	pop	r16
    551a:	ff 90       	pop	r15
    551c:	ef 90       	pop	r14
    551e:	df 90       	pop	r13
    5520:	cf 90       	pop	r12
    5522:	bf 90       	pop	r11
    5524:	af 90       	pop	r10
    5526:	08 95       	ret

00005528 <_ZN3ros11NodeHandle_I15ArduinoHardwareLi25ELi25ELi512ELi512EE8spinOnceEv>:
    5528:	2f 92       	push	r2
    552a:	3f 92       	push	r3
    552c:	4f 92       	push	r4
    552e:	5f 92       	push	r5
    5530:	6f 92       	push	r6
    5532:	7f 92       	push	r7
    5534:	8f 92       	push	r8
    5536:	9f 92       	push	r9
    5538:	af 92       	push	r10
    553a:	bf 92       	push	r11
    553c:	cf 92       	push	r12
    553e:	df 92       	push	r13
    5540:	ef 92       	push	r14
    5542:	ff 92       	push	r15
    5544:	0f 93       	push	r16
    5546:	1f 93       	push	r17
    5548:	df 93       	push	r29
    554a:	cf 93       	push	r28
    554c:	cd b7       	in	r28, 0x3d	; 61
    554e:	de b7       	in	r29, 0x3e	; 62
    5550:	2c 97       	sbiw	r28, 0x0c	; 12
    5552:	0f b6       	in	r0, 0x3f	; 63
    5554:	f8 94       	cli
    5556:	de bf       	out	0x3e, r29	; 62
    5558:	0f be       	out	0x3f, r0	; 63
    555a:	cd bf       	out	0x3d, r28	; 61
    555c:	9c 87       	std	Y+12, r25	; 0x0c
    555e:	8b 87       	std	Y+11, r24	; 0x0b
    5560:	0e 94 5b 34 	call	0x68b6	; 0x68b6 <millis>
    5564:	6b 01       	movw	r12, r22
    5566:	7c 01       	movw	r14, r24
    5568:	eb 85       	ldd	r30, Y+11	; 0x0b
    556a:	fc 85       	ldd	r31, Y+12	; 0x0c
    556c:	e9 57       	subi	r30, 0x79	; 121
    556e:	fb 4f       	sbci	r31, 0xFB	; 251
    5570:	80 81       	ld	r24, Z
    5572:	91 81       	ldd	r25, Z+1	; 0x01
    5574:	a2 81       	ldd	r26, Z+2	; 0x02
    5576:	b3 81       	ldd	r27, Z+3	; 0x03
    5578:	a7 01       	movw	r20, r14
    557a:	96 01       	movw	r18, r12
    557c:	28 1b       	sub	r18, r24
    557e:	39 0b       	sbc	r19, r25
    5580:	4a 0b       	sbc	r20, r26
    5582:	5b 0b       	sbc	r21, r27
    5584:	da 01       	movw	r26, r20
    5586:	c9 01       	movw	r24, r18
    5588:	89 3f       	cpi	r24, 0xF9	; 249
    558a:	3a e2       	ldi	r19, 0x2A	; 42
    558c:	93 07       	cpc	r25, r19
    558e:	30 e0       	ldi	r19, 0x00	; 0
    5590:	a3 07       	cpc	r26, r19
    5592:	30 e0       	ldi	r19, 0x00	; 0
    5594:	b3 07       	cpc	r27, r19
    5596:	28 f0       	brcs	.+10     	; 0x55a2 <_ZN3ros11NodeHandle_I15ArduinoHardwareLi25ELi25ELi512ELi512EE8spinOnceEv+0x7a>
    5598:	eb 85       	ldd	r30, Y+11	; 0x0b
    559a:	fc 85       	ldd	r31, Y+12	; 0x0c
    559c:	ee 57       	subi	r30, 0x7E	; 126
    559e:	fb 4f       	sbci	r31, 0xFB	; 251
    55a0:	10 82       	st	Z, r1
    55a2:	eb 85       	ldd	r30, Y+11	; 0x0b
    55a4:	fc 85       	ldd	r31, Y+12	; 0x0c
    55a6:	e8 58       	subi	r30, 0x88	; 136
    55a8:	fb 4f       	sbci	r31, 0xFB	; 251
    55aa:	80 81       	ld	r24, Z
    55ac:	91 81       	ldd	r25, Z+1	; 0x01
    55ae:	00 97       	sbiw	r24, 0x00	; 0
    55b0:	81 f0       	breq	.+32     	; 0x55d2 <_ZN3ros11NodeHandle_I15ArduinoHardwareLi25ELi25ELi512ELi512EE8spinOnceEv+0xaa>
    55b2:	ab 85       	ldd	r26, Y+11	; 0x0b
    55b4:	bc 85       	ldd	r27, Y+12	; 0x0c
    55b6:	a5 57       	subi	r26, 0x75	; 117
    55b8:	bb 4f       	sbci	r27, 0xFB	; 251
    55ba:	8d 91       	ld	r24, X+
    55bc:	9d 91       	ld	r25, X+
    55be:	0d 90       	ld	r0, X+
    55c0:	bc 91       	ld	r27, X
    55c2:	a0 2d       	mov	r26, r0
    55c4:	8c 15       	cp	r24, r12
    55c6:	9d 05       	cpc	r25, r13
    55c8:	ae 05       	cpc	r26, r14
    55ca:	bf 05       	cpc	r27, r15
    55cc:	10 f4       	brcc	.+4      	; 0x55d2 <_ZN3ros11NodeHandle_I15ArduinoHardwareLi25ELi25ELi512ELi512EE8spinOnceEv+0xaa>
    55ce:	11 82       	std	Z+1, r1	; 0x01
    55d0:	10 82       	st	Z, r1
    55d2:	90 e8       	ldi	r25, 0x80	; 128
    55d4:	69 2e       	mov	r6, r25
    55d6:	94 e0       	ldi	r25, 0x04	; 4
    55d8:	79 2e       	mov	r7, r25
    55da:	4b 85       	ldd	r20, Y+11	; 0x0b
    55dc:	5c 85       	ldd	r21, Y+12	; 0x0c
    55de:	64 0e       	add	r6, r20
    55e0:	75 1e       	adc	r7, r21
    55e2:	8a 01       	movw	r16, r20
    55e4:	08 58       	subi	r16, 0x88	; 136
    55e6:	1b 4f       	sbci	r17, 0xFB	; 251
    55e8:	8c e7       	ldi	r24, 0x7C	; 124
    55ea:	88 2e       	mov	r8, r24
    55ec:	84 e0       	ldi	r24, 0x04	; 4
    55ee:	98 2e       	mov	r9, r24
    55f0:	84 0e       	add	r8, r20
    55f2:	95 1e       	adc	r9, r21
    55f4:	b4 e1       	ldi	r27, 0x14	; 20
    55f6:	4b 2e       	mov	r4, r27
    55f8:	51 2c       	mov	r5, r1
    55fa:	44 0e       	add	r4, r20
    55fc:	55 1e       	adc	r5, r21
    55fe:	40 57       	subi	r20, 0x70	; 112
    5600:	5b 4f       	sbci	r21, 0xFB	; 251
    5602:	5a 83       	std	Y+2, r21	; 0x02
    5604:	49 83       	std	Y+1, r20	; 0x01
    5606:	8b 85       	ldd	r24, Y+11	; 0x0b
    5608:	9c 85       	ldd	r25, Y+12	; 0x0c
    560a:	81 57       	subi	r24, 0x71	; 113
    560c:	9b 4f       	sbci	r25, 0xFB	; 251
    560e:	9c 83       	std	Y+4, r25	; 0x04
    5610:	8b 83       	std	Y+3, r24	; 0x03
    5612:	aa e7       	ldi	r26, 0x7A	; 122
    5614:	aa 2e       	mov	r10, r26
    5616:	a4 e0       	ldi	r26, 0x04	; 4
    5618:	ba 2e       	mov	r11, r26
    561a:	ab 85       	ldd	r26, Y+11	; 0x0b
    561c:	bc 85       	ldd	r27, Y+12	; 0x0c
    561e:	aa 0e       	add	r10, r26
    5620:	bb 1e       	adc	r11, r27
    5622:	fe e7       	ldi	r31, 0x7E	; 126
    5624:	2f 2e       	mov	r2, r31
    5626:	f4 e0       	ldi	r31, 0x04	; 4
    5628:	3f 2e       	mov	r3, r31
    562a:	2a 0e       	add	r2, r26
    562c:	3b 1e       	adc	r3, r27
    562e:	a5 57       	subi	r26, 0x75	; 117
    5630:	bb 4f       	sbci	r27, 0xFB	; 251
    5632:	be 83       	std	Y+6, r27	; 0x06
    5634:	ad 83       	std	Y+5, r26	; 0x05
    5636:	a7 01       	movw	r20, r14
    5638:	96 01       	movw	r18, r12
    563a:	2c 5e       	subi	r18, 0xEC	; 236
    563c:	3f 4f       	sbci	r19, 0xFF	; 255
    563e:	4f 4f       	sbci	r20, 0xFF	; 255
    5640:	5f 4f       	sbci	r21, 0xFF	; 255
    5642:	2f 83       	std	Y+7, r18	; 0x07
    5644:	38 87       	std	Y+8, r19	; 0x08
    5646:	49 87       	std	Y+9, r20	; 0x09
    5648:	5a 87       	std	Y+10, r21	; 0x0a
    564a:	c8 01       	movw	r24, r16
    564c:	0b 85       	ldd	r16, Y+11	; 0x0b
    564e:	1c 85       	ldd	r17, Y+12	; 0x0c
    5650:	9c 87       	std	Y+12, r25	; 0x0c
    5652:	8b 87       	std	Y+11, r24	; 0x0b
    5654:	d8 01       	movw	r26, r16
    5656:	12 96       	adiw	r26, 0x02	; 2
    5658:	8d 91       	ld	r24, X+
    565a:	9c 91       	ld	r25, X
    565c:	13 97       	sbiw	r26, 0x03	; 3
    565e:	dc 01       	movw	r26, r24
    5660:	ed 91       	ld	r30, X+
    5662:	fc 91       	ld	r31, X
    5664:	00 84       	ldd	r0, Z+8	; 0x08
    5666:	f1 85       	ldd	r31, Z+9	; 0x09
    5668:	e0 2d       	mov	r30, r0
    566a:	19 95       	eicall
    566c:	9c 01       	movw	r18, r24
    566e:	97 fd       	sbrc	r25, 7
    5670:	fc c0       	rjmp	.+504    	; 0x586a <_ZN3ros11NodeHandle_I15ArduinoHardwareLi25ELi25ELi512ELi512EE8spinOnceEv+0x342>
    5672:	f3 01       	movw	r30, r6
    5674:	80 81       	ld	r24, Z
    5676:	91 81       	ldd	r25, Z+1	; 0x01
    5678:	82 0f       	add	r24, r18
    567a:	93 1f       	adc	r25, r19
    567c:	91 83       	std	Z+1, r25	; 0x01
    567e:	80 83       	st	Z, r24
    5680:	ab 85       	ldd	r26, Y+11	; 0x0b
    5682:	bc 85       	ldd	r27, Y+12	; 0x0c
    5684:	4d 91       	ld	r20, X+
    5686:	5c 91       	ld	r21, X
    5688:	11 97       	sbiw	r26, 0x01	; 1
    568a:	46 30       	cpi	r20, 0x06	; 6
    568c:	51 05       	cpc	r21, r1
    568e:	b9 f4       	brne	.+46     	; 0x56be <_ZN3ros11NodeHandle_I15ArduinoHardwareLi25ELi25ELi512ELi512EE8spinOnceEv+0x196>
    5690:	f1 01       	movw	r30, r2
    5692:	80 81       	ld	r24, Z
    5694:	91 81       	ldd	r25, Z+1	; 0x01
    5696:	f8 01       	movw	r30, r16
    5698:	e8 0f       	add	r30, r24
    569a:	f9 1f       	adc	r31, r25
    569c:	24 8b       	std	Z+20, r18	; 0x14
    569e:	01 96       	adiw	r24, 0x01	; 1
    56a0:	d1 01       	movw	r26, r2
    56a2:	11 96       	adiw	r26, 0x01	; 1
    56a4:	9c 93       	st	X, r25
    56a6:	8e 93       	st	-X, r24
    56a8:	f5 01       	movw	r30, r10
    56aa:	80 81       	ld	r24, Z
    56ac:	91 81       	ldd	r25, Z+1	; 0x01
    56ae:	01 97       	sbiw	r24, 0x01	; 1
    56b0:	91 83       	std	Z+1, r25	; 0x01
    56b2:	80 83       	st	Z, r24
    56b4:	00 97       	sbiw	r24, 0x00	; 0
    56b6:	71 f6       	brne	.-100    	; 0x5654 <_ZN3ros11NodeHandle_I15ArduinoHardwareLi25ELi25ELi512ELi512EE8spinOnceEv+0x12c>
    56b8:	e7 e0       	ldi	r30, 0x07	; 7
    56ba:	f0 e0       	ldi	r31, 0x00	; 0
    56bc:	4a c0       	rjmp	.+148    	; 0x5752 <_ZN3ros11NodeHandle_I15ArduinoHardwareLi25ELi25ELi512ELi512EE8spinOnceEv+0x22a>
    56be:	41 15       	cp	r20, r1
    56c0:	51 05       	cpc	r21, r1
    56c2:	a9 f4       	brne	.+42     	; 0x56ee <_ZN3ros11NodeHandle_I15ArduinoHardwareLi25ELi25ELi512ELi512EE8spinOnceEv+0x1c6>
    56c4:	2f 3f       	cpi	r18, 0xFF	; 255
    56c6:	31 05       	cpc	r19, r1
    56c8:	29 f6       	brne	.-118    	; 0x5654 <_ZN3ros11NodeHandle_I15ArduinoHardwareLi25ELi25ELi512ELi512EE8spinOnceEv+0x12c>
    56ca:	e1 e0       	ldi	r30, 0x01	; 1
    56cc:	f0 e0       	ldi	r31, 0x00	; 0
    56ce:	ab 85       	ldd	r26, Y+11	; 0x0b
    56d0:	bc 85       	ldd	r27, Y+12	; 0x0c
    56d2:	ed 93       	st	X+, r30
    56d4:	fc 93       	st	X, r31
    56d6:	2f 81       	ldd	r18, Y+7	; 0x07
    56d8:	38 85       	ldd	r19, Y+8	; 0x08
    56da:	49 85       	ldd	r20, Y+9	; 0x09
    56dc:	5a 85       	ldd	r21, Y+10	; 0x0a
    56de:	ad 81       	ldd	r26, Y+5	; 0x05
    56e0:	be 81       	ldd	r27, Y+6	; 0x06
    56e2:	2d 93       	st	X+, r18
    56e4:	3d 93       	st	X+, r19
    56e6:	4d 93       	st	X+, r20
    56e8:	5c 93       	st	X, r21
    56ea:	13 97       	sbiw	r26, 0x03	; 3
    56ec:	b3 cf       	rjmp	.-154    	; 0x5654 <_ZN3ros11NodeHandle_I15ArduinoHardwareLi25ELi25ELi512ELi512EE8spinOnceEv+0x12c>
    56ee:	41 30       	cpi	r20, 0x01	; 1
    56f0:	51 05       	cpc	r21, r1
    56f2:	81 f4       	brne	.+32     	; 0x5714 <_ZN3ros11NodeHandle_I15ArduinoHardwareLi25ELi25ELi512ELi512EE8spinOnceEv+0x1ec>
    56f4:	2f 3f       	cpi	r18, 0xFF	; 255
    56f6:	31 05       	cpc	r19, r1
    56f8:	39 f4       	brne	.+14     	; 0x5708 <_ZN3ros11NodeHandle_I15ArduinoHardwareLi25ELi25ELi512ELi512EE8spinOnceEv+0x1e0>
    56fa:	22 e0       	ldi	r18, 0x02	; 2
    56fc:	30 e0       	ldi	r19, 0x00	; 0
    56fe:	eb 85       	ldd	r30, Y+11	; 0x0b
    5700:	fc 85       	ldd	r31, Y+12	; 0x0c
    5702:	31 83       	std	Z+1, r19	; 0x01
    5704:	20 83       	st	Z, r18
    5706:	a6 cf       	rjmp	.-180    	; 0x5654 <_ZN3ros11NodeHandle_I15ArduinoHardwareLi25ELi25ELi512ELi512EE8spinOnceEv+0x12c>
    5708:	ab 85       	ldd	r26, Y+11	; 0x0b
    570a:	bc 85       	ldd	r27, Y+12	; 0x0c
    570c:	11 96       	adiw	r26, 0x01	; 1
    570e:	1c 92       	st	X, r1
    5710:	1e 92       	st	-X, r1
    5712:	a0 cf       	rjmp	.-192    	; 0x5654 <_ZN3ros11NodeHandle_I15ArduinoHardwareLi25ELi25ELi512ELi512EE8spinOnceEv+0x12c>
    5714:	42 30       	cpi	r20, 0x02	; 2
    5716:	51 05       	cpc	r21, r1
    5718:	71 f4       	brne	.+28     	; 0x5736 <_ZN3ros11NodeHandle_I15ArduinoHardwareLi25ELi25ELi512ELi512EE8spinOnceEv+0x20e>
    571a:	f4 01       	movw	r30, r8
    571c:	31 83       	std	Z+1, r19	; 0x01
    571e:	20 83       	st	Z, r18
    5720:	e3 e0       	ldi	r30, 0x03	; 3
    5722:	f0 e0       	ldi	r31, 0x00	; 0
    5724:	ab 85       	ldd	r26, Y+11	; 0x0b
    5726:	bc 85       	ldd	r27, Y+12	; 0x0c
    5728:	ed 93       	st	X+, r30
    572a:	fc 93       	st	X, r31
    572c:	d3 01       	movw	r26, r6
    572e:	11 96       	adiw	r26, 0x01	; 1
    5730:	3c 93       	st	X, r19
    5732:	2e 93       	st	-X, r18
    5734:	8f cf       	rjmp	.-226    	; 0x5654 <_ZN3ros11NodeHandle_I15ArduinoHardwareLi25ELi25ELi512ELi512EE8spinOnceEv+0x12c>
    5736:	43 30       	cpi	r20, 0x03	; 3
    5738:	51 05       	cpc	r21, r1
    573a:	89 f4       	brne	.+34     	; 0x575e <_ZN3ros11NodeHandle_I15ArduinoHardwareLi25ELi25ELi512ELi512EE8spinOnceEv+0x236>
    573c:	32 2f       	mov	r19, r18
    573e:	22 27       	eor	r18, r18
    5740:	f4 01       	movw	r30, r8
    5742:	80 81       	ld	r24, Z
    5744:	91 81       	ldd	r25, Z+1	; 0x01
    5746:	28 0f       	add	r18, r24
    5748:	39 1f       	adc	r19, r25
    574a:	31 83       	std	Z+1, r19	; 0x01
    574c:	20 83       	st	Z, r18
    574e:	e4 e0       	ldi	r30, 0x04	; 4
    5750:	f0 e0       	ldi	r31, 0x00	; 0
    5752:	ab 85       	ldd	r26, Y+11	; 0x0b
    5754:	bc 85       	ldd	r27, Y+12	; 0x0c
    5756:	11 96       	adiw	r26, 0x01	; 1
    5758:	fc 93       	st	X, r31
    575a:	ee 93       	st	-X, r30
    575c:	7b cf       	rjmp	.-266    	; 0x5654 <_ZN3ros11NodeHandle_I15ArduinoHardwareLi25ELi25ELi512ELi512EE8spinOnceEv+0x12c>
    575e:	44 30       	cpi	r20, 0x04	; 4
    5760:	51 05       	cpc	r21, r1
    5762:	51 f4       	brne	.+20     	; 0x5778 <_ZN3ros11NodeHandle_I15ArduinoHardwareLi25ELi25ELi512ELi512EE8spinOnceEv+0x250>
    5764:	d5 01       	movw	r26, r10
    5766:	11 96       	adiw	r26, 0x01	; 1
    5768:	3c 93       	st	X, r19
    576a:	2e 93       	st	-X, r18
    576c:	f1 01       	movw	r30, r2
    576e:	11 82       	std	Z+1, r1	; 0x01
    5770:	10 82       	st	Z, r1
    5772:	e5 e0       	ldi	r30, 0x05	; 5
    5774:	f0 e0       	ldi	r31, 0x00	; 0
    5776:	ed cf       	rjmp	.-38     	; 0x5752 <_ZN3ros11NodeHandle_I15ArduinoHardwareLi25ELi25ELi512ELi512EE8spinOnceEv+0x22a>
    5778:	45 30       	cpi	r20, 0x05	; 5
    577a:	51 05       	cpc	r21, r1
    577c:	d1 f4       	brne	.+52     	; 0x57b2 <_ZN3ros11NodeHandle_I15ArduinoHardwareLi25ELi25ELi512ELi512EE8spinOnceEv+0x28a>
    577e:	32 2f       	mov	r19, r18
    5780:	22 27       	eor	r18, r18
    5782:	d5 01       	movw	r26, r10
    5784:	8d 91       	ld	r24, X+
    5786:	9c 91       	ld	r25, X
    5788:	11 97       	sbiw	r26, 0x01	; 1
    578a:	28 0f       	add	r18, r24
    578c:	39 1f       	adc	r19, r25
    578e:	11 96       	adiw	r26, 0x01	; 1
    5790:	3c 93       	st	X, r19
    5792:	2e 93       	st	-X, r18
    5794:	46 e0       	ldi	r20, 0x06	; 6
    5796:	50 e0       	ldi	r21, 0x00	; 0
    5798:	eb 85       	ldd	r30, Y+11	; 0x0b
    579a:	fc 85       	ldd	r31, Y+12	; 0x0c
    579c:	51 83       	std	Z+1, r21	; 0x01
    579e:	40 83       	st	Z, r20
    57a0:	21 15       	cp	r18, r1
    57a2:	31 05       	cpc	r19, r1
    57a4:	09 f0       	breq	.+2      	; 0x57a8 <_ZN3ros11NodeHandle_I15ArduinoHardwareLi25ELi25ELi512ELi512EE8spinOnceEv+0x280>
    57a6:	56 cf       	rjmp	.-340    	; 0x5654 <_ZN3ros11NodeHandle_I15ArduinoHardwareLi25ELi25ELi512ELi512EE8spinOnceEv+0x12c>
    57a8:	87 e0       	ldi	r24, 0x07	; 7
    57aa:	90 e0       	ldi	r25, 0x00	; 0
    57ac:	91 83       	std	Z+1, r25	; 0x01
    57ae:	80 83       	st	Z, r24
    57b0:	51 cf       	rjmp	.-350    	; 0x5654 <_ZN3ros11NodeHandle_I15ArduinoHardwareLi25ELi25ELi512ELi512EE8spinOnceEv+0x12c>
    57b2:	47 30       	cpi	r20, 0x07	; 7
    57b4:	51 05       	cpc	r21, r1
    57b6:	09 f0       	breq	.+2      	; 0x57ba <_ZN3ros11NodeHandle_I15ArduinoHardwareLi25ELi25ELi512ELi512EE8spinOnceEv+0x292>
    57b8:	4d cf       	rjmp	.-358    	; 0x5654 <_ZN3ros11NodeHandle_I15ArduinoHardwareLi25ELi25ELi512ELi512EE8spinOnceEv+0x12c>
    57ba:	ab 85       	ldd	r26, Y+11	; 0x0b
    57bc:	bc 85       	ldd	r27, Y+12	; 0x0c
    57be:	11 96       	adiw	r26, 0x01	; 1
    57c0:	1c 92       	st	X, r1
    57c2:	1e 92       	st	-X, r1
    57c4:	60 e0       	ldi	r22, 0x00	; 0
    57c6:	71 e0       	ldi	r23, 0x01	; 1
    57c8:	0e 94 13 41 	call	0x8226	; 0x8226 <__divmodhi4>
    57cc:	8f 3f       	cpi	r24, 0xFF	; 255
    57ce:	91 05       	cpc	r25, r1
    57d0:	09 f0       	breq	.+2      	; 0x57d4 <_ZN3ros11NodeHandle_I15ArduinoHardwareLi25ELi25ELi512ELi512EE8spinOnceEv+0x2ac>
    57d2:	40 cf       	rjmp	.-384    	; 0x5654 <_ZN3ros11NodeHandle_I15ArduinoHardwareLi25ELi25ELi512ELi512EE8spinOnceEv+0x12c>
    57d4:	d4 01       	movw	r26, r8
    57d6:	ed 91       	ld	r30, X+
    57d8:	fc 91       	ld	r31, X
    57da:	11 97       	sbiw	r26, 0x01	; 1
    57dc:	30 97       	sbiw	r30, 0x00	; 0
    57de:	e1 f4       	brne	.+56     	; 0x5818 <_ZN3ros11NodeHandle_I15ArduinoHardwareLi25ELi25ELi512ELi512EE8spinOnceEv+0x2f0>
    57e0:	1c 87       	std	Y+12, r17	; 0x0c
    57e2:	0b 87       	std	Y+11, r16	; 0x0b
    57e4:	c8 01       	movw	r24, r16
    57e6:	0e 94 a2 28 	call	0x5144	; 0x5144 <_ZN3ros11NodeHandle_I15ArduinoHardwareLi25ELi25ELi512ELi512EE15requestSyncTimeEv>
    57ea:	8b 85       	ldd	r24, Y+11	; 0x0b
    57ec:	9c 85       	ldd	r25, Y+12	; 0x0c
    57ee:	0e 94 da 28 	call	0x51b4	; 0x51b4 <_ZN3ros11NodeHandle_I15ArduinoHardwareLi25ELi25ELi512ELi512EE15negotiateTopicsEv>
    57f2:	eb 85       	ldd	r30, Y+11	; 0x0b
    57f4:	fc 85       	ldd	r31, Y+12	; 0x0c
    57f6:	ed 57       	subi	r30, 0x7D	; 125
    57f8:	fb 4f       	sbci	r31, 0xFB	; 251
    57fa:	c0 82       	st	Z, r12
    57fc:	d1 82       	std	Z+1, r13	; 0x01
    57fe:	e2 82       	std	Z+2, r14	; 0x02
    5800:	f3 82       	std	Z+3, r15	; 0x03
    5802:	eb 85       	ldd	r30, Y+11	; 0x0b
    5804:	fc 85       	ldd	r31, Y+12	; 0x0c
    5806:	e9 57       	subi	r30, 0x79	; 121
    5808:	fb 4f       	sbci	r31, 0xFB	; 251
    580a:	c0 82       	st	Z, r12
    580c:	d1 82       	std	Z+1, r13	; 0x01
    580e:	e2 82       	std	Z+2, r14	; 0x02
    5810:	f3 82       	std	Z+3, r15	; 0x03
    5812:	2f ef       	ldi	r18, 0xFF	; 255
    5814:	3f ef       	ldi	r19, 0xFF	; 255
    5816:	54 c0       	rjmp	.+168    	; 0x58c0 <_ZN3ros11NodeHandle_I15ArduinoHardwareLi25ELi25ELi512ELi512EE8spinOnceEv+0x398>
    5818:	ea 30       	cpi	r30, 0x0A	; 10
    581a:	f1 05       	cpc	r31, r1
    581c:	29 f4       	brne	.+10     	; 0x5828 <_ZN3ros11NodeHandle_I15ArduinoHardwareLi25ELi25ELi512ELi512EE8spinOnceEv+0x300>
    581e:	c8 01       	movw	r24, r16
    5820:	b2 01       	movw	r22, r4
    5822:	0e 94 16 2a 	call	0x542c	; 0x542c <_ZN3ros11NodeHandle_I15ArduinoHardwareLi25ELi25ELi512ELi512EE8syncTimeEPh>
    5826:	16 cf       	rjmp	.-468    	; 0x5654 <_ZN3ros11NodeHandle_I15ArduinoHardwareLi25ELi25ELi512ELi512EE8spinOnceEv+0x12c>
    5828:	e6 30       	cpi	r30, 0x06	; 6
    582a:	f1 05       	cpc	r31, r1
    582c:	51 f4       	brne	.+20     	; 0x5842 <_ZN3ros11NodeHandle_I15ArduinoHardwareLi25ELi25ELi512ELi512EE8spinOnceEv+0x31a>
    582e:	89 81       	ldd	r24, Y+1	; 0x01
    5830:	9a 81       	ldd	r25, Y+2	; 0x02
    5832:	b2 01       	movw	r22, r4
    5834:	0e 94 eb 16 	call	0x2dd6	; 0x2dd6 <_ZN14rosserial_msgs20RequestParamResponse11deserializeEPh>
    5838:	21 e0       	ldi	r18, 0x01	; 1
    583a:	eb 81       	ldd	r30, Y+3	; 0x03
    583c:	fc 81       	ldd	r31, Y+4	; 0x04
    583e:	20 83       	st	Z, r18
    5840:	09 cf       	rjmp	.-494    	; 0x5654 <_ZN3ros11NodeHandle_I15ArduinoHardwareLi25ELi25ELi512ELi512EE8spinOnceEv+0x12c>
    5842:	e1 54       	subi	r30, 0x41	; 65
    5844:	fe 4f       	sbci	r31, 0xFE	; 254
    5846:	ee 0f       	add	r30, r30
    5848:	ff 1f       	adc	r31, r31
    584a:	e0 0f       	add	r30, r16
    584c:	f1 1f       	adc	r31, r17
    584e:	80 81       	ld	r24, Z
    5850:	91 81       	ldd	r25, Z+1	; 0x01
    5852:	00 97       	sbiw	r24, 0x00	; 0
    5854:	09 f4       	brne	.+2      	; 0x5858 <_ZN3ros11NodeHandle_I15ArduinoHardwareLi25ELi25ELi512ELi512EE8spinOnceEv+0x330>
    5856:	fe ce       	rjmp	.-516    	; 0x5654 <_ZN3ros11NodeHandle_I15ArduinoHardwareLi25ELi25ELi512ELi512EE8spinOnceEv+0x12c>
    5858:	dc 01       	movw	r26, r24
    585a:	ed 91       	ld	r30, X+
    585c:	fc 91       	ld	r31, X
    585e:	01 90       	ld	r0, Z+
    5860:	f0 81       	ld	r31, Z
    5862:	e0 2d       	mov	r30, r0
    5864:	b2 01       	movw	r22, r4
    5866:	19 95       	eicall
    5868:	f5 ce       	rjmp	.-534    	; 0x5654 <_ZN3ros11NodeHandle_I15ArduinoHardwareLi25ELi25ELi512ELi512EE8spinOnceEv+0x12c>
    586a:	1c 87       	std	Y+12, r17	; 0x0c
    586c:	0b 87       	std	Y+11, r16	; 0x0b
    586e:	f8 01       	movw	r30, r16
    5870:	ee 57       	subi	r30, 0x7E	; 126
    5872:	fb 4f       	sbci	r31, 0xFB	; 251
    5874:	80 81       	ld	r24, Z
    5876:	88 23       	and	r24, r24
    5878:	09 f1       	breq	.+66     	; 0x58bc <_ZN3ros11NodeHandle_I15ArduinoHardwareLi25ELi25ELi512ELi512EE8spinOnceEv+0x394>
    587a:	0d 57       	subi	r16, 0x7D	; 125
    587c:	1b 4f       	sbci	r17, 0xFB	; 251
    587e:	f8 01       	movw	r30, r16
    5880:	80 81       	ld	r24, Z
    5882:	91 81       	ldd	r25, Z+1	; 0x01
    5884:	a2 81       	ldd	r26, Z+2	; 0x02
    5886:	b3 81       	ldd	r27, Z+3	; 0x03
    5888:	a7 01       	movw	r20, r14
    588a:	96 01       	movw	r18, r12
    588c:	28 1b       	sub	r18, r24
    588e:	39 0b       	sbc	r19, r25
    5890:	4a 0b       	sbc	r20, r26
    5892:	5b 0b       	sbc	r21, r27
    5894:	da 01       	movw	r26, r20
    5896:	c9 01       	movw	r24, r18
    5898:	85 3c       	cpi	r24, 0xC5	; 197
    589a:	39 e0       	ldi	r19, 0x09	; 9
    589c:	93 07       	cpc	r25, r19
    589e:	30 e0       	ldi	r19, 0x00	; 0
    58a0:	a3 07       	cpc	r26, r19
    58a2:	30 e0       	ldi	r19, 0x00	; 0
    58a4:	b3 07       	cpc	r27, r19
    58a6:	50 f0       	brcs	.+20     	; 0x58bc <_ZN3ros11NodeHandle_I15ArduinoHardwareLi25ELi25ELi512ELi512EE8spinOnceEv+0x394>
    58a8:	8b 85       	ldd	r24, Y+11	; 0x0b
    58aa:	9c 85       	ldd	r25, Y+12	; 0x0c
    58ac:	0e 94 a2 28 	call	0x5144	; 0x5144 <_ZN3ros11NodeHandle_I15ArduinoHardwareLi25ELi25ELi512ELi512EE15requestSyncTimeEv>
    58b0:	d8 01       	movw	r26, r16
    58b2:	cd 92       	st	X+, r12
    58b4:	dd 92       	st	X+, r13
    58b6:	ed 92       	st	X+, r14
    58b8:	fc 92       	st	X, r15
    58ba:	13 97       	sbiw	r26, 0x03	; 3
    58bc:	20 e0       	ldi	r18, 0x00	; 0
    58be:	30 e0       	ldi	r19, 0x00	; 0
    58c0:	c9 01       	movw	r24, r18
    58c2:	2c 96       	adiw	r28, 0x0c	; 12
    58c4:	0f b6       	in	r0, 0x3f	; 63
    58c6:	f8 94       	cli
    58c8:	de bf       	out	0x3e, r29	; 62
    58ca:	0f be       	out	0x3f, r0	; 63
    58cc:	cd bf       	out	0x3d, r28	; 61
    58ce:	cf 91       	pop	r28
    58d0:	df 91       	pop	r29
    58d2:	1f 91       	pop	r17
    58d4:	0f 91       	pop	r16
    58d6:	ff 90       	pop	r15
    58d8:	ef 90       	pop	r14
    58da:	df 90       	pop	r13
    58dc:	cf 90       	pop	r12
    58de:	bf 90       	pop	r11
    58e0:	af 90       	pop	r10
    58e2:	9f 90       	pop	r9
    58e4:	8f 90       	pop	r8
    58e6:	7f 90       	pop	r7
    58e8:	6f 90       	pop	r6
    58ea:	5f 90       	pop	r5
    58ec:	4f 90       	pop	r4
    58ee:	3f 90       	pop	r3
    58f0:	2f 90       	pop	r2
    58f2:	08 95       	ret

000058f4 <main>:
    58f4:	2f 92       	push	r2
    58f6:	3f 92       	push	r3
    58f8:	4f 92       	push	r4
    58fa:	5f 92       	push	r5
    58fc:	6f 92       	push	r6
    58fe:	7f 92       	push	r7
    5900:	8f 92       	push	r8
    5902:	9f 92       	push	r9
    5904:	af 92       	push	r10
    5906:	bf 92       	push	r11
    5908:	cf 92       	push	r12
    590a:	df 92       	push	r13
    590c:	ef 92       	push	r14
    590e:	ff 92       	push	r15
    5910:	0f 93       	push	r16
    5912:	1f 93       	push	r17
    5914:	df 93       	push	r29
    5916:	cf 93       	push	r28
    5918:	0f 92       	push	r0
    591a:	0f 92       	push	r0
    591c:	cd b7       	in	r28, 0x3d	; 61
    591e:	de b7       	in	r29, 0x3e	; 62
    5920:	0e 94 b6 34 	call	0x696c	; 0x696c <init>
    5924:	0e 94 00 1d 	call	0x3a00	; 0x3a00 <_ZN3IMU7initIMUEv>
    5928:	80 e9       	ldi	r24, 0x90	; 144
    592a:	90 ed       	ldi	r25, 0xD0	; 208
    592c:	a3 e0       	ldi	r26, 0x03	; 3
    592e:	b0 e0       	ldi	r27, 0x00	; 0
    5930:	80 93 f0 07 	sts	0x07F0, r24
    5934:	90 93 f1 07 	sts	0x07F1, r25
    5938:	a0 93 f2 07 	sts	0x07F2, r26
    593c:	b0 93 f3 07 	sts	0x07F3, r27
    5940:	8e ee       	ldi	r24, 0xEE	; 238
    5942:	97 e0       	ldi	r25, 0x07	; 7
    5944:	0e 94 e0 19 	call	0x33c0	; 0x33c0 <_ZN15ArduinoHardware4initEv>
    5948:	10 92 65 0c 	sts	0x0C65, r1
    594c:	10 92 64 0c 	sts	0x0C64, r1
    5950:	10 92 67 0c 	sts	0x0C67, r1
    5954:	10 92 66 0c 	sts	0x0C66, r1
    5958:	10 92 6b 0c 	sts	0x0C6B, r1
    595c:	10 92 6a 0c 	sts	0x0C6A, r1
    5960:	10 92 69 0c 	sts	0x0C69, r1
    5964:	10 92 68 0c 	sts	0x0C68, r1
    5968:	8c ee       	ldi	r24, 0xEC	; 236
    596a:	97 e0       	ldi	r25, 0x07	; 7
    596c:	65 e9       	ldi	r22, 0x95	; 149
    596e:	7c e0       	ldi	r23, 0x0C	; 12
    5970:	0e 94 18 28 	call	0x5030	; 0x5030 <_ZN3ros11NodeHandle_I15ArduinoHardwareLi25ELi25ELi512ELi512EE9advertiseERNS_9PublisherE>
    5974:	8c ee       	ldi	r24, 0xEC	; 236
    5976:	97 e0       	ldi	r25, 0x07	; 7
    5978:	61 ed       	ldi	r22, 0xD1	; 209
    597a:	7c e0       	ldi	r23, 0x0C	; 12
    597c:	0e 94 18 28 	call	0x5030	; 0x5030 <_ZN3ros11NodeHandle_I15ArduinoHardwareLi25ELi25ELi512ELi512EE9advertiseERNS_9PublisherE>
    5980:	8c ee       	ldi	r24, 0xEC	; 236
    5982:	97 e0       	ldi	r25, 0x07	; 7
    5984:	65 ef       	ldi	r22, 0xF5	; 245
    5986:	7c e0       	ldi	r23, 0x0C	; 12
    5988:	0e 94 18 28 	call	0x5030	; 0x5030 <_ZN3ros11NodeHandle_I15ArduinoHardwareLi25ELi25ELi512ELi512EE9advertiseERNS_9PublisherE>
    598c:	8c ee       	ldi	r24, 0xEC	; 236
    598e:	97 e0       	ldi	r25, 0x07	; 7
    5990:	69 e3       	ldi	r22, 0x39	; 57
    5992:	7d e0       	ldi	r23, 0x0D	; 13
    5994:	0e 94 18 28 	call	0x5030	; 0x5030 <_ZN3ros11NodeHandle_I15ArduinoHardwareLi25ELi25ELi512ELi512EE9advertiseERNS_9PublisherE>
    5998:	82 e0       	ldi	r24, 0x02	; 2
    599a:	90 e0       	ldi	r25, 0x00	; 0
    599c:	0e 94 40 3b 	call	0x7680	; 0x7680 <malloc>
    59a0:	80 93 5c 0d 	sts	0x0D5C, r24
    59a4:	90 93 5d 0d 	sts	0x0D5D, r25
    59a8:	82 e0       	ldi	r24, 0x02	; 2
    59aa:	80 93 5a 0d 	sts	0x0D5A, r24
    59ae:	8c ee       	ldi	r24, 0xEC	; 236
    59b0:	97 e0       	ldi	r25, 0x07	; 7
    59b2:	6e e5       	ldi	r22, 0x5E	; 94
    59b4:	7d e0       	ldi	r23, 0x0D	; 13
    59b6:	0e 94 18 28 	call	0x5030	; 0x5030 <_ZN3ros11NodeHandle_I15ArduinoHardwareLi25ELi25ELi512ELi512EE9advertiseERNS_9PublisherE>
    59ba:	8c ee       	ldi	r24, 0xEC	; 236
    59bc:	97 e0       	ldi	r25, 0x07	; 7
    59be:	65 e9       	ldi	r22, 0x95	; 149
    59c0:	7d e0       	ldi	r23, 0x0D	; 13
    59c2:	0e 94 3f 28 	call	0x507e	; 0x507e <_ZN3ros11NodeHandle_I15ArduinoHardwareLi25ELi25ELi512ELi512EE9subscribeIN5rover7EnabledEEEbRNS_10SubscriberIT_EE>
    59c6:	8c ee       	ldi	r24, 0xEC	; 236
    59c8:	97 e0       	ldi	r25, 0x07	; 7
    59ca:	61 e7       	ldi	r22, 0x71	; 113
    59cc:	7d e0       	ldi	r23, 0x0D	; 13
    59ce:	0e 94 60 28 	call	0x50c0	; 0x50c0 <_ZN3ros11NodeHandle_I15ArduinoHardwareLi25ELi25ELi512ELi512EE9subscribeIN5rover6MotorsEEEbRNS_10SubscriberIT_EE>
    59d2:	8c ee       	ldi	r24, 0xEC	; 236
    59d4:	97 e0       	ldi	r25, 0x07	; 7
    59d6:	63 ea       	ldi	r22, 0xA3	; 163
    59d8:	7d e0       	ldi	r23, 0x0D	; 13
    59da:	0e 94 81 28 	call	0x5102	; 0x5102 <_ZN3ros11NodeHandle_I15ArduinoHardwareLi25ELi25ELi512ELi512EE9subscribeIN8std_msgs15UInt8MultiArrayEEEbRNS_10SubscriberIT_EE>
    59de:	e1 2c       	mov	r14, r1
    59e0:	f1 2c       	mov	r15, r1
    59e2:	71 e0       	ldi	r23, 0x01	; 1
    59e4:	07 2f       	mov	r16, r23
    59e6:	11 2d       	mov	r17, r1
    59e8:	e0 92 b4 07 	sts	0x07B4, r14
    59ec:	f0 92 b5 07 	sts	0x07B5, r15
    59f0:	00 93 b6 07 	sts	0x07B6, r16
    59f4:	10 93 b7 07 	sts	0x07B7, r17
    59f8:	20 e0       	ldi	r18, 0x00	; 0
    59fa:	30 e8       	ldi	r19, 0x80	; 128
    59fc:	40 e0       	ldi	r20, 0x00	; 0
    59fe:	50 e0       	ldi	r21, 0x00	; 0
    5a00:	20 93 b8 07 	sts	0x07B8, r18
    5a04:	30 93 b9 07 	sts	0x07B9, r19
    5a08:	40 93 ba 07 	sts	0x07BA, r20
    5a0c:	50 93 bb 07 	sts	0x07BB, r21
    5a10:	80 e0       	ldi	r24, 0x00	; 0
    5a12:	90 e4       	ldi	r25, 0x40	; 64
    5a14:	a0 e0       	ldi	r26, 0x00	; 0
    5a16:	b0 e0       	ldi	r27, 0x00	; 0
    5a18:	80 93 bc 07 	sts	0x07BC, r24
    5a1c:	90 93 bd 07 	sts	0x07BD, r25
    5a20:	a0 93 be 07 	sts	0x07BE, r26
    5a24:	b0 93 bf 07 	sts	0x07BF, r27
    5a28:	0f 2e       	mov	r0, r31
    5a2a:	f9 ed       	ldi	r31, 0xD9	; 217
    5a2c:	af 2e       	mov	r10, r31
    5a2e:	f2 e5       	ldi	r31, 0x52	; 82
    5a30:	bf 2e       	mov	r11, r31
    5a32:	f0 e0       	ldi	r31, 0x00	; 0
    5a34:	cf 2e       	mov	r12, r31
    5a36:	f9 e3       	ldi	r31, 0x39	; 57
    5a38:	df 2e       	mov	r13, r31
    5a3a:	f0 2d       	mov	r31, r0
    5a3c:	a0 92 c0 07 	sts	0x07C0, r10
    5a40:	b0 92 c1 07 	sts	0x07C1, r11
    5a44:	c0 92 c2 07 	sts	0x07C2, r12
    5a48:	d0 92 c3 07 	sts	0x07C3, r13
    5a4c:	e0 92 cc 07 	sts	0x07CC, r14
    5a50:	f0 92 cd 07 	sts	0x07CD, r15
    5a54:	00 93 ce 07 	sts	0x07CE, r16
    5a58:	10 93 cf 07 	sts	0x07CF, r17
    5a5c:	20 93 d0 07 	sts	0x07D0, r18
    5a60:	30 93 d1 07 	sts	0x07D1, r19
    5a64:	40 93 d2 07 	sts	0x07D2, r20
    5a68:	50 93 d3 07 	sts	0x07D3, r21
    5a6c:	80 93 d4 07 	sts	0x07D4, r24
    5a70:	90 93 d5 07 	sts	0x07D5, r25
    5a74:	a0 93 d6 07 	sts	0x07D6, r26
    5a78:	b0 93 d7 07 	sts	0x07D7, r27
    5a7c:	a0 92 d8 07 	sts	0x07D8, r10
    5a80:	b0 92 d9 07 	sts	0x07D9, r11
    5a84:	c0 92 da 07 	sts	0x07DA, r12
    5a88:	d0 92 db 07 	sts	0x07DB, r13
    5a8c:	09 ea       	ldi	r16, 0xA9	; 169
    5a8e:	17 e0       	ldi	r17, 0x07	; 7
    5a90:	c8 01       	movw	r24, r16
    5a92:	60 e0       	ldi	r22, 0x00	; 0
    5a94:	70 e0       	ldi	r23, 0x00	; 0
    5a96:	4a e0       	ldi	r20, 0x0A	; 10
    5a98:	2b e0       	ldi	r18, 0x0B	; 11
    5a9a:	0e 94 0b 05 	call	0xa16	; 0xa16 <_ZN7Battery3setEP10CD74HC4067hh>
    5a9e:	f8 01       	movw	r30, r16
    5aa0:	13 ae       	std	Z+59, r1	; 0x3b
    5aa2:	8d e0       	ldi	r24, 0x0D	; 13
    5aa4:	61 e0       	ldi	r22, 0x01	; 1
    5aa6:	0e 94 4b 35 	call	0x6a96	; 0x6a96 <pinMode>
    5aaa:	85 ee       	ldi	r24, 0xE5	; 229
    5aac:	97 e0       	ldi	r25, 0x07	; 7
    5aae:	60 e8       	ldi	r22, 0x80	; 128
    5ab0:	40 e0       	ldi	r20, 0x00	; 0
    5ab2:	50 e0       	ldi	r21, 0x00	; 0
    5ab4:	20 e0       	ldi	r18, 0x00	; 0
    5ab6:	30 e0       	ldi	r19, 0x00	; 0
    5ab8:	0e 94 e0 06 	call	0xdc0	; 0xdc0 <_ZN8RoboClaw8DutyM1M2Ehjj>
    5abc:	85 ee       	ldi	r24, 0xE5	; 229
    5abe:	97 e0       	ldi	r25, 0x07	; 7
    5ac0:	60 e8       	ldi	r22, 0x80	; 128
    5ac2:	40 e0       	ldi	r20, 0x00	; 0
    5ac4:	0e 94 f4 05 	call	0xbe8	; 0xbe8 <_ZN8RoboClaw25SetMinVoltageLogicBatteryEhh>
    5ac8:	85 ee       	ldi	r24, 0xE5	; 229
    5aca:	97 e0       	ldi	r25, 0x07	; 7
    5acc:	60 e8       	ldi	r22, 0x80	; 128
    5ace:	40 e0       	ldi	r20, 0x00	; 0
    5ad0:	0e 94 cc 05 	call	0xb98	; 0xb98 <_ZN8RoboClaw24SetMinVoltageMainBatteryEhh>
    5ad4:	00 d0       	rcall	.+0      	; 0x5ad6 <main+0x1e2>
    5ad6:	0f 92       	push	r0
    5ad8:	20 91 bc 07 	lds	r18, 0x07BC
    5adc:	30 91 bd 07 	lds	r19, 0x07BD
    5ae0:	40 91 be 07 	lds	r20, 0x07BE
    5ae4:	50 91 bf 07 	lds	r21, 0x07BF
    5ae8:	e0 90 b4 07 	lds	r14, 0x07B4
    5aec:	f0 90 b5 07 	lds	r15, 0x07B5
    5af0:	00 91 b6 07 	lds	r16, 0x07B6
    5af4:	10 91 b7 07 	lds	r17, 0x07B7
    5af8:	a0 90 b8 07 	lds	r10, 0x07B8
    5afc:	b0 90 b9 07 	lds	r11, 0x07B9
    5b00:	c0 90 ba 07 	lds	r12, 0x07BA
    5b04:	d0 90 bb 07 	lds	r13, 0x07BB
    5b08:	66 e8       	ldi	r22, 0x86	; 134
    5b0a:	66 2e       	mov	r6, r22
    5b0c:	64 e2       	ldi	r22, 0x24	; 36
    5b0e:	76 2e       	mov	r7, r22
    5b10:	81 2c       	mov	r8, r1
    5b12:	91 2c       	mov	r9, r1
    5b14:	ed b7       	in	r30, 0x3d	; 61
    5b16:	fe b7       	in	r31, 0x3e	; 62
    5b18:	61 82       	std	Z+1, r6	; 0x01
    5b1a:	72 82       	std	Z+2, r7	; 0x02
    5b1c:	83 82       	std	Z+3, r8	; 0x03
    5b1e:	94 82       	std	Z+4, r9	; 0x04
    5b20:	85 ee       	ldi	r24, 0xE5	; 229
    5b22:	97 e0       	ldi	r25, 0x07	; 7
    5b24:	60 e8       	ldi	r22, 0x80	; 128
    5b26:	0e 94 1c 06 	call	0xc38	; 0xc38 <_ZN8RoboClaw14SetM1ConstantsEhmmmm>
    5b2a:	20 91 d4 07 	lds	r18, 0x07D4
    5b2e:	30 91 d5 07 	lds	r19, 0x07D5
    5b32:	40 91 d6 07 	lds	r20, 0x07D6
    5b36:	50 91 d7 07 	lds	r21, 0x07D7
    5b3a:	e0 90 cc 07 	lds	r14, 0x07CC
    5b3e:	f0 90 cd 07 	lds	r15, 0x07CD
    5b42:	00 91 ce 07 	lds	r16, 0x07CE
    5b46:	10 91 cf 07 	lds	r17, 0x07CF
    5b4a:	a0 90 d0 07 	lds	r10, 0x07D0
    5b4e:	b0 90 d1 07 	lds	r11, 0x07D1
    5b52:	c0 90 d2 07 	lds	r12, 0x07D2
    5b56:	d0 90 d3 07 	lds	r13, 0x07D3
    5b5a:	ed b7       	in	r30, 0x3d	; 61
    5b5c:	fe b7       	in	r31, 0x3e	; 62
    5b5e:	61 82       	std	Z+1, r6	; 0x01
    5b60:	72 82       	std	Z+2, r7	; 0x02
    5b62:	83 82       	std	Z+3, r8	; 0x03
    5b64:	94 82       	std	Z+4, r9	; 0x04
    5b66:	85 ee       	ldi	r24, 0xE5	; 229
    5b68:	97 e0       	ldi	r25, 0x07	; 7
    5b6a:	60 e8       	ldi	r22, 0x80	; 128
    5b6c:	0e 94 7e 06 	call	0xcfc	; 0xcfc <_ZN8RoboClaw14SetM2ConstantsEhmmmm>
    5b70:	0f 90       	pop	r0
    5b72:	0f 90       	pop	r0
    5b74:	0f 90       	pop	r0
    5b76:	0f 90       	pop	r0
    5b78:	36 e8       	ldi	r19, 0x86	; 134
    5b7a:	23 2e       	mov	r2, r19
    5b7c:	34 e2       	ldi	r19, 0x24	; 36
    5b7e:	33 2e       	mov	r3, r19
    5b80:	41 2c       	mov	r4, r1
    5b82:	51 2c       	mov	r5, r1
    5b84:	22 e0       	ldi	r18, 0x02	; 2
    5b86:	62 2e       	mov	r6, r18
    5b88:	71 2c       	mov	r7, r1
    5b8a:	6c 0e       	add	r6, r28
    5b8c:	7d 1e       	adc	r7, r29
    5b8e:	4e 01       	movw	r8, r28
    5b90:	08 94       	sec
    5b92:	81 1c       	adc	r8, r1
    5b94:	91 1c       	adc	r9, r1
    5b96:	0e 94 5b 34 	call	0x68b6	; 0x68b6 <millis>
    5b9a:	60 93 a5 07 	sts	0x07A5, r22
    5b9e:	70 93 a6 07 	sts	0x07A6, r23
    5ba2:	80 93 a7 07 	sts	0x07A7, r24
    5ba6:	90 93 a8 07 	sts	0x07A8, r25
    5baa:	0e 94 9d 23 	call	0x473a	; 0x473a <_ZN3IMU9updateIMUEv>
    5bae:	80 91 e4 07 	lds	r24, 0x07E4
    5bb2:	88 23       	and	r24, r24
    5bb4:	09 f4       	brne	.+2      	; 0x5bb8 <main+0x2c4>
    5bb6:	64 c0       	rjmp	.+200    	; 0x5c80 <main+0x38c>
    5bb8:	87 ee       	ldi	r24, 0xE7	; 231
    5bba:	97 e0       	ldi	r25, 0x07	; 7
    5bbc:	0e 94 a9 09 	call	0x1352	; 0x1352 <_ZN17StrongDriveOutput3getEv>
    5bc0:	88 23       	and	r24, r24
    5bc2:	09 f0       	breq	.+2      	; 0x5bc6 <main+0x2d2>
    5bc4:	6a c0       	rjmp	.+212    	; 0x5c9a <main+0x3a6>
    5bc6:	87 ee       	ldi	r24, 0xE7	; 231
    5bc8:	97 e0       	ldi	r25, 0x07	; 7
    5bca:	0e 94 67 09 	call	0x12ce	; 0x12ce <_ZN17StrongDriveOutput2onEv>
    5bce:	85 ee       	ldi	r24, 0xE5	; 229
    5bd0:	97 e0       	ldi	r25, 0x07	; 7
    5bd2:	60 e8       	ldi	r22, 0x80	; 128
    5bd4:	40 e0       	ldi	r20, 0x00	; 0
    5bd6:	0e 94 f4 05 	call	0xbe8	; 0xbe8 <_ZN8RoboClaw25SetMinVoltageLogicBatteryEhh>
    5bda:	85 ee       	ldi	r24, 0xE5	; 229
    5bdc:	97 e0       	ldi	r25, 0x07	; 7
    5bde:	60 e8       	ldi	r22, 0x80	; 128
    5be0:	40 e0       	ldi	r20, 0x00	; 0
    5be2:	0e 94 cc 05 	call	0xb98	; 0xb98 <_ZN8RoboClaw24SetMinVoltageMainBatteryEhh>
    5be6:	00 d0       	rcall	.+0      	; 0x5be8 <main+0x2f4>
    5be8:	0f 92       	push	r0
    5bea:	20 91 bc 07 	lds	r18, 0x07BC
    5bee:	30 91 bd 07 	lds	r19, 0x07BD
    5bf2:	40 91 be 07 	lds	r20, 0x07BE
    5bf6:	50 91 bf 07 	lds	r21, 0x07BF
    5bfa:	e0 90 b4 07 	lds	r14, 0x07B4
    5bfe:	f0 90 b5 07 	lds	r15, 0x07B5
    5c02:	00 91 b6 07 	lds	r16, 0x07B6
    5c06:	10 91 b7 07 	lds	r17, 0x07B7
    5c0a:	a0 90 b8 07 	lds	r10, 0x07B8
    5c0e:	b0 90 b9 07 	lds	r11, 0x07B9
    5c12:	c0 90 ba 07 	lds	r12, 0x07BA
    5c16:	d0 90 bb 07 	lds	r13, 0x07BB
    5c1a:	ed b7       	in	r30, 0x3d	; 61
    5c1c:	fe b7       	in	r31, 0x3e	; 62
    5c1e:	21 82       	std	Z+1, r2	; 0x01
    5c20:	32 82       	std	Z+2, r3	; 0x02
    5c22:	43 82       	std	Z+3, r4	; 0x03
    5c24:	54 82       	std	Z+4, r5	; 0x04
    5c26:	85 ee       	ldi	r24, 0xE5	; 229
    5c28:	97 e0       	ldi	r25, 0x07	; 7
    5c2a:	60 e8       	ldi	r22, 0x80	; 128
    5c2c:	0e 94 1c 06 	call	0xc38	; 0xc38 <_ZN8RoboClaw14SetM1ConstantsEhmmmm>
    5c30:	20 91 d4 07 	lds	r18, 0x07D4
    5c34:	30 91 d5 07 	lds	r19, 0x07D5
    5c38:	40 91 d6 07 	lds	r20, 0x07D6
    5c3c:	50 91 d7 07 	lds	r21, 0x07D7
    5c40:	e0 90 cc 07 	lds	r14, 0x07CC
    5c44:	f0 90 cd 07 	lds	r15, 0x07CD
    5c48:	00 91 ce 07 	lds	r16, 0x07CE
    5c4c:	10 91 cf 07 	lds	r17, 0x07CF
    5c50:	a0 90 d0 07 	lds	r10, 0x07D0
    5c54:	b0 90 d1 07 	lds	r11, 0x07D1
    5c58:	c0 90 d2 07 	lds	r12, 0x07D2
    5c5c:	d0 90 d3 07 	lds	r13, 0x07D3
    5c60:	ed b7       	in	r30, 0x3d	; 61
    5c62:	fe b7       	in	r31, 0x3e	; 62
    5c64:	21 82       	std	Z+1, r2	; 0x01
    5c66:	32 82       	std	Z+2, r3	; 0x02
    5c68:	43 82       	std	Z+3, r4	; 0x03
    5c6a:	54 82       	std	Z+4, r5	; 0x04
    5c6c:	85 ee       	ldi	r24, 0xE5	; 229
    5c6e:	97 e0       	ldi	r25, 0x07	; 7
    5c70:	60 e8       	ldi	r22, 0x80	; 128
    5c72:	0e 94 7e 06 	call	0xcfc	; 0xcfc <_ZN8RoboClaw14SetM2ConstantsEhmmmm>
    5c76:	0f 90       	pop	r0
    5c78:	0f 90       	pop	r0
    5c7a:	0f 90       	pop	r0
    5c7c:	0f 90       	pop	r0
    5c7e:	0d c0       	rjmp	.+26     	; 0x5c9a <main+0x3a6>
    5c80:	87 ee       	ldi	r24, 0xE7	; 231
    5c82:	97 e0       	ldi	r25, 0x07	; 7
    5c84:	0e 94 88 09 	call	0x1310	; 0x1310 <_ZN17StrongDriveOutput3offEv>
    5c88:	85 ee       	ldi	r24, 0xE5	; 229
    5c8a:	97 e0       	ldi	r25, 0x07	; 7
    5c8c:	60 e8       	ldi	r22, 0x80	; 128
    5c8e:	40 e0       	ldi	r20, 0x00	; 0
    5c90:	50 e0       	ldi	r21, 0x00	; 0
    5c92:	20 e0       	ldi	r18, 0x00	; 0
    5c94:	30 e0       	ldi	r19, 0x00	; 0
    5c96:	0e 94 e0 06 	call	0xdc0	; 0xdc0 <_ZN8RoboClaw8DutyM1M2Ehjj>
    5c9a:	20 91 a1 07 	lds	r18, 0x07A1
    5c9e:	30 91 a2 07 	lds	r19, 0x07A2
    5ca2:	40 91 a3 07 	lds	r20, 0x07A3
    5ca6:	50 91 a4 07 	lds	r21, 0x07A4
    5caa:	80 91 a5 07 	lds	r24, 0x07A5
    5cae:	90 91 a6 07 	lds	r25, 0x07A6
    5cb2:	a0 91 a7 07 	lds	r26, 0x07A7
    5cb6:	b0 91 a8 07 	lds	r27, 0x07A8
    5cba:	82 17       	cp	r24, r18
    5cbc:	93 07       	cpc	r25, r19
    5cbe:	a4 07       	cpc	r26, r20
    5cc0:	b5 07       	cpc	r27, r21
    5cc2:	08 f4       	brcc	.+2      	; 0x5cc6 <main+0x3d2>
    5cc4:	55 c0       	rjmp	.+170    	; 0x5d70 <main+0x47c>
    5cc6:	80 91 e4 07 	lds	r24, 0x07E4
    5cca:	88 23       	and	r24, r24
    5ccc:	09 f4       	brne	.+2      	; 0x5cd0 <main+0x3dc>
    5cce:	50 c0       	rjmp	.+160    	; 0x5d70 <main+0x47c>
    5cd0:	85 ee       	ldi	r24, 0xE5	; 229
    5cd2:	97 e0       	ldi	r25, 0x07	; 7
    5cd4:	60 e8       	ldi	r22, 0x80	; 128
    5cd6:	a4 01       	movw	r20, r8
    5cd8:	93 01       	movw	r18, r6
    5cda:	0e 94 60 08 	call	0x10c0	; 0x10c0 <_ZN8RoboClaw9ReadEncM1EhPhPb>
    5cde:	60 93 c4 07 	sts	0x07C4, r22
    5ce2:	70 93 c5 07 	sts	0x07C5, r23
    5ce6:	80 93 c6 07 	sts	0x07C6, r24
    5cea:	90 93 c7 07 	sts	0x07C7, r25
    5cee:	85 ee       	ldi	r24, 0xE5	; 229
    5cf0:	97 e0       	ldi	r25, 0x07	; 7
    5cf2:	60 e8       	ldi	r22, 0x80	; 128
    5cf4:	a4 01       	movw	r20, r8
    5cf6:	93 01       	movw	r18, r6
    5cf8:	0e 94 55 08 	call	0x10aa	; 0x10aa <_ZN8RoboClaw9ReadEncM2EhPhPb>
    5cfc:	60 93 dc 07 	sts	0x07DC, r22
    5d00:	70 93 dd 07 	sts	0x07DD, r23
    5d04:	80 93 de 07 	sts	0x07DE, r24
    5d08:	90 93 df 07 	sts	0x07DF, r25
    5d0c:	85 ee       	ldi	r24, 0xE5	; 229
    5d0e:	97 e0       	ldi	r25, 0x07	; 7
    5d10:	60 e8       	ldi	r22, 0x80	; 128
    5d12:	a4 01       	movw	r20, r8
    5d14:	93 01       	movw	r18, r6
    5d16:	0e 94 4a 08 	call	0x1094	; 0x1094 <_ZN8RoboClaw12ReadISpeedM1EhPhPb>
    5d1a:	60 93 c8 07 	sts	0x07C8, r22
    5d1e:	70 93 c9 07 	sts	0x07C9, r23
    5d22:	80 93 ca 07 	sts	0x07CA, r24
    5d26:	90 93 cb 07 	sts	0x07CB, r25
    5d2a:	85 ee       	ldi	r24, 0xE5	; 229
    5d2c:	97 e0       	ldi	r25, 0x07	; 7
    5d2e:	60 e8       	ldi	r22, 0x80	; 128
    5d30:	a4 01       	movw	r20, r8
    5d32:	93 01       	movw	r18, r6
    5d34:	0e 94 3f 08 	call	0x107e	; 0x107e <_ZN8RoboClaw12ReadISpeedM2EhPhPb>
    5d38:	60 93 e0 07 	sts	0x07E0, r22
    5d3c:	70 93 e1 07 	sts	0x07E1, r23
    5d40:	80 93 e2 07 	sts	0x07E2, r24
    5d44:	90 93 e3 07 	sts	0x07E3, r25
    5d48:	80 91 a1 07 	lds	r24, 0x07A1
    5d4c:	90 91 a2 07 	lds	r25, 0x07A2
    5d50:	a0 91 a3 07 	lds	r26, 0x07A3
    5d54:	b0 91 a4 07 	lds	r27, 0x07A4
    5d58:	8c 59       	subi	r24, 0x9C	; 156
    5d5a:	9f 4f       	sbci	r25, 0xFF	; 255
    5d5c:	af 4f       	sbci	r26, 0xFF	; 255
    5d5e:	bf 4f       	sbci	r27, 0xFF	; 255
    5d60:	80 93 a1 07 	sts	0x07A1, r24
    5d64:	90 93 a2 07 	sts	0x07A2, r25
    5d68:	a0 93 a3 07 	sts	0x07A3, r26
    5d6c:	b0 93 a4 07 	sts	0x07A4, r27
    5d70:	20 91 6c 0d 	lds	r18, 0x0D6C
    5d74:	30 91 6d 0d 	lds	r19, 0x0D6D
    5d78:	40 91 6e 0d 	lds	r20, 0x0D6E
    5d7c:	50 91 6f 0d 	lds	r21, 0x0D6F
    5d80:	80 91 a5 07 	lds	r24, 0x07A5
    5d84:	90 91 a6 07 	lds	r25, 0x07A6
    5d88:	a0 91 a7 07 	lds	r26, 0x07A7
    5d8c:	b0 91 a8 07 	lds	r27, 0x07A8
    5d90:	82 17       	cp	r24, r18
    5d92:	93 07       	cpc	r25, r19
    5d94:	a4 07       	cpc	r26, r20
    5d96:	b5 07       	cpc	r27, r21
    5d98:	d0 f0       	brcs	.+52     	; 0x5dce <main+0x4da>
    5d9a:	0e 94 09 26 	call	0x4c12	; 0x4c12 <_Z7publishv>
    5d9e:	8d e0       	ldi	r24, 0x0D	; 13
    5da0:	60 91 6e 0c 	lds	r22, 0x0C6E
    5da4:	0e 94 6f 35 	call	0x6ade	; 0x6ade <digitalWrite>
    5da8:	80 91 6c 0d 	lds	r24, 0x0D6C
    5dac:	90 91 6d 0d 	lds	r25, 0x0D6D
    5db0:	a0 91 6e 0d 	lds	r26, 0x0D6E
    5db4:	b0 91 6f 0d 	lds	r27, 0x0D6F
    5db8:	c2 96       	adiw	r24, 0x32	; 50
    5dba:	a1 1d       	adc	r26, r1
    5dbc:	b1 1d       	adc	r27, r1
    5dbe:	80 93 6c 0d 	sts	0x0D6C, r24
    5dc2:	90 93 6d 0d 	sts	0x0D6D, r25
    5dc6:	a0 93 6e 0d 	sts	0x0D6E, r26
    5dca:	b0 93 6f 0d 	sts	0x0D6F, r27
    5dce:	80 91 6e 0c 	lds	r24, 0x0C6E
    5dd2:	88 23       	and	r24, r24
    5dd4:	59 f4       	brne	.+22     	; 0x5dec <main+0x4f8>
    5dd6:	10 92 e4 07 	sts	0x07E4, r1
    5dda:	85 ee       	ldi	r24, 0xE5	; 229
    5ddc:	97 e0       	ldi	r25, 0x07	; 7
    5dde:	60 e8       	ldi	r22, 0x80	; 128
    5de0:	40 e0       	ldi	r20, 0x00	; 0
    5de2:	50 e0       	ldi	r21, 0x00	; 0
    5de4:	20 e0       	ldi	r18, 0x00	; 0
    5de6:	30 e0       	ldi	r19, 0x00	; 0
    5de8:	0e 94 e0 06 	call	0xdc0	; 0xdc0 <_ZN8RoboClaw8DutyM1M2Ehjj>
    5dec:	8c ee       	ldi	r24, 0xEC	; 236
    5dee:	97 e0       	ldi	r25, 0x07	; 7
    5df0:	0e 94 94 2a 	call	0x5528	; 0x5528 <_ZN3ros11NodeHandle_I15ArduinoHardwareLi25ELi25ELi512ELi512EE8spinOnceEv>
    5df4:	d0 ce       	rjmp	.-608    	; 0x5b96 <main+0x2a2>

00005df6 <_ZN3ros11NodeHandle_I15ArduinoHardwareLi25ELi25ELi512ELi512EE3logEcPKc>:
    5df6:	df 93       	push	r29
    5df8:	cf 93       	push	r28
    5dfa:	00 d0       	rcall	.+0      	; 0x5dfc <_ZN3ros11NodeHandle_I15ArduinoHardwareLi25ELi25ELi512ELi512EE3logEcPKc+0x6>
    5dfc:	0f 92       	push	r0
    5dfe:	0f 92       	push	r0
    5e00:	cd b7       	in	r28, 0x3d	; 61
    5e02:	de b7       	in	r29, 0x3e	; 62
    5e04:	22 eb       	ldi	r18, 0xB2	; 178
    5e06:	35 e0       	ldi	r19, 0x05	; 5
    5e08:	3a 83       	std	Y+2, r19	; 0x02
    5e0a:	29 83       	std	Y+1, r18	; 0x01
    5e0c:	6b 83       	std	Y+3, r22	; 0x03
    5e0e:	5d 83       	std	Y+5, r21	; 0x05
    5e10:	4c 83       	std	Y+4, r20	; 0x04
    5e12:	dc 01       	movw	r26, r24
    5e14:	ed 91       	ld	r30, X+
    5e16:	fc 91       	ld	r31, X
    5e18:	01 90       	ld	r0, Z+
    5e1a:	f0 81       	ld	r31, Z
    5e1c:	e0 2d       	mov	r30, r0
    5e1e:	67 e0       	ldi	r22, 0x07	; 7
    5e20:	70 e0       	ldi	r23, 0x00	; 0
    5e22:	ae 01       	movw	r20, r28
    5e24:	4f 5f       	subi	r20, 0xFF	; 255
    5e26:	5f 4f       	sbci	r21, 0xFF	; 255
    5e28:	19 95       	eicall
    5e2a:	0f 90       	pop	r0
    5e2c:	0f 90       	pop	r0
    5e2e:	0f 90       	pop	r0
    5e30:	0f 90       	pop	r0
    5e32:	0f 90       	pop	r0
    5e34:	cf 91       	pop	r28
    5e36:	df 91       	pop	r29
    5e38:	08 95       	ret

00005e3a <_ZN3ros11NodeHandle_I15ArduinoHardwareLi25ELi25ELi512ELi512EE8logerrorEPKc>:
    5e3a:	ab 01       	movw	r20, r22
    5e3c:	63 e0       	ldi	r22, 0x03	; 3
    5e3e:	0e 94 fb 2e 	call	0x5df6	; 0x5df6 <_ZN3ros11NodeHandle_I15ArduinoHardwareLi25ELi25ELi512ELi512EE3logEcPKc>
    5e42:	08 95       	ret

00005e44 <_ZN3ros11NodeHandle_I15ArduinoHardwareLi25ELi25ELi512ELi512EE7publishEiPKNS_3MsgE>:
    5e44:	cf 92       	push	r12
    5e46:	df 92       	push	r13
    5e48:	ef 92       	push	r14
    5e4a:	ff 92       	push	r15
    5e4c:	0f 93       	push	r16
    5e4e:	1f 93       	push	r17
    5e50:	cf 93       	push	r28
    5e52:	df 93       	push	r29
    5e54:	ec 01       	movw	r28, r24
    5e56:	e6 2e       	mov	r14, r22
    5e58:	ca 01       	movw	r24, r20
    5e5a:	fe 01       	movw	r30, r28
    5e5c:	ee 57       	subi	r30, 0x7E	; 126
    5e5e:	fb 4f       	sbci	r31, 0xFB	; 251
    5e60:	20 81       	ld	r18, Z
    5e62:	22 23       	and	r18, r18
    5e64:	09 f4       	brne	.+2      	; 0x5e68 <_ZN3ros11NodeHandle_I15ArduinoHardwareLi25ELi25ELi512ELi512EE7publishEiPKNS_3MsgE+0x24>
    5e66:	63 c0       	rjmp	.+198    	; 0x5f2e <_ZN3ros11NodeHandle_I15ArduinoHardwareLi25ELi25ELi512ELi512EE7publishEiPKNS_3MsgE+0xea>
    5e68:	da 01       	movw	r26, r20
    5e6a:	ed 91       	ld	r30, X+
    5e6c:	fc 91       	ld	r31, X
    5e6e:	9e 01       	movw	r18, r28
    5e70:	26 5e       	subi	r18, 0xE6	; 230
    5e72:	3d 4f       	sbci	r19, 0xFD	; 253
    5e74:	01 90       	ld	r0, Z+
    5e76:	f0 81       	ld	r31, Z
    5e78:	e0 2d       	mov	r30, r0
    5e7a:	b9 01       	movw	r22, r18
    5e7c:	19 95       	eicall
    5e7e:	fe 01       	movw	r30, r28
    5e80:	ec 5e       	subi	r30, 0xEC	; 236
    5e82:	fd 4f       	sbci	r31, 0xFD	; 253
    5e84:	2f ef       	ldi	r18, 0xFF	; 255
    5e86:	20 83       	st	Z, r18
    5e88:	fe 01       	movw	r30, r28
    5e8a:	eb 5e       	subi	r30, 0xEB	; 235
    5e8c:	fd 4f       	sbci	r31, 0xFD	; 253
    5e8e:	20 83       	st	Z, r18
    5e90:	fe 01       	movw	r30, r28
    5e92:	ea 5e       	subi	r30, 0xEA	; 234
    5e94:	fd 4f       	sbci	r31, 0xFD	; 253
    5e96:	e0 82       	st	Z, r14
    5e98:	de 01       	movw	r26, r28
    5e9a:	a9 5e       	subi	r26, 0xE9	; 233
    5e9c:	bd 4f       	sbci	r27, 0xFD	; 253
    5e9e:	1c 92       	st	X, r1
    5ea0:	de 01       	movw	r26, r28
    5ea2:	a8 5e       	subi	r26, 0xE8	; 232
    5ea4:	bd 4f       	sbci	r27, 0xFD	; 253
    5ea6:	8c 93       	st	X, r24
    5ea8:	de 01       	movw	r26, r28
    5eaa:	a7 5e       	subi	r26, 0xE7	; 231
    5eac:	bd 4f       	sbci	r27, 0xFD	; 253
    5eae:	1c 92       	st	X, r1
    5eb0:	42 e0       	ldi	r20, 0x02	; 2
    5eb2:	50 e0       	ldi	r21, 0x00	; 0
    5eb4:	20 e0       	ldi	r18, 0x00	; 0
    5eb6:	30 e0       	ldi	r19, 0x00	; 0
    5eb8:	bc 01       	movw	r22, r24
    5eba:	6b 5f       	subi	r22, 0xFB	; 251
    5ebc:	7f 4f       	sbci	r23, 0xFF	; 255
    5ebe:	05 c0       	rjmp	.+10     	; 0x5eca <_ZN3ros11NodeHandle_I15ArduinoHardwareLi25ELi25ELi512ELi512EE7publishEiPKNS_3MsgE+0x86>
    5ec0:	a1 91       	ld	r26, Z+
    5ec2:	2a 0f       	add	r18, r26
    5ec4:	31 1d       	adc	r19, r1
    5ec6:	4f 5f       	subi	r20, 0xFF	; 255
    5ec8:	5f 4f       	sbci	r21, 0xFF	; 255
    5eca:	64 17       	cp	r22, r20
    5ecc:	75 07       	cpc	r23, r21
    5ece:	c4 f7       	brge	.-16     	; 0x5ec0 <_ZN3ros11NodeHandle_I15ArduinoHardwareLi25ELi25ELi512ELi512EE7publishEiPKNS_3MsgE+0x7c>
    5ed0:	fe 01       	movw	r30, r28
    5ed2:	e8 0f       	add	r30, r24
    5ed4:	f9 1f       	adc	r31, r25
    5ed6:	e6 5e       	subi	r30, 0xE6	; 230
    5ed8:	fd 4f       	sbci	r31, 0xFD	; 253
    5eda:	20 95       	com	r18
    5edc:	20 83       	st	Z, r18
    5ede:	8c 01       	movw	r16, r24
    5ee0:	09 5f       	subi	r16, 0xF9	; 249
    5ee2:	1f 4f       	sbci	r17, 0xFF	; 255
    5ee4:	b2 e0       	ldi	r27, 0x02	; 2
    5ee6:	01 30       	cpi	r16, 0x01	; 1
    5ee8:	1b 07       	cpc	r17, r27
    5eea:	e4 f4       	brge	.+56     	; 0x5f24 <_ZN3ros11NodeHandle_I15ArduinoHardwareLi25ELi25ELi512ELi512EE7publishEiPKNS_3MsgE+0xe0>
    5eec:	e4 e1       	ldi	r30, 0x14	; 20
    5eee:	ce 2e       	mov	r12, r30
    5ef0:	e2 e0       	ldi	r30, 0x02	; 2
    5ef2:	de 2e       	mov	r13, r30
    5ef4:	cc 0e       	add	r12, r28
    5ef6:	dd 1e       	adc	r13, r29
    5ef8:	ee 24       	eor	r14, r14
    5efa:	ff 24       	eor	r15, r15
    5efc:	0f c0       	rjmp	.+30     	; 0x5f1c <_ZN3ros11NodeHandle_I15ArduinoHardwareLi25ELi25ELi512ELi512EE7publishEiPKNS_3MsgE+0xd8>
    5efe:	8a 81       	ldd	r24, Y+2	; 0x02
    5f00:	9b 81       	ldd	r25, Y+3	; 0x03
    5f02:	f6 01       	movw	r30, r12
    5f04:	61 91       	ld	r22, Z+
    5f06:	6f 01       	movw	r12, r30
    5f08:	dc 01       	movw	r26, r24
    5f0a:	ed 91       	ld	r30, X+
    5f0c:	fc 91       	ld	r31, X
    5f0e:	01 90       	ld	r0, Z+
    5f10:	f0 81       	ld	r31, Z
    5f12:	e0 2d       	mov	r30, r0
    5f14:	19 95       	eicall
    5f16:	08 94       	sec
    5f18:	e1 1c       	adc	r14, r1
    5f1a:	f1 1c       	adc	r15, r1
    5f1c:	e0 16       	cp	r14, r16
    5f1e:	f1 06       	cpc	r15, r17
    5f20:	74 f3       	brlt	.-36     	; 0x5efe <_ZN3ros11NodeHandle_I15ArduinoHardwareLi25ELi25ELi512ELi512EE7publishEiPKNS_3MsgE+0xba>
    5f22:	07 c0       	rjmp	.+14     	; 0x5f32 <_ZN3ros11NodeHandle_I15ArduinoHardwareLi25ELi25ELi512ELi512EE7publishEiPKNS_3MsgE+0xee>
    5f24:	ce 01       	movw	r24, r28
    5f26:	64 ee       	ldi	r22, 0xE4	; 228
    5f28:	74 e0       	ldi	r23, 0x04	; 4
    5f2a:	0e 94 1d 2f 	call	0x5e3a	; 0x5e3a <_ZN3ros11NodeHandle_I15ArduinoHardwareLi25ELi25ELi512ELi512EE8logerrorEPKc>
    5f2e:	00 e0       	ldi	r16, 0x00	; 0
    5f30:	10 e0       	ldi	r17, 0x00	; 0
    5f32:	c8 01       	movw	r24, r16
    5f34:	df 91       	pop	r29
    5f36:	cf 91       	pop	r28
    5f38:	1f 91       	pop	r17
    5f3a:	0f 91       	pop	r16
    5f3c:	ff 90       	pop	r15
    5f3e:	ef 90       	pop	r14
    5f40:	df 90       	pop	r13
    5f42:	cf 90       	pop	r12
    5f44:	08 95       	ret

00005f46 <_GLOBAL__I__ZN3IMU11SENSOR_SIGNE>:
    5f46:	81 e0       	ldi	r24, 0x01	; 1
    5f48:	90 e0       	ldi	r25, 0x00	; 0
    5f4a:	0e 94 36 24 	call	0x486c	; 0x486c <_Z41__static_initialization_and_destruction_0ii.clone.11>
    5f4e:	08 95       	ret

00005f50 <_GLOBAL__D__ZN3IMU11SENSOR_SIGNE>:
    5f50:	80 e0       	ldi	r24, 0x00	; 0
    5f52:	90 e0       	ldi	r25, 0x00	; 0
    5f54:	0e 94 36 24 	call	0x486c	; 0x486c <_Z41__static_initialization_and_destruction_0ii.clone.11>
    5f58:	08 95       	ret

00005f5a <_ZN14HardwareSerial9availableEv>:
    5f5a:	fc 01       	movw	r30, r24
    5f5c:	22 81       	ldd	r18, Z+2	; 0x02
    5f5e:	33 81       	ldd	r19, Z+3	; 0x03
    5f60:	f9 01       	movw	r30, r18
    5f62:	e0 58       	subi	r30, 0x80	; 128
    5f64:	ff 4f       	sbci	r31, 0xFF	; 255
    5f66:	80 81       	ld	r24, Z
    5f68:	91 81       	ldd	r25, Z+1	; 0x01
    5f6a:	80 58       	subi	r24, 0x80	; 128
    5f6c:	9f 4f       	sbci	r25, 0xFF	; 255
    5f6e:	2e 57       	subi	r18, 0x7E	; 126
    5f70:	3f 4f       	sbci	r19, 0xFF	; 255
    5f72:	f9 01       	movw	r30, r18
    5f74:	20 81       	ld	r18, Z
    5f76:	31 81       	ldd	r19, Z+1	; 0x01
    5f78:	82 1b       	sub	r24, r18
    5f7a:	93 0b       	sbc	r25, r19
    5f7c:	60 e8       	ldi	r22, 0x80	; 128
    5f7e:	70 e0       	ldi	r23, 0x00	; 0
    5f80:	0e 94 13 41 	call	0x8226	; 0x8226 <__divmodhi4>
    5f84:	08 95       	ret

00005f86 <_ZN14HardwareSerial4peekEv>:
    5f86:	fc 01       	movw	r30, r24
    5f88:	82 81       	ldd	r24, Z+2	; 0x02
    5f8a:	93 81       	ldd	r25, Z+3	; 0x03
    5f8c:	fc 01       	movw	r30, r24
    5f8e:	ee 57       	subi	r30, 0x7E	; 126
    5f90:	ff 4f       	sbci	r31, 0xFF	; 255
    5f92:	20 81       	ld	r18, Z
    5f94:	31 81       	ldd	r19, Z+1	; 0x01
    5f96:	fc 01       	movw	r30, r24
    5f98:	e0 58       	subi	r30, 0x80	; 128
    5f9a:	ff 4f       	sbci	r31, 0xFF	; 255
    5f9c:	40 81       	ld	r20, Z
    5f9e:	51 81       	ldd	r21, Z+1	; 0x01
    5fa0:	42 17       	cp	r20, r18
    5fa2:	53 07       	cpc	r21, r19
    5fa4:	31 f0       	breq	.+12     	; 0x5fb2 <_ZN14HardwareSerial4peekEv+0x2c>
    5fa6:	82 0f       	add	r24, r18
    5fa8:	93 1f       	adc	r25, r19
    5faa:	fc 01       	movw	r30, r24
    5fac:	20 81       	ld	r18, Z
    5fae:	30 e0       	ldi	r19, 0x00	; 0
    5fb0:	02 c0       	rjmp	.+4      	; 0x5fb6 <_ZN14HardwareSerial4peekEv+0x30>
    5fb2:	2f ef       	ldi	r18, 0xFF	; 255
    5fb4:	3f ef       	ldi	r19, 0xFF	; 255
    5fb6:	c9 01       	movw	r24, r18
    5fb8:	08 95       	ret

00005fba <_ZN14HardwareSerial4readEv>:
    5fba:	dc 01       	movw	r26, r24
    5fbc:	12 96       	adiw	r26, 0x02	; 2
    5fbe:	2d 91       	ld	r18, X+
    5fc0:	3c 91       	ld	r19, X
    5fc2:	13 97       	sbiw	r26, 0x03	; 3
    5fc4:	f9 01       	movw	r30, r18
    5fc6:	ee 57       	subi	r30, 0x7E	; 126
    5fc8:	ff 4f       	sbci	r31, 0xFF	; 255
    5fca:	80 81       	ld	r24, Z
    5fcc:	91 81       	ldd	r25, Z+1	; 0x01
    5fce:	d9 01       	movw	r26, r18
    5fd0:	a0 58       	subi	r26, 0x80	; 128
    5fd2:	bf 4f       	sbci	r27, 0xFF	; 255
    5fd4:	4d 91       	ld	r20, X+
    5fd6:	5c 91       	ld	r21, X
    5fd8:	11 97       	sbiw	r26, 0x01	; 1
    5fda:	48 17       	cp	r20, r24
    5fdc:	59 07       	cpc	r21, r25
    5fde:	69 f0       	breq	.+26     	; 0x5ffa <_ZN14HardwareSerial4readEv+0x40>
    5fe0:	28 0f       	add	r18, r24
    5fe2:	39 1f       	adc	r19, r25
    5fe4:	d9 01       	movw	r26, r18
    5fe6:	2c 91       	ld	r18, X
    5fe8:	01 96       	adiw	r24, 0x01	; 1
    5fea:	60 e8       	ldi	r22, 0x80	; 128
    5fec:	70 e0       	ldi	r23, 0x00	; 0
    5fee:	0e 94 13 41 	call	0x8226	; 0x8226 <__divmodhi4>
    5ff2:	91 83       	std	Z+1, r25	; 0x01
    5ff4:	80 83       	st	Z, r24
    5ff6:	30 e0       	ldi	r19, 0x00	; 0
    5ff8:	02 c0       	rjmp	.+4      	; 0x5ffe <_ZN14HardwareSerial4readEv+0x44>
    5ffa:	2f ef       	ldi	r18, 0xFF	; 255
    5ffc:	3f ef       	ldi	r19, 0xFF	; 255
    5ffe:	c9 01       	movw	r24, r18
    6000:	08 95       	ret

00006002 <_ZN14HardwareSerial5flushEv>:
    6002:	dc 01       	movw	r26, r24
    6004:	12 96       	adiw	r26, 0x02	; 2
    6006:	8d 91       	ld	r24, X+
    6008:	9c 91       	ld	r25, X
    600a:	13 97       	sbiw	r26, 0x03	; 3
    600c:	fc 01       	movw	r30, r24
    600e:	e0 58       	subi	r30, 0x80	; 128
    6010:	ff 4f       	sbci	r31, 0xFF	; 255
    6012:	8e 57       	subi	r24, 0x7E	; 126
    6014:	9f 4f       	sbci	r25, 0xFF	; 255
    6016:	dc 01       	movw	r26, r24
    6018:	8d 91       	ld	r24, X+
    601a:	9c 91       	ld	r25, X
    601c:	11 97       	sbiw	r26, 0x01	; 1
    601e:	91 83       	std	Z+1, r25	; 0x01
    6020:	80 83       	st	Z, r24
    6022:	08 95       	ret

00006024 <_ZN14HardwareSerial5writeEh>:
    6024:	fc 01       	movw	r30, r24
    6026:	a0 85       	ldd	r26, Z+8	; 0x08
    6028:	b1 85       	ldd	r27, Z+9	; 0x09
    602a:	21 89       	ldd	r18, Z+17	; 0x11
    602c:	8c 91       	ld	r24, X
    602e:	90 e0       	ldi	r25, 0x00	; 0
    6030:	02 2e       	mov	r0, r18
    6032:	02 c0       	rjmp	.+4      	; 0x6038 <_ZN14HardwareSerial5writeEh+0x14>
    6034:	95 95       	asr	r25
    6036:	87 95       	ror	r24
    6038:	0a 94       	dec	r0
    603a:	e2 f7       	brpl	.-8      	; 0x6034 <_ZN14HardwareSerial5writeEh+0x10>
    603c:	80 ff       	sbrs	r24, 0
    603e:	f6 cf       	rjmp	.-20     	; 0x602c <_ZN14HardwareSerial5writeEh+0x8>
    6040:	04 84       	ldd	r0, Z+12	; 0x0c
    6042:	f5 85       	ldd	r31, Z+13	; 0x0d
    6044:	e0 2d       	mov	r30, r0
    6046:	60 83       	st	Z, r22
    6048:	08 95       	ret

0000604a <_Z10store_charhP11ring_buffer>:
    604a:	1f 93       	push	r17
    604c:	cf 93       	push	r28
    604e:	df 93       	push	r29
    6050:	18 2f       	mov	r17, r24
    6052:	9b 01       	movw	r18, r22
    6054:	eb 01       	movw	r28, r22
    6056:	c0 58       	subi	r28, 0x80	; 128
    6058:	df 4f       	sbci	r29, 0xFF	; 255
    605a:	e8 81       	ld	r30, Y
    605c:	f9 81       	ldd	r31, Y+1	; 0x01
    605e:	cf 01       	movw	r24, r30
    6060:	01 96       	adiw	r24, 0x01	; 1
    6062:	60 e8       	ldi	r22, 0x80	; 128
    6064:	70 e0       	ldi	r23, 0x00	; 0
    6066:	0e 94 13 41 	call	0x8226	; 0x8226 <__divmodhi4>
    606a:	ac 01       	movw	r20, r24
    606c:	d9 01       	movw	r26, r18
    606e:	ae 57       	subi	r26, 0x7E	; 126
    6070:	bf 4f       	sbci	r27, 0xFF	; 255
    6072:	8d 91       	ld	r24, X+
    6074:	9c 91       	ld	r25, X
    6076:	11 97       	sbiw	r26, 0x01	; 1
    6078:	48 17       	cp	r20, r24
    607a:	59 07       	cpc	r21, r25
    607c:	29 f0       	breq	.+10     	; 0x6088 <_Z10store_charhP11ring_buffer+0x3e>
    607e:	e2 0f       	add	r30, r18
    6080:	f3 1f       	adc	r31, r19
    6082:	10 83       	st	Z, r17
    6084:	59 83       	std	Y+1, r21	; 0x01
    6086:	48 83       	st	Y, r20
    6088:	df 91       	pop	r29
    608a:	cf 91       	pop	r28
    608c:	1f 91       	pop	r17
    608e:	08 95       	ret

00006090 <__vector_25>:
    6090:	1f 92       	push	r1
    6092:	0f 92       	push	r0
    6094:	0f b6       	in	r0, 0x3f	; 63
    6096:	0f 92       	push	r0
    6098:	0b b6       	in	r0, 0x3b	; 59
    609a:	0f 92       	push	r0
    609c:	11 24       	eor	r1, r1
    609e:	2f 93       	push	r18
    60a0:	3f 93       	push	r19
    60a2:	4f 93       	push	r20
    60a4:	5f 93       	push	r21
    60a6:	6f 93       	push	r22
    60a8:	7f 93       	push	r23
    60aa:	8f 93       	push	r24
    60ac:	9f 93       	push	r25
    60ae:	af 93       	push	r26
    60b0:	bf 93       	push	r27
    60b2:	ef 93       	push	r30
    60b4:	ff 93       	push	r31
    60b6:	80 91 c6 00 	lds	r24, 0x00C6
    60ba:	60 ee       	ldi	r22, 0xE0	; 224
    60bc:	7d e0       	ldi	r23, 0x0D	; 13
    60be:	0e 94 25 30 	call	0x604a	; 0x604a <_Z10store_charhP11ring_buffer>
    60c2:	ff 91       	pop	r31
    60c4:	ef 91       	pop	r30
    60c6:	bf 91       	pop	r27
    60c8:	af 91       	pop	r26
    60ca:	9f 91       	pop	r25
    60cc:	8f 91       	pop	r24
    60ce:	7f 91       	pop	r23
    60d0:	6f 91       	pop	r22
    60d2:	5f 91       	pop	r21
    60d4:	4f 91       	pop	r20
    60d6:	3f 91       	pop	r19
    60d8:	2f 91       	pop	r18
    60da:	0f 90       	pop	r0
    60dc:	0b be       	out	0x3b, r0	; 59
    60de:	0f 90       	pop	r0
    60e0:	0f be       	out	0x3f, r0	; 63
    60e2:	0f 90       	pop	r0
    60e4:	1f 90       	pop	r1
    60e6:	18 95       	reti

000060e8 <__vector_36>:
    60e8:	1f 92       	push	r1
    60ea:	0f 92       	push	r0
    60ec:	0f b6       	in	r0, 0x3f	; 63
    60ee:	0f 92       	push	r0
    60f0:	0b b6       	in	r0, 0x3b	; 59
    60f2:	0f 92       	push	r0
    60f4:	11 24       	eor	r1, r1
    60f6:	2f 93       	push	r18
    60f8:	3f 93       	push	r19
    60fa:	4f 93       	push	r20
    60fc:	5f 93       	push	r21
    60fe:	6f 93       	push	r22
    6100:	7f 93       	push	r23
    6102:	8f 93       	push	r24
    6104:	9f 93       	push	r25
    6106:	af 93       	push	r26
    6108:	bf 93       	push	r27
    610a:	ef 93       	push	r30
    610c:	ff 93       	push	r31
    610e:	80 91 ce 00 	lds	r24, 0x00CE
    6112:	64 e6       	ldi	r22, 0x64	; 100
    6114:	7e e0       	ldi	r23, 0x0E	; 14
    6116:	0e 94 25 30 	call	0x604a	; 0x604a <_Z10store_charhP11ring_buffer>
    611a:	ff 91       	pop	r31
    611c:	ef 91       	pop	r30
    611e:	bf 91       	pop	r27
    6120:	af 91       	pop	r26
    6122:	9f 91       	pop	r25
    6124:	8f 91       	pop	r24
    6126:	7f 91       	pop	r23
    6128:	6f 91       	pop	r22
    612a:	5f 91       	pop	r21
    612c:	4f 91       	pop	r20
    612e:	3f 91       	pop	r19
    6130:	2f 91       	pop	r18
    6132:	0f 90       	pop	r0
    6134:	0b be       	out	0x3b, r0	; 59
    6136:	0f 90       	pop	r0
    6138:	0f be       	out	0x3f, r0	; 63
    613a:	0f 90       	pop	r0
    613c:	1f 90       	pop	r1
    613e:	18 95       	reti

00006140 <__vector_51>:
    6140:	1f 92       	push	r1
    6142:	0f 92       	push	r0
    6144:	0f b6       	in	r0, 0x3f	; 63
    6146:	0f 92       	push	r0
    6148:	0b b6       	in	r0, 0x3b	; 59
    614a:	0f 92       	push	r0
    614c:	11 24       	eor	r1, r1
    614e:	2f 93       	push	r18
    6150:	3f 93       	push	r19
    6152:	4f 93       	push	r20
    6154:	5f 93       	push	r21
    6156:	6f 93       	push	r22
    6158:	7f 93       	push	r23
    615a:	8f 93       	push	r24
    615c:	9f 93       	push	r25
    615e:	af 93       	push	r26
    6160:	bf 93       	push	r27
    6162:	ef 93       	push	r30
    6164:	ff 93       	push	r31
    6166:	80 91 d6 00 	lds	r24, 0x00D6
    616a:	68 ee       	ldi	r22, 0xE8	; 232
    616c:	7e e0       	ldi	r23, 0x0E	; 14
    616e:	0e 94 25 30 	call	0x604a	; 0x604a <_Z10store_charhP11ring_buffer>
    6172:	ff 91       	pop	r31
    6174:	ef 91       	pop	r30
    6176:	bf 91       	pop	r27
    6178:	af 91       	pop	r26
    617a:	9f 91       	pop	r25
    617c:	8f 91       	pop	r24
    617e:	7f 91       	pop	r23
    6180:	6f 91       	pop	r22
    6182:	5f 91       	pop	r21
    6184:	4f 91       	pop	r20
    6186:	3f 91       	pop	r19
    6188:	2f 91       	pop	r18
    618a:	0f 90       	pop	r0
    618c:	0b be       	out	0x3b, r0	; 59
    618e:	0f 90       	pop	r0
    6190:	0f be       	out	0x3f, r0	; 63
    6192:	0f 90       	pop	r0
    6194:	1f 90       	pop	r1
    6196:	18 95       	reti

00006198 <__vector_54>:
    6198:	1f 92       	push	r1
    619a:	0f 92       	push	r0
    619c:	0f b6       	in	r0, 0x3f	; 63
    619e:	0f 92       	push	r0
    61a0:	0b b6       	in	r0, 0x3b	; 59
    61a2:	0f 92       	push	r0
    61a4:	11 24       	eor	r1, r1
    61a6:	2f 93       	push	r18
    61a8:	3f 93       	push	r19
    61aa:	4f 93       	push	r20
    61ac:	5f 93       	push	r21
    61ae:	6f 93       	push	r22
    61b0:	7f 93       	push	r23
    61b2:	8f 93       	push	r24
    61b4:	9f 93       	push	r25
    61b6:	af 93       	push	r26
    61b8:	bf 93       	push	r27
    61ba:	ef 93       	push	r30
    61bc:	ff 93       	push	r31
    61be:	80 91 36 01 	lds	r24, 0x0136
    61c2:	6c e6       	ldi	r22, 0x6C	; 108
    61c4:	7f e0       	ldi	r23, 0x0F	; 15
    61c6:	0e 94 25 30 	call	0x604a	; 0x604a <_Z10store_charhP11ring_buffer>
    61ca:	ff 91       	pop	r31
    61cc:	ef 91       	pop	r30
    61ce:	bf 91       	pop	r27
    61d0:	af 91       	pop	r26
    61d2:	9f 91       	pop	r25
    61d4:	8f 91       	pop	r24
    61d6:	7f 91       	pop	r23
    61d8:	6f 91       	pop	r22
    61da:	5f 91       	pop	r21
    61dc:	4f 91       	pop	r20
    61de:	3f 91       	pop	r19
    61e0:	2f 91       	pop	r18
    61e2:	0f 90       	pop	r0
    61e4:	0b be       	out	0x3b, r0	; 59
    61e6:	0f 90       	pop	r0
    61e8:	0f be       	out	0x3f, r0	; 63
    61ea:	0f 90       	pop	r0
    61ec:	1f 90       	pop	r1
    61ee:	18 95       	reti

000061f0 <_ZN14HardwareSerial5beginEl>:
    61f0:	9f 92       	push	r9
    61f2:	af 92       	push	r10
    61f4:	bf 92       	push	r11
    61f6:	cf 92       	push	r12
    61f8:	df 92       	push	r13
    61fa:	ef 92       	push	r14
    61fc:	ff 92       	push	r15
    61fe:	0f 93       	push	r16
    6200:	1f 93       	push	r17
    6202:	cf 93       	push	r28
    6204:	df 93       	push	r29
    6206:	ec 01       	movw	r28, r24
    6208:	7a 01       	movw	r14, r20
    620a:	8b 01       	movw	r16, r22
    620c:	81 e4       	ldi	r24, 0x41	; 65
    620e:	e8 16       	cp	r14, r24
    6210:	82 e4       	ldi	r24, 0x42	; 66
    6212:	f8 06       	cpc	r15, r24
    6214:	8f e0       	ldi	r24, 0x0F	; 15
    6216:	08 07       	cpc	r16, r24
    6218:	80 e0       	ldi	r24, 0x00	; 0
    621a:	18 07       	cpc	r17, r24
    621c:	08 f0       	brcs	.+2      	; 0x6220 <_ZN14HardwareSerial5beginEl+0x30>
    621e:	77 c0       	rjmp	.+238    	; 0x630e <_ZN14HardwareSerial5beginEl+0x11e>
    6220:	60 e8       	ldi	r22, 0x80	; 128
    6222:	74 e8       	ldi	r23, 0x84	; 132
    6224:	8e e1       	ldi	r24, 0x1E	; 30
    6226:	90 e0       	ldi	r25, 0x00	; 0
    6228:	a8 01       	movw	r20, r16
    622a:	97 01       	movw	r18, r14
    622c:	0e 94 26 41 	call	0x824c	; 0x824c <__udivmodsi4>
    6230:	59 01       	movw	r10, r18
    6232:	6a 01       	movw	r12, r20
    6234:	08 94       	sec
    6236:	a1 08       	sbc	r10, r1
    6238:	b1 08       	sbc	r11, r1
    623a:	c1 08       	sbc	r12, r1
    623c:	d1 08       	sbc	r13, r1
    623e:	d6 94       	lsr	r13
    6240:	c7 94       	ror	r12
    6242:	b7 94       	ror	r11
    6244:	a7 94       	ror	r10
    6246:	a6 01       	movw	r20, r12
    6248:	95 01       	movw	r18, r10
    624a:	2f 5f       	subi	r18, 0xFF	; 255
    624c:	3f 4f       	sbci	r19, 0xFF	; 255
    624e:	4f 4f       	sbci	r20, 0xFF	; 255
    6250:	5f 4f       	sbci	r21, 0xFF	; 255
    6252:	74 e0       	ldi	r23, 0x04	; 4
    6254:	22 0f       	add	r18, r18
    6256:	33 1f       	adc	r19, r19
    6258:	44 1f       	adc	r20, r20
    625a:	55 1f       	adc	r21, r21
    625c:	7a 95       	dec	r23
    625e:	d1 f7       	brne	.-12     	; 0x6254 <_ZN14HardwareSerial5beginEl+0x64>
    6260:	60 e0       	ldi	r22, 0x00	; 0
    6262:	74 e2       	ldi	r23, 0x24	; 36
    6264:	84 ef       	ldi	r24, 0xF4	; 244
    6266:	90 e0       	ldi	r25, 0x00	; 0
    6268:	0e 94 26 41 	call	0x824c	; 0x824c <__udivmodsi4>
    626c:	ca 01       	movw	r24, r20
    626e:	b9 01       	movw	r22, r18
    6270:	2f ef       	ldi	r18, 0xFF	; 255
    6272:	30 e0       	ldi	r19, 0x00	; 0
    6274:	40 e0       	ldi	r20, 0x00	; 0
    6276:	50 e0       	ldi	r21, 0x00	; 0
    6278:	0e 94 e0 40 	call	0x81c0	; 0x81c0 <__mulsi3>
    627c:	a8 01       	movw	r20, r16
    627e:	97 01       	movw	r18, r14
    6280:	0e 94 26 41 	call	0x824c	; 0x824c <__udivmodsi4>
    6284:	8f ef       	ldi	r24, 0xFF	; 255
    6286:	90 e0       	ldi	r25, 0x00	; 0
    6288:	82 1b       	sub	r24, r18
    628a:	93 0b       	sbc	r25, r19
    628c:	18 16       	cp	r1, r24
    628e:	19 06       	cpc	r1, r25
    6290:	1c f4       	brge	.+6      	; 0x6298 <_ZN14HardwareSerial5beginEl+0xa8>
    6292:	92 2e       	mov	r9, r18
    6294:	90 94       	com	r9
    6296:	02 c0       	rjmp	.+4      	; 0x629c <_ZN14HardwareSerial5beginEl+0xac>
    6298:	92 2e       	mov	r9, r18
    629a:	93 94       	inc	r9
    629c:	60 e0       	ldi	r22, 0x00	; 0
    629e:	79 e0       	ldi	r23, 0x09	; 9
    62a0:	8d e3       	ldi	r24, 0x3D	; 61
    62a2:	90 e0       	ldi	r25, 0x00	; 0
    62a4:	a8 01       	movw	r20, r16
    62a6:	97 01       	movw	r18, r14
    62a8:	0e 94 26 41 	call	0x824c	; 0x824c <__udivmodsi4>
    62ac:	21 50       	subi	r18, 0x01	; 1
    62ae:	30 40       	sbci	r19, 0x00	; 0
    62b0:	40 40       	sbci	r20, 0x00	; 0
    62b2:	50 40       	sbci	r21, 0x00	; 0
    62b4:	56 95       	lsr	r21
    62b6:	47 95       	ror	r20
    62b8:	37 95       	ror	r19
    62ba:	27 95       	ror	r18
    62bc:	2f 5f       	subi	r18, 0xFF	; 255
    62be:	3f 4f       	sbci	r19, 0xFF	; 255
    62c0:	4f 4f       	sbci	r20, 0xFF	; 255
    62c2:	5f 4f       	sbci	r21, 0xFF	; 255
    62c4:	93 e0       	ldi	r25, 0x03	; 3
    62c6:	22 0f       	add	r18, r18
    62c8:	33 1f       	adc	r19, r19
    62ca:	44 1f       	adc	r20, r20
    62cc:	55 1f       	adc	r21, r21
    62ce:	9a 95       	dec	r25
    62d0:	d1 f7       	brne	.-12     	; 0x62c6 <_ZN14HardwareSerial5beginEl+0xd6>
    62d2:	60 e0       	ldi	r22, 0x00	; 0
    62d4:	74 e2       	ldi	r23, 0x24	; 36
    62d6:	84 ef       	ldi	r24, 0xF4	; 244
    62d8:	90 e0       	ldi	r25, 0x00	; 0
    62da:	0e 94 26 41 	call	0x824c	; 0x824c <__udivmodsi4>
    62de:	ca 01       	movw	r24, r20
    62e0:	b9 01       	movw	r22, r18
    62e2:	2f ef       	ldi	r18, 0xFF	; 255
    62e4:	30 e0       	ldi	r19, 0x00	; 0
    62e6:	40 e0       	ldi	r20, 0x00	; 0
    62e8:	50 e0       	ldi	r21, 0x00	; 0
    62ea:	0e 94 e0 40 	call	0x81c0	; 0x81c0 <__mulsi3>
    62ee:	a8 01       	movw	r20, r16
    62f0:	97 01       	movw	r18, r14
    62f2:	0e 94 26 41 	call	0x824c	; 0x824c <__udivmodsi4>
    62f6:	8f ef       	ldi	r24, 0xFF	; 255
    62f8:	90 e0       	ldi	r25, 0x00	; 0
    62fa:	82 1b       	sub	r24, r18
    62fc:	93 0b       	sbc	r25, r19
    62fe:	18 16       	cp	r1, r24
    6300:	19 06       	cpc	r1, r25
    6302:	14 f4       	brge	.+4      	; 0x6308 <_ZN14HardwareSerial5beginEl+0x118>
    6304:	20 95       	com	r18
    6306:	01 c0       	rjmp	.+2      	; 0x630a <_ZN14HardwareSerial5beginEl+0x11a>
    6308:	2f 5f       	subi	r18, 0xFF	; 255
    630a:	29 15       	cp	r18, r9
    630c:	e8 f4       	brcc	.+58     	; 0x6348 <_ZN14HardwareSerial5beginEl+0x158>
    630e:	e8 85       	ldd	r30, Y+8	; 0x08
    6310:	f9 85       	ldd	r31, Y+9	; 0x09
    6312:	81 e0       	ldi	r24, 0x01	; 1
    6314:	90 e0       	ldi	r25, 0x00	; 0
    6316:	0a 88       	ldd	r0, Y+18	; 0x12
    6318:	02 c0       	rjmp	.+4      	; 0x631e <_ZN14HardwareSerial5beginEl+0x12e>
    631a:	88 0f       	add	r24, r24
    631c:	99 1f       	adc	r25, r25
    631e:	0a 94       	dec	r0
    6320:	e2 f7       	brpl	.-8      	; 0x631a <_ZN14HardwareSerial5beginEl+0x12a>
    6322:	80 83       	st	Z, r24
    6324:	60 e0       	ldi	r22, 0x00	; 0
    6326:	79 e0       	ldi	r23, 0x09	; 9
    6328:	8d e3       	ldi	r24, 0x3D	; 61
    632a:	90 e0       	ldi	r25, 0x00	; 0
    632c:	a8 01       	movw	r20, r16
    632e:	97 01       	movw	r18, r14
    6330:	0e 94 26 41 	call	0x824c	; 0x824c <__udivmodsi4>
    6334:	21 50       	subi	r18, 0x01	; 1
    6336:	30 40       	sbci	r19, 0x00	; 0
    6338:	40 40       	sbci	r20, 0x00	; 0
    633a:	50 40       	sbci	r21, 0x00	; 0
    633c:	56 95       	lsr	r21
    633e:	47 95       	ror	r20
    6340:	37 95       	ror	r19
    6342:	27 95       	ror	r18
    6344:	c9 01       	movw	r24, r18
    6346:	04 c0       	rjmp	.+8      	; 0x6350 <_ZN14HardwareSerial5beginEl+0x160>
    6348:	e8 85       	ldd	r30, Y+8	; 0x08
    634a:	f9 85       	ldd	r31, Y+9	; 0x09
    634c:	10 82       	st	Z, r1
    634e:	c5 01       	movw	r24, r10
    6350:	ec 81       	ldd	r30, Y+4	; 0x04
    6352:	fd 81       	ldd	r31, Y+5	; 0x05
    6354:	90 83       	st	Z, r25
    6356:	ee 81       	ldd	r30, Y+6	; 0x06
    6358:	ff 81       	ldd	r31, Y+7	; 0x07
    635a:	80 83       	st	Z, r24
    635c:	ea 85       	ldd	r30, Y+10	; 0x0a
    635e:	fb 85       	ldd	r31, Y+11	; 0x0b
    6360:	40 81       	ld	r20, Z
    6362:	81 e0       	ldi	r24, 0x01	; 1
    6364:	90 e0       	ldi	r25, 0x00	; 0
    6366:	9c 01       	movw	r18, r24
    6368:	0e 84       	ldd	r0, Y+14	; 0x0e
    636a:	02 c0       	rjmp	.+4      	; 0x6370 <_ZN14HardwareSerial5beginEl+0x180>
    636c:	22 0f       	add	r18, r18
    636e:	33 1f       	adc	r19, r19
    6370:	0a 94       	dec	r0
    6372:	e2 f7       	brpl	.-8      	; 0x636c <_ZN14HardwareSerial5beginEl+0x17c>
    6374:	42 2b       	or	r20, r18
    6376:	40 83       	st	Z, r20
    6378:	ea 85       	ldd	r30, Y+10	; 0x0a
    637a:	fb 85       	ldd	r31, Y+11	; 0x0b
    637c:	40 81       	ld	r20, Z
    637e:	9c 01       	movw	r18, r24
    6380:	0f 84       	ldd	r0, Y+15	; 0x0f
    6382:	02 c0       	rjmp	.+4      	; 0x6388 <_ZN14HardwareSerial5beginEl+0x198>
    6384:	22 0f       	add	r18, r18
    6386:	33 1f       	adc	r19, r19
    6388:	0a 94       	dec	r0
    638a:	e2 f7       	brpl	.-8      	; 0x6384 <_ZN14HardwareSerial5beginEl+0x194>
    638c:	42 2b       	or	r20, r18
    638e:	40 83       	st	Z, r20
    6390:	ea 85       	ldd	r30, Y+10	; 0x0a
    6392:	fb 85       	ldd	r31, Y+11	; 0x0b
    6394:	20 81       	ld	r18, Z
    6396:	08 88       	ldd	r0, Y+16	; 0x10
    6398:	02 c0       	rjmp	.+4      	; 0x639e <_ZN14HardwareSerial5beginEl+0x1ae>
    639a:	88 0f       	add	r24, r24
    639c:	99 1f       	adc	r25, r25
    639e:	0a 94       	dec	r0
    63a0:	e2 f7       	brpl	.-8      	; 0x639a <_ZN14HardwareSerial5beginEl+0x1aa>
    63a2:	28 2b       	or	r18, r24
    63a4:	20 83       	st	Z, r18
    63a6:	df 91       	pop	r29
    63a8:	cf 91       	pop	r28
    63aa:	1f 91       	pop	r17
    63ac:	0f 91       	pop	r16
    63ae:	ff 90       	pop	r15
    63b0:	ef 90       	pop	r14
    63b2:	df 90       	pop	r13
    63b4:	cf 90       	pop	r12
    63b6:	bf 90       	pop	r11
    63b8:	af 90       	pop	r10
    63ba:	9f 90       	pop	r9
    63bc:	08 95       	ret

000063be <_GLOBAL__I_rx_buffer>:
    63be:	86 e7       	ldi	r24, 0x76	; 118
    63c0:	96 e0       	ldi	r25, 0x06	; 6
    63c2:	90 93 f1 0f 	sts	0x0FF1, r25
    63c6:	80 93 f0 0f 	sts	0x0FF0, r24
    63ca:	20 ee       	ldi	r18, 0xE0	; 224
    63cc:	3d e0       	ldi	r19, 0x0D	; 13
    63ce:	30 93 f3 0f 	sts	0x0FF3, r19
    63d2:	20 93 f2 0f 	sts	0x0FF2, r18
    63d6:	25 ec       	ldi	r18, 0xC5	; 197
    63d8:	30 e0       	ldi	r19, 0x00	; 0
    63da:	30 93 f5 0f 	sts	0x0FF5, r19
    63de:	20 93 f4 0f 	sts	0x0FF4, r18
    63e2:	24 ec       	ldi	r18, 0xC4	; 196
    63e4:	30 e0       	ldi	r19, 0x00	; 0
    63e6:	30 93 f7 0f 	sts	0x0FF7, r19
    63ea:	20 93 f6 0f 	sts	0x0FF6, r18
    63ee:	20 ec       	ldi	r18, 0xC0	; 192
    63f0:	30 e0       	ldi	r19, 0x00	; 0
    63f2:	30 93 f9 0f 	sts	0x0FF9, r19
    63f6:	20 93 f8 0f 	sts	0x0FF8, r18
    63fa:	21 ec       	ldi	r18, 0xC1	; 193
    63fc:	30 e0       	ldi	r19, 0x00	; 0
    63fe:	30 93 fb 0f 	sts	0x0FFB, r19
    6402:	20 93 fa 0f 	sts	0x0FFA, r18
    6406:	26 ec       	ldi	r18, 0xC6	; 198
    6408:	30 e0       	ldi	r19, 0x00	; 0
    640a:	30 93 fd 0f 	sts	0x0FFD, r19
    640e:	20 93 fc 0f 	sts	0x0FFC, r18
    6412:	e4 e0       	ldi	r30, 0x04	; 4
    6414:	e0 93 fe 0f 	sts	0x0FFE, r30
    6418:	73 e0       	ldi	r23, 0x03	; 3
    641a:	70 93 ff 0f 	sts	0x0FFF, r23
    641e:	67 e0       	ldi	r22, 0x07	; 7
    6420:	60 93 00 10 	sts	0x1000, r22
    6424:	55 e0       	ldi	r21, 0x05	; 5
    6426:	50 93 01 10 	sts	0x1001, r21
    642a:	41 e0       	ldi	r20, 0x01	; 1
    642c:	40 93 02 10 	sts	0x1002, r20
    6430:	90 93 04 10 	sts	0x1004, r25
    6434:	80 93 03 10 	sts	0x1003, r24
    6438:	24 e6       	ldi	r18, 0x64	; 100
    643a:	3e e0       	ldi	r19, 0x0E	; 14
    643c:	30 93 06 10 	sts	0x1006, r19
    6440:	20 93 05 10 	sts	0x1005, r18
    6444:	2d ec       	ldi	r18, 0xCD	; 205
    6446:	30 e0       	ldi	r19, 0x00	; 0
    6448:	30 93 08 10 	sts	0x1008, r19
    644c:	20 93 07 10 	sts	0x1007, r18
    6450:	2c ec       	ldi	r18, 0xCC	; 204
    6452:	30 e0       	ldi	r19, 0x00	; 0
    6454:	30 93 0a 10 	sts	0x100A, r19
    6458:	20 93 09 10 	sts	0x1009, r18
    645c:	28 ec       	ldi	r18, 0xC8	; 200
    645e:	30 e0       	ldi	r19, 0x00	; 0
    6460:	30 93 0c 10 	sts	0x100C, r19
    6464:	20 93 0b 10 	sts	0x100B, r18
    6468:	29 ec       	ldi	r18, 0xC9	; 201
    646a:	30 e0       	ldi	r19, 0x00	; 0
    646c:	30 93 0e 10 	sts	0x100E, r19
    6470:	20 93 0d 10 	sts	0x100D, r18
    6474:	2e ec       	ldi	r18, 0xCE	; 206
    6476:	30 e0       	ldi	r19, 0x00	; 0
    6478:	30 93 10 10 	sts	0x1010, r19
    647c:	20 93 0f 10 	sts	0x100F, r18
    6480:	e0 93 11 10 	sts	0x1011, r30
    6484:	70 93 12 10 	sts	0x1012, r23
    6488:	60 93 13 10 	sts	0x1013, r22
    648c:	50 93 14 10 	sts	0x1014, r21
    6490:	40 93 15 10 	sts	0x1015, r20
    6494:	90 93 17 10 	sts	0x1017, r25
    6498:	80 93 16 10 	sts	0x1016, r24
    649c:	28 ee       	ldi	r18, 0xE8	; 232
    649e:	3e e0       	ldi	r19, 0x0E	; 14
    64a0:	30 93 19 10 	sts	0x1019, r19
    64a4:	20 93 18 10 	sts	0x1018, r18
    64a8:	25 ed       	ldi	r18, 0xD5	; 213
    64aa:	30 e0       	ldi	r19, 0x00	; 0
    64ac:	30 93 1b 10 	sts	0x101B, r19
    64b0:	20 93 1a 10 	sts	0x101A, r18
    64b4:	24 ed       	ldi	r18, 0xD4	; 212
    64b6:	30 e0       	ldi	r19, 0x00	; 0
    64b8:	30 93 1d 10 	sts	0x101D, r19
    64bc:	20 93 1c 10 	sts	0x101C, r18
    64c0:	20 ed       	ldi	r18, 0xD0	; 208
    64c2:	30 e0       	ldi	r19, 0x00	; 0
    64c4:	30 93 1f 10 	sts	0x101F, r19
    64c8:	20 93 1e 10 	sts	0x101E, r18
    64cc:	21 ed       	ldi	r18, 0xD1	; 209
    64ce:	30 e0       	ldi	r19, 0x00	; 0
    64d0:	30 93 21 10 	sts	0x1021, r19
    64d4:	20 93 20 10 	sts	0x1020, r18
    64d8:	26 ed       	ldi	r18, 0xD6	; 214
    64da:	30 e0       	ldi	r19, 0x00	; 0
    64dc:	30 93 23 10 	sts	0x1023, r19
    64e0:	20 93 22 10 	sts	0x1022, r18
    64e4:	e0 93 24 10 	sts	0x1024, r30
    64e8:	70 93 25 10 	sts	0x1025, r23
    64ec:	60 93 26 10 	sts	0x1026, r22
    64f0:	50 93 27 10 	sts	0x1027, r21
    64f4:	40 93 28 10 	sts	0x1028, r20
    64f8:	90 93 2a 10 	sts	0x102A, r25
    64fc:	80 93 29 10 	sts	0x1029, r24
    6500:	8c e6       	ldi	r24, 0x6C	; 108
    6502:	9f e0       	ldi	r25, 0x0F	; 15
    6504:	90 93 2c 10 	sts	0x102C, r25
    6508:	80 93 2b 10 	sts	0x102B, r24
    650c:	85 e3       	ldi	r24, 0x35	; 53
    650e:	91 e0       	ldi	r25, 0x01	; 1
    6510:	90 93 2e 10 	sts	0x102E, r25
    6514:	80 93 2d 10 	sts	0x102D, r24
    6518:	84 e3       	ldi	r24, 0x34	; 52
    651a:	91 e0       	ldi	r25, 0x01	; 1
    651c:	90 93 30 10 	sts	0x1030, r25
    6520:	80 93 2f 10 	sts	0x102F, r24
    6524:	80 e3       	ldi	r24, 0x30	; 48
    6526:	91 e0       	ldi	r25, 0x01	; 1
    6528:	90 93 32 10 	sts	0x1032, r25
    652c:	80 93 31 10 	sts	0x1031, r24
    6530:	81 e3       	ldi	r24, 0x31	; 49
    6532:	91 e0       	ldi	r25, 0x01	; 1
    6534:	90 93 34 10 	sts	0x1034, r25
    6538:	80 93 33 10 	sts	0x1033, r24
    653c:	86 e3       	ldi	r24, 0x36	; 54
    653e:	91 e0       	ldi	r25, 0x01	; 1
    6540:	90 93 36 10 	sts	0x1036, r25
    6544:	80 93 35 10 	sts	0x1035, r24
    6548:	e0 93 37 10 	sts	0x1037, r30
    654c:	70 93 38 10 	sts	0x1038, r23
    6550:	60 93 39 10 	sts	0x1039, r22
    6554:	50 93 3a 10 	sts	0x103A, r21
    6558:	40 93 3b 10 	sts	0x103B, r20
    655c:	08 95       	ret

0000655e <_ZN5Print5writeEPKc>:
    655e:	0f 93       	push	r16
    6560:	1f 93       	push	r17
    6562:	cf 93       	push	r28
    6564:	df 93       	push	r29
    6566:	ec 01       	movw	r28, r24
    6568:	06 2f       	mov	r16, r22
    656a:	17 2f       	mov	r17, r23
    656c:	07 c0       	rjmp	.+14     	; 0x657c <_ZN5Print5writeEPKc+0x1e>
    656e:	e8 81       	ld	r30, Y
    6570:	f9 81       	ldd	r31, Y+1	; 0x01
    6572:	01 90       	ld	r0, Z+
    6574:	f0 81       	ld	r31, Z
    6576:	e0 2d       	mov	r30, r0
    6578:	ce 01       	movw	r24, r28
    657a:	19 95       	eicall
    657c:	f8 01       	movw	r30, r16
    657e:	61 91       	ld	r22, Z+
    6580:	8f 01       	movw	r16, r30
    6582:	66 23       	and	r22, r22
    6584:	a1 f7       	brne	.-24     	; 0x656e <_ZN5Print5writeEPKc+0x10>
    6586:	df 91       	pop	r29
    6588:	cf 91       	pop	r28
    658a:	1f 91       	pop	r17
    658c:	0f 91       	pop	r16
    658e:	08 95       	ret

00006590 <_ZN5Print5writeEPKhj>:
    6590:	ef 92       	push	r14
    6592:	ff 92       	push	r15
    6594:	0f 93       	push	r16
    6596:	1f 93       	push	r17
    6598:	cf 93       	push	r28
    659a:	df 93       	push	r29
    659c:	7c 01       	movw	r14, r24
    659e:	eb 01       	movw	r28, r22
    65a0:	8a 01       	movw	r16, r20
    65a2:	0b c0       	rjmp	.+22     	; 0x65ba <_ZN5Print5writeEPKhj+0x2a>
    65a4:	69 91       	ld	r22, Y+
    65a6:	d7 01       	movw	r26, r14
    65a8:	ed 91       	ld	r30, X+
    65aa:	fc 91       	ld	r31, X
    65ac:	01 90       	ld	r0, Z+
    65ae:	f0 81       	ld	r31, Z
    65b0:	e0 2d       	mov	r30, r0
    65b2:	c7 01       	movw	r24, r14
    65b4:	19 95       	eicall
    65b6:	01 50       	subi	r16, 0x01	; 1
    65b8:	10 40       	sbci	r17, 0x00	; 0
    65ba:	01 15       	cp	r16, r1
    65bc:	11 05       	cpc	r17, r1
    65be:	91 f7       	brne	.-28     	; 0x65a4 <_ZN5Print5writeEPKhj+0x14>
    65c0:	df 91       	pop	r29
    65c2:	cf 91       	pop	r28
    65c4:	1f 91       	pop	r17
    65c6:	0f 91       	pop	r16
    65c8:	ff 90       	pop	r15
    65ca:	ef 90       	pop	r14
    65cc:	08 95       	ret

000065ce <_ZN5Print5printEPKc>:
    65ce:	dc 01       	movw	r26, r24
    65d0:	ed 91       	ld	r30, X+
    65d2:	fc 91       	ld	r31, X
    65d4:	02 80       	ldd	r0, Z+2	; 0x02
    65d6:	f3 81       	ldd	r31, Z+3	; 0x03
    65d8:	e0 2d       	mov	r30, r0
    65da:	19 95       	eicall
    65dc:	08 95       	ret

000065de <_ZN5Print11printNumberEmh>:
    65de:	6f 92       	push	r6
    65e0:	7f 92       	push	r7
    65e2:	8f 92       	push	r8
    65e4:	9f 92       	push	r9
    65e6:	af 92       	push	r10
    65e8:	bf 92       	push	r11
    65ea:	cf 92       	push	r12
    65ec:	df 92       	push	r13
    65ee:	ef 92       	push	r14
    65f0:	ff 92       	push	r15
    65f2:	0f 93       	push	r16
    65f4:	1f 93       	push	r17
    65f6:	df 93       	push	r29
    65f8:	cf 93       	push	r28
    65fa:	cd b7       	in	r28, 0x3d	; 61
    65fc:	de b7       	in	r29, 0x3e	; 62
    65fe:	a0 97       	sbiw	r28, 0x20	; 32
    6600:	0f b6       	in	r0, 0x3f	; 63
    6602:	f8 94       	cli
    6604:	de bf       	out	0x3e, r29	; 62
    6606:	0f be       	out	0x3f, r0	; 63
    6608:	cd bf       	out	0x3d, r28	; 61
    660a:	5c 01       	movw	r10, r24
    660c:	cb 01       	movw	r24, r22
    660e:	ba 01       	movw	r22, r20
    6610:	61 15       	cp	r22, r1
    6612:	71 05       	cpc	r23, r1
    6614:	81 05       	cpc	r24, r1
    6616:	91 05       	cpc	r25, r1
    6618:	51 f4       	brne	.+20     	; 0x662e <_ZN5Print11printNumberEmh+0x50>
    661a:	c5 01       	movw	r24, r10
    661c:	40 e3       	ldi	r20, 0x30	; 48
    661e:	50 e0       	ldi	r21, 0x00	; 0
    6620:	60 e0       	ldi	r22, 0x00	; 0
    6622:	70 e0       	ldi	r23, 0x00	; 0
    6624:	20 e0       	ldi	r18, 0x00	; 0
    6626:	30 e0       	ldi	r19, 0x00	; 0
    6628:	0e 94 72 33 	call	0x66e4	; 0x66e4 <_ZN5Print5printEli>
    662c:	46 c0       	rjmp	.+140    	; 0x66ba <_ZN5Print11printNumberEmh+0xdc>
    662e:	6e 01       	movw	r12, r28
    6630:	08 94       	sec
    6632:	c1 1c       	adc	r12, r1
    6634:	d1 1c       	adc	r13, r1
    6636:	ee 24       	eor	r14, r14
    6638:	ff 24       	eor	r15, r15
    663a:	87 01       	movw	r16, r14
    663c:	62 2e       	mov	r6, r18
    663e:	77 24       	eor	r7, r7
    6640:	88 24       	eor	r8, r8
    6642:	99 24       	eor	r9, r9
    6644:	a4 01       	movw	r20, r8
    6646:	93 01       	movw	r18, r6
    6648:	0e 94 26 41 	call	0x824c	; 0x824c <__udivmodsi4>
    664c:	f6 01       	movw	r30, r12
    664e:	61 93       	st	Z+, r22
    6650:	6f 01       	movw	r12, r30
    6652:	08 94       	sec
    6654:	e1 1c       	adc	r14, r1
    6656:	f1 1c       	adc	r15, r1
    6658:	01 1d       	adc	r16, r1
    665a:	11 1d       	adc	r17, r1
    665c:	b9 01       	movw	r22, r18
    665e:	ca 01       	movw	r24, r20
    6660:	61 15       	cp	r22, r1
    6662:	71 05       	cpc	r23, r1
    6664:	81 05       	cpc	r24, r1
    6666:	91 05       	cpc	r25, r1
    6668:	69 f7       	brne	.-38     	; 0x6644 <_ZN5Print11printNumberEmh+0x66>
    666a:	d8 01       	movw	r26, r16
    666c:	c7 01       	movw	r24, r14
    666e:	01 97       	sbiw	r24, 0x01	; 1
    6670:	a1 09       	sbc	r26, r1
    6672:	b1 09       	sbc	r27, r1
    6674:	6e 01       	movw	r12, r28
    6676:	08 94       	sec
    6678:	c1 1c       	adc	r12, r1
    667a:	d1 1c       	adc	r13, r1
    667c:	c8 0e       	add	r12, r24
    667e:	d9 1e       	adc	r13, r25
    6680:	17 c0       	rjmp	.+46     	; 0x66b0 <_ZN5Print11printNumberEmh+0xd2>
    6682:	f6 01       	movw	r30, r12
    6684:	40 81       	ld	r20, Z
    6686:	4a 30       	cpi	r20, 0x0A	; 10
    6688:	10 f4       	brcc	.+4      	; 0x668e <_ZN5Print11printNumberEmh+0xb0>
    668a:	40 5d       	subi	r20, 0xD0	; 208
    668c:	01 c0       	rjmp	.+2      	; 0x6690 <_ZN5Print11printNumberEmh+0xb2>
    668e:	49 5c       	subi	r20, 0xC9	; 201
    6690:	50 e0       	ldi	r21, 0x00	; 0
    6692:	60 e0       	ldi	r22, 0x00	; 0
    6694:	70 e0       	ldi	r23, 0x00	; 0
    6696:	c5 01       	movw	r24, r10
    6698:	20 e0       	ldi	r18, 0x00	; 0
    669a:	30 e0       	ldi	r19, 0x00	; 0
    669c:	0e 94 72 33 	call	0x66e4	; 0x66e4 <_ZN5Print5printEli>
    66a0:	08 94       	sec
    66a2:	e1 08       	sbc	r14, r1
    66a4:	f1 08       	sbc	r15, r1
    66a6:	01 09       	sbc	r16, r1
    66a8:	11 09       	sbc	r17, r1
    66aa:	08 94       	sec
    66ac:	c1 08       	sbc	r12, r1
    66ae:	d1 08       	sbc	r13, r1
    66b0:	e1 14       	cp	r14, r1
    66b2:	f1 04       	cpc	r15, r1
    66b4:	01 05       	cpc	r16, r1
    66b6:	11 05       	cpc	r17, r1
    66b8:	21 f7       	brne	.-56     	; 0x6682 <_ZN5Print11printNumberEmh+0xa4>
    66ba:	a0 96       	adiw	r28, 0x20	; 32
    66bc:	0f b6       	in	r0, 0x3f	; 63
    66be:	f8 94       	cli
    66c0:	de bf       	out	0x3e, r29	; 62
    66c2:	0f be       	out	0x3f, r0	; 63
    66c4:	cd bf       	out	0x3d, r28	; 61
    66c6:	cf 91       	pop	r28
    66c8:	df 91       	pop	r29
    66ca:	1f 91       	pop	r17
    66cc:	0f 91       	pop	r16
    66ce:	ff 90       	pop	r15
    66d0:	ef 90       	pop	r14
    66d2:	df 90       	pop	r13
    66d4:	cf 90       	pop	r12
    66d6:	bf 90       	pop	r11
    66d8:	af 90       	pop	r10
    66da:	9f 90       	pop	r9
    66dc:	8f 90       	pop	r8
    66de:	7f 90       	pop	r7
    66e0:	6f 90       	pop	r6
    66e2:	08 95       	ret

000066e4 <_ZN5Print5printEli>:
    66e4:	ef 92       	push	r14
    66e6:	ff 92       	push	r15
    66e8:	0f 93       	push	r16
    66ea:	1f 93       	push	r17
    66ec:	cf 93       	push	r28
    66ee:	df 93       	push	r29
    66f0:	ec 01       	movw	r28, r24
    66f2:	7a 01       	movw	r14, r20
    66f4:	8b 01       	movw	r16, r22
    66f6:	21 15       	cp	r18, r1
    66f8:	31 05       	cpc	r19, r1
    66fa:	41 f4       	brne	.+16     	; 0x670c <_ZN5Print5printEli+0x28>
    66fc:	e8 81       	ld	r30, Y
    66fe:	f9 81       	ldd	r31, Y+1	; 0x01
    6700:	01 90       	ld	r0, Z+
    6702:	f0 81       	ld	r31, Z
    6704:	e0 2d       	mov	r30, r0
    6706:	64 2f       	mov	r22, r20
    6708:	19 95       	eicall
    670a:	1b c0       	rjmp	.+54     	; 0x6742 <_ZN5Print5printEli+0x5e>
    670c:	2a 30       	cpi	r18, 0x0A	; 10
    670e:	31 05       	cpc	r19, r1
    6710:	b1 f4       	brne	.+44     	; 0x673e <_ZN5Print5printEli+0x5a>
    6712:	77 ff       	sbrs	r23, 7
    6714:	10 c0       	rjmp	.+32     	; 0x6736 <_ZN5Print5printEli+0x52>
    6716:	4d e2       	ldi	r20, 0x2D	; 45
    6718:	50 e0       	ldi	r21, 0x00	; 0
    671a:	60 e0       	ldi	r22, 0x00	; 0
    671c:	70 e0       	ldi	r23, 0x00	; 0
    671e:	20 e0       	ldi	r18, 0x00	; 0
    6720:	30 e0       	ldi	r19, 0x00	; 0
    6722:	0e 94 72 33 	call	0x66e4	; 0x66e4 <_ZN5Print5printEli>
    6726:	10 95       	com	r17
    6728:	00 95       	com	r16
    672a:	f0 94       	com	r15
    672c:	e0 94       	com	r14
    672e:	e1 1c       	adc	r14, r1
    6730:	f1 1c       	adc	r15, r1
    6732:	01 1d       	adc	r16, r1
    6734:	11 1d       	adc	r17, r1
    6736:	ce 01       	movw	r24, r28
    6738:	b8 01       	movw	r22, r16
    673a:	a7 01       	movw	r20, r14
    673c:	2a e0       	ldi	r18, 0x0A	; 10
    673e:	0e 94 ef 32 	call	0x65de	; 0x65de <_ZN5Print11printNumberEmh>
    6742:	df 91       	pop	r29
    6744:	cf 91       	pop	r28
    6746:	1f 91       	pop	r17
    6748:	0f 91       	pop	r16
    674a:	ff 90       	pop	r15
    674c:	ef 90       	pop	r14
    674e:	08 95       	ret

00006750 <_ZN5Print7printlnEv>:
    6750:	cf 93       	push	r28
    6752:	df 93       	push	r29
    6754:	ec 01       	movw	r28, r24
    6756:	4d e0       	ldi	r20, 0x0D	; 13
    6758:	50 e0       	ldi	r21, 0x00	; 0
    675a:	60 e0       	ldi	r22, 0x00	; 0
    675c:	70 e0       	ldi	r23, 0x00	; 0
    675e:	20 e0       	ldi	r18, 0x00	; 0
    6760:	30 e0       	ldi	r19, 0x00	; 0
    6762:	0e 94 72 33 	call	0x66e4	; 0x66e4 <_ZN5Print5printEli>
    6766:	ce 01       	movw	r24, r28
    6768:	4a e0       	ldi	r20, 0x0A	; 10
    676a:	50 e0       	ldi	r21, 0x00	; 0
    676c:	60 e0       	ldi	r22, 0x00	; 0
    676e:	70 e0       	ldi	r23, 0x00	; 0
    6770:	20 e0       	ldi	r18, 0x00	; 0
    6772:	30 e0       	ldi	r19, 0x00	; 0
    6774:	0e 94 72 33 	call	0x66e4	; 0x66e4 <_ZN5Print5printEli>
    6778:	df 91       	pop	r29
    677a:	cf 91       	pop	r28
    677c:	08 95       	ret

0000677e <_ZN5Print7printlnEli>:
    677e:	cf 93       	push	r28
    6780:	df 93       	push	r29
    6782:	ec 01       	movw	r28, r24
    6784:	0e 94 72 33 	call	0x66e4	; 0x66e4 <_ZN5Print5printEli>
    6788:	ce 01       	movw	r24, r28
    678a:	0e 94 a8 33 	call	0x6750	; 0x6750 <_ZN5Print7printlnEv>
    678e:	df 91       	pop	r29
    6790:	cf 91       	pop	r28
    6792:	08 95       	ret

00006794 <_Z3maplllll>:
    6794:	2f 92       	push	r2
    6796:	3f 92       	push	r3
    6798:	4f 92       	push	r4
    679a:	5f 92       	push	r5
    679c:	6f 92       	push	r6
    679e:	7f 92       	push	r7
    67a0:	8f 92       	push	r8
    67a2:	9f 92       	push	r9
    67a4:	af 92       	push	r10
    67a6:	bf 92       	push	r11
    67a8:	cf 92       	push	r12
    67aa:	df 92       	push	r13
    67ac:	ef 92       	push	r14
    67ae:	ff 92       	push	r15
    67b0:	0f 93       	push	r16
    67b2:	1f 93       	push	r17
    67b4:	df 93       	push	r29
    67b6:	cf 93       	push	r28
    67b8:	cd b7       	in	r28, 0x3d	; 61
    67ba:	de b7       	in	r29, 0x3e	; 62
    67bc:	3b 01       	movw	r6, r22
    67be:	4c 01       	movw	r8, r24
    67c0:	19 01       	movw	r2, r18
    67c2:	2a 01       	movw	r4, r20
    67c4:	6e 89       	ldd	r22, Y+22	; 0x16
    67c6:	7f 89       	ldd	r23, Y+23	; 0x17
    67c8:	88 8d       	ldd	r24, Y+24	; 0x18
    67ca:	99 8d       	ldd	r25, Y+25	; 0x19
    67cc:	6a 19       	sub	r22, r10
    67ce:	7b 09       	sbc	r23, r11
    67d0:	8c 09       	sbc	r24, r12
    67d2:	9d 09       	sbc	r25, r13
    67d4:	62 1a       	sub	r6, r18
    67d6:	73 0a       	sbc	r7, r19
    67d8:	84 0a       	sbc	r8, r20
    67da:	95 0a       	sbc	r9, r21
    67dc:	a4 01       	movw	r20, r8
    67de:	93 01       	movw	r18, r6
    67e0:	0e 94 e0 40 	call	0x81c0	; 0x81c0 <__mulsi3>
    67e4:	e2 18       	sub	r14, r2
    67e6:	f3 08       	sbc	r15, r3
    67e8:	04 09       	sbc	r16, r4
    67ea:	15 09       	sbc	r17, r5
    67ec:	a8 01       	movw	r20, r16
    67ee:	97 01       	movw	r18, r14
    67f0:	0e 94 48 41 	call	0x8290	; 0x8290 <__divmodsi4>
    67f4:	2a 0d       	add	r18, r10
    67f6:	3b 1d       	adc	r19, r11
    67f8:	4c 1d       	adc	r20, r12
    67fa:	5d 1d       	adc	r21, r13
    67fc:	b9 01       	movw	r22, r18
    67fe:	ca 01       	movw	r24, r20
    6800:	cf 91       	pop	r28
    6802:	df 91       	pop	r29
    6804:	1f 91       	pop	r17
    6806:	0f 91       	pop	r16
    6808:	ff 90       	pop	r15
    680a:	ef 90       	pop	r14
    680c:	df 90       	pop	r13
    680e:	cf 90       	pop	r12
    6810:	bf 90       	pop	r11
    6812:	af 90       	pop	r10
    6814:	9f 90       	pop	r9
    6816:	8f 90       	pop	r8
    6818:	7f 90       	pop	r7
    681a:	6f 90       	pop	r6
    681c:	5f 90       	pop	r5
    681e:	4f 90       	pop	r4
    6820:	3f 90       	pop	r3
    6822:	2f 90       	pop	r2
    6824:	08 95       	ret

00006826 <__vector_23>:
    6826:	1f 92       	push	r1
    6828:	0f 92       	push	r0
    682a:	0f b6       	in	r0, 0x3f	; 63
    682c:	0f 92       	push	r0
    682e:	11 24       	eor	r1, r1
    6830:	2f 93       	push	r18
    6832:	3f 93       	push	r19
    6834:	8f 93       	push	r24
    6836:	9f 93       	push	r25
    6838:	af 93       	push	r26
    683a:	bf 93       	push	r27
    683c:	80 91 40 10 	lds	r24, 0x1040
    6840:	90 91 41 10 	lds	r25, 0x1041
    6844:	a0 91 42 10 	lds	r26, 0x1042
    6848:	b0 91 43 10 	lds	r27, 0x1043
    684c:	30 91 44 10 	lds	r19, 0x1044
    6850:	01 96       	adiw	r24, 0x01	; 1
    6852:	a1 1d       	adc	r26, r1
    6854:	b1 1d       	adc	r27, r1
    6856:	23 2f       	mov	r18, r19
    6858:	2d 5f       	subi	r18, 0xFD	; 253
    685a:	2d 37       	cpi	r18, 0x7D	; 125
    685c:	20 f0       	brcs	.+8      	; 0x6866 <__vector_23+0x40>
    685e:	2d 57       	subi	r18, 0x7D	; 125
    6860:	01 96       	adiw	r24, 0x01	; 1
    6862:	a1 1d       	adc	r26, r1
    6864:	b1 1d       	adc	r27, r1
    6866:	20 93 44 10 	sts	0x1044, r18
    686a:	80 93 40 10 	sts	0x1040, r24
    686e:	90 93 41 10 	sts	0x1041, r25
    6872:	a0 93 42 10 	sts	0x1042, r26
    6876:	b0 93 43 10 	sts	0x1043, r27
    687a:	80 91 3c 10 	lds	r24, 0x103C
    687e:	90 91 3d 10 	lds	r25, 0x103D
    6882:	a0 91 3e 10 	lds	r26, 0x103E
    6886:	b0 91 3f 10 	lds	r27, 0x103F
    688a:	01 96       	adiw	r24, 0x01	; 1
    688c:	a1 1d       	adc	r26, r1
    688e:	b1 1d       	adc	r27, r1
    6890:	80 93 3c 10 	sts	0x103C, r24
    6894:	90 93 3d 10 	sts	0x103D, r25
    6898:	a0 93 3e 10 	sts	0x103E, r26
    689c:	b0 93 3f 10 	sts	0x103F, r27
    68a0:	bf 91       	pop	r27
    68a2:	af 91       	pop	r26
    68a4:	9f 91       	pop	r25
    68a6:	8f 91       	pop	r24
    68a8:	3f 91       	pop	r19
    68aa:	2f 91       	pop	r18
    68ac:	0f 90       	pop	r0
    68ae:	0f be       	out	0x3f, r0	; 63
    68b0:	0f 90       	pop	r0
    68b2:	1f 90       	pop	r1
    68b4:	18 95       	reti

000068b6 <millis>:
    68b6:	8f b7       	in	r24, 0x3f	; 63
    68b8:	f8 94       	cli
    68ba:	20 91 40 10 	lds	r18, 0x1040
    68be:	30 91 41 10 	lds	r19, 0x1041
    68c2:	40 91 42 10 	lds	r20, 0x1042
    68c6:	50 91 43 10 	lds	r21, 0x1043
    68ca:	8f bf       	out	0x3f, r24	; 63
    68cc:	b9 01       	movw	r22, r18
    68ce:	ca 01       	movw	r24, r20
    68d0:	08 95       	ret

000068d2 <micros>:
    68d2:	9f b7       	in	r25, 0x3f	; 63
    68d4:	f8 94       	cli
    68d6:	20 91 3c 10 	lds	r18, 0x103C
    68da:	30 91 3d 10 	lds	r19, 0x103D
    68de:	40 91 3e 10 	lds	r20, 0x103E
    68e2:	50 91 3f 10 	lds	r21, 0x103F
    68e6:	86 b5       	in	r24, 0x26	; 38
    68e8:	a8 9b       	sbis	0x15, 0	; 21
    68ea:	06 c0       	rjmp	.+12     	; 0x68f8 <micros+0x26>
    68ec:	8f 3f       	cpi	r24, 0xFF	; 255
    68ee:	21 f0       	breq	.+8      	; 0x68f8 <micros+0x26>
    68f0:	2f 5f       	subi	r18, 0xFF	; 255
    68f2:	3f 4f       	sbci	r19, 0xFF	; 255
    68f4:	4f 4f       	sbci	r20, 0xFF	; 255
    68f6:	5f 4f       	sbci	r21, 0xFF	; 255
    68f8:	9f bf       	out	0x3f, r25	; 63
    68fa:	54 2f       	mov	r21, r20
    68fc:	43 2f       	mov	r20, r19
    68fe:	32 2f       	mov	r19, r18
    6900:	22 27       	eor	r18, r18
    6902:	28 0f       	add	r18, r24
    6904:	31 1d       	adc	r19, r1
    6906:	41 1d       	adc	r20, r1
    6908:	51 1d       	adc	r21, r1
    690a:	82 e0       	ldi	r24, 0x02	; 2
    690c:	22 0f       	add	r18, r18
    690e:	33 1f       	adc	r19, r19
    6910:	44 1f       	adc	r20, r20
    6912:	55 1f       	adc	r21, r21
    6914:	8a 95       	dec	r24
    6916:	d1 f7       	brne	.-12     	; 0x690c <micros+0x3a>
    6918:	b9 01       	movw	r22, r18
    691a:	ca 01       	movw	r24, r20
    691c:	08 95       	ret

0000691e <delay>:
    691e:	ef 92       	push	r14
    6920:	ff 92       	push	r15
    6922:	0f 93       	push	r16
    6924:	1f 93       	push	r17
    6926:	cf 93       	push	r28
    6928:	df 93       	push	r29
    692a:	7b 01       	movw	r14, r22
    692c:	8c 01       	movw	r16, r24
    692e:	0e 94 69 34 	call	0x68d2	; 0x68d2 <micros>
    6932:	eb 01       	movw	r28, r22
    6934:	0f c0       	rjmp	.+30     	; 0x6954 <delay+0x36>
    6936:	0e 94 69 34 	call	0x68d2	; 0x68d2 <micros>
    693a:	6c 1b       	sub	r22, r28
    693c:	7d 0b       	sbc	r23, r29
    693e:	83 e0       	ldi	r24, 0x03	; 3
    6940:	68 3e       	cpi	r22, 0xE8	; 232
    6942:	78 07       	cpc	r23, r24
    6944:	38 f0       	brcs	.+14     	; 0x6954 <delay+0x36>
    6946:	08 94       	sec
    6948:	e1 08       	sbc	r14, r1
    694a:	f1 08       	sbc	r15, r1
    694c:	01 09       	sbc	r16, r1
    694e:	11 09       	sbc	r17, r1
    6950:	c8 51       	subi	r28, 0x18	; 24
    6952:	dc 4f       	sbci	r29, 0xFC	; 252
    6954:	e1 14       	cp	r14, r1
    6956:	f1 04       	cpc	r15, r1
    6958:	01 05       	cpc	r16, r1
    695a:	11 05       	cpc	r17, r1
    695c:	61 f7       	brne	.-40     	; 0x6936 <delay+0x18>
    695e:	df 91       	pop	r29
    6960:	cf 91       	pop	r28
    6962:	1f 91       	pop	r17
    6964:	0f 91       	pop	r16
    6966:	ff 90       	pop	r15
    6968:	ef 90       	pop	r14
    696a:	08 95       	ret

0000696c <init>:
    696c:	78 94       	sei
    696e:	84 b5       	in	r24, 0x24	; 36
    6970:	82 60       	ori	r24, 0x02	; 2
    6972:	84 bd       	out	0x24, r24	; 36
    6974:	84 b5       	in	r24, 0x24	; 36
    6976:	81 60       	ori	r24, 0x01	; 1
    6978:	84 bd       	out	0x24, r24	; 36
    697a:	85 b5       	in	r24, 0x25	; 37
    697c:	82 60       	ori	r24, 0x02	; 2
    697e:	85 bd       	out	0x25, r24	; 37
    6980:	85 b5       	in	r24, 0x25	; 37
    6982:	81 60       	ori	r24, 0x01	; 1
    6984:	85 bd       	out	0x25, r24	; 37
    6986:	ee e6       	ldi	r30, 0x6E	; 110
    6988:	f0 e0       	ldi	r31, 0x00	; 0
    698a:	80 81       	ld	r24, Z
    698c:	81 60       	ori	r24, 0x01	; 1
    698e:	80 83       	st	Z, r24
    6990:	e1 e8       	ldi	r30, 0x81	; 129
    6992:	f0 e0       	ldi	r31, 0x00	; 0
    6994:	10 82       	st	Z, r1
    6996:	80 81       	ld	r24, Z
    6998:	82 60       	ori	r24, 0x02	; 2
    699a:	80 83       	st	Z, r24
    699c:	80 81       	ld	r24, Z
    699e:	81 60       	ori	r24, 0x01	; 1
    69a0:	80 83       	st	Z, r24
    69a2:	e0 e8       	ldi	r30, 0x80	; 128
    69a4:	f0 e0       	ldi	r31, 0x00	; 0
    69a6:	80 81       	ld	r24, Z
    69a8:	81 60       	ori	r24, 0x01	; 1
    69aa:	80 83       	st	Z, r24
    69ac:	e1 eb       	ldi	r30, 0xB1	; 177
    69ae:	f0 e0       	ldi	r31, 0x00	; 0
    69b0:	80 81       	ld	r24, Z
    69b2:	84 60       	ori	r24, 0x04	; 4
    69b4:	80 83       	st	Z, r24
    69b6:	e0 eb       	ldi	r30, 0xB0	; 176
    69b8:	f0 e0       	ldi	r31, 0x00	; 0
    69ba:	80 81       	ld	r24, Z
    69bc:	81 60       	ori	r24, 0x01	; 1
    69be:	80 83       	st	Z, r24
    69c0:	e1 e9       	ldi	r30, 0x91	; 145
    69c2:	f0 e0       	ldi	r31, 0x00	; 0
    69c4:	80 81       	ld	r24, Z
    69c6:	82 60       	ori	r24, 0x02	; 2
    69c8:	80 83       	st	Z, r24
    69ca:	80 81       	ld	r24, Z
    69cc:	81 60       	ori	r24, 0x01	; 1
    69ce:	80 83       	st	Z, r24
    69d0:	e1 ea       	ldi	r30, 0xA1	; 161
    69d2:	f0 e0       	ldi	r31, 0x00	; 0
    69d4:	80 81       	ld	r24, Z
    69d6:	82 60       	ori	r24, 0x02	; 2
    69d8:	80 83       	st	Z, r24
    69da:	80 81       	ld	r24, Z
    69dc:	81 60       	ori	r24, 0x01	; 1
    69de:	80 83       	st	Z, r24
    69e0:	e1 e2       	ldi	r30, 0x21	; 33
    69e2:	f1 e0       	ldi	r31, 0x01	; 1
    69e4:	80 81       	ld	r24, Z
    69e6:	82 60       	ori	r24, 0x02	; 2
    69e8:	80 83       	st	Z, r24
    69ea:	80 81       	ld	r24, Z
    69ec:	81 60       	ori	r24, 0x01	; 1
    69ee:	80 83       	st	Z, r24
    69f0:	e0 e9       	ldi	r30, 0x90	; 144
    69f2:	f0 e0       	ldi	r31, 0x00	; 0
    69f4:	80 81       	ld	r24, Z
    69f6:	81 60       	ori	r24, 0x01	; 1
    69f8:	80 83       	st	Z, r24
    69fa:	e0 ea       	ldi	r30, 0xA0	; 160
    69fc:	f0 e0       	ldi	r31, 0x00	; 0
    69fe:	80 81       	ld	r24, Z
    6a00:	81 60       	ori	r24, 0x01	; 1
    6a02:	80 83       	st	Z, r24
    6a04:	e0 e2       	ldi	r30, 0x20	; 32
    6a06:	f1 e0       	ldi	r31, 0x01	; 1
    6a08:	80 81       	ld	r24, Z
    6a0a:	81 60       	ori	r24, 0x01	; 1
    6a0c:	80 83       	st	Z, r24
    6a0e:	ea e7       	ldi	r30, 0x7A	; 122
    6a10:	f0 e0       	ldi	r31, 0x00	; 0
    6a12:	80 81       	ld	r24, Z
    6a14:	84 60       	ori	r24, 0x04	; 4
    6a16:	80 83       	st	Z, r24
    6a18:	80 81       	ld	r24, Z
    6a1a:	82 60       	ori	r24, 0x02	; 2
    6a1c:	80 83       	st	Z, r24
    6a1e:	80 81       	ld	r24, Z
    6a20:	81 60       	ori	r24, 0x01	; 1
    6a22:	80 83       	st	Z, r24
    6a24:	80 81       	ld	r24, Z
    6a26:	80 68       	ori	r24, 0x80	; 128
    6a28:	80 83       	st	Z, r24
    6a2a:	10 92 c1 00 	sts	0x00C1, r1
    6a2e:	08 95       	ret

00006a30 <analogRead>:
    6a30:	86 33       	cpi	r24, 0x36	; 54
    6a32:	08 f0       	brcs	.+2      	; 0x6a36 <analogRead+0x6>
    6a34:	86 53       	subi	r24, 0x36	; 54
    6a36:	90 91 7b 00 	lds	r25, 0x007B
    6a3a:	28 2f       	mov	r18, r24
    6a3c:	26 95       	lsr	r18
    6a3e:	26 95       	lsr	r18
    6a40:	26 95       	lsr	r18
    6a42:	30 e0       	ldi	r19, 0x00	; 0
    6a44:	21 70       	andi	r18, 0x01	; 1
    6a46:	30 70       	andi	r19, 0x00	; 0
    6a48:	43 e0       	ldi	r20, 0x03	; 3
    6a4a:	22 0f       	add	r18, r18
    6a4c:	33 1f       	adc	r19, r19
    6a4e:	4a 95       	dec	r20
    6a50:	e1 f7       	brne	.-8      	; 0x6a4a <analogRead+0x1a>
    6a52:	97 7f       	andi	r25, 0xF7	; 247
    6a54:	92 2b       	or	r25, r18
    6a56:	90 93 7b 00 	sts	0x007B, r25
    6a5a:	87 70       	andi	r24, 0x07	; 7
    6a5c:	90 91 8b 05 	lds	r25, 0x058B
    6a60:	92 95       	swap	r25
    6a62:	99 0f       	add	r25, r25
    6a64:	99 0f       	add	r25, r25
    6a66:	90 7c       	andi	r25, 0xC0	; 192
    6a68:	98 2b       	or	r25, r24
    6a6a:	90 93 7c 00 	sts	0x007C, r25
    6a6e:	80 91 7a 00 	lds	r24, 0x007A
    6a72:	80 64       	ori	r24, 0x40	; 64
    6a74:	80 93 7a 00 	sts	0x007A, r24
    6a78:	80 91 7a 00 	lds	r24, 0x007A
    6a7c:	86 fd       	sbrc	r24, 6
    6a7e:	fc cf       	rjmp	.-8      	; 0x6a78 <analogRead+0x48>
    6a80:	20 91 78 00 	lds	r18, 0x0078
    6a84:	30 91 79 00 	lds	r19, 0x0079
    6a88:	93 2f       	mov	r25, r19
    6a8a:	80 e0       	ldi	r24, 0x00	; 0
    6a8c:	30 e0       	ldi	r19, 0x00	; 0
    6a8e:	28 2b       	or	r18, r24
    6a90:	39 2b       	or	r19, r25
    6a92:	c9 01       	movw	r24, r18
    6a94:	08 95       	ret

00006a96 <pinMode>:
    6a96:	90 e0       	ldi	r25, 0x00	; 0
    6a98:	fc 01       	movw	r30, r24
    6a9a:	e1 50       	subi	r30, 0x01	; 1
    6a9c:	fe 4f       	sbci	r31, 0xFE	; 254
    6a9e:	24 91       	lpm	r18, Z+
    6aa0:	fc 01       	movw	r30, r24
    6aa2:	e7 54       	subi	r30, 0x47	; 71
    6aa4:	fe 4f       	sbci	r31, 0xFE	; 254
    6aa6:	e4 91       	lpm	r30, Z+
    6aa8:	ee 23       	and	r30, r30
    6aaa:	c1 f0       	breq	.+48     	; 0x6adc <pinMode+0x46>
    6aac:	f0 e0       	ldi	r31, 0x00	; 0
    6aae:	ee 0f       	add	r30, r30
    6ab0:	ff 1f       	adc	r31, r31
    6ab2:	e5 59       	subi	r30, 0x95	; 149
    6ab4:	fe 4f       	sbci	r31, 0xFE	; 254
    6ab6:	85 91       	lpm	r24, Z+
    6ab8:	94 91       	lpm	r25, Z+
    6aba:	dc 01       	movw	r26, r24
    6abc:	66 23       	and	r22, r22
    6abe:	41 f4       	brne	.+16     	; 0x6ad0 <pinMode+0x3a>
    6ac0:	9f b7       	in	r25, 0x3f	; 63
    6ac2:	f8 94       	cli
    6ac4:	8c 91       	ld	r24, X
    6ac6:	20 95       	com	r18
    6ac8:	82 23       	and	r24, r18
    6aca:	8c 93       	st	X, r24
    6acc:	9f bf       	out	0x3f, r25	; 63
    6ace:	08 95       	ret
    6ad0:	9f b7       	in	r25, 0x3f	; 63
    6ad2:	f8 94       	cli
    6ad4:	8c 91       	ld	r24, X
    6ad6:	82 2b       	or	r24, r18
    6ad8:	8c 93       	st	X, r24
    6ada:	9f bf       	out	0x3f, r25	; 63
    6adc:	08 95       	ret

00006ade <digitalWrite>:
    6ade:	90 e0       	ldi	r25, 0x00	; 0
    6ae0:	fc 01       	movw	r30, r24
    6ae2:	eb 5b       	subi	r30, 0xBB	; 187
    6ae4:	fd 4f       	sbci	r31, 0xFD	; 253
    6ae6:	24 91       	lpm	r18, Z+
    6ae8:	fc 01       	movw	r30, r24
    6aea:	e1 50       	subi	r30, 0x01	; 1
    6aec:	fe 4f       	sbci	r31, 0xFE	; 254
    6aee:	44 91       	lpm	r20, Z+
    6af0:	87 54       	subi	r24, 0x47	; 71
    6af2:	9e 4f       	sbci	r25, 0xFE	; 254
    6af4:	fc 01       	movw	r30, r24
    6af6:	84 91       	lpm	r24, Z+
    6af8:	88 23       	and	r24, r24
    6afa:	09 f4       	brne	.+2      	; 0x6afe <digitalWrite+0x20>
    6afc:	7e c0       	rjmp	.+252    	; 0x6bfa <digitalWrite+0x11c>
    6afe:	22 23       	and	r18, r18
    6b00:	09 f4       	brne	.+2      	; 0x6b04 <digitalWrite+0x26>
    6b02:	62 c0       	rjmp	.+196    	; 0x6bc8 <digitalWrite+0xea>
    6b04:	23 30       	cpi	r18, 0x03	; 3
    6b06:	21 f4       	brne	.+8      	; 0x6b10 <digitalWrite+0x32>
    6b08:	90 91 80 00 	lds	r25, 0x0080
    6b0c:	9f 77       	andi	r25, 0x7F	; 127
    6b0e:	05 c0       	rjmp	.+10     	; 0x6b1a <digitalWrite+0x3c>
    6b10:	24 30       	cpi	r18, 0x04	; 4
    6b12:	31 f4       	brne	.+12     	; 0x6b20 <digitalWrite+0x42>
    6b14:	90 91 80 00 	lds	r25, 0x0080
    6b18:	9f 7d       	andi	r25, 0xDF	; 223
    6b1a:	90 93 80 00 	sts	0x0080, r25
    6b1e:	54 c0       	rjmp	.+168    	; 0x6bc8 <digitalWrite+0xea>
    6b20:	21 30       	cpi	r18, 0x01	; 1
    6b22:	19 f4       	brne	.+6      	; 0x6b2a <digitalWrite+0x4c>
    6b24:	94 b5       	in	r25, 0x24	; 36
    6b26:	9f 77       	andi	r25, 0x7F	; 127
    6b28:	04 c0       	rjmp	.+8      	; 0x6b32 <digitalWrite+0x54>
    6b2a:	22 30       	cpi	r18, 0x02	; 2
    6b2c:	21 f4       	brne	.+8      	; 0x6b36 <digitalWrite+0x58>
    6b2e:	94 b5       	in	r25, 0x24	; 36
    6b30:	9f 7d       	andi	r25, 0xDF	; 223
    6b32:	94 bd       	out	0x24, r25	; 36
    6b34:	49 c0       	rjmp	.+146    	; 0x6bc8 <digitalWrite+0xea>
    6b36:	26 30       	cpi	r18, 0x06	; 6
    6b38:	21 f4       	brne	.+8      	; 0x6b42 <digitalWrite+0x64>
    6b3a:	90 91 b0 00 	lds	r25, 0x00B0
    6b3e:	9f 77       	andi	r25, 0x7F	; 127
    6b40:	05 c0       	rjmp	.+10     	; 0x6b4c <digitalWrite+0x6e>
    6b42:	27 30       	cpi	r18, 0x07	; 7
    6b44:	31 f4       	brne	.+12     	; 0x6b52 <digitalWrite+0x74>
    6b46:	90 91 b0 00 	lds	r25, 0x00B0
    6b4a:	9f 7d       	andi	r25, 0xDF	; 223
    6b4c:	90 93 b0 00 	sts	0x00B0, r25
    6b50:	3b c0       	rjmp	.+118    	; 0x6bc8 <digitalWrite+0xea>
    6b52:	28 30       	cpi	r18, 0x08	; 8
    6b54:	21 f4       	brne	.+8      	; 0x6b5e <digitalWrite+0x80>
    6b56:	90 91 90 00 	lds	r25, 0x0090
    6b5a:	9f 77       	andi	r25, 0x7F	; 127
    6b5c:	0b c0       	rjmp	.+22     	; 0x6b74 <digitalWrite+0x96>
    6b5e:	29 30       	cpi	r18, 0x09	; 9
    6b60:	21 f4       	brne	.+8      	; 0x6b6a <digitalWrite+0x8c>
    6b62:	90 91 90 00 	lds	r25, 0x0090
    6b66:	9f 7d       	andi	r25, 0xDF	; 223
    6b68:	05 c0       	rjmp	.+10     	; 0x6b74 <digitalWrite+0x96>
    6b6a:	2a 30       	cpi	r18, 0x0A	; 10
    6b6c:	31 f4       	brne	.+12     	; 0x6b7a <digitalWrite+0x9c>
    6b6e:	90 91 90 00 	lds	r25, 0x0090
    6b72:	97 7f       	andi	r25, 0xF7	; 247
    6b74:	90 93 90 00 	sts	0x0090, r25
    6b78:	27 c0       	rjmp	.+78     	; 0x6bc8 <digitalWrite+0xea>
    6b7a:	2b 30       	cpi	r18, 0x0B	; 11
    6b7c:	21 f4       	brne	.+8      	; 0x6b86 <digitalWrite+0xa8>
    6b7e:	90 91 a0 00 	lds	r25, 0x00A0
    6b82:	9f 77       	andi	r25, 0x7F	; 127
    6b84:	0b c0       	rjmp	.+22     	; 0x6b9c <digitalWrite+0xbe>
    6b86:	2c 30       	cpi	r18, 0x0C	; 12
    6b88:	21 f4       	brne	.+8      	; 0x6b92 <digitalWrite+0xb4>
    6b8a:	90 91 a0 00 	lds	r25, 0x00A0
    6b8e:	9f 7d       	andi	r25, 0xDF	; 223
    6b90:	05 c0       	rjmp	.+10     	; 0x6b9c <digitalWrite+0xbe>
    6b92:	2d 30       	cpi	r18, 0x0D	; 13
    6b94:	31 f4       	brne	.+12     	; 0x6ba2 <digitalWrite+0xc4>
    6b96:	90 91 a0 00 	lds	r25, 0x00A0
    6b9a:	97 7f       	andi	r25, 0xF7	; 247
    6b9c:	90 93 a0 00 	sts	0x00A0, r25
    6ba0:	13 c0       	rjmp	.+38     	; 0x6bc8 <digitalWrite+0xea>
    6ba2:	2e 30       	cpi	r18, 0x0E	; 14
    6ba4:	21 f4       	brne	.+8      	; 0x6bae <digitalWrite+0xd0>
    6ba6:	90 91 20 01 	lds	r25, 0x0120
    6baa:	9f 77       	andi	r25, 0x7F	; 127
    6bac:	0b c0       	rjmp	.+22     	; 0x6bc4 <digitalWrite+0xe6>
    6bae:	2f 30       	cpi	r18, 0x0F	; 15
    6bb0:	21 f4       	brne	.+8      	; 0x6bba <digitalWrite+0xdc>
    6bb2:	90 91 20 01 	lds	r25, 0x0120
    6bb6:	9f 7d       	andi	r25, 0xDF	; 223
    6bb8:	05 c0       	rjmp	.+10     	; 0x6bc4 <digitalWrite+0xe6>
    6bba:	20 31       	cpi	r18, 0x10	; 16
    6bbc:	29 f4       	brne	.+10     	; 0x6bc8 <digitalWrite+0xea>
    6bbe:	90 91 20 01 	lds	r25, 0x0120
    6bc2:	97 7f       	andi	r25, 0xF7	; 247
    6bc4:	90 93 20 01 	sts	0x0120, r25
    6bc8:	e8 2f       	mov	r30, r24
    6bca:	f0 e0       	ldi	r31, 0x00	; 0
    6bcc:	ee 0f       	add	r30, r30
    6bce:	ff 1f       	adc	r31, r31
    6bd0:	eb 57       	subi	r30, 0x7B	; 123
    6bd2:	fe 4f       	sbci	r31, 0xFE	; 254
    6bd4:	25 91       	lpm	r18, Z+
    6bd6:	34 91       	lpm	r19, Z+
    6bd8:	d9 01       	movw	r26, r18
    6bda:	66 23       	and	r22, r22
    6bdc:	41 f4       	brne	.+16     	; 0x6bee <digitalWrite+0x110>
    6bde:	9f b7       	in	r25, 0x3f	; 63
    6be0:	f8 94       	cli
    6be2:	8c 91       	ld	r24, X
    6be4:	40 95       	com	r20
    6be6:	84 23       	and	r24, r20
    6be8:	8c 93       	st	X, r24
    6bea:	9f bf       	out	0x3f, r25	; 63
    6bec:	08 95       	ret
    6bee:	9f b7       	in	r25, 0x3f	; 63
    6bf0:	f8 94       	cli
    6bf2:	8c 91       	ld	r24, X
    6bf4:	84 2b       	or	r24, r20
    6bf6:	8c 93       	st	X, r24
    6bf8:	9f bf       	out	0x3f, r25	; 63
    6bfa:	08 95       	ret

00006bfc <_ZN7TwoWire5beginEv>:
    6bfc:	10 92 65 10 	sts	0x1065, r1
    6c00:	10 92 66 10 	sts	0x1066, r1
    6c04:	10 92 88 10 	sts	0x1088, r1
    6c08:	10 92 89 10 	sts	0x1089, r1
    6c0c:	0e 94 2b 39 	call	0x7256	; 0x7256 <twi_init>
    6c10:	08 95       	ret

00006c12 <_ZN7TwoWire11requestFromEhh>:
    6c12:	86 2f       	mov	r24, r22
    6c14:	41 32       	cpi	r20, 0x21	; 33
    6c16:	08 f0       	brcs	.+2      	; 0x6c1a <_ZN7TwoWire11requestFromEhh+0x8>
    6c18:	40 e2       	ldi	r20, 0x20	; 32
    6c1a:	65 e4       	ldi	r22, 0x45	; 69
    6c1c:	70 e1       	ldi	r23, 0x10	; 16
    6c1e:	0e 94 3e 39 	call	0x727c	; 0x727c <twi_readFrom>
    6c22:	10 92 65 10 	sts	0x1065, r1
    6c26:	80 93 66 10 	sts	0x1066, r24
    6c2a:	08 95       	ret

00006c2c <_ZN7TwoWire11requestFromEii>:
    6c2c:	0e 94 09 36 	call	0x6c12	; 0x6c12 <_ZN7TwoWire11requestFromEhh>
    6c30:	08 95       	ret

00006c32 <_ZN7TwoWire17beginTransmissionEh>:
    6c32:	81 e0       	ldi	r24, 0x01	; 1
    6c34:	80 93 8a 10 	sts	0x108A, r24
    6c38:	60 93 67 10 	sts	0x1067, r22
    6c3c:	10 92 88 10 	sts	0x1088, r1
    6c40:	10 92 89 10 	sts	0x1089, r1
    6c44:	08 95       	ret

00006c46 <_ZN7TwoWire17beginTransmissionEi>:
    6c46:	0e 94 19 36 	call	0x6c32	; 0x6c32 <_ZN7TwoWire17beginTransmissionEh>
    6c4a:	08 95       	ret

00006c4c <_ZN7TwoWire15endTransmissionEv>:
    6c4c:	80 91 67 10 	lds	r24, 0x1067
    6c50:	68 e6       	ldi	r22, 0x68	; 104
    6c52:	70 e1       	ldi	r23, 0x10	; 16
    6c54:	40 91 89 10 	lds	r20, 0x1089
    6c58:	21 e0       	ldi	r18, 0x01	; 1
    6c5a:	0e 94 74 39 	call	0x72e8	; 0x72e8 <twi_writeTo>
    6c5e:	10 92 88 10 	sts	0x1088, r1
    6c62:	10 92 89 10 	sts	0x1089, r1
    6c66:	10 92 8a 10 	sts	0x108A, r1
    6c6a:	08 95       	ret

00006c6c <_ZN7TwoWire4sendEh>:
    6c6c:	df 93       	push	r29
    6c6e:	cf 93       	push	r28
    6c70:	0f 92       	push	r0
    6c72:	cd b7       	in	r28, 0x3d	; 61
    6c74:	de b7       	in	r29, 0x3e	; 62
    6c76:	69 83       	std	Y+1, r22	; 0x01
    6c78:	80 91 8a 10 	lds	r24, 0x108A
    6c7c:	88 23       	and	r24, r24
    6c7e:	89 f0       	breq	.+34     	; 0x6ca2 <_ZN7TwoWire4sendEh+0x36>
    6c80:	80 91 89 10 	lds	r24, 0x1089
    6c84:	80 32       	cpi	r24, 0x20	; 32
    6c86:	90 f4       	brcc	.+36     	; 0x6cac <_ZN7TwoWire4sendEh+0x40>
    6c88:	80 91 88 10 	lds	r24, 0x1088
    6c8c:	e8 2f       	mov	r30, r24
    6c8e:	f0 e0       	ldi	r31, 0x00	; 0
    6c90:	e8 59       	subi	r30, 0x98	; 152
    6c92:	ff 4e       	sbci	r31, 0xEF	; 239
    6c94:	60 83       	st	Z, r22
    6c96:	8f 5f       	subi	r24, 0xFF	; 255
    6c98:	80 93 88 10 	sts	0x1088, r24
    6c9c:	80 93 89 10 	sts	0x1089, r24
    6ca0:	05 c0       	rjmp	.+10     	; 0x6cac <_ZN7TwoWire4sendEh+0x40>
    6ca2:	ce 01       	movw	r24, r28
    6ca4:	01 96       	adiw	r24, 0x01	; 1
    6ca6:	61 e0       	ldi	r22, 0x01	; 1
    6ca8:	0e 94 b4 39 	call	0x7368	; 0x7368 <twi_transmit>
    6cac:	0f 90       	pop	r0
    6cae:	cf 91       	pop	r28
    6cb0:	df 91       	pop	r29
    6cb2:	08 95       	ret

00006cb4 <_ZN7TwoWire4sendEi>:
    6cb4:	0e 94 36 36 	call	0x6c6c	; 0x6c6c <_ZN7TwoWire4sendEh>
    6cb8:	08 95       	ret

00006cba <_ZN7TwoWire9availableEv>:
    6cba:	80 91 66 10 	lds	r24, 0x1066
    6cbe:	90 91 65 10 	lds	r25, 0x1065
    6cc2:	89 1b       	sub	r24, r25
    6cc4:	08 95       	ret

00006cc6 <_ZN7TwoWire7receiveEv>:
    6cc6:	90 91 65 10 	lds	r25, 0x1065
    6cca:	80 91 66 10 	lds	r24, 0x1066
    6cce:	98 17       	cp	r25, r24
    6cd0:	48 f4       	brcc	.+18     	; 0x6ce4 <_ZN7TwoWire7receiveEv+0x1e>
    6cd2:	e9 2f       	mov	r30, r25
    6cd4:	f0 e0       	ldi	r31, 0x00	; 0
    6cd6:	eb 5b       	subi	r30, 0xBB	; 187
    6cd8:	ff 4e       	sbci	r31, 0xEF	; 239
    6cda:	80 81       	ld	r24, Z
    6cdc:	9f 5f       	subi	r25, 0xFF	; 255
    6cde:	90 93 65 10 	sts	0x1065, r25
    6ce2:	08 95       	ret
    6ce4:	80 e0       	ldi	r24, 0x00	; 0
    6ce6:	08 95       	ret

00006ce8 <_GLOBAL__I__ZN7TwoWire8rxBufferE>:
    6ce8:	08 95       	ret

00006cea <_ZL17handle_interrupts18timer16_Sequence_tPVjS1_>:
    6cea:	ef 92       	push	r14
    6cec:	ff 92       	push	r15
    6cee:	0f 93       	push	r16
    6cf0:	1f 93       	push	r17
    6cf2:	cf 93       	push	r28
    6cf4:	df 93       	push	r29
    6cf6:	eb 01       	movw	r28, r22
    6cf8:	7a 01       	movw	r14, r20
    6cfa:	08 2f       	mov	r16, r24
    6cfc:	10 e0       	ldi	r17, 0x00	; 0
    6cfe:	d8 01       	movw	r26, r16
    6d00:	a3 5e       	subi	r26, 0xE3	; 227
    6d02:	be 4e       	sbci	r27, 0xEE	; 238
    6d04:	8c 91       	ld	r24, X
    6d06:	87 ff       	sbrs	r24, 7
    6d08:	03 c0       	rjmp	.+6      	; 0x6d10 <_ZL17handle_interrupts18timer16_Sequence_tPVjS1_+0x26>
    6d0a:	19 82       	std	Y+1, r1	; 0x01
    6d0c:	18 82       	st	Y, r1
    6d0e:	37 c0       	rjmp	.+110    	; 0x6d7e <_ZL17handle_interrupts18timer16_Sequence_tPVjS1_+0x94>
    6d10:	c8 01       	movw	r24, r16
    6d12:	88 0f       	add	r24, r24
    6d14:	99 1f       	adc	r25, r25
    6d16:	80 0f       	add	r24, r16
    6d18:	91 1f       	adc	r25, r17
    6d1a:	88 0f       	add	r24, r24
    6d1c:	99 1f       	adc	r25, r25
    6d1e:	88 0f       	add	r24, r24
    6d20:	99 1f       	adc	r25, r25
    6d22:	2c 91       	ld	r18, X
    6d24:	33 27       	eor	r19, r19
    6d26:	27 fd       	sbrc	r18, 7
    6d28:	30 95       	com	r19
    6d2a:	28 0f       	add	r18, r24
    6d2c:	39 1f       	adc	r19, r25
    6d2e:	40 91 8c 10 	lds	r20, 0x108C
    6d32:	50 e0       	ldi	r21, 0x00	; 0
    6d34:	24 17       	cp	r18, r20
    6d36:	35 07       	cpc	r19, r21
    6d38:	14 f5       	brge	.+68     	; 0x6d7e <_ZL17handle_interrupts18timer16_Sequence_tPVjS1_+0x94>
    6d3a:	2c 91       	ld	r18, X
    6d3c:	33 27       	eor	r19, r19
    6d3e:	27 fd       	sbrc	r18, 7
    6d40:	30 95       	com	r19
    6d42:	28 0f       	add	r18, r24
    6d44:	39 1f       	adc	r19, r25
    6d46:	f9 01       	movw	r30, r18
    6d48:	ee 0f       	add	r30, r30
    6d4a:	ff 1f       	adc	r31, r31
    6d4c:	e2 0f       	add	r30, r18
    6d4e:	f3 1f       	adc	r31, r19
    6d50:	e3 57       	subi	r30, 0x73	; 115
    6d52:	ff 4e       	sbci	r31, 0xEF	; 239
    6d54:	20 81       	ld	r18, Z
    6d56:	26 ff       	sbrs	r18, 6
    6d58:	12 c0       	rjmp	.+36     	; 0x6d7e <_ZL17handle_interrupts18timer16_Sequence_tPVjS1_+0x94>
    6d5a:	2c 91       	ld	r18, X
    6d5c:	33 27       	eor	r19, r19
    6d5e:	27 fd       	sbrc	r18, 7
    6d60:	30 95       	com	r19
    6d62:	28 0f       	add	r18, r24
    6d64:	39 1f       	adc	r19, r25
    6d66:	f9 01       	movw	r30, r18
    6d68:	ee 0f       	add	r30, r30
    6d6a:	ff 1f       	adc	r31, r31
    6d6c:	e2 0f       	add	r30, r18
    6d6e:	f3 1f       	adc	r31, r19
    6d70:	e3 57       	subi	r30, 0x73	; 115
    6d72:	ff 4e       	sbci	r31, 0xEF	; 239
    6d74:	80 81       	ld	r24, Z
    6d76:	8f 73       	andi	r24, 0x3F	; 63
    6d78:	60 e0       	ldi	r22, 0x00	; 0
    6d7a:	0e 94 6f 35 	call	0x6ade	; 0x6ade <digitalWrite>
    6d7e:	f8 01       	movw	r30, r16
    6d80:	e3 5e       	subi	r30, 0xE3	; 227
    6d82:	fe 4e       	sbci	r31, 0xEE	; 238
    6d84:	80 81       	ld	r24, Z
    6d86:	8f 5f       	subi	r24, 0xFF	; 255
    6d88:	80 83       	st	Z, r24
    6d8a:	c8 01       	movw	r24, r16
    6d8c:	88 0f       	add	r24, r24
    6d8e:	99 1f       	adc	r25, r25
    6d90:	80 0f       	add	r24, r16
    6d92:	91 1f       	adc	r25, r17
    6d94:	88 0f       	add	r24, r24
    6d96:	99 1f       	adc	r25, r25
    6d98:	88 0f       	add	r24, r24
    6d9a:	99 1f       	adc	r25, r25
    6d9c:	20 81       	ld	r18, Z
    6d9e:	33 27       	eor	r19, r19
    6da0:	27 fd       	sbrc	r18, 7
    6da2:	30 95       	com	r19
    6da4:	28 0f       	add	r18, r24
    6da6:	39 1f       	adc	r19, r25
    6da8:	40 91 8c 10 	lds	r20, 0x108C
    6dac:	50 e0       	ldi	r21, 0x00	; 0
    6dae:	24 17       	cp	r18, r20
    6db0:	35 07       	cpc	r19, r21
    6db2:	0c f0       	brlt	.+2      	; 0x6db6 <_ZL17handle_interrupts18timer16_Sequence_tPVjS1_+0xcc>
    6db4:	53 c0       	rjmp	.+166    	; 0x6e5c <_ZL17handle_interrupts18timer16_Sequence_tPVjS1_+0x172>
    6db6:	20 81       	ld	r18, Z
    6db8:	2c 30       	cpi	r18, 0x0C	; 12
    6dba:	0c f0       	brlt	.+2      	; 0x6dbe <_ZL17handle_interrupts18timer16_Sequence_tPVjS1_+0xd4>
    6dbc:	4f c0       	rjmp	.+158    	; 0x6e5c <_ZL17handle_interrupts18timer16_Sequence_tPVjS1_+0x172>
    6dbe:	48 81       	ld	r20, Y
    6dc0:	59 81       	ldd	r21, Y+1	; 0x01
    6dc2:	20 81       	ld	r18, Z
    6dc4:	33 27       	eor	r19, r19
    6dc6:	27 fd       	sbrc	r18, 7
    6dc8:	30 95       	com	r19
    6dca:	28 0f       	add	r18, r24
    6dcc:	39 1f       	adc	r19, r25
    6dce:	d9 01       	movw	r26, r18
    6dd0:	aa 0f       	add	r26, r26
    6dd2:	bb 1f       	adc	r27, r27
    6dd4:	a2 0f       	add	r26, r18
    6dd6:	b3 1f       	adc	r27, r19
    6dd8:	a3 57       	subi	r26, 0x73	; 115
    6dda:	bf 4e       	sbci	r27, 0xEF	; 239
    6ddc:	11 96       	adiw	r26, 0x01	; 1
    6dde:	2d 91       	ld	r18, X+
    6de0:	3c 91       	ld	r19, X
    6de2:	12 97       	sbiw	r26, 0x02	; 2
    6de4:	42 0f       	add	r20, r18
    6de6:	53 1f       	adc	r21, r19
    6de8:	d7 01       	movw	r26, r14
    6dea:	11 96       	adiw	r26, 0x01	; 1
    6dec:	5c 93       	st	X, r21
    6dee:	4e 93       	st	-X, r20
    6df0:	20 81       	ld	r18, Z
    6df2:	33 27       	eor	r19, r19
    6df4:	27 fd       	sbrc	r18, 7
    6df6:	30 95       	com	r19
    6df8:	28 0f       	add	r18, r24
    6dfa:	39 1f       	adc	r19, r25
    6dfc:	d9 01       	movw	r26, r18
    6dfe:	aa 0f       	add	r26, r26
    6e00:	bb 1f       	adc	r27, r27
    6e02:	a2 0f       	add	r26, r18
    6e04:	b3 1f       	adc	r27, r19
    6e06:	a3 57       	subi	r26, 0x73	; 115
    6e08:	bf 4e       	sbci	r27, 0xEF	; 239
    6e0a:	2c 91       	ld	r18, X
    6e0c:	26 ff       	sbrs	r18, 6
    6e0e:	2d c0       	rjmp	.+90     	; 0x6e6a <_ZL17handle_interrupts18timer16_Sequence_tPVjS1_+0x180>
    6e10:	20 81       	ld	r18, Z
    6e12:	33 27       	eor	r19, r19
    6e14:	27 fd       	sbrc	r18, 7
    6e16:	30 95       	com	r19
    6e18:	28 0f       	add	r18, r24
    6e1a:	39 1f       	adc	r19, r25
    6e1c:	f9 01       	movw	r30, r18
    6e1e:	ee 0f       	add	r30, r30
    6e20:	ff 1f       	adc	r31, r31
    6e22:	e2 0f       	add	r30, r18
    6e24:	f3 1f       	adc	r31, r19
    6e26:	e3 57       	subi	r30, 0x73	; 115
    6e28:	ff 4e       	sbci	r31, 0xEF	; 239
    6e2a:	80 81       	ld	r24, Z
    6e2c:	8f 73       	andi	r24, 0x3F	; 63
    6e2e:	61 e0       	ldi	r22, 0x01	; 1
    6e30:	0e 94 6f 35 	call	0x6ade	; 0x6ade <digitalWrite>
    6e34:	1a c0       	rjmp	.+52     	; 0x6e6a <_ZL17handle_interrupts18timer16_Sequence_tPVjS1_+0x180>
    6e36:	80 e4       	ldi	r24, 0x40	; 64
    6e38:	9c e9       	ldi	r25, 0x9C	; 156
    6e3a:	f7 01       	movw	r30, r14
    6e3c:	91 83       	std	Z+1, r25	; 0x01
    6e3e:	80 83       	st	Z, r24
    6e40:	07 c0       	rjmp	.+14     	; 0x6e50 <_ZL17handle_interrupts18timer16_Sequence_tPVjS1_+0x166>
    6e42:	88 81       	ld	r24, Y
    6e44:	99 81       	ldd	r25, Y+1	; 0x01
    6e46:	04 96       	adiw	r24, 0x04	; 4
    6e48:	d7 01       	movw	r26, r14
    6e4a:	11 96       	adiw	r26, 0x01	; 1
    6e4c:	9c 93       	st	X, r25
    6e4e:	8e 93       	st	-X, r24
    6e50:	f8 01       	movw	r30, r16
    6e52:	e3 5e       	subi	r30, 0xE3	; 227
    6e54:	fe 4e       	sbci	r31, 0xEE	; 238
    6e56:	8f ef       	ldi	r24, 0xFF	; 255
    6e58:	80 83       	st	Z, r24
    6e5a:	07 c0       	rjmp	.+14     	; 0x6e6a <_ZL17handle_interrupts18timer16_Sequence_tPVjS1_+0x180>
    6e5c:	88 81       	ld	r24, Y
    6e5e:	99 81       	ldd	r25, Y+1	; 0x01
    6e60:	bc e9       	ldi	r27, 0x9C	; 156
    6e62:	84 34       	cpi	r24, 0x44	; 68
    6e64:	9b 07       	cpc	r25, r27
    6e66:	38 f3       	brcs	.-50     	; 0x6e36 <_ZL17handle_interrupts18timer16_Sequence_tPVjS1_+0x14c>
    6e68:	ec cf       	rjmp	.-40     	; 0x6e42 <_ZL17handle_interrupts18timer16_Sequence_tPVjS1_+0x158>
    6e6a:	df 91       	pop	r29
    6e6c:	cf 91       	pop	r28
    6e6e:	1f 91       	pop	r17
    6e70:	0f 91       	pop	r16
    6e72:	ff 90       	pop	r15
    6e74:	ef 90       	pop	r14
    6e76:	08 95       	ret

00006e78 <__vector_17>:
    6e78:	1f 92       	push	r1
    6e7a:	0f 92       	push	r0
    6e7c:	0f b6       	in	r0, 0x3f	; 63
    6e7e:	0f 92       	push	r0
    6e80:	0b b6       	in	r0, 0x3b	; 59
    6e82:	0f 92       	push	r0
    6e84:	11 24       	eor	r1, r1
    6e86:	2f 93       	push	r18
    6e88:	3f 93       	push	r19
    6e8a:	4f 93       	push	r20
    6e8c:	5f 93       	push	r21
    6e8e:	6f 93       	push	r22
    6e90:	7f 93       	push	r23
    6e92:	8f 93       	push	r24
    6e94:	9f 93       	push	r25
    6e96:	af 93       	push	r26
    6e98:	bf 93       	push	r27
    6e9a:	ef 93       	push	r30
    6e9c:	ff 93       	push	r31
    6e9e:	81 e0       	ldi	r24, 0x01	; 1
    6ea0:	64 e8       	ldi	r22, 0x84	; 132
    6ea2:	70 e0       	ldi	r23, 0x00	; 0
    6ea4:	48 e8       	ldi	r20, 0x88	; 136
    6ea6:	50 e0       	ldi	r21, 0x00	; 0
    6ea8:	0e 94 75 36 	call	0x6cea	; 0x6cea <_ZL17handle_interrupts18timer16_Sequence_tPVjS1_>
    6eac:	ff 91       	pop	r31
    6eae:	ef 91       	pop	r30
    6eb0:	bf 91       	pop	r27
    6eb2:	af 91       	pop	r26
    6eb4:	9f 91       	pop	r25
    6eb6:	8f 91       	pop	r24
    6eb8:	7f 91       	pop	r23
    6eba:	6f 91       	pop	r22
    6ebc:	5f 91       	pop	r21
    6ebe:	4f 91       	pop	r20
    6ec0:	3f 91       	pop	r19
    6ec2:	2f 91       	pop	r18
    6ec4:	0f 90       	pop	r0
    6ec6:	0b be       	out	0x3b, r0	; 59
    6ec8:	0f 90       	pop	r0
    6eca:	0f be       	out	0x3f, r0	; 63
    6ecc:	0f 90       	pop	r0
    6ece:	1f 90       	pop	r1
    6ed0:	18 95       	reti

00006ed2 <__vector_32>:
    6ed2:	1f 92       	push	r1
    6ed4:	0f 92       	push	r0
    6ed6:	0f b6       	in	r0, 0x3f	; 63
    6ed8:	0f 92       	push	r0
    6eda:	0b b6       	in	r0, 0x3b	; 59
    6edc:	0f 92       	push	r0
    6ede:	11 24       	eor	r1, r1
    6ee0:	2f 93       	push	r18
    6ee2:	3f 93       	push	r19
    6ee4:	4f 93       	push	r20
    6ee6:	5f 93       	push	r21
    6ee8:	6f 93       	push	r22
    6eea:	7f 93       	push	r23
    6eec:	8f 93       	push	r24
    6eee:	9f 93       	push	r25
    6ef0:	af 93       	push	r26
    6ef2:	bf 93       	push	r27
    6ef4:	ef 93       	push	r30
    6ef6:	ff 93       	push	r31
    6ef8:	82 e0       	ldi	r24, 0x02	; 2
    6efa:	64 e9       	ldi	r22, 0x94	; 148
    6efc:	70 e0       	ldi	r23, 0x00	; 0
    6efe:	48 e9       	ldi	r20, 0x98	; 152
    6f00:	50 e0       	ldi	r21, 0x00	; 0
    6f02:	0e 94 75 36 	call	0x6cea	; 0x6cea <_ZL17handle_interrupts18timer16_Sequence_tPVjS1_>
    6f06:	ff 91       	pop	r31
    6f08:	ef 91       	pop	r30
    6f0a:	bf 91       	pop	r27
    6f0c:	af 91       	pop	r26
    6f0e:	9f 91       	pop	r25
    6f10:	8f 91       	pop	r24
    6f12:	7f 91       	pop	r23
    6f14:	6f 91       	pop	r22
    6f16:	5f 91       	pop	r21
    6f18:	4f 91       	pop	r20
    6f1a:	3f 91       	pop	r19
    6f1c:	2f 91       	pop	r18
    6f1e:	0f 90       	pop	r0
    6f20:	0b be       	out	0x3b, r0	; 59
    6f22:	0f 90       	pop	r0
    6f24:	0f be       	out	0x3f, r0	; 63
    6f26:	0f 90       	pop	r0
    6f28:	1f 90       	pop	r1
    6f2a:	18 95       	reti

00006f2c <__vector_42>:
    6f2c:	1f 92       	push	r1
    6f2e:	0f 92       	push	r0
    6f30:	0f b6       	in	r0, 0x3f	; 63
    6f32:	0f 92       	push	r0
    6f34:	0b b6       	in	r0, 0x3b	; 59
    6f36:	0f 92       	push	r0
    6f38:	11 24       	eor	r1, r1
    6f3a:	2f 93       	push	r18
    6f3c:	3f 93       	push	r19
    6f3e:	4f 93       	push	r20
    6f40:	5f 93       	push	r21
    6f42:	6f 93       	push	r22
    6f44:	7f 93       	push	r23
    6f46:	8f 93       	push	r24
    6f48:	9f 93       	push	r25
    6f4a:	af 93       	push	r26
    6f4c:	bf 93       	push	r27
    6f4e:	ef 93       	push	r30
    6f50:	ff 93       	push	r31
    6f52:	83 e0       	ldi	r24, 0x03	; 3
    6f54:	64 ea       	ldi	r22, 0xA4	; 164
    6f56:	70 e0       	ldi	r23, 0x00	; 0
    6f58:	48 ea       	ldi	r20, 0xA8	; 168
    6f5a:	50 e0       	ldi	r21, 0x00	; 0
    6f5c:	0e 94 75 36 	call	0x6cea	; 0x6cea <_ZL17handle_interrupts18timer16_Sequence_tPVjS1_>
    6f60:	ff 91       	pop	r31
    6f62:	ef 91       	pop	r30
    6f64:	bf 91       	pop	r27
    6f66:	af 91       	pop	r26
    6f68:	9f 91       	pop	r25
    6f6a:	8f 91       	pop	r24
    6f6c:	7f 91       	pop	r23
    6f6e:	6f 91       	pop	r22
    6f70:	5f 91       	pop	r21
    6f72:	4f 91       	pop	r20
    6f74:	3f 91       	pop	r19
    6f76:	2f 91       	pop	r18
    6f78:	0f 90       	pop	r0
    6f7a:	0b be       	out	0x3b, r0	; 59
    6f7c:	0f 90       	pop	r0
    6f7e:	0f be       	out	0x3f, r0	; 63
    6f80:	0f 90       	pop	r0
    6f82:	1f 90       	pop	r1
    6f84:	18 95       	reti

00006f86 <__vector_47>:
    6f86:	1f 92       	push	r1
    6f88:	0f 92       	push	r0
    6f8a:	0f b6       	in	r0, 0x3f	; 63
    6f8c:	0f 92       	push	r0
    6f8e:	0b b6       	in	r0, 0x3b	; 59
    6f90:	0f 92       	push	r0
    6f92:	11 24       	eor	r1, r1
    6f94:	2f 93       	push	r18
    6f96:	3f 93       	push	r19
    6f98:	4f 93       	push	r20
    6f9a:	5f 93       	push	r21
    6f9c:	6f 93       	push	r22
    6f9e:	7f 93       	push	r23
    6fa0:	8f 93       	push	r24
    6fa2:	9f 93       	push	r25
    6fa4:	af 93       	push	r26
    6fa6:	bf 93       	push	r27
    6fa8:	ef 93       	push	r30
    6faa:	ff 93       	push	r31
    6fac:	80 e0       	ldi	r24, 0x00	; 0
    6fae:	64 e2       	ldi	r22, 0x24	; 36
    6fb0:	71 e0       	ldi	r23, 0x01	; 1
    6fb2:	48 e2       	ldi	r20, 0x28	; 40
    6fb4:	51 e0       	ldi	r21, 0x01	; 1
    6fb6:	0e 94 75 36 	call	0x6cea	; 0x6cea <_ZL17handle_interrupts18timer16_Sequence_tPVjS1_>
    6fba:	ff 91       	pop	r31
    6fbc:	ef 91       	pop	r30
    6fbe:	bf 91       	pop	r27
    6fc0:	af 91       	pop	r26
    6fc2:	9f 91       	pop	r25
    6fc4:	8f 91       	pop	r24
    6fc6:	7f 91       	pop	r23
    6fc8:	6f 91       	pop	r22
    6fca:	5f 91       	pop	r21
    6fcc:	4f 91       	pop	r20
    6fce:	3f 91       	pop	r19
    6fd0:	2f 91       	pop	r18
    6fd2:	0f 90       	pop	r0
    6fd4:	0b be       	out	0x3b, r0	; 59
    6fd6:	0f 90       	pop	r0
    6fd8:	0f be       	out	0x3f, r0	; 63
    6fda:	0f 90       	pop	r0
    6fdc:	1f 90       	pop	r1
    6fde:	18 95       	reti

00006fe0 <_ZN5ServoC1Ev>:
    6fe0:	fc 01       	movw	r30, r24
    6fe2:	80 91 8c 10 	lds	r24, 0x108C
    6fe6:	80 33       	cpi	r24, 0x30	; 48
    6fe8:	90 f4       	brcc	.+36     	; 0x700e <_ZN5ServoC1Ev+0x2e>
    6fea:	80 83       	st	Z, r24
    6fec:	8f 5f       	subi	r24, 0xFF	; 255
    6fee:	80 93 8c 10 	sts	0x108C, r24
    6ff2:	80 81       	ld	r24, Z
    6ff4:	90 e0       	ldi	r25, 0x00	; 0
    6ff6:	fc 01       	movw	r30, r24
    6ff8:	ee 0f       	add	r30, r30
    6ffa:	ff 1f       	adc	r31, r31
    6ffc:	e8 0f       	add	r30, r24
    6ffe:	f9 1f       	adc	r31, r25
    7000:	e3 57       	subi	r30, 0x73	; 115
    7002:	ff 4e       	sbci	r31, 0xEF	; 239
    7004:	88 eb       	ldi	r24, 0xB8	; 184
    7006:	9b e0       	ldi	r25, 0x0B	; 11
    7008:	92 83       	std	Z+2, r25	; 0x02
    700a:	81 83       	std	Z+1, r24	; 0x01
    700c:	08 95       	ret
    700e:	8f ef       	ldi	r24, 0xFF	; 255
    7010:	80 83       	st	Z, r24
    7012:	08 95       	ret

00007014 <_ZN5Servo17writeMicrosecondsEi>:
    7014:	fc 01       	movw	r30, r24
    7016:	20 81       	ld	r18, Z
    7018:	20 33       	cpi	r18, 0x30	; 48
    701a:	08 f0       	brcs	.+2      	; 0x701e <_ZN5Servo17writeMicrosecondsEi+0xa>
    701c:	3f c0       	rjmp	.+126    	; 0x709c <_ZN5Servo17writeMicrosecondsEi+0x88>
    701e:	41 81       	ldd	r20, Z+1	; 0x01
    7020:	55 27       	eor	r21, r21
    7022:	47 fd       	sbrc	r20, 7
    7024:	50 95       	com	r21
    7026:	88 e8       	ldi	r24, 0x88	; 136
    7028:	90 e0       	ldi	r25, 0x00	; 0
    702a:	84 1b       	sub	r24, r20
    702c:	95 0b       	sbc	r25, r21
    702e:	88 0f       	add	r24, r24
    7030:	99 1f       	adc	r25, r25
    7032:	88 0f       	add	r24, r24
    7034:	99 1f       	adc	r25, r25
    7036:	68 17       	cp	r22, r24
    7038:	79 07       	cpc	r23, r25
    703a:	84 f0       	brlt	.+32     	; 0x705c <_ZN5Servo17writeMicrosecondsEi+0x48>
    703c:	42 81       	ldd	r20, Z+2	; 0x02
    703e:	55 27       	eor	r21, r21
    7040:	47 fd       	sbrc	r20, 7
    7042:	50 95       	com	r21
    7044:	88 e5       	ldi	r24, 0x58	; 88
    7046:	92 e0       	ldi	r25, 0x02	; 2
    7048:	84 1b       	sub	r24, r20
    704a:	95 0b       	sbc	r25, r21
    704c:	88 0f       	add	r24, r24
    704e:	99 1f       	adc	r25, r25
    7050:	88 0f       	add	r24, r24
    7052:	99 1f       	adc	r25, r25
    7054:	68 17       	cp	r22, r24
    7056:	79 07       	cpc	r23, r25
    7058:	0c f4       	brge	.+2      	; 0x705c <_ZN5Servo17writeMicrosecondsEi+0x48>
    705a:	cb 01       	movw	r24, r22
    705c:	02 97       	sbiw	r24, 0x02	; 2
    705e:	aa 27       	eor	r26, r26
    7060:	97 fd       	sbrc	r25, 7
    7062:	a0 95       	com	r26
    7064:	ba 2f       	mov	r27, r26
    7066:	74 e0       	ldi	r23, 0x04	; 4
    7068:	88 0f       	add	r24, r24
    706a:	99 1f       	adc	r25, r25
    706c:	aa 1f       	adc	r26, r26
    706e:	bb 1f       	adc	r27, r27
    7070:	7a 95       	dec	r23
    7072:	d1 f7       	brne	.-12     	; 0x7068 <_ZN5Servo17writeMicrosecondsEi+0x54>
    7074:	63 e0       	ldi	r22, 0x03	; 3
    7076:	b6 95       	lsr	r27
    7078:	a7 95       	ror	r26
    707a:	97 95       	ror	r25
    707c:	87 95       	ror	r24
    707e:	6a 95       	dec	r22
    7080:	d1 f7       	brne	.-12     	; 0x7076 <_ZN5Servo17writeMicrosecondsEi+0x62>
    7082:	4f b7       	in	r20, 0x3f	; 63
    7084:	f8 94       	cli
    7086:	30 e0       	ldi	r19, 0x00	; 0
    7088:	f9 01       	movw	r30, r18
    708a:	ee 0f       	add	r30, r30
    708c:	ff 1f       	adc	r31, r31
    708e:	e2 0f       	add	r30, r18
    7090:	f3 1f       	adc	r31, r19
    7092:	e3 57       	subi	r30, 0x73	; 115
    7094:	ff 4e       	sbci	r31, 0xEF	; 239
    7096:	92 83       	std	Z+2, r25	; 0x02
    7098:	81 83       	std	Z+1, r24	; 0x01
    709a:	4f bf       	out	0x3f, r20	; 63
    709c:	08 95       	ret

0000709e <_ZN5Servo5writeEi>:
    709e:	af 92       	push	r10
    70a0:	bf 92       	push	r11
    70a2:	cf 92       	push	r12
    70a4:	df 92       	push	r13
    70a6:	ef 92       	push	r14
    70a8:	ff 92       	push	r15
    70aa:	0f 93       	push	r16
    70ac:	1f 93       	push	r17
    70ae:	cf 93       	push	r28
    70b0:	df 93       	push	r29
    70b2:	ec 01       	movw	r28, r24
    70b4:	82 e0       	ldi	r24, 0x02	; 2
    70b6:	60 32       	cpi	r22, 0x20	; 32
    70b8:	78 07       	cpc	r23, r24
    70ba:	0c f0       	brlt	.+2      	; 0x70be <_ZN5Servo5writeEi+0x20>
    70bc:	46 c0       	rjmp	.+140    	; 0x714a <_ZN5Servo5writeEi+0xac>
    70be:	77 fd       	sbrc	r23, 7
    70c0:	04 c0       	rjmp	.+8      	; 0x70ca <_ZN5Servo5writeEi+0x2c>
    70c2:	65 3b       	cpi	r22, 0xB5	; 181
    70c4:	71 05       	cpc	r23, r1
    70c6:	24 f4       	brge	.+8      	; 0x70d0 <_ZN5Servo5writeEi+0x32>
    70c8:	05 c0       	rjmp	.+10     	; 0x70d4 <_ZN5Servo5writeEi+0x36>
    70ca:	60 e0       	ldi	r22, 0x00	; 0
    70cc:	70 e0       	ldi	r23, 0x00	; 0
    70ce:	02 c0       	rjmp	.+4      	; 0x70d4 <_ZN5Servo5writeEi+0x36>
    70d0:	64 eb       	ldi	r22, 0xB4	; 180
    70d2:	70 e0       	ldi	r23, 0x00	; 0
    70d4:	00 d0       	rcall	.+0      	; 0x70d6 <_ZN5Servo5writeEi+0x38>
    70d6:	0f 92       	push	r0
    70d8:	88 27       	eor	r24, r24
    70da:	77 fd       	sbrc	r23, 7
    70dc:	80 95       	com	r24
    70de:	98 2f       	mov	r25, r24
    70e0:	49 81       	ldd	r20, Y+1	; 0x01
    70e2:	55 27       	eor	r21, r21
    70e4:	47 fd       	sbrc	r20, 7
    70e6:	50 95       	com	r21
    70e8:	28 e8       	ldi	r18, 0x88	; 136
    70ea:	30 e0       	ldi	r19, 0x00	; 0
    70ec:	24 1b       	sub	r18, r20
    70ee:	35 0b       	sbc	r19, r21
    70f0:	22 0f       	add	r18, r18
    70f2:	33 1f       	adc	r19, r19
    70f4:	22 0f       	add	r18, r18
    70f6:	33 1f       	adc	r19, r19
    70f8:	59 01       	movw	r10, r18
    70fa:	cc 24       	eor	r12, r12
    70fc:	b7 fc       	sbrc	r11, 7
    70fe:	c0 94       	com	r12
    7100:	dc 2c       	mov	r13, r12
    7102:	4a 81       	ldd	r20, Y+2	; 0x02
    7104:	55 27       	eor	r21, r21
    7106:	47 fd       	sbrc	r20, 7
    7108:	50 95       	com	r21
    710a:	28 e5       	ldi	r18, 0x58	; 88
    710c:	32 e0       	ldi	r19, 0x02	; 2
    710e:	24 1b       	sub	r18, r20
    7110:	35 0b       	sbc	r19, r21
    7112:	22 0f       	add	r18, r18
    7114:	33 1f       	adc	r19, r19
    7116:	22 0f       	add	r18, r18
    7118:	33 1f       	adc	r19, r19
    711a:	44 27       	eor	r20, r20
    711c:	37 fd       	sbrc	r19, 7
    711e:	40 95       	com	r20
    7120:	54 2f       	mov	r21, r20
    7122:	ed b7       	in	r30, 0x3d	; 61
    7124:	fe b7       	in	r31, 0x3e	; 62
    7126:	21 83       	std	Z+1, r18	; 0x01
    7128:	32 83       	std	Z+2, r19	; 0x02
    712a:	43 83       	std	Z+3, r20	; 0x03
    712c:	54 83       	std	Z+4, r21	; 0x04
    712e:	20 e0       	ldi	r18, 0x00	; 0
    7130:	30 e0       	ldi	r19, 0x00	; 0
    7132:	a9 01       	movw	r20, r18
    7134:	b4 eb       	ldi	r27, 0xB4	; 180
    7136:	eb 2e       	mov	r14, r27
    7138:	f1 2c       	mov	r15, r1
    713a:	01 2d       	mov	r16, r1
    713c:	11 2d       	mov	r17, r1
    713e:	0e 94 ca 33 	call	0x6794	; 0x6794 <_Z3maplllll>
    7142:	0f 90       	pop	r0
    7144:	0f 90       	pop	r0
    7146:	0f 90       	pop	r0
    7148:	0f 90       	pop	r0
    714a:	ce 01       	movw	r24, r28
    714c:	0e 94 0a 38 	call	0x7014	; 0x7014 <_ZN5Servo17writeMicrosecondsEi>
    7150:	df 91       	pop	r29
    7152:	cf 91       	pop	r28
    7154:	1f 91       	pop	r17
    7156:	0f 91       	pop	r16
    7158:	ff 90       	pop	r15
    715a:	ef 90       	pop	r14
    715c:	df 90       	pop	r13
    715e:	cf 90       	pop	r12
    7160:	bf 90       	pop	r11
    7162:	af 90       	pop	r10
    7164:	08 95       	ret

00007166 <_ZN5Servo16readMicrosecondsEv>:
    7166:	fc 01       	movw	r30, r24
    7168:	80 81       	ld	r24, Z
    716a:	8f 3f       	cpi	r24, 0xFF	; 255
    716c:	b9 f0       	breq	.+46     	; 0x719c <_ZN5Servo16readMicrosecondsEv+0x36>
    716e:	90 e0       	ldi	r25, 0x00	; 0
    7170:	fc 01       	movw	r30, r24
    7172:	ee 0f       	add	r30, r30
    7174:	ff 1f       	adc	r31, r31
    7176:	e8 0f       	add	r30, r24
    7178:	f9 1f       	adc	r31, r25
    717a:	e3 57       	subi	r30, 0x73	; 115
    717c:	ff 4e       	sbci	r31, 0xEF	; 239
    717e:	21 81       	ldd	r18, Z+1	; 0x01
    7180:	32 81       	ldd	r19, Z+2	; 0x02
    7182:	93 e0       	ldi	r25, 0x03	; 3
    7184:	22 0f       	add	r18, r18
    7186:	33 1f       	adc	r19, r19
    7188:	9a 95       	dec	r25
    718a:	e1 f7       	brne	.-8      	; 0x7184 <_ZN5Servo16readMicrosecondsEv+0x1e>
    718c:	84 e0       	ldi	r24, 0x04	; 4
    718e:	36 95       	lsr	r19
    7190:	27 95       	ror	r18
    7192:	8a 95       	dec	r24
    7194:	e1 f7       	brne	.-8      	; 0x718e <_ZN5Servo16readMicrosecondsEv+0x28>
    7196:	2e 5f       	subi	r18, 0xFE	; 254
    7198:	3f 4f       	sbci	r19, 0xFF	; 255
    719a:	02 c0       	rjmp	.+4      	; 0x71a0 <_ZN5Servo16readMicrosecondsEv+0x3a>
    719c:	20 e0       	ldi	r18, 0x00	; 0
    719e:	30 e0       	ldi	r19, 0x00	; 0
    71a0:	c9 01       	movw	r24, r18
    71a2:	08 95       	ret

000071a4 <_ZN5Servo4readEv>:
    71a4:	af 92       	push	r10
    71a6:	bf 92       	push	r11
    71a8:	cf 92       	push	r12
    71aa:	df 92       	push	r13
    71ac:	ef 92       	push	r14
    71ae:	ff 92       	push	r15
    71b0:	0f 93       	push	r16
    71b2:	1f 93       	push	r17
    71b4:	cf 93       	push	r28
    71b6:	df 93       	push	r29
    71b8:	ec 01       	movw	r28, r24
    71ba:	0e 94 b3 38 	call	0x7166	; 0x7166 <_ZN5Servo16readMicrosecondsEv>
    71be:	00 d0       	rcall	.+0      	; 0x71c0 <_ZN5Servo4readEv+0x1c>
    71c0:	0f 92       	push	r0
    71c2:	bc 01       	movw	r22, r24
    71c4:	6f 5f       	subi	r22, 0xFF	; 255
    71c6:	7f 4f       	sbci	r23, 0xFF	; 255
    71c8:	88 27       	eor	r24, r24
    71ca:	77 fd       	sbrc	r23, 7
    71cc:	80 95       	com	r24
    71ce:	98 2f       	mov	r25, r24
    71d0:	49 81       	ldd	r20, Y+1	; 0x01
    71d2:	55 27       	eor	r21, r21
    71d4:	47 fd       	sbrc	r20, 7
    71d6:	50 95       	com	r21
    71d8:	28 e8       	ldi	r18, 0x88	; 136
    71da:	30 e0       	ldi	r19, 0x00	; 0
    71dc:	24 1b       	sub	r18, r20
    71de:	35 0b       	sbc	r19, r21
    71e0:	22 0f       	add	r18, r18
    71e2:	33 1f       	adc	r19, r19
    71e4:	22 0f       	add	r18, r18
    71e6:	33 1f       	adc	r19, r19
    71e8:	44 27       	eor	r20, r20
    71ea:	37 fd       	sbrc	r19, 7
    71ec:	40 95       	com	r20
    71ee:	54 2f       	mov	r21, r20
    71f0:	aa 81       	ldd	r26, Y+2	; 0x02
    71f2:	bb 27       	eor	r27, r27
    71f4:	a7 fd       	sbrc	r26, 7
    71f6:	b0 95       	com	r27
    71f8:	e8 e5       	ldi	r30, 0x58	; 88
    71fa:	f2 e0       	ldi	r31, 0x02	; 2
    71fc:	ea 1b       	sub	r30, r26
    71fe:	fb 0b       	sbc	r31, r27
    7200:	ee 0f       	add	r30, r30
    7202:	ff 1f       	adc	r31, r31
    7204:	ee 0f       	add	r30, r30
    7206:	ff 1f       	adc	r31, r31
    7208:	5f 01       	movw	r10, r30
    720a:	cc 24       	eor	r12, r12
    720c:	b7 fc       	sbrc	r11, 7
    720e:	c0 94       	com	r12
    7210:	dc 2c       	mov	r13, r12
    7212:	e4 eb       	ldi	r30, 0xB4	; 180
    7214:	ee 2e       	mov	r14, r30
    7216:	f1 2c       	mov	r15, r1
    7218:	01 2d       	mov	r16, r1
    721a:	11 2d       	mov	r17, r1
    721c:	ed b7       	in	r30, 0x3d	; 61
    721e:	fe b7       	in	r31, 0x3e	; 62
    7220:	e1 82       	std	Z+1, r14	; 0x01
    7222:	f2 82       	std	Z+2, r15	; 0x02
    7224:	03 83       	std	Z+3, r16	; 0x03
    7226:	14 83       	std	Z+4, r17	; 0x04
    7228:	86 01       	movw	r16, r12
    722a:	75 01       	movw	r14, r10
    722c:	aa 24       	eor	r10, r10
    722e:	bb 24       	eor	r11, r11
    7230:	65 01       	movw	r12, r10
    7232:	0e 94 ca 33 	call	0x6794	; 0x6794 <_Z3maplllll>
    7236:	0f 90       	pop	r0
    7238:	0f 90       	pop	r0
    723a:	0f 90       	pop	r0
    723c:	0f 90       	pop	r0
    723e:	cb 01       	movw	r24, r22
    7240:	df 91       	pop	r29
    7242:	cf 91       	pop	r28
    7244:	1f 91       	pop	r17
    7246:	0f 91       	pop	r16
    7248:	ff 90       	pop	r15
    724a:	ef 90       	pop	r14
    724c:	df 90       	pop	r13
    724e:	cf 90       	pop	r12
    7250:	bf 90       	pop	r11
    7252:	af 90       	pop	r10
    7254:	08 95       	ret

00007256 <twi_init>:
    7256:	10 92 45 11 	sts	0x1145, r1
    725a:	58 9a       	sbi	0x0b, 0	; 11
    725c:	59 9a       	sbi	0x0b, 1	; 11
    725e:	e9 eb       	ldi	r30, 0xB9	; 185
    7260:	f0 e0       	ldi	r31, 0x00	; 0
    7262:	80 81       	ld	r24, Z
    7264:	8e 7f       	andi	r24, 0xFE	; 254
    7266:	80 83       	st	Z, r24
    7268:	80 81       	ld	r24, Z
    726a:	8d 7f       	andi	r24, 0xFD	; 253
    726c:	80 83       	st	Z, r24
    726e:	88 e4       	ldi	r24, 0x48	; 72
    7270:	80 93 b8 00 	sts	0x00B8, r24
    7274:	85 e4       	ldi	r24, 0x45	; 69
    7276:	80 93 bc 00 	sts	0x00BC, r24
    727a:	08 95       	ret

0000727c <twi_readFrom>:
    727c:	41 32       	cpi	r20, 0x21	; 33
    727e:	88 f5       	brcc	.+98     	; 0x72e2 <twi_readFrom+0x66>
    7280:	90 91 45 11 	lds	r25, 0x1145
    7284:	99 23       	and	r25, r25
    7286:	e1 f7       	brne	.-8      	; 0x7280 <twi_readFrom+0x4>
    7288:	91 e0       	ldi	r25, 0x01	; 1
    728a:	90 93 45 11 	sts	0x1145, r25
    728e:	9f ef       	ldi	r25, 0xFF	; 255
    7290:	90 93 44 11 	sts	0x1144, r25
    7294:	10 92 22 11 	sts	0x1122, r1
    7298:	94 2f       	mov	r25, r20
    729a:	91 50       	subi	r25, 0x01	; 1
    729c:	90 93 23 11 	sts	0x1123, r25
    72a0:	88 0f       	add	r24, r24
    72a2:	81 60       	ori	r24, 0x01	; 1
    72a4:	80 93 21 11 	sts	0x1121, r24
    72a8:	85 ee       	ldi	r24, 0xE5	; 229
    72aa:	80 93 bc 00 	sts	0x00BC, r24
    72ae:	80 91 45 11 	lds	r24, 0x1145
    72b2:	81 30       	cpi	r24, 0x01	; 1
    72b4:	e1 f3       	breq	.-8      	; 0x72ae <twi_readFrom+0x32>
    72b6:	80 91 22 11 	lds	r24, 0x1122
    72ba:	84 17       	cp	r24, r20
    72bc:	10 f4       	brcc	.+4      	; 0x72c2 <twi_readFrom+0x46>
    72be:	40 91 22 11 	lds	r20, 0x1122
    72c2:	e4 e2       	ldi	r30, 0x24	; 36
    72c4:	f1 e1       	ldi	r31, 0x11	; 17
    72c6:	26 2f       	mov	r18, r22
    72c8:	37 2f       	mov	r19, r23
    72ca:	d9 01       	movw	r26, r18
    72cc:	24 2f       	mov	r18, r20
    72ce:	30 e0       	ldi	r19, 0x00	; 0
    72d0:	2e 0f       	add	r18, r30
    72d2:	3f 1f       	adc	r19, r31
    72d4:	02 c0       	rjmp	.+4      	; 0x72da <twi_readFrom+0x5e>
    72d6:	81 91       	ld	r24, Z+
    72d8:	8d 93       	st	X+, r24
    72da:	e2 17       	cp	r30, r18
    72dc:	f3 07       	cpc	r31, r19
    72de:	d9 f7       	brne	.-10     	; 0x72d6 <twi_readFrom+0x5a>
    72e0:	01 c0       	rjmp	.+2      	; 0x72e4 <twi_readFrom+0x68>
    72e2:	40 e0       	ldi	r20, 0x00	; 0
    72e4:	84 2f       	mov	r24, r20
    72e6:	08 95       	ret

000072e8 <twi_writeTo>:
    72e8:	41 32       	cpi	r20, 0x21	; 33
    72ea:	b0 f5       	brcc	.+108    	; 0x7358 <twi_writeTo+0x70>
    72ec:	90 91 45 11 	lds	r25, 0x1145
    72f0:	99 23       	and	r25, r25
    72f2:	e1 f7       	brne	.-8      	; 0x72ec <twi_writeTo+0x4>
    72f4:	92 e0       	ldi	r25, 0x02	; 2
    72f6:	90 93 45 11 	sts	0x1145, r25
    72fa:	9f ef       	ldi	r25, 0xFF	; 255
    72fc:	90 93 44 11 	sts	0x1144, r25
    7300:	10 92 22 11 	sts	0x1122, r1
    7304:	40 93 23 11 	sts	0x1123, r20
    7308:	db 01       	movw	r26, r22
    730a:	e4 e2       	ldi	r30, 0x24	; 36
    730c:	f1 e1       	ldi	r31, 0x11	; 17
    730e:	50 e0       	ldi	r21, 0x00	; 0
    7310:	4e 0f       	add	r20, r30
    7312:	5f 1f       	adc	r21, r31
    7314:	02 c0       	rjmp	.+4      	; 0x731a <twi_writeTo+0x32>
    7316:	9d 91       	ld	r25, X+
    7318:	91 93       	st	Z+, r25
    731a:	e4 17       	cp	r30, r20
    731c:	f5 07       	cpc	r31, r21
    731e:	d9 f7       	brne	.-10     	; 0x7316 <twi_writeTo+0x2e>
    7320:	90 e0       	ldi	r25, 0x00	; 0
    7322:	88 0f       	add	r24, r24
    7324:	99 1f       	adc	r25, r25
    7326:	80 93 21 11 	sts	0x1121, r24
    732a:	85 ee       	ldi	r24, 0xE5	; 229
    732c:	80 93 bc 00 	sts	0x00BC, r24
    7330:	22 23       	and	r18, r18
    7332:	21 f0       	breq	.+8      	; 0x733c <twi_writeTo+0x54>
    7334:	80 91 45 11 	lds	r24, 0x1145
    7338:	82 30       	cpi	r24, 0x02	; 2
    733a:	e1 f3       	breq	.-8      	; 0x7334 <twi_writeTo+0x4c>
    733c:	80 91 44 11 	lds	r24, 0x1144
    7340:	8f 3f       	cpi	r24, 0xFF	; 255
    7342:	61 f0       	breq	.+24     	; 0x735c <twi_writeTo+0x74>
    7344:	80 91 44 11 	lds	r24, 0x1144
    7348:	80 32       	cpi	r24, 0x20	; 32
    734a:	51 f0       	breq	.+20     	; 0x7360 <twi_writeTo+0x78>
    734c:	80 91 44 11 	lds	r24, 0x1144
    7350:	80 33       	cpi	r24, 0x30	; 48
    7352:	41 f4       	brne	.+16     	; 0x7364 <twi_writeTo+0x7c>
    7354:	83 e0       	ldi	r24, 0x03	; 3
    7356:	08 95       	ret
    7358:	81 e0       	ldi	r24, 0x01	; 1
    735a:	08 95       	ret
    735c:	80 e0       	ldi	r24, 0x00	; 0
    735e:	08 95       	ret
    7360:	82 e0       	ldi	r24, 0x02	; 2
    7362:	08 95       	ret
    7364:	84 e0       	ldi	r24, 0x04	; 4
    7366:	08 95       	ret

00007368 <twi_transmit>:
    7368:	61 32       	cpi	r22, 0x21	; 33
    736a:	a0 f4       	brcc	.+40     	; 0x7394 <twi_transmit+0x2c>
    736c:	20 91 45 11 	lds	r18, 0x1145
    7370:	24 30       	cpi	r18, 0x04	; 4
    7372:	91 f4       	brne	.+36     	; 0x7398 <twi_transmit+0x30>
    7374:	60 93 6a 11 	sts	0x116A, r22
    7378:	dc 01       	movw	r26, r24
    737a:	ed e6       	ldi	r30, 0x6D	; 109
    737c:	f1 e1       	ldi	r31, 0x11	; 17
    737e:	70 e0       	ldi	r23, 0x00	; 0
    7380:	6e 0f       	add	r22, r30
    7382:	7f 1f       	adc	r23, r31
    7384:	02 c0       	rjmp	.+4      	; 0x738a <twi_transmit+0x22>
    7386:	8d 91       	ld	r24, X+
    7388:	81 93       	st	Z+, r24
    738a:	e6 17       	cp	r30, r22
    738c:	f7 07       	cpc	r31, r23
    738e:	d9 f7       	brne	.-10     	; 0x7386 <twi_transmit+0x1e>
    7390:	80 e0       	ldi	r24, 0x00	; 0
    7392:	08 95       	ret
    7394:	81 e0       	ldi	r24, 0x01	; 1
    7396:	08 95       	ret
    7398:	82 e0       	ldi	r24, 0x02	; 2
    739a:	08 95       	ret

0000739c <twi_reply>:
    739c:	88 23       	and	r24, r24
    739e:	11 f0       	breq	.+4      	; 0x73a4 <twi_reply+0x8>
    73a0:	85 ec       	ldi	r24, 0xC5	; 197
    73a2:	01 c0       	rjmp	.+2      	; 0x73a6 <twi_reply+0xa>
    73a4:	85 e8       	ldi	r24, 0x85	; 133
    73a6:	80 93 bc 00 	sts	0x00BC, r24
    73aa:	08 95       	ret

000073ac <twi_stop>:
    73ac:	85 ed       	ldi	r24, 0xD5	; 213
    73ae:	80 93 bc 00 	sts	0x00BC, r24
    73b2:	80 91 bc 00 	lds	r24, 0x00BC
    73b6:	84 fd       	sbrc	r24, 4
    73b8:	fc cf       	rjmp	.-8      	; 0x73b2 <twi_stop+0x6>
    73ba:	10 92 45 11 	sts	0x1145, r1
    73be:	08 95       	ret

000073c0 <twi_releaseBus>:
    73c0:	85 ec       	ldi	r24, 0xC5	; 197
    73c2:	80 93 bc 00 	sts	0x00BC, r24
    73c6:	10 92 45 11 	sts	0x1145, r1
    73ca:	08 95       	ret

000073cc <__vector_39>:
    73cc:	1f 92       	push	r1
    73ce:	0f 92       	push	r0
    73d0:	0f b6       	in	r0, 0x3f	; 63
    73d2:	0f 92       	push	r0
    73d4:	0b b6       	in	r0, 0x3b	; 59
    73d6:	0f 92       	push	r0
    73d8:	11 24       	eor	r1, r1
    73da:	2f 93       	push	r18
    73dc:	3f 93       	push	r19
    73de:	4f 93       	push	r20
    73e0:	5f 93       	push	r21
    73e2:	6f 93       	push	r22
    73e4:	7f 93       	push	r23
    73e6:	8f 93       	push	r24
    73e8:	9f 93       	push	r25
    73ea:	af 93       	push	r26
    73ec:	bf 93       	push	r27
    73ee:	ef 93       	push	r30
    73f0:	ff 93       	push	r31
    73f2:	80 91 b9 00 	lds	r24, 0x00B9
    73f6:	90 e0       	ldi	r25, 0x00	; 0
    73f8:	88 7f       	andi	r24, 0xF8	; 248
    73fa:	90 70       	andi	r25, 0x00	; 0
    73fc:	80 36       	cpi	r24, 0x60	; 96
    73fe:	91 05       	cpc	r25, r1
    7400:	09 f4       	brne	.+2      	; 0x7404 <__vector_39+0x38>
    7402:	c2 c0       	rjmp	.+388    	; 0x7588 <__vector_39+0x1bc>
    7404:	81 36       	cpi	r24, 0x61	; 97
    7406:	91 05       	cpc	r25, r1
    7408:	e4 f5       	brge	.+120    	; 0x7482 <__vector_39+0xb6>
    740a:	88 32       	cpi	r24, 0x28	; 40
    740c:	91 05       	cpc	r25, r1
    740e:	09 f4       	brne	.+2      	; 0x7412 <__vector_39+0x46>
    7410:	7e c0       	rjmp	.+252    	; 0x750e <__vector_39+0x142>
    7412:	89 32       	cpi	r24, 0x29	; 41
    7414:	91 05       	cpc	r25, r1
    7416:	c4 f4       	brge	.+48     	; 0x7448 <__vector_39+0x7c>
    7418:	80 31       	cpi	r24, 0x10	; 16
    741a:	91 05       	cpc	r25, r1
    741c:	09 f4       	brne	.+2      	; 0x7420 <__vector_39+0x54>
    741e:	72 c0       	rjmp	.+228    	; 0x7504 <__vector_39+0x138>
    7420:	81 31       	cpi	r24, 0x11	; 17
    7422:	91 05       	cpc	r25, r1
    7424:	44 f4       	brge	.+16     	; 0x7436 <__vector_39+0x6a>
    7426:	00 97       	sbiw	r24, 0x00	; 0
    7428:	09 f4       	brne	.+2      	; 0x742c <__vector_39+0x60>
    742a:	13 c1       	rjmp	.+550    	; 0x7652 <__vector_39+0x286>
    742c:	88 30       	cpi	r24, 0x08	; 8
    742e:	91 05       	cpc	r25, r1
    7430:	09 f0       	breq	.+2      	; 0x7434 <__vector_39+0x68>
    7432:	13 c1       	rjmp	.+550    	; 0x765a <__vector_39+0x28e>
    7434:	67 c0       	rjmp	.+206    	; 0x7504 <__vector_39+0x138>
    7436:	88 31       	cpi	r24, 0x18	; 24
    7438:	91 05       	cpc	r25, r1
    743a:	09 f4       	brne	.+2      	; 0x743e <__vector_39+0x72>
    743c:	68 c0       	rjmp	.+208    	; 0x750e <__vector_39+0x142>
    743e:	80 32       	cpi	r24, 0x20	; 32
    7440:	91 05       	cpc	r25, r1
    7442:	09 f0       	breq	.+2      	; 0x7446 <__vector_39+0x7a>
    7444:	0a c1       	rjmp	.+532    	; 0x765a <__vector_39+0x28e>
    7446:	78 c0       	rjmp	.+240    	; 0x7538 <__vector_39+0x16c>
    7448:	80 34       	cpi	r24, 0x40	; 64
    744a:	91 05       	cpc	r25, r1
    744c:	09 f4       	brne	.+2      	; 0x7450 <__vector_39+0x84>
    744e:	8a c0       	rjmp	.+276    	; 0x7564 <__vector_39+0x198>
    7450:	81 34       	cpi	r24, 0x41	; 65
    7452:	91 05       	cpc	r25, r1
    7454:	4c f4       	brge	.+18     	; 0x7468 <__vector_39+0x9c>
    7456:	80 33       	cpi	r24, 0x30	; 48
    7458:	91 05       	cpc	r25, r1
    745a:	09 f4       	brne	.+2      	; 0x745e <__vector_39+0x92>
    745c:	6f c0       	rjmp	.+222    	; 0x753c <__vector_39+0x170>
    745e:	88 33       	cpi	r24, 0x38	; 56
    7460:	91 05       	cpc	r25, r1
    7462:	09 f0       	breq	.+2      	; 0x7466 <__vector_39+0x9a>
    7464:	fa c0       	rjmp	.+500    	; 0x765a <__vector_39+0x28e>
    7466:	6e c0       	rjmp	.+220    	; 0x7544 <__vector_39+0x178>
    7468:	80 35       	cpi	r24, 0x50	; 80
    746a:	91 05       	cpc	r25, r1
    746c:	09 f4       	brne	.+2      	; 0x7470 <__vector_39+0xa4>
    746e:	6e c0       	rjmp	.+220    	; 0x754c <__vector_39+0x180>
    7470:	88 35       	cpi	r24, 0x58	; 88
    7472:	91 05       	cpc	r25, r1
    7474:	09 f4       	brne	.+2      	; 0x7478 <__vector_39+0xac>
    7476:	7b c0       	rjmp	.+246    	; 0x756e <__vector_39+0x1a2>
    7478:	88 34       	cpi	r24, 0x48	; 72
    747a:	91 05       	cpc	r25, r1
    747c:	09 f0       	breq	.+2      	; 0x7480 <__vector_39+0xb4>
    747e:	ed c0       	rjmp	.+474    	; 0x765a <__vector_39+0x28e>
    7480:	ea c0       	rjmp	.+468    	; 0x7656 <__vector_39+0x28a>
    7482:	88 39       	cpi	r24, 0x98	; 152
    7484:	91 05       	cpc	r25, r1
    7486:	09 f4       	brne	.+2      	; 0x748a <__vector_39+0xbe>
    7488:	da c0       	rjmp	.+436    	; 0x763e <__vector_39+0x272>
    748a:	89 39       	cpi	r24, 0x99	; 153
    748c:	91 05       	cpc	r25, r1
    748e:	ec f4       	brge	.+58     	; 0x74ca <__vector_39+0xfe>
    7490:	88 37       	cpi	r24, 0x78	; 120
    7492:	91 05       	cpc	r25, r1
    7494:	09 f4       	brne	.+2      	; 0x7498 <__vector_39+0xcc>
    7496:	78 c0       	rjmp	.+240    	; 0x7588 <__vector_39+0x1bc>
    7498:	89 37       	cpi	r24, 0x79	; 121
    749a:	91 05       	cpc	r25, r1
    749c:	4c f4       	brge	.+18     	; 0x74b0 <__vector_39+0xe4>
    749e:	88 36       	cpi	r24, 0x68	; 104
    74a0:	91 05       	cpc	r25, r1
    74a2:	09 f4       	brne	.+2      	; 0x74a6 <__vector_39+0xda>
    74a4:	71 c0       	rjmp	.+226    	; 0x7588 <__vector_39+0x1bc>
    74a6:	80 37       	cpi	r24, 0x70	; 112
    74a8:	91 05       	cpc	r25, r1
    74aa:	09 f0       	breq	.+2      	; 0x74ae <__vector_39+0xe2>
    74ac:	d6 c0       	rjmp	.+428    	; 0x765a <__vector_39+0x28e>
    74ae:	6c c0       	rjmp	.+216    	; 0x7588 <__vector_39+0x1bc>
    74b0:	88 38       	cpi	r24, 0x88	; 136
    74b2:	91 05       	cpc	r25, r1
    74b4:	09 f4       	brne	.+2      	; 0x74b8 <__vector_39+0xec>
    74b6:	c3 c0       	rjmp	.+390    	; 0x763e <__vector_39+0x272>
    74b8:	80 39       	cpi	r24, 0x90	; 144
    74ba:	91 05       	cpc	r25, r1
    74bc:	09 f4       	brne	.+2      	; 0x74c0 <__vector_39+0xf4>
    74be:	6a c0       	rjmp	.+212    	; 0x7594 <__vector_39+0x1c8>
    74c0:	80 38       	cpi	r24, 0x80	; 128
    74c2:	91 05       	cpc	r25, r1
    74c4:	09 f0       	breq	.+2      	; 0x74c8 <__vector_39+0xfc>
    74c6:	c9 c0       	rjmp	.+402    	; 0x765a <__vector_39+0x28e>
    74c8:	65 c0       	rjmp	.+202    	; 0x7594 <__vector_39+0x1c8>
    74ca:	80 3b       	cpi	r24, 0xB0	; 176
    74cc:	91 05       	cpc	r25, r1
    74ce:	09 f4       	brne	.+2      	; 0x74d2 <__vector_39+0x106>
    74d0:	8e c0       	rjmp	.+284    	; 0x75ee <__vector_39+0x222>
    74d2:	81 3b       	cpi	r24, 0xB1	; 177
    74d4:	91 05       	cpc	r25, r1
    74d6:	4c f4       	brge	.+18     	; 0x74ea <__vector_39+0x11e>
    74d8:	80 3a       	cpi	r24, 0xA0	; 160
    74da:	91 05       	cpc	r25, r1
    74dc:	09 f4       	brne	.+2      	; 0x74e0 <__vector_39+0x114>
    74de:	6c c0       	rjmp	.+216    	; 0x75b8 <__vector_39+0x1ec>
    74e0:	88 3a       	cpi	r24, 0xA8	; 168
    74e2:	91 05       	cpc	r25, r1
    74e4:	09 f0       	breq	.+2      	; 0x74e8 <__vector_39+0x11c>
    74e6:	b9 c0       	rjmp	.+370    	; 0x765a <__vector_39+0x28e>
    74e8:	82 c0       	rjmp	.+260    	; 0x75ee <__vector_39+0x222>
    74ea:	80 3c       	cpi	r24, 0xC0	; 192
    74ec:	91 05       	cpc	r25, r1
    74ee:	09 f4       	brne	.+2      	; 0x74f2 <__vector_39+0x126>
    74f0:	aa c0       	rjmp	.+340    	; 0x7646 <__vector_39+0x27a>
    74f2:	88 3c       	cpi	r24, 0xC8	; 200
    74f4:	91 05       	cpc	r25, r1
    74f6:	09 f4       	brne	.+2      	; 0x74fa <__vector_39+0x12e>
    74f8:	a6 c0       	rjmp	.+332    	; 0x7646 <__vector_39+0x27a>
    74fa:	88 3b       	cpi	r24, 0xB8	; 184
    74fc:	91 05       	cpc	r25, r1
    74fe:	09 f0       	breq	.+2      	; 0x7502 <__vector_39+0x136>
    7500:	ac c0       	rjmp	.+344    	; 0x765a <__vector_39+0x28e>
    7502:	8a c0       	rjmp	.+276    	; 0x7618 <__vector_39+0x24c>
    7504:	80 91 21 11 	lds	r24, 0x1121
    7508:	80 93 bb 00 	sts	0x00BB, r24
    750c:	13 c0       	rjmp	.+38     	; 0x7534 <__vector_39+0x168>
    750e:	90 91 22 11 	lds	r25, 0x1122
    7512:	80 91 23 11 	lds	r24, 0x1123
    7516:	98 17       	cp	r25, r24
    7518:	08 f0       	brcs	.+2      	; 0x751c <__vector_39+0x150>
    751a:	9d c0       	rjmp	.+314    	; 0x7656 <__vector_39+0x28a>
    751c:	80 91 22 11 	lds	r24, 0x1122
    7520:	e8 2f       	mov	r30, r24
    7522:	f0 e0       	ldi	r31, 0x00	; 0
    7524:	ec 5d       	subi	r30, 0xDC	; 220
    7526:	fe 4e       	sbci	r31, 0xEE	; 238
    7528:	90 81       	ld	r25, Z
    752a:	90 93 bb 00 	sts	0x00BB, r25
    752e:	8f 5f       	subi	r24, 0xFF	; 255
    7530:	80 93 22 11 	sts	0x1122, r24
    7534:	81 e0       	ldi	r24, 0x01	; 1
    7536:	84 c0       	rjmp	.+264    	; 0x7640 <__vector_39+0x274>
    7538:	80 e2       	ldi	r24, 0x20	; 32
    753a:	01 c0       	rjmp	.+2      	; 0x753e <__vector_39+0x172>
    753c:	80 e3       	ldi	r24, 0x30	; 48
    753e:	80 93 44 11 	sts	0x1144, r24
    7542:	89 c0       	rjmp	.+274    	; 0x7656 <__vector_39+0x28a>
    7544:	88 e3       	ldi	r24, 0x38	; 56
    7546:	80 93 44 11 	sts	0x1144, r24
    754a:	4e c0       	rjmp	.+156    	; 0x75e8 <__vector_39+0x21c>
    754c:	80 91 22 11 	lds	r24, 0x1122
    7550:	90 91 bb 00 	lds	r25, 0x00BB
    7554:	e8 2f       	mov	r30, r24
    7556:	f0 e0       	ldi	r31, 0x00	; 0
    7558:	ec 5d       	subi	r30, 0xDC	; 220
    755a:	fe 4e       	sbci	r31, 0xEE	; 238
    755c:	90 83       	st	Z, r25
    755e:	8f 5f       	subi	r24, 0xFF	; 255
    7560:	80 93 22 11 	sts	0x1122, r24
    7564:	90 91 22 11 	lds	r25, 0x1122
    7568:	80 91 23 11 	lds	r24, 0x1123
    756c:	65 c0       	rjmp	.+202    	; 0x7638 <__vector_39+0x26c>
    756e:	80 91 22 11 	lds	r24, 0x1122
    7572:	90 91 bb 00 	lds	r25, 0x00BB
    7576:	e8 2f       	mov	r30, r24
    7578:	f0 e0       	ldi	r31, 0x00	; 0
    757a:	ec 5d       	subi	r30, 0xDC	; 220
    757c:	fe 4e       	sbci	r31, 0xEE	; 238
    757e:	90 83       	st	Z, r25
    7580:	8f 5f       	subi	r24, 0xFF	; 255
    7582:	80 93 22 11 	sts	0x1122, r24
    7586:	67 c0       	rjmp	.+206    	; 0x7656 <__vector_39+0x28a>
    7588:	83 e0       	ldi	r24, 0x03	; 3
    758a:	80 93 45 11 	sts	0x1145, r24
    758e:	10 92 46 11 	sts	0x1146, r1
    7592:	d0 cf       	rjmp	.-96     	; 0x7534 <__vector_39+0x168>
    7594:	80 91 46 11 	lds	r24, 0x1146
    7598:	80 32       	cpi	r24, 0x20	; 32
    759a:	08 f0       	brcs	.+2      	; 0x759e <__vector_39+0x1d2>
    759c:	50 c0       	rjmp	.+160    	; 0x763e <__vector_39+0x272>
    759e:	80 91 46 11 	lds	r24, 0x1146
    75a2:	90 91 bb 00 	lds	r25, 0x00BB
    75a6:	e8 2f       	mov	r30, r24
    75a8:	f0 e0       	ldi	r31, 0x00	; 0
    75aa:	e9 5b       	subi	r30, 0xB9	; 185
    75ac:	fe 4e       	sbci	r31, 0xEE	; 238
    75ae:	90 83       	st	Z, r25
    75b0:	8f 5f       	subi	r24, 0xFF	; 255
    75b2:	80 93 46 11 	sts	0x1146, r24
    75b6:	be cf       	rjmp	.-132    	; 0x7534 <__vector_39+0x168>
    75b8:	80 91 46 11 	lds	r24, 0x1146
    75bc:	80 32       	cpi	r24, 0x20	; 32
    75be:	30 f4       	brcc	.+12     	; 0x75cc <__vector_39+0x200>
    75c0:	e0 91 46 11 	lds	r30, 0x1146
    75c4:	f0 e0       	ldi	r31, 0x00	; 0
    75c6:	e9 5b       	subi	r30, 0xB9	; 185
    75c8:	fe 4e       	sbci	r31, 0xEE	; 238
    75ca:	10 82       	st	Z, r1
    75cc:	0e 94 d6 39 	call	0x73ac	; 0x73ac <twi_stop>
    75d0:	60 91 46 11 	lds	r22, 0x1146
    75d4:	e0 91 67 11 	lds	r30, 0x1167
    75d8:	f0 91 68 11 	lds	r31, 0x1168
    75dc:	87 e4       	ldi	r24, 0x47	; 71
    75de:	91 e1       	ldi	r25, 0x11	; 17
    75e0:	70 e0       	ldi	r23, 0x00	; 0
    75e2:	19 95       	eicall
    75e4:	10 92 46 11 	sts	0x1146, r1
    75e8:	0e 94 e0 39 	call	0x73c0	; 0x73c0 <twi_releaseBus>
    75ec:	36 c0       	rjmp	.+108    	; 0x765a <__vector_39+0x28e>
    75ee:	84 e0       	ldi	r24, 0x04	; 4
    75f0:	80 93 45 11 	sts	0x1145, r24
    75f4:	10 92 69 11 	sts	0x1169, r1
    75f8:	10 92 6a 11 	sts	0x116A, r1
    75fc:	e0 91 6b 11 	lds	r30, 0x116B
    7600:	f0 91 6c 11 	lds	r31, 0x116C
    7604:	19 95       	eicall
    7606:	80 91 6a 11 	lds	r24, 0x116A
    760a:	88 23       	and	r24, r24
    760c:	29 f4       	brne	.+10     	; 0x7618 <__vector_39+0x24c>
    760e:	81 e0       	ldi	r24, 0x01	; 1
    7610:	80 93 6a 11 	sts	0x116A, r24
    7614:	10 92 6d 11 	sts	0x116D, r1
    7618:	80 91 69 11 	lds	r24, 0x1169
    761c:	e8 2f       	mov	r30, r24
    761e:	f0 e0       	ldi	r31, 0x00	; 0
    7620:	e3 59       	subi	r30, 0x93	; 147
    7622:	fe 4e       	sbci	r31, 0xEE	; 238
    7624:	90 81       	ld	r25, Z
    7626:	90 93 bb 00 	sts	0x00BB, r25
    762a:	8f 5f       	subi	r24, 0xFF	; 255
    762c:	80 93 69 11 	sts	0x1169, r24
    7630:	90 91 69 11 	lds	r25, 0x1169
    7634:	80 91 6a 11 	lds	r24, 0x116A
    7638:	98 17       	cp	r25, r24
    763a:	08 f4       	brcc	.+2      	; 0x763e <__vector_39+0x272>
    763c:	7b cf       	rjmp	.-266    	; 0x7534 <__vector_39+0x168>
    763e:	80 e0       	ldi	r24, 0x00	; 0
    7640:	0e 94 ce 39 	call	0x739c	; 0x739c <twi_reply>
    7644:	0a c0       	rjmp	.+20     	; 0x765a <__vector_39+0x28e>
    7646:	81 e0       	ldi	r24, 0x01	; 1
    7648:	0e 94 ce 39 	call	0x739c	; 0x739c <twi_reply>
    764c:	10 92 45 11 	sts	0x1145, r1
    7650:	04 c0       	rjmp	.+8      	; 0x765a <__vector_39+0x28e>
    7652:	10 92 44 11 	sts	0x1144, r1
    7656:	0e 94 d6 39 	call	0x73ac	; 0x73ac <twi_stop>
    765a:	ff 91       	pop	r31
    765c:	ef 91       	pop	r30
    765e:	bf 91       	pop	r27
    7660:	af 91       	pop	r26
    7662:	9f 91       	pop	r25
    7664:	8f 91       	pop	r24
    7666:	7f 91       	pop	r23
    7668:	6f 91       	pop	r22
    766a:	5f 91       	pop	r21
    766c:	4f 91       	pop	r20
    766e:	3f 91       	pop	r19
    7670:	2f 91       	pop	r18
    7672:	0f 90       	pop	r0
    7674:	0b be       	out	0x3b, r0	; 59
    7676:	0f 90       	pop	r0
    7678:	0f be       	out	0x3f, r0	; 63
    767a:	0f 90       	pop	r0
    767c:	1f 90       	pop	r1
    767e:	18 95       	reti

00007680 <malloc>:
    7680:	cf 93       	push	r28
    7682:	df 93       	push	r29
    7684:	82 30       	cpi	r24, 0x02	; 2
    7686:	91 05       	cpc	r25, r1
    7688:	10 f4       	brcc	.+4      	; 0x768e <malloc+0xe>
    768a:	82 e0       	ldi	r24, 0x02	; 2
    768c:	90 e0       	ldi	r25, 0x00	; 0
    768e:	e0 91 8f 11 	lds	r30, 0x118F
    7692:	f0 91 90 11 	lds	r31, 0x1190
    7696:	40 e0       	ldi	r20, 0x00	; 0
    7698:	50 e0       	ldi	r21, 0x00	; 0
    769a:	20 e0       	ldi	r18, 0x00	; 0
    769c:	30 e0       	ldi	r19, 0x00	; 0
    769e:	26 c0       	rjmp	.+76     	; 0x76ec <malloc+0x6c>
    76a0:	60 81       	ld	r22, Z
    76a2:	71 81       	ldd	r23, Z+1	; 0x01
    76a4:	68 17       	cp	r22, r24
    76a6:	79 07       	cpc	r23, r25
    76a8:	e0 f0       	brcs	.+56     	; 0x76e2 <malloc+0x62>
    76aa:	68 17       	cp	r22, r24
    76ac:	79 07       	cpc	r23, r25
    76ae:	81 f4       	brne	.+32     	; 0x76d0 <malloc+0x50>
    76b0:	82 81       	ldd	r24, Z+2	; 0x02
    76b2:	93 81       	ldd	r25, Z+3	; 0x03
    76b4:	21 15       	cp	r18, r1
    76b6:	31 05       	cpc	r19, r1
    76b8:	31 f0       	breq	.+12     	; 0x76c6 <malloc+0x46>
    76ba:	d9 01       	movw	r26, r18
    76bc:	13 96       	adiw	r26, 0x03	; 3
    76be:	9c 93       	st	X, r25
    76c0:	8e 93       	st	-X, r24
    76c2:	12 97       	sbiw	r26, 0x02	; 2
    76c4:	2b c0       	rjmp	.+86     	; 0x771c <malloc+0x9c>
    76c6:	90 93 90 11 	sts	0x1190, r25
    76ca:	80 93 8f 11 	sts	0x118F, r24
    76ce:	26 c0       	rjmp	.+76     	; 0x771c <malloc+0x9c>
    76d0:	41 15       	cp	r20, r1
    76d2:	51 05       	cpc	r21, r1
    76d4:	19 f0       	breq	.+6      	; 0x76dc <malloc+0x5c>
    76d6:	64 17       	cp	r22, r20
    76d8:	75 07       	cpc	r23, r21
    76da:	18 f4       	brcc	.+6      	; 0x76e2 <malloc+0x62>
    76dc:	ab 01       	movw	r20, r22
    76de:	e9 01       	movw	r28, r18
    76e0:	df 01       	movw	r26, r30
    76e2:	9f 01       	movw	r18, r30
    76e4:	72 81       	ldd	r23, Z+2	; 0x02
    76e6:	63 81       	ldd	r22, Z+3	; 0x03
    76e8:	e7 2f       	mov	r30, r23
    76ea:	f6 2f       	mov	r31, r22
    76ec:	30 97       	sbiw	r30, 0x00	; 0
    76ee:	c1 f6       	brne	.-80     	; 0x76a0 <malloc+0x20>
    76f0:	41 15       	cp	r20, r1
    76f2:	51 05       	cpc	r21, r1
    76f4:	01 f1       	breq	.+64     	; 0x7736 <malloc+0xb6>
    76f6:	48 1b       	sub	r20, r24
    76f8:	59 0b       	sbc	r21, r25
    76fa:	44 30       	cpi	r20, 0x04	; 4
    76fc:	51 05       	cpc	r21, r1
    76fe:	80 f4       	brcc	.+32     	; 0x7720 <malloc+0xa0>
    7700:	12 96       	adiw	r26, 0x02	; 2
    7702:	8d 91       	ld	r24, X+
    7704:	9c 91       	ld	r25, X
    7706:	13 97       	sbiw	r26, 0x03	; 3
    7708:	20 97       	sbiw	r28, 0x00	; 0
    770a:	19 f0       	breq	.+6      	; 0x7712 <malloc+0x92>
    770c:	9b 83       	std	Y+3, r25	; 0x03
    770e:	8a 83       	std	Y+2, r24	; 0x02
    7710:	04 c0       	rjmp	.+8      	; 0x771a <malloc+0x9a>
    7712:	90 93 90 11 	sts	0x1190, r25
    7716:	80 93 8f 11 	sts	0x118F, r24
    771a:	fd 01       	movw	r30, r26
    771c:	32 96       	adiw	r30, 0x02	; 2
    771e:	46 c0       	rjmp	.+140    	; 0x77ac <malloc+0x12c>
    7720:	fd 01       	movw	r30, r26
    7722:	e4 0f       	add	r30, r20
    7724:	f5 1f       	adc	r31, r21
    7726:	81 93       	st	Z+, r24
    7728:	91 93       	st	Z+, r25
    772a:	42 50       	subi	r20, 0x02	; 2
    772c:	50 40       	sbci	r21, 0x00	; 0
    772e:	11 96       	adiw	r26, 0x01	; 1
    7730:	5c 93       	st	X, r21
    7732:	4e 93       	st	-X, r20
    7734:	3b c0       	rjmp	.+118    	; 0x77ac <malloc+0x12c>
    7736:	20 91 8d 11 	lds	r18, 0x118D
    773a:	30 91 8e 11 	lds	r19, 0x118E
    773e:	21 15       	cp	r18, r1
    7740:	31 05       	cpc	r19, r1
    7742:	41 f4       	brne	.+16     	; 0x7754 <malloc+0xd4>
    7744:	20 91 1f 05 	lds	r18, 0x051F
    7748:	30 91 20 05 	lds	r19, 0x0520
    774c:	30 93 8e 11 	sts	0x118E, r19
    7750:	20 93 8d 11 	sts	0x118D, r18
    7754:	20 91 21 05 	lds	r18, 0x0521
    7758:	30 91 22 05 	lds	r19, 0x0522
    775c:	21 15       	cp	r18, r1
    775e:	31 05       	cpc	r19, r1
    7760:	41 f4       	brne	.+16     	; 0x7772 <malloc+0xf2>
    7762:	2d b7       	in	r18, 0x3d	; 61
    7764:	3e b7       	in	r19, 0x3e	; 62
    7766:	40 91 1d 05 	lds	r20, 0x051D
    776a:	50 91 1e 05 	lds	r21, 0x051E
    776e:	24 1b       	sub	r18, r20
    7770:	35 0b       	sbc	r19, r21
    7772:	e0 91 8d 11 	lds	r30, 0x118D
    7776:	f0 91 8e 11 	lds	r31, 0x118E
    777a:	e2 17       	cp	r30, r18
    777c:	f3 07       	cpc	r31, r19
    777e:	a0 f4       	brcc	.+40     	; 0x77a8 <malloc+0x128>
    7780:	2e 1b       	sub	r18, r30
    7782:	3f 0b       	sbc	r19, r31
    7784:	28 17       	cp	r18, r24
    7786:	39 07       	cpc	r19, r25
    7788:	78 f0       	brcs	.+30     	; 0x77a8 <malloc+0x128>
    778a:	ac 01       	movw	r20, r24
    778c:	4e 5f       	subi	r20, 0xFE	; 254
    778e:	5f 4f       	sbci	r21, 0xFF	; 255
    7790:	24 17       	cp	r18, r20
    7792:	35 07       	cpc	r19, r21
    7794:	48 f0       	brcs	.+18     	; 0x77a8 <malloc+0x128>
    7796:	4e 0f       	add	r20, r30
    7798:	5f 1f       	adc	r21, r31
    779a:	50 93 8e 11 	sts	0x118E, r21
    779e:	40 93 8d 11 	sts	0x118D, r20
    77a2:	81 93       	st	Z+, r24
    77a4:	91 93       	st	Z+, r25
    77a6:	02 c0       	rjmp	.+4      	; 0x77ac <malloc+0x12c>
    77a8:	e0 e0       	ldi	r30, 0x00	; 0
    77aa:	f0 e0       	ldi	r31, 0x00	; 0
    77ac:	cf 01       	movw	r24, r30
    77ae:	df 91       	pop	r29
    77b0:	cf 91       	pop	r28
    77b2:	08 95       	ret

000077b4 <free>:
    77b4:	cf 93       	push	r28
    77b6:	df 93       	push	r29
    77b8:	00 97       	sbiw	r24, 0x00	; 0
    77ba:	09 f4       	brne	.+2      	; 0x77be <free+0xa>
    77bc:	91 c0       	rjmp	.+290    	; 0x78e0 <free+0x12c>
    77be:	fc 01       	movw	r30, r24
    77c0:	32 97       	sbiw	r30, 0x02	; 2
    77c2:	13 82       	std	Z+3, r1	; 0x03
    77c4:	12 82       	std	Z+2, r1	; 0x02
    77c6:	60 91 8f 11 	lds	r22, 0x118F
    77ca:	70 91 90 11 	lds	r23, 0x1190
    77ce:	61 15       	cp	r22, r1
    77d0:	71 05       	cpc	r23, r1
    77d2:	81 f4       	brne	.+32     	; 0x77f4 <free+0x40>
    77d4:	20 81       	ld	r18, Z
    77d6:	31 81       	ldd	r19, Z+1	; 0x01
    77d8:	28 0f       	add	r18, r24
    77da:	39 1f       	adc	r19, r25
    77dc:	80 91 8d 11 	lds	r24, 0x118D
    77e0:	90 91 8e 11 	lds	r25, 0x118E
    77e4:	82 17       	cp	r24, r18
    77e6:	93 07       	cpc	r25, r19
    77e8:	99 f5       	brne	.+102    	; 0x7850 <free+0x9c>
    77ea:	f0 93 8e 11 	sts	0x118E, r31
    77ee:	e0 93 8d 11 	sts	0x118D, r30
    77f2:	76 c0       	rjmp	.+236    	; 0x78e0 <free+0x12c>
    77f4:	db 01       	movw	r26, r22
    77f6:	80 e0       	ldi	r24, 0x00	; 0
    77f8:	90 e0       	ldi	r25, 0x00	; 0
    77fa:	02 c0       	rjmp	.+4      	; 0x7800 <free+0x4c>
    77fc:	cd 01       	movw	r24, r26
    77fe:	d9 01       	movw	r26, r18
    7800:	ae 17       	cp	r26, r30
    7802:	bf 07       	cpc	r27, r31
    7804:	48 f4       	brcc	.+18     	; 0x7818 <free+0x64>
    7806:	12 96       	adiw	r26, 0x02	; 2
    7808:	2d 91       	ld	r18, X+
    780a:	3c 91       	ld	r19, X
    780c:	13 97       	sbiw	r26, 0x03	; 3
    780e:	21 15       	cp	r18, r1
    7810:	31 05       	cpc	r19, r1
    7812:	a1 f7       	brne	.-24     	; 0x77fc <free+0x48>
    7814:	cd 01       	movw	r24, r26
    7816:	21 c0       	rjmp	.+66     	; 0x785a <free+0xa6>
    7818:	b3 83       	std	Z+3, r27	; 0x03
    781a:	a2 83       	std	Z+2, r26	; 0x02
    781c:	ef 01       	movw	r28, r30
    781e:	49 91       	ld	r20, Y+
    7820:	59 91       	ld	r21, Y+
    7822:	9e 01       	movw	r18, r28
    7824:	24 0f       	add	r18, r20
    7826:	35 1f       	adc	r19, r21
    7828:	a2 17       	cp	r26, r18
    782a:	b3 07       	cpc	r27, r19
    782c:	79 f4       	brne	.+30     	; 0x784c <free+0x98>
    782e:	2d 91       	ld	r18, X+
    7830:	3c 91       	ld	r19, X
    7832:	11 97       	sbiw	r26, 0x01	; 1
    7834:	24 0f       	add	r18, r20
    7836:	35 1f       	adc	r19, r21
    7838:	2e 5f       	subi	r18, 0xFE	; 254
    783a:	3f 4f       	sbci	r19, 0xFF	; 255
    783c:	31 83       	std	Z+1, r19	; 0x01
    783e:	20 83       	st	Z, r18
    7840:	12 96       	adiw	r26, 0x02	; 2
    7842:	2d 91       	ld	r18, X+
    7844:	3c 91       	ld	r19, X
    7846:	13 97       	sbiw	r26, 0x03	; 3
    7848:	33 83       	std	Z+3, r19	; 0x03
    784a:	22 83       	std	Z+2, r18	; 0x02
    784c:	00 97       	sbiw	r24, 0x00	; 0
    784e:	29 f4       	brne	.+10     	; 0x785a <free+0xa6>
    7850:	f0 93 90 11 	sts	0x1190, r31
    7854:	e0 93 8f 11 	sts	0x118F, r30
    7858:	43 c0       	rjmp	.+134    	; 0x78e0 <free+0x12c>
    785a:	dc 01       	movw	r26, r24
    785c:	13 96       	adiw	r26, 0x03	; 3
    785e:	fc 93       	st	X, r31
    7860:	ee 93       	st	-X, r30
    7862:	12 97       	sbiw	r26, 0x02	; 2
    7864:	4d 91       	ld	r20, X+
    7866:	5d 91       	ld	r21, X+
    7868:	a4 0f       	add	r26, r20
    786a:	b5 1f       	adc	r27, r21
    786c:	ea 17       	cp	r30, r26
    786e:	fb 07       	cpc	r31, r27
    7870:	69 f4       	brne	.+26     	; 0x788c <free+0xd8>
    7872:	20 81       	ld	r18, Z
    7874:	31 81       	ldd	r19, Z+1	; 0x01
    7876:	24 0f       	add	r18, r20
    7878:	35 1f       	adc	r19, r21
    787a:	2e 5f       	subi	r18, 0xFE	; 254
    787c:	3f 4f       	sbci	r19, 0xFF	; 255
    787e:	ec 01       	movw	r28, r24
    7880:	39 83       	std	Y+1, r19	; 0x01
    7882:	28 83       	st	Y, r18
    7884:	22 81       	ldd	r18, Z+2	; 0x02
    7886:	33 81       	ldd	r19, Z+3	; 0x03
    7888:	3b 83       	std	Y+3, r19	; 0x03
    788a:	2a 83       	std	Y+2, r18	; 0x02
    788c:	e0 e0       	ldi	r30, 0x00	; 0
    788e:	f0 e0       	ldi	r31, 0x00	; 0
    7890:	02 c0       	rjmp	.+4      	; 0x7896 <free+0xe2>
    7892:	fb 01       	movw	r30, r22
    7894:	bc 01       	movw	r22, r24
    7896:	db 01       	movw	r26, r22
    7898:	12 96       	adiw	r26, 0x02	; 2
    789a:	8d 91       	ld	r24, X+
    789c:	9c 91       	ld	r25, X
    789e:	13 97       	sbiw	r26, 0x03	; 3
    78a0:	00 97       	sbiw	r24, 0x00	; 0
    78a2:	b9 f7       	brne	.-18     	; 0x7892 <free+0xde>
    78a4:	9b 01       	movw	r18, r22
    78a6:	2e 5f       	subi	r18, 0xFE	; 254
    78a8:	3f 4f       	sbci	r19, 0xFF	; 255
    78aa:	8d 91       	ld	r24, X+
    78ac:	9c 91       	ld	r25, X
    78ae:	11 97       	sbiw	r26, 0x01	; 1
    78b0:	82 0f       	add	r24, r18
    78b2:	93 1f       	adc	r25, r19
    78b4:	40 91 8d 11 	lds	r20, 0x118D
    78b8:	50 91 8e 11 	lds	r21, 0x118E
    78bc:	48 17       	cp	r20, r24
    78be:	59 07       	cpc	r21, r25
    78c0:	79 f4       	brne	.+30     	; 0x78e0 <free+0x12c>
    78c2:	30 97       	sbiw	r30, 0x00	; 0
    78c4:	29 f4       	brne	.+10     	; 0x78d0 <free+0x11c>
    78c6:	10 92 90 11 	sts	0x1190, r1
    78ca:	10 92 8f 11 	sts	0x118F, r1
    78ce:	02 c0       	rjmp	.+4      	; 0x78d4 <free+0x120>
    78d0:	13 82       	std	Z+3, r1	; 0x03
    78d2:	12 82       	std	Z+2, r1	; 0x02
    78d4:	22 50       	subi	r18, 0x02	; 2
    78d6:	30 40       	sbci	r19, 0x00	; 0
    78d8:	30 93 8e 11 	sts	0x118E, r19
    78dc:	20 93 8d 11 	sts	0x118D, r18
    78e0:	df 91       	pop	r29
    78e2:	cf 91       	pop	r28
    78e4:	08 95       	ret

000078e6 <realloc>:
    78e6:	8f 92       	push	r8
    78e8:	9f 92       	push	r9
    78ea:	af 92       	push	r10
    78ec:	bf 92       	push	r11
    78ee:	cf 92       	push	r12
    78f0:	df 92       	push	r13
    78f2:	ef 92       	push	r14
    78f4:	ff 92       	push	r15
    78f6:	0f 93       	push	r16
    78f8:	1f 93       	push	r17
    78fa:	cf 93       	push	r28
    78fc:	df 93       	push	r29
    78fe:	8c 01       	movw	r16, r24
    7900:	cb 01       	movw	r24, r22
    7902:	01 15       	cp	r16, r1
    7904:	11 05       	cpc	r17, r1
    7906:	29 f4       	brne	.+10     	; 0x7912 <realloc+0x2c>
    7908:	0e 94 40 3b 	call	0x7680	; 0x7680 <malloc>
    790c:	08 2f       	mov	r16, r24
    790e:	19 2f       	mov	r17, r25
    7910:	b5 c0       	rjmp	.+362    	; 0x7a7c <realloc+0x196>
    7912:	d8 01       	movw	r26, r16
    7914:	12 97       	sbiw	r26, 0x02	; 2
    7916:	98 01       	movw	r18, r16
    7918:	26 0f       	add	r18, r22
    791a:	37 1f       	adc	r19, r23
    791c:	2a 17       	cp	r18, r26
    791e:	3b 07       	cpc	r19, r27
    7920:	08 f4       	brcc	.+2      	; 0x7924 <realloc+0x3e>
    7922:	aa c0       	rjmp	.+340    	; 0x7a78 <realloc+0x192>
    7924:	ed 90       	ld	r14, X+
    7926:	fc 90       	ld	r15, X
    7928:	11 97       	sbiw	r26, 0x01	; 1
    792a:	e6 16       	cp	r14, r22
    792c:	f7 06       	cpc	r15, r23
    792e:	d0 f0       	brcs	.+52     	; 0x7964 <realloc+0x7e>
    7930:	45 e0       	ldi	r20, 0x05	; 5
    7932:	e4 16       	cp	r14, r20
    7934:	f1 04       	cpc	r15, r1
    7936:	08 f4       	brcc	.+2      	; 0x793a <realloc+0x54>
    7938:	a1 c0       	rjmp	.+322    	; 0x7a7c <realloc+0x196>
    793a:	a7 01       	movw	r20, r14
    793c:	44 50       	subi	r20, 0x04	; 4
    793e:	50 40       	sbci	r21, 0x00	; 0
    7940:	46 17       	cp	r20, r22
    7942:	57 07       	cpc	r21, r23
    7944:	08 f4       	brcc	.+2      	; 0x7948 <realloc+0x62>
    7946:	9a c0       	rjmp	.+308    	; 0x7a7c <realloc+0x196>
    7948:	a7 01       	movw	r20, r14
    794a:	42 50       	subi	r20, 0x02	; 2
    794c:	50 40       	sbci	r21, 0x00	; 0
    794e:	46 1b       	sub	r20, r22
    7950:	57 0b       	sbc	r21, r23
    7952:	f9 01       	movw	r30, r18
    7954:	41 93       	st	Z+, r20
    7956:	51 93       	st	Z+, r21
    7958:	6d 93       	st	X+, r22
    795a:	7c 93       	st	X, r23
    795c:	cf 01       	movw	r24, r30
    795e:	0e 94 da 3b 	call	0x77b4	; 0x77b4 <free>
    7962:	8c c0       	rjmp	.+280    	; 0x7a7c <realloc+0x196>
    7964:	5b 01       	movw	r10, r22
    7966:	ae 18       	sub	r10, r14
    7968:	bf 08       	sbc	r11, r15
    796a:	48 01       	movw	r8, r16
    796c:	8e 0c       	add	r8, r14
    796e:	9f 1c       	adc	r9, r15
    7970:	e0 91 8f 11 	lds	r30, 0x118F
    7974:	f0 91 90 11 	lds	r31, 0x1190
    7978:	cc 24       	eor	r12, r12
    797a:	dd 24       	eor	r13, r13
    797c:	c0 e0       	ldi	r28, 0x00	; 0
    797e:	d0 e0       	ldi	r29, 0x00	; 0
    7980:	41 c0       	rjmp	.+130    	; 0x7a04 <realloc+0x11e>
    7982:	e8 15       	cp	r30, r8
    7984:	f9 05       	cpc	r31, r9
    7986:	99 f5       	brne	.+102    	; 0x79ee <realloc+0x108>
    7988:	60 81       	ld	r22, Z
    798a:	71 81       	ldd	r23, Z+1	; 0x01
    798c:	ab 01       	movw	r20, r22
    798e:	4e 5f       	subi	r20, 0xFE	; 254
    7990:	5f 4f       	sbci	r21, 0xFF	; 255
    7992:	4a 15       	cp	r20, r10
    7994:	5b 05       	cpc	r21, r11
    7996:	58 f1       	brcs	.+86     	; 0x79ee <realloc+0x108>
    7998:	ab 01       	movw	r20, r22
    799a:	4a 19       	sub	r20, r10
    799c:	5b 09       	sbc	r21, r11
    799e:	cc 24       	eor	r12, r12
    79a0:	dd 24       	eor	r13, r13
    79a2:	68 94       	set
    79a4:	c1 f8       	bld	r12, 1
    79a6:	c4 0e       	add	r12, r20
    79a8:	d5 1e       	adc	r13, r21
    79aa:	82 80       	ldd	r8, Z+2	; 0x02
    79ac:	a3 80       	ldd	r10, Z+3	; 0x03
    79ae:	e5 e0       	ldi	r30, 0x05	; 5
    79b0:	ce 16       	cp	r12, r30
    79b2:	d1 04       	cpc	r13, r1
    79b4:	48 f0       	brcs	.+18     	; 0x79c8 <realloc+0xe2>
    79b6:	f9 01       	movw	r30, r18
    79b8:	82 82       	std	Z+2, r8	; 0x02
    79ba:	a3 82       	std	Z+3, r10	; 0x03
    79bc:	51 83       	std	Z+1, r21	; 0x01
    79be:	40 83       	st	Z, r20
    79c0:	11 96       	adiw	r26, 0x01	; 1
    79c2:	9c 93       	st	X, r25
    79c4:	8e 93       	st	-X, r24
    79c6:	09 c0       	rjmp	.+18     	; 0x79da <realloc+0xf4>
    79c8:	c7 01       	movw	r24, r14
    79ca:	02 96       	adiw	r24, 0x02	; 2
    79cc:	86 0f       	add	r24, r22
    79ce:	97 1f       	adc	r25, r23
    79d0:	11 96       	adiw	r26, 0x01	; 1
    79d2:	9c 93       	st	X, r25
    79d4:	8e 93       	st	-X, r24
    79d6:	e8 2d       	mov	r30, r8
    79d8:	fa 2d       	mov	r31, r10
    79da:	20 97       	sbiw	r28, 0x00	; 0
    79dc:	19 f0       	breq	.+6      	; 0x79e4 <realloc+0xfe>
    79de:	fb 83       	std	Y+3, r31	; 0x03
    79e0:	ea 83       	std	Y+2, r30	; 0x02
    79e2:	4c c0       	rjmp	.+152    	; 0x7a7c <realloc+0x196>
    79e4:	f0 93 90 11 	sts	0x1190, r31
    79e8:	e0 93 8f 11 	sts	0x118F, r30
    79ec:	47 c0       	rjmp	.+142    	; 0x7a7c <realloc+0x196>
    79ee:	40 81       	ld	r20, Z
    79f0:	51 81       	ldd	r21, Z+1	; 0x01
    79f2:	c4 16       	cp	r12, r20
    79f4:	d5 06       	cpc	r13, r21
    79f6:	08 f4       	brcc	.+2      	; 0x79fa <realloc+0x114>
    79f8:	6a 01       	movw	r12, r20
    79fa:	ef 01       	movw	r28, r30
    79fc:	52 81       	ldd	r21, Z+2	; 0x02
    79fe:	43 81       	ldd	r20, Z+3	; 0x03
    7a00:	e5 2f       	mov	r30, r21
    7a02:	f4 2f       	mov	r31, r20
    7a04:	30 97       	sbiw	r30, 0x00	; 0
    7a06:	09 f0       	breq	.+2      	; 0x7a0a <realloc+0x124>
    7a08:	bc cf       	rjmp	.-136    	; 0x7982 <realloc+0x9c>
    7a0a:	40 91 8d 11 	lds	r20, 0x118D
    7a0e:	50 91 8e 11 	lds	r21, 0x118E
    7a12:	48 15       	cp	r20, r8
    7a14:	59 05       	cpc	r21, r9
    7a16:	e9 f4       	brne	.+58     	; 0x7a52 <realloc+0x16c>
    7a18:	c8 16       	cp	r12, r24
    7a1a:	d9 06       	cpc	r13, r25
    7a1c:	d0 f4       	brcc	.+52     	; 0x7a52 <realloc+0x16c>
    7a1e:	40 91 21 05 	lds	r20, 0x0521
    7a22:	50 91 22 05 	lds	r21, 0x0522
    7a26:	41 15       	cp	r20, r1
    7a28:	51 05       	cpc	r21, r1
    7a2a:	41 f4       	brne	.+16     	; 0x7a3c <realloc+0x156>
    7a2c:	4d b7       	in	r20, 0x3d	; 61
    7a2e:	5e b7       	in	r21, 0x3e	; 62
    7a30:	60 91 1d 05 	lds	r22, 0x051D
    7a34:	70 91 1e 05 	lds	r23, 0x051E
    7a38:	46 1b       	sub	r20, r22
    7a3a:	57 0b       	sbc	r21, r23
    7a3c:	24 17       	cp	r18, r20
    7a3e:	35 07       	cpc	r19, r21
    7a40:	d8 f4       	brcc	.+54     	; 0x7a78 <realloc+0x192>
    7a42:	30 93 8e 11 	sts	0x118E, r19
    7a46:	20 93 8d 11 	sts	0x118D, r18
    7a4a:	11 96       	adiw	r26, 0x01	; 1
    7a4c:	9c 93       	st	X, r25
    7a4e:	8e 93       	st	-X, r24
    7a50:	15 c0       	rjmp	.+42     	; 0x7a7c <realloc+0x196>
    7a52:	0e 94 40 3b 	call	0x7680	; 0x7680 <malloc>
    7a56:	c8 2e       	mov	r12, r24
    7a58:	e6 01       	movw	r28, r12
    7a5a:	6e 01       	movw	r12, r28
    7a5c:	d9 2e       	mov	r13, r25
    7a5e:	e6 01       	movw	r28, r12
    7a60:	20 97       	sbiw	r28, 0x00	; 0
    7a62:	51 f0       	breq	.+20     	; 0x7a78 <realloc+0x192>
    7a64:	8c 2d       	mov	r24, r12
    7a66:	b8 01       	movw	r22, r16
    7a68:	a7 01       	movw	r20, r14
    7a6a:	0e 94 4f 3d 	call	0x7a9e	; 0x7a9e <memcpy>
    7a6e:	c8 01       	movw	r24, r16
    7a70:	0e 94 da 3b 	call	0x77b4	; 0x77b4 <free>
    7a74:	86 01       	movw	r16, r12
    7a76:	02 c0       	rjmp	.+4      	; 0x7a7c <realloc+0x196>
    7a78:	00 e0       	ldi	r16, 0x00	; 0
    7a7a:	10 e0       	ldi	r17, 0x00	; 0
    7a7c:	c8 01       	movw	r24, r16
    7a7e:	df 91       	pop	r29
    7a80:	cf 91       	pop	r28
    7a82:	1f 91       	pop	r17
    7a84:	0f 91       	pop	r16
    7a86:	ff 90       	pop	r15
    7a88:	ef 90       	pop	r14
    7a8a:	df 90       	pop	r13
    7a8c:	cf 90       	pop	r12
    7a8e:	bf 90       	pop	r11
    7a90:	af 90       	pop	r10
    7a92:	9f 90       	pop	r9
    7a94:	8f 90       	pop	r8
    7a96:	08 95       	ret

00007a98 <exit>:
    7a98:	f8 94       	cli
    7a9a:	0c 94 67 41 	jmp	0x82ce	; 0x82ce <__do_global_dtors>

00007a9e <memcpy>:
    7a9e:	fb 01       	movw	r30, r22
    7aa0:	dc 01       	movw	r26, r24
    7aa2:	02 c0       	rjmp	.+4      	; 0x7aa8 <memcpy+0xa>
    7aa4:	01 90       	ld	r0, Z+
    7aa6:	0d 92       	st	X+, r0
    7aa8:	41 50       	subi	r20, 0x01	; 1
    7aaa:	50 40       	sbci	r21, 0x00	; 0
    7aac:	d8 f7       	brcc	.-10     	; 0x7aa4 <memcpy+0x6>
    7aae:	08 95       	ret

00007ab0 <__subsf3>:
    7ab0:	50 58       	subi	r21, 0x80	; 128

00007ab2 <__addsf3>:
    7ab2:	bb 27       	eor	r27, r27
    7ab4:	aa 27       	eor	r26, r26
    7ab6:	0e d0       	rcall	.+28     	; 0x7ad4 <__addsf3x>
    7ab8:	6a c2       	rjmp	.+1236   	; 0x7f8e <__fp_round>
    7aba:	33 d2       	rcall	.+1126   	; 0x7f22 <__fp_pscA>
    7abc:	30 f0       	brcs	.+12     	; 0x7aca <__addsf3+0x18>
    7abe:	38 d2       	rcall	.+1136   	; 0x7f30 <__fp_pscB>
    7ac0:	20 f0       	brcs	.+8      	; 0x7aca <__addsf3+0x18>
    7ac2:	31 f4       	brne	.+12     	; 0x7ad0 <__addsf3+0x1e>
    7ac4:	9f 3f       	cpi	r25, 0xFF	; 255
    7ac6:	11 f4       	brne	.+4      	; 0x7acc <__addsf3+0x1a>
    7ac8:	1e f4       	brtc	.+6      	; 0x7ad0 <__addsf3+0x1e>
    7aca:	f2 c1       	rjmp	.+996    	; 0x7eb0 <__fp_nan>
    7acc:	0e f4       	brtc	.+2      	; 0x7ad0 <__addsf3+0x1e>
    7ace:	e0 95       	com	r30
    7ad0:	e7 fb       	bst	r30, 7
    7ad2:	e8 c1       	rjmp	.+976    	; 0x7ea4 <__fp_inf>

00007ad4 <__addsf3x>:
    7ad4:	e9 2f       	mov	r30, r25
    7ad6:	7d d2       	rcall	.+1274   	; 0x7fd2 <__fp_split3>
    7ad8:	80 f3       	brcs	.-32     	; 0x7aba <__addsf3+0x8>
    7ada:	ba 17       	cp	r27, r26
    7adc:	62 07       	cpc	r22, r18
    7ade:	73 07       	cpc	r23, r19
    7ae0:	84 07       	cpc	r24, r20
    7ae2:	95 07       	cpc	r25, r21
    7ae4:	18 f0       	brcs	.+6      	; 0x7aec <__addsf3x+0x18>
    7ae6:	71 f4       	brne	.+28     	; 0x7b04 <__addsf3x+0x30>
    7ae8:	9e f5       	brtc	.+102    	; 0x7b50 <__addsf3x+0x7c>
    7aea:	95 c2       	rjmp	.+1322   	; 0x8016 <__fp_zero>
    7aec:	0e f4       	brtc	.+2      	; 0x7af0 <__addsf3x+0x1c>
    7aee:	e0 95       	com	r30
    7af0:	0b 2e       	mov	r0, r27
    7af2:	ba 2f       	mov	r27, r26
    7af4:	a0 2d       	mov	r26, r0
    7af6:	0b 01       	movw	r0, r22
    7af8:	b9 01       	movw	r22, r18
    7afa:	90 01       	movw	r18, r0
    7afc:	0c 01       	movw	r0, r24
    7afe:	ca 01       	movw	r24, r20
    7b00:	a0 01       	movw	r20, r0
    7b02:	11 24       	eor	r1, r1
    7b04:	ff 27       	eor	r31, r31
    7b06:	59 1b       	sub	r21, r25
    7b08:	99 f0       	breq	.+38     	; 0x7b30 <__addsf3x+0x5c>
    7b0a:	59 3f       	cpi	r21, 0xF9	; 249
    7b0c:	50 f4       	brcc	.+20     	; 0x7b22 <__addsf3x+0x4e>
    7b0e:	50 3e       	cpi	r21, 0xE0	; 224
    7b10:	68 f1       	brcs	.+90     	; 0x7b6c <__addsf3x+0x98>
    7b12:	1a 16       	cp	r1, r26
    7b14:	f0 40       	sbci	r31, 0x00	; 0
    7b16:	a2 2f       	mov	r26, r18
    7b18:	23 2f       	mov	r18, r19
    7b1a:	34 2f       	mov	r19, r20
    7b1c:	44 27       	eor	r20, r20
    7b1e:	58 5f       	subi	r21, 0xF8	; 248
    7b20:	f3 cf       	rjmp	.-26     	; 0x7b08 <__addsf3x+0x34>
    7b22:	46 95       	lsr	r20
    7b24:	37 95       	ror	r19
    7b26:	27 95       	ror	r18
    7b28:	a7 95       	ror	r26
    7b2a:	f0 40       	sbci	r31, 0x00	; 0
    7b2c:	53 95       	inc	r21
    7b2e:	c9 f7       	brne	.-14     	; 0x7b22 <__addsf3x+0x4e>
    7b30:	7e f4       	brtc	.+30     	; 0x7b50 <__addsf3x+0x7c>
    7b32:	1f 16       	cp	r1, r31
    7b34:	ba 0b       	sbc	r27, r26
    7b36:	62 0b       	sbc	r22, r18
    7b38:	73 0b       	sbc	r23, r19
    7b3a:	84 0b       	sbc	r24, r20
    7b3c:	ba f0       	brmi	.+46     	; 0x7b6c <__addsf3x+0x98>
    7b3e:	91 50       	subi	r25, 0x01	; 1
    7b40:	a1 f0       	breq	.+40     	; 0x7b6a <__addsf3x+0x96>
    7b42:	ff 0f       	add	r31, r31
    7b44:	bb 1f       	adc	r27, r27
    7b46:	66 1f       	adc	r22, r22
    7b48:	77 1f       	adc	r23, r23
    7b4a:	88 1f       	adc	r24, r24
    7b4c:	c2 f7       	brpl	.-16     	; 0x7b3e <__addsf3x+0x6a>
    7b4e:	0e c0       	rjmp	.+28     	; 0x7b6c <__addsf3x+0x98>
    7b50:	ba 0f       	add	r27, r26
    7b52:	62 1f       	adc	r22, r18
    7b54:	73 1f       	adc	r23, r19
    7b56:	84 1f       	adc	r24, r20
    7b58:	48 f4       	brcc	.+18     	; 0x7b6c <__addsf3x+0x98>
    7b5a:	87 95       	ror	r24
    7b5c:	77 95       	ror	r23
    7b5e:	67 95       	ror	r22
    7b60:	b7 95       	ror	r27
    7b62:	f7 95       	ror	r31
    7b64:	9e 3f       	cpi	r25, 0xFE	; 254
    7b66:	08 f0       	brcs	.+2      	; 0x7b6a <__addsf3x+0x96>
    7b68:	b3 cf       	rjmp	.-154    	; 0x7ad0 <__addsf3+0x1e>
    7b6a:	93 95       	inc	r25
    7b6c:	88 0f       	add	r24, r24
    7b6e:	08 f0       	brcs	.+2      	; 0x7b72 <__addsf3x+0x9e>
    7b70:	99 27       	eor	r25, r25
    7b72:	ee 0f       	add	r30, r30
    7b74:	97 95       	ror	r25
    7b76:	87 95       	ror	r24
    7b78:	08 95       	ret

00007b7a <asin>:
    7b7a:	9f 93       	push	r25
    7b7c:	9f 77       	andi	r25, 0x7F	; 127
    7b7e:	ee e3       	ldi	r30, 0x3E	; 62
    7b80:	89 37       	cpi	r24, 0x79	; 121
    7b82:	9e 07       	cpc	r25, r30
    7b84:	20 f4       	brcc	.+8      	; 0x7b8e <asin+0x14>
    7b86:	e4 ee       	ldi	r30, 0xE4	; 228
    7b88:	f0 e0       	ldi	r31, 0x00	; 0
    7b8a:	ba d1       	rcall	.+884    	; 0x7f00 <__fp_powsodd>
    7b8c:	09 c0       	rjmp	.+18     	; 0x7ba0 <asin+0x26>
    7b8e:	4b d1       	rcall	.+662    	; 0x7e26 <__fp_arccos>
    7b90:	90 58       	subi	r25, 0x80	; 128
    7b92:	a2 ea       	ldi	r26, 0xA2	; 162
    7b94:	2a ed       	ldi	r18, 0xDA	; 218
    7b96:	3f e0       	ldi	r19, 0x0F	; 15
    7b98:	49 ec       	ldi	r20, 0xC9	; 201
    7b9a:	5f e3       	ldi	r21, 0x3F	; 63
    7b9c:	9b df       	rcall	.-202    	; 0x7ad4 <__addsf3x>
    7b9e:	f7 d1       	rcall	.+1006   	; 0x7f8e <__fp_round>
    7ba0:	0f 90       	pop	r0
    7ba2:	07 fc       	sbrc	r0, 7
    7ba4:	90 58       	subi	r25, 0x80	; 128
    7ba6:	08 95       	ret
    7ba8:	bc d1       	rcall	.+888    	; 0x7f22 <__fp_pscA>
    7baa:	58 f0       	brcs	.+22     	; 0x7bc2 <asin+0x48>
    7bac:	80 e8       	ldi	r24, 0x80	; 128
    7bae:	91 e0       	ldi	r25, 0x01	; 1
    7bb0:	09 f4       	brne	.+2      	; 0x7bb4 <asin+0x3a>
    7bb2:	9e ef       	ldi	r25, 0xFE	; 254
    7bb4:	bd d1       	rcall	.+890    	; 0x7f30 <__fp_pscB>
    7bb6:	28 f0       	brcs	.+10     	; 0x7bc2 <asin+0x48>
    7bb8:	40 e8       	ldi	r20, 0x80	; 128
    7bba:	51 e0       	ldi	r21, 0x01	; 1
    7bbc:	59 f4       	brne	.+22     	; 0x7bd4 <atan2+0xe>
    7bbe:	5e ef       	ldi	r21, 0xFE	; 254
    7bc0:	09 c0       	rjmp	.+18     	; 0x7bd4 <atan2+0xe>
    7bc2:	76 c1       	rjmp	.+748    	; 0x7eb0 <__fp_nan>
    7bc4:	28 c2       	rjmp	.+1104   	; 0x8016 <__fp_zero>

00007bc6 <atan2>:
    7bc6:	e9 2f       	mov	r30, r25
    7bc8:	e0 78       	andi	r30, 0x80	; 128
    7bca:	03 d2       	rcall	.+1030   	; 0x7fd2 <__fp_split3>
    7bcc:	68 f3       	brcs	.-38     	; 0x7ba8 <asin+0x2e>
    7bce:	09 2e       	mov	r0, r25
    7bd0:	05 2a       	or	r0, r21
    7bd2:	c1 f3       	breq	.-16     	; 0x7bc4 <asin+0x4a>
    7bd4:	26 17       	cp	r18, r22
    7bd6:	37 07       	cpc	r19, r23
    7bd8:	48 07       	cpc	r20, r24
    7bda:	59 07       	cpc	r21, r25
    7bdc:	38 f0       	brcs	.+14     	; 0x7bec <atan2+0x26>
    7bde:	0e 2e       	mov	r0, r30
    7be0:	07 f8       	bld	r0, 7
    7be2:	e0 25       	eor	r30, r0
    7be4:	69 f0       	breq	.+26     	; 0x7c00 <atan2+0x3a>
    7be6:	e0 25       	eor	r30, r0
    7be8:	e0 64       	ori	r30, 0x40	; 64
    7bea:	0a c0       	rjmp	.+20     	; 0x7c00 <atan2+0x3a>
    7bec:	ef 63       	ori	r30, 0x3F	; 63
    7bee:	07 f8       	bld	r0, 7
    7bf0:	00 94       	com	r0
    7bf2:	07 fa       	bst	r0, 7
    7bf4:	db 01       	movw	r26, r22
    7bf6:	b9 01       	movw	r22, r18
    7bf8:	9d 01       	movw	r18, r26
    7bfa:	dc 01       	movw	r26, r24
    7bfc:	ca 01       	movw	r24, r20
    7bfe:	ad 01       	movw	r20, r26
    7c00:	ef 93       	push	r30
    7c02:	4a d0       	rcall	.+148    	; 0x7c98 <__divsf3_pse>
    7c04:	c4 d1       	rcall	.+904    	; 0x7f8e <__fp_round>
    7c06:	0a d0       	rcall	.+20     	; 0x7c1c <atan>
    7c08:	5f 91       	pop	r21
    7c0a:	55 23       	and	r21, r21
    7c0c:	31 f0       	breq	.+12     	; 0x7c1a <atan2+0x54>
    7c0e:	2b ed       	ldi	r18, 0xDB	; 219
    7c10:	3f e0       	ldi	r19, 0x0F	; 15
    7c12:	49 e4       	ldi	r20, 0x49	; 73
    7c14:	50 fd       	sbrc	r21, 0
    7c16:	49 ec       	ldi	r20, 0xC9	; 201
    7c18:	4c cf       	rjmp	.-360    	; 0x7ab2 <__addsf3>
    7c1a:	08 95       	ret

00007c1c <atan>:
    7c1c:	df 93       	push	r29
    7c1e:	dd 27       	eor	r29, r29
    7c20:	b9 2f       	mov	r27, r25
    7c22:	bf 77       	andi	r27, 0x7F	; 127
    7c24:	40 e8       	ldi	r20, 0x80	; 128
    7c26:	5f e3       	ldi	r21, 0x3F	; 63
    7c28:	16 16       	cp	r1, r22
    7c2a:	17 06       	cpc	r1, r23
    7c2c:	48 07       	cpc	r20, r24
    7c2e:	5b 07       	cpc	r21, r27
    7c30:	10 f4       	brcc	.+4      	; 0x7c36 <atan+0x1a>
    7c32:	d9 2f       	mov	r29, r25
    7c34:	fb d1       	rcall	.+1014   	; 0x802c <inverse>
    7c36:	9f 93       	push	r25
    7c38:	8f 93       	push	r24
    7c3a:	7f 93       	push	r23
    7c3c:	6f 93       	push	r22
    7c3e:	a8 d2       	rcall	.+1360   	; 0x8190 <square>
    7c40:	e8 ef       	ldi	r30, 0xF8	; 248
    7c42:	f0 e0       	ldi	r31, 0x00	; 0
    7c44:	38 d1       	rcall	.+624    	; 0x7eb6 <__fp_powser>
    7c46:	a3 d1       	rcall	.+838    	; 0x7f8e <__fp_round>
    7c48:	2f 91       	pop	r18
    7c4a:	3f 91       	pop	r19
    7c4c:	4f 91       	pop	r20
    7c4e:	5f 91       	pop	r21
    7c50:	00 d2       	rcall	.+1024   	; 0x8052 <__mulsf3x>
    7c52:	dd 23       	and	r29, r29
    7c54:	49 f0       	breq	.+18     	; 0x7c68 <atan+0x4c>
    7c56:	90 58       	subi	r25, 0x80	; 128
    7c58:	a2 ea       	ldi	r26, 0xA2	; 162
    7c5a:	2a ed       	ldi	r18, 0xDA	; 218
    7c5c:	3f e0       	ldi	r19, 0x0F	; 15
    7c5e:	49 ec       	ldi	r20, 0xC9	; 201
    7c60:	5f e3       	ldi	r21, 0x3F	; 63
    7c62:	d0 78       	andi	r29, 0x80	; 128
    7c64:	5d 27       	eor	r21, r29
    7c66:	36 df       	rcall	.-404    	; 0x7ad4 <__addsf3x>
    7c68:	df 91       	pop	r29
    7c6a:	91 c1       	rjmp	.+802    	; 0x7f8e <__fp_round>

00007c6c <__cmpsf2>:
    7c6c:	f7 d0       	rcall	.+494    	; 0x7e5c <__fp_cmp>
    7c6e:	08 f4       	brcc	.+2      	; 0x7c72 <__cmpsf2+0x6>
    7c70:	81 e0       	ldi	r24, 0x01	; 1
    7c72:	08 95       	ret

00007c74 <cos>:
    7c74:	65 d1       	rcall	.+714    	; 0x7f40 <__fp_rempio2>
    7c76:	e3 95       	inc	r30
    7c78:	9b c1       	rjmp	.+822    	; 0x7fb0 <__fp_sinus>

00007c7a <__divsf3>:
    7c7a:	0c d0       	rcall	.+24     	; 0x7c94 <__divsf3x>
    7c7c:	88 c1       	rjmp	.+784    	; 0x7f8e <__fp_round>
    7c7e:	58 d1       	rcall	.+688    	; 0x7f30 <__fp_pscB>
    7c80:	40 f0       	brcs	.+16     	; 0x7c92 <__divsf3+0x18>
    7c82:	4f d1       	rcall	.+670    	; 0x7f22 <__fp_pscA>
    7c84:	30 f0       	brcs	.+12     	; 0x7c92 <__divsf3+0x18>
    7c86:	21 f4       	brne	.+8      	; 0x7c90 <__divsf3+0x16>
    7c88:	5f 3f       	cpi	r21, 0xFF	; 255
    7c8a:	19 f0       	breq	.+6      	; 0x7c92 <__divsf3+0x18>
    7c8c:	0b c1       	rjmp	.+534    	; 0x7ea4 <__fp_inf>
    7c8e:	51 11       	cpse	r21, r1
    7c90:	c3 c1       	rjmp	.+902    	; 0x8018 <__fp_szero>
    7c92:	0e c1       	rjmp	.+540    	; 0x7eb0 <__fp_nan>

00007c94 <__divsf3x>:
    7c94:	9e d1       	rcall	.+828    	; 0x7fd2 <__fp_split3>
    7c96:	98 f3       	brcs	.-26     	; 0x7c7e <__divsf3+0x4>

00007c98 <__divsf3_pse>:
    7c98:	99 23       	and	r25, r25
    7c9a:	c9 f3       	breq	.-14     	; 0x7c8e <__divsf3+0x14>
    7c9c:	55 23       	and	r21, r21
    7c9e:	b1 f3       	breq	.-20     	; 0x7c8c <__divsf3+0x12>
    7ca0:	95 1b       	sub	r25, r21
    7ca2:	55 0b       	sbc	r21, r21
    7ca4:	bb 27       	eor	r27, r27
    7ca6:	aa 27       	eor	r26, r26
    7ca8:	62 17       	cp	r22, r18
    7caa:	73 07       	cpc	r23, r19
    7cac:	84 07       	cpc	r24, r20
    7cae:	38 f0       	brcs	.+14     	; 0x7cbe <__divsf3_pse+0x26>
    7cb0:	9f 5f       	subi	r25, 0xFF	; 255
    7cb2:	5f 4f       	sbci	r21, 0xFF	; 255
    7cb4:	22 0f       	add	r18, r18
    7cb6:	33 1f       	adc	r19, r19
    7cb8:	44 1f       	adc	r20, r20
    7cba:	aa 1f       	adc	r26, r26
    7cbc:	a9 f3       	breq	.-22     	; 0x7ca8 <__divsf3_pse+0x10>
    7cbe:	33 d0       	rcall	.+102    	; 0x7d26 <__divsf3_pse+0x8e>
    7cc0:	0e 2e       	mov	r0, r30
    7cc2:	3a f0       	brmi	.+14     	; 0x7cd2 <__divsf3_pse+0x3a>
    7cc4:	e0 e8       	ldi	r30, 0x80	; 128
    7cc6:	30 d0       	rcall	.+96     	; 0x7d28 <__divsf3_pse+0x90>
    7cc8:	91 50       	subi	r25, 0x01	; 1
    7cca:	50 40       	sbci	r21, 0x00	; 0
    7ccc:	e6 95       	lsr	r30
    7cce:	00 1c       	adc	r0, r0
    7cd0:	ca f7       	brpl	.-14     	; 0x7cc4 <__divsf3_pse+0x2c>
    7cd2:	29 d0       	rcall	.+82     	; 0x7d26 <__divsf3_pse+0x8e>
    7cd4:	fe 2f       	mov	r31, r30
    7cd6:	27 d0       	rcall	.+78     	; 0x7d26 <__divsf3_pse+0x8e>
    7cd8:	66 0f       	add	r22, r22
    7cda:	77 1f       	adc	r23, r23
    7cdc:	88 1f       	adc	r24, r24
    7cde:	bb 1f       	adc	r27, r27
    7ce0:	26 17       	cp	r18, r22
    7ce2:	37 07       	cpc	r19, r23
    7ce4:	48 07       	cpc	r20, r24
    7ce6:	ab 07       	cpc	r26, r27
    7ce8:	b0 e8       	ldi	r27, 0x80	; 128
    7cea:	09 f0       	breq	.+2      	; 0x7cee <__divsf3_pse+0x56>
    7cec:	bb 0b       	sbc	r27, r27
    7cee:	80 2d       	mov	r24, r0
    7cf0:	bf 01       	movw	r22, r30
    7cf2:	ff 27       	eor	r31, r31
    7cf4:	93 58       	subi	r25, 0x83	; 131
    7cf6:	5f 4f       	sbci	r21, 0xFF	; 255
    7cf8:	2a f0       	brmi	.+10     	; 0x7d04 <__divsf3_pse+0x6c>
    7cfa:	9e 3f       	cpi	r25, 0xFE	; 254
    7cfc:	51 05       	cpc	r21, r1
    7cfe:	68 f0       	brcs	.+26     	; 0x7d1a <__divsf3_pse+0x82>
    7d00:	d1 c0       	rjmp	.+418    	; 0x7ea4 <__fp_inf>
    7d02:	8a c1       	rjmp	.+788    	; 0x8018 <__fp_szero>
    7d04:	5f 3f       	cpi	r21, 0xFF	; 255
    7d06:	ec f3       	brlt	.-6      	; 0x7d02 <__divsf3_pse+0x6a>
    7d08:	98 3e       	cpi	r25, 0xE8	; 232
    7d0a:	dc f3       	brlt	.-10     	; 0x7d02 <__divsf3_pse+0x6a>
    7d0c:	86 95       	lsr	r24
    7d0e:	77 95       	ror	r23
    7d10:	67 95       	ror	r22
    7d12:	b7 95       	ror	r27
    7d14:	f7 95       	ror	r31
    7d16:	9f 5f       	subi	r25, 0xFF	; 255
    7d18:	c9 f7       	brne	.-14     	; 0x7d0c <__divsf3_pse+0x74>
    7d1a:	88 0f       	add	r24, r24
    7d1c:	91 1d       	adc	r25, r1
    7d1e:	96 95       	lsr	r25
    7d20:	87 95       	ror	r24
    7d22:	97 f9       	bld	r25, 7
    7d24:	08 95       	ret
    7d26:	e1 e0       	ldi	r30, 0x01	; 1
    7d28:	66 0f       	add	r22, r22
    7d2a:	77 1f       	adc	r23, r23
    7d2c:	88 1f       	adc	r24, r24
    7d2e:	bb 1f       	adc	r27, r27
    7d30:	62 17       	cp	r22, r18
    7d32:	73 07       	cpc	r23, r19
    7d34:	84 07       	cpc	r24, r20
    7d36:	ba 07       	cpc	r27, r26
    7d38:	20 f0       	brcs	.+8      	; 0x7d42 <__divsf3_pse+0xaa>
    7d3a:	62 1b       	sub	r22, r18
    7d3c:	73 0b       	sbc	r23, r19
    7d3e:	84 0b       	sbc	r24, r20
    7d40:	ba 0b       	sbc	r27, r26
    7d42:	ee 1f       	adc	r30, r30
    7d44:	88 f7       	brcc	.-30     	; 0x7d28 <__divsf3_pse+0x90>
    7d46:	e0 95       	com	r30
    7d48:	08 95       	ret

00007d4a <__fixsfsi>:
    7d4a:	04 d0       	rcall	.+8      	; 0x7d54 <__fixunssfsi>
    7d4c:	68 94       	set
    7d4e:	b1 11       	cpse	r27, r1
    7d50:	63 c1       	rjmp	.+710    	; 0x8018 <__fp_szero>
    7d52:	08 95       	ret

00007d54 <__fixunssfsi>:
    7d54:	46 d1       	rcall	.+652    	; 0x7fe2 <__fp_splitA>
    7d56:	88 f0       	brcs	.+34     	; 0x7d7a <__fixunssfsi+0x26>
    7d58:	9f 57       	subi	r25, 0x7F	; 127
    7d5a:	90 f0       	brcs	.+36     	; 0x7d80 <__fixunssfsi+0x2c>
    7d5c:	b9 2f       	mov	r27, r25
    7d5e:	99 27       	eor	r25, r25
    7d60:	b7 51       	subi	r27, 0x17	; 23
    7d62:	a0 f0       	brcs	.+40     	; 0x7d8c <__fixunssfsi+0x38>
    7d64:	d1 f0       	breq	.+52     	; 0x7d9a <__fixunssfsi+0x46>
    7d66:	66 0f       	add	r22, r22
    7d68:	77 1f       	adc	r23, r23
    7d6a:	88 1f       	adc	r24, r24
    7d6c:	99 1f       	adc	r25, r25
    7d6e:	1a f0       	brmi	.+6      	; 0x7d76 <__fixunssfsi+0x22>
    7d70:	ba 95       	dec	r27
    7d72:	c9 f7       	brne	.-14     	; 0x7d66 <__fixunssfsi+0x12>
    7d74:	12 c0       	rjmp	.+36     	; 0x7d9a <__fixunssfsi+0x46>
    7d76:	b1 30       	cpi	r27, 0x01	; 1
    7d78:	81 f0       	breq	.+32     	; 0x7d9a <__fixunssfsi+0x46>
    7d7a:	4d d1       	rcall	.+666    	; 0x8016 <__fp_zero>
    7d7c:	b1 e0       	ldi	r27, 0x01	; 1
    7d7e:	08 95       	ret
    7d80:	4a c1       	rjmp	.+660    	; 0x8016 <__fp_zero>
    7d82:	67 2f       	mov	r22, r23
    7d84:	78 2f       	mov	r23, r24
    7d86:	88 27       	eor	r24, r24
    7d88:	b8 5f       	subi	r27, 0xF8	; 248
    7d8a:	39 f0       	breq	.+14     	; 0x7d9a <__fixunssfsi+0x46>
    7d8c:	b9 3f       	cpi	r27, 0xF9	; 249
    7d8e:	cc f3       	brlt	.-14     	; 0x7d82 <__fixunssfsi+0x2e>
    7d90:	86 95       	lsr	r24
    7d92:	77 95       	ror	r23
    7d94:	67 95       	ror	r22
    7d96:	b3 95       	inc	r27
    7d98:	d9 f7       	brne	.-10     	; 0x7d90 <__fixunssfsi+0x3c>
    7d9a:	3e f4       	brtc	.+14     	; 0x7daa <__fixunssfsi+0x56>
    7d9c:	90 95       	com	r25
    7d9e:	80 95       	com	r24
    7da0:	70 95       	com	r23
    7da2:	61 95       	neg	r22
    7da4:	7f 4f       	sbci	r23, 0xFF	; 255
    7da6:	8f 4f       	sbci	r24, 0xFF	; 255
    7da8:	9f 4f       	sbci	r25, 0xFF	; 255
    7daa:	08 95       	ret

00007dac <__floatunsisf>:
    7dac:	e8 94       	clt
    7dae:	09 c0       	rjmp	.+18     	; 0x7dc2 <__floatsisf+0x12>

00007db0 <__floatsisf>:
    7db0:	97 fb       	bst	r25, 7
    7db2:	3e f4       	brtc	.+14     	; 0x7dc2 <__floatsisf+0x12>
    7db4:	90 95       	com	r25
    7db6:	80 95       	com	r24
    7db8:	70 95       	com	r23
    7dba:	61 95       	neg	r22
    7dbc:	7f 4f       	sbci	r23, 0xFF	; 255
    7dbe:	8f 4f       	sbci	r24, 0xFF	; 255
    7dc0:	9f 4f       	sbci	r25, 0xFF	; 255
    7dc2:	99 23       	and	r25, r25
    7dc4:	a9 f0       	breq	.+42     	; 0x7df0 <__floatsisf+0x40>
    7dc6:	f9 2f       	mov	r31, r25
    7dc8:	96 e9       	ldi	r25, 0x96	; 150
    7dca:	bb 27       	eor	r27, r27
    7dcc:	93 95       	inc	r25
    7dce:	f6 95       	lsr	r31
    7dd0:	87 95       	ror	r24
    7dd2:	77 95       	ror	r23
    7dd4:	67 95       	ror	r22
    7dd6:	b7 95       	ror	r27
    7dd8:	f1 11       	cpse	r31, r1
    7dda:	f8 cf       	rjmp	.-16     	; 0x7dcc <__floatsisf+0x1c>
    7ddc:	fa f4       	brpl	.+62     	; 0x7e1c <__floatsisf+0x6c>
    7dde:	bb 0f       	add	r27, r27
    7de0:	11 f4       	brne	.+4      	; 0x7de6 <__floatsisf+0x36>
    7de2:	60 ff       	sbrs	r22, 0
    7de4:	1b c0       	rjmp	.+54     	; 0x7e1c <__floatsisf+0x6c>
    7de6:	6f 5f       	subi	r22, 0xFF	; 255
    7de8:	7f 4f       	sbci	r23, 0xFF	; 255
    7dea:	8f 4f       	sbci	r24, 0xFF	; 255
    7dec:	9f 4f       	sbci	r25, 0xFF	; 255
    7dee:	16 c0       	rjmp	.+44     	; 0x7e1c <__floatsisf+0x6c>
    7df0:	88 23       	and	r24, r24
    7df2:	11 f0       	breq	.+4      	; 0x7df8 <__floatsisf+0x48>
    7df4:	96 e9       	ldi	r25, 0x96	; 150
    7df6:	11 c0       	rjmp	.+34     	; 0x7e1a <__floatsisf+0x6a>
    7df8:	77 23       	and	r23, r23
    7dfa:	21 f0       	breq	.+8      	; 0x7e04 <__floatsisf+0x54>
    7dfc:	9e e8       	ldi	r25, 0x8E	; 142
    7dfe:	87 2f       	mov	r24, r23
    7e00:	76 2f       	mov	r23, r22
    7e02:	05 c0       	rjmp	.+10     	; 0x7e0e <__floatsisf+0x5e>
    7e04:	66 23       	and	r22, r22
    7e06:	71 f0       	breq	.+28     	; 0x7e24 <__floatsisf+0x74>
    7e08:	96 e8       	ldi	r25, 0x86	; 134
    7e0a:	86 2f       	mov	r24, r22
    7e0c:	70 e0       	ldi	r23, 0x00	; 0
    7e0e:	60 e0       	ldi	r22, 0x00	; 0
    7e10:	2a f0       	brmi	.+10     	; 0x7e1c <__floatsisf+0x6c>
    7e12:	9a 95       	dec	r25
    7e14:	66 0f       	add	r22, r22
    7e16:	77 1f       	adc	r23, r23
    7e18:	88 1f       	adc	r24, r24
    7e1a:	da f7       	brpl	.-10     	; 0x7e12 <__floatsisf+0x62>
    7e1c:	88 0f       	add	r24, r24
    7e1e:	96 95       	lsr	r25
    7e20:	87 95       	ror	r24
    7e22:	97 f9       	bld	r25, 7
    7e24:	08 95       	ret

00007e26 <__fp_arccos>:
    7e26:	df 93       	push	r29
    7e28:	cf 93       	push	r28
    7e2a:	1f 93       	push	r17
    7e2c:	0f 93       	push	r16
    7e2e:	8b 01       	movw	r16, r22
    7e30:	ec 01       	movw	r28, r24
    7e32:	e5 e2       	ldi	r30, 0x25	; 37
    7e34:	f1 e0       	ldi	r31, 0x01	; 1
    7e36:	3f d0       	rcall	.+126    	; 0x7eb6 <__fp_powser>
    7e38:	aa d0       	rcall	.+340    	; 0x7f8e <__fp_round>
    7e3a:	98 01       	movw	r18, r16
    7e3c:	ae 01       	movw	r20, r28
    7e3e:	8b 01       	movw	r16, r22
    7e40:	ec 01       	movw	r28, r24
    7e42:	60 e0       	ldi	r22, 0x00	; 0
    7e44:	70 e0       	ldi	r23, 0x00	; 0
    7e46:	80 e8       	ldi	r24, 0x80	; 128
    7e48:	9f e3       	ldi	r25, 0x3F	; 63
    7e4a:	32 de       	rcall	.-924    	; 0x7ab0 <__subsf3>
    7e4c:	63 d1       	rcall	.+710    	; 0x8114 <sqrt>
    7e4e:	98 01       	movw	r18, r16
    7e50:	ae 01       	movw	r20, r28
    7e52:	0f 91       	pop	r16
    7e54:	1f 91       	pop	r17
    7e56:	cf 91       	pop	r28
    7e58:	df 91       	pop	r29
    7e5a:	fb c0       	rjmp	.+502    	; 0x8052 <__mulsf3x>

00007e5c <__fp_cmp>:
    7e5c:	99 0f       	add	r25, r25
    7e5e:	00 08       	sbc	r0, r0
    7e60:	55 0f       	add	r21, r21
    7e62:	aa 0b       	sbc	r26, r26
    7e64:	e0 e8       	ldi	r30, 0x80	; 128
    7e66:	fe ef       	ldi	r31, 0xFE	; 254
    7e68:	16 16       	cp	r1, r22
    7e6a:	17 06       	cpc	r1, r23
    7e6c:	e8 07       	cpc	r30, r24
    7e6e:	f9 07       	cpc	r31, r25
    7e70:	c0 f0       	brcs	.+48     	; 0x7ea2 <__fp_cmp+0x46>
    7e72:	12 16       	cp	r1, r18
    7e74:	13 06       	cpc	r1, r19
    7e76:	e4 07       	cpc	r30, r20
    7e78:	f5 07       	cpc	r31, r21
    7e7a:	98 f0       	brcs	.+38     	; 0x7ea2 <__fp_cmp+0x46>
    7e7c:	62 1b       	sub	r22, r18
    7e7e:	73 0b       	sbc	r23, r19
    7e80:	84 0b       	sbc	r24, r20
    7e82:	95 0b       	sbc	r25, r21
    7e84:	39 f4       	brne	.+14     	; 0x7e94 <__fp_cmp+0x38>
    7e86:	0a 26       	eor	r0, r26
    7e88:	61 f0       	breq	.+24     	; 0x7ea2 <__fp_cmp+0x46>
    7e8a:	23 2b       	or	r18, r19
    7e8c:	24 2b       	or	r18, r20
    7e8e:	25 2b       	or	r18, r21
    7e90:	21 f4       	brne	.+8      	; 0x7e9a <__fp_cmp+0x3e>
    7e92:	08 95       	ret
    7e94:	0a 26       	eor	r0, r26
    7e96:	09 f4       	brne	.+2      	; 0x7e9a <__fp_cmp+0x3e>
    7e98:	a1 40       	sbci	r26, 0x01	; 1
    7e9a:	a6 95       	lsr	r26
    7e9c:	8f ef       	ldi	r24, 0xFF	; 255
    7e9e:	81 1d       	adc	r24, r1
    7ea0:	81 1d       	adc	r24, r1
    7ea2:	08 95       	ret

00007ea4 <__fp_inf>:
    7ea4:	97 f9       	bld	r25, 7
    7ea6:	9f 67       	ori	r25, 0x7F	; 127
    7ea8:	80 e8       	ldi	r24, 0x80	; 128
    7eaa:	70 e0       	ldi	r23, 0x00	; 0
    7eac:	60 e0       	ldi	r22, 0x00	; 0
    7eae:	08 95       	ret

00007eb0 <__fp_nan>:
    7eb0:	9f ef       	ldi	r25, 0xFF	; 255
    7eb2:	80 ec       	ldi	r24, 0xC0	; 192
    7eb4:	08 95       	ret

00007eb6 <__fp_powser>:
    7eb6:	df 93       	push	r29
    7eb8:	cf 93       	push	r28
    7eba:	1f 93       	push	r17
    7ebc:	0f 93       	push	r16
    7ebe:	ff 92       	push	r15
    7ec0:	ef 92       	push	r14
    7ec2:	df 92       	push	r13
    7ec4:	7b 01       	movw	r14, r22
    7ec6:	8c 01       	movw	r16, r24
    7ec8:	68 94       	set
    7eca:	05 c0       	rjmp	.+10     	; 0x7ed6 <__fp_powser+0x20>
    7ecc:	da 2e       	mov	r13, r26
    7ece:	ef 01       	movw	r28, r30
    7ed0:	c0 d0       	rcall	.+384    	; 0x8052 <__mulsf3x>
    7ed2:	fe 01       	movw	r30, r28
    7ed4:	e8 94       	clt
    7ed6:	a5 91       	lpm	r26, Z+
    7ed8:	25 91       	lpm	r18, Z+
    7eda:	35 91       	lpm	r19, Z+
    7edc:	45 91       	lpm	r20, Z+
    7ede:	55 91       	lpm	r21, Z+
    7ee0:	ae f3       	brts	.-22     	; 0x7ecc <__fp_powser+0x16>
    7ee2:	ef 01       	movw	r28, r30
    7ee4:	f7 dd       	rcall	.-1042   	; 0x7ad4 <__addsf3x>
    7ee6:	fe 01       	movw	r30, r28
    7ee8:	97 01       	movw	r18, r14
    7eea:	a8 01       	movw	r20, r16
    7eec:	da 94       	dec	r13
    7eee:	79 f7       	brne	.-34     	; 0x7ece <__fp_powser+0x18>
    7ef0:	df 90       	pop	r13
    7ef2:	ef 90       	pop	r14
    7ef4:	ff 90       	pop	r15
    7ef6:	0f 91       	pop	r16
    7ef8:	1f 91       	pop	r17
    7efa:	cf 91       	pop	r28
    7efc:	df 91       	pop	r29
    7efe:	08 95       	ret

00007f00 <__fp_powsodd>:
    7f00:	9f 93       	push	r25
    7f02:	8f 93       	push	r24
    7f04:	7f 93       	push	r23
    7f06:	6f 93       	push	r22
    7f08:	ff 93       	push	r31
    7f0a:	ef 93       	push	r30
    7f0c:	9b 01       	movw	r18, r22
    7f0e:	ac 01       	movw	r20, r24
    7f10:	94 d0       	rcall	.+296    	; 0x803a <__mulsf3>
    7f12:	ef 91       	pop	r30
    7f14:	ff 91       	pop	r31
    7f16:	cf df       	rcall	.-98     	; 0x7eb6 <__fp_powser>
    7f18:	2f 91       	pop	r18
    7f1a:	3f 91       	pop	r19
    7f1c:	4f 91       	pop	r20
    7f1e:	5f 91       	pop	r21
    7f20:	8c c0       	rjmp	.+280    	; 0x803a <__mulsf3>

00007f22 <__fp_pscA>:
    7f22:	00 24       	eor	r0, r0
    7f24:	0a 94       	dec	r0
    7f26:	16 16       	cp	r1, r22
    7f28:	17 06       	cpc	r1, r23
    7f2a:	18 06       	cpc	r1, r24
    7f2c:	09 06       	cpc	r0, r25
    7f2e:	08 95       	ret

00007f30 <__fp_pscB>:
    7f30:	00 24       	eor	r0, r0
    7f32:	0a 94       	dec	r0
    7f34:	12 16       	cp	r1, r18
    7f36:	13 06       	cpc	r1, r19
    7f38:	14 06       	cpc	r1, r20
    7f3a:	05 06       	cpc	r0, r21
    7f3c:	08 95       	ret
    7f3e:	b8 cf       	rjmp	.-144    	; 0x7eb0 <__fp_nan>

00007f40 <__fp_rempio2>:
    7f40:	50 d0       	rcall	.+160    	; 0x7fe2 <__fp_splitA>
    7f42:	e8 f3       	brcs	.-6      	; 0x7f3e <__fp_pscB+0xe>
    7f44:	e8 94       	clt
    7f46:	e0 e0       	ldi	r30, 0x00	; 0
    7f48:	bb 27       	eor	r27, r27
    7f4a:	9f 57       	subi	r25, 0x7F	; 127
    7f4c:	f0 f0       	brcs	.+60     	; 0x7f8a <__fp_rempio2+0x4a>
    7f4e:	2a ed       	ldi	r18, 0xDA	; 218
    7f50:	3f e0       	ldi	r19, 0x0F	; 15
    7f52:	49 ec       	ldi	r20, 0xC9	; 201
    7f54:	06 c0       	rjmp	.+12     	; 0x7f62 <__fp_rempio2+0x22>
    7f56:	ee 0f       	add	r30, r30
    7f58:	bb 0f       	add	r27, r27
    7f5a:	66 1f       	adc	r22, r22
    7f5c:	77 1f       	adc	r23, r23
    7f5e:	88 1f       	adc	r24, r24
    7f60:	28 f0       	brcs	.+10     	; 0x7f6c <__fp_rempio2+0x2c>
    7f62:	b2 3a       	cpi	r27, 0xA2	; 162
    7f64:	62 07       	cpc	r22, r18
    7f66:	73 07       	cpc	r23, r19
    7f68:	84 07       	cpc	r24, r20
    7f6a:	28 f0       	brcs	.+10     	; 0x7f76 <__fp_rempio2+0x36>
    7f6c:	b2 5a       	subi	r27, 0xA2	; 162
    7f6e:	62 0b       	sbc	r22, r18
    7f70:	73 0b       	sbc	r23, r19
    7f72:	84 0b       	sbc	r24, r20
    7f74:	e3 95       	inc	r30
    7f76:	9a 95       	dec	r25
    7f78:	72 f7       	brpl	.-36     	; 0x7f56 <__fp_rempio2+0x16>
    7f7a:	80 38       	cpi	r24, 0x80	; 128
    7f7c:	30 f4       	brcc	.+12     	; 0x7f8a <__fp_rempio2+0x4a>
    7f7e:	9a 95       	dec	r25
    7f80:	bb 0f       	add	r27, r27
    7f82:	66 1f       	adc	r22, r22
    7f84:	77 1f       	adc	r23, r23
    7f86:	88 1f       	adc	r24, r24
    7f88:	d2 f7       	brpl	.-12     	; 0x7f7e <__fp_rempio2+0x3e>
    7f8a:	90 48       	sbci	r25, 0x80	; 128
    7f8c:	06 c1       	rjmp	.+524    	; 0x819a <__fp_mpack_finite>

00007f8e <__fp_round>:
    7f8e:	09 2e       	mov	r0, r25
    7f90:	03 94       	inc	r0
    7f92:	00 0c       	add	r0, r0
    7f94:	11 f4       	brne	.+4      	; 0x7f9a <__fp_round+0xc>
    7f96:	88 23       	and	r24, r24
    7f98:	52 f0       	brmi	.+20     	; 0x7fae <__fp_round+0x20>
    7f9a:	bb 0f       	add	r27, r27
    7f9c:	40 f4       	brcc	.+16     	; 0x7fae <__fp_round+0x20>
    7f9e:	bf 2b       	or	r27, r31
    7fa0:	11 f4       	brne	.+4      	; 0x7fa6 <__fp_round+0x18>
    7fa2:	60 ff       	sbrs	r22, 0
    7fa4:	04 c0       	rjmp	.+8      	; 0x7fae <__fp_round+0x20>
    7fa6:	6f 5f       	subi	r22, 0xFF	; 255
    7fa8:	7f 4f       	sbci	r23, 0xFF	; 255
    7faa:	8f 4f       	sbci	r24, 0xFF	; 255
    7fac:	9f 4f       	sbci	r25, 0xFF	; 255
    7fae:	08 95       	ret

00007fb0 <__fp_sinus>:
    7fb0:	ef 93       	push	r30
    7fb2:	e0 ff       	sbrs	r30, 0
    7fb4:	06 c0       	rjmp	.+12     	; 0x7fc2 <__fp_sinus+0x12>
    7fb6:	a2 ea       	ldi	r26, 0xA2	; 162
    7fb8:	2a ed       	ldi	r18, 0xDA	; 218
    7fba:	3f e0       	ldi	r19, 0x0F	; 15
    7fbc:	49 ec       	ldi	r20, 0xC9	; 201
    7fbe:	5f eb       	ldi	r21, 0xBF	; 191
    7fc0:	89 dd       	rcall	.-1262   	; 0x7ad4 <__addsf3x>
    7fc2:	e5 df       	rcall	.-54     	; 0x7f8e <__fp_round>
    7fc4:	0f 90       	pop	r0
    7fc6:	03 94       	inc	r0
    7fc8:	01 fc       	sbrc	r0, 1
    7fca:	90 58       	subi	r25, 0x80	; 128
    7fcc:	ed e4       	ldi	r30, 0x4D	; 77
    7fce:	f1 e0       	ldi	r31, 0x01	; 1
    7fd0:	97 cf       	rjmp	.-210    	; 0x7f00 <__fp_powsodd>

00007fd2 <__fp_split3>:
    7fd2:	57 fd       	sbrc	r21, 7
    7fd4:	90 58       	subi	r25, 0x80	; 128
    7fd6:	44 0f       	add	r20, r20
    7fd8:	55 1f       	adc	r21, r21
    7fda:	59 f0       	breq	.+22     	; 0x7ff2 <__fp_splitA+0x10>
    7fdc:	5f 3f       	cpi	r21, 0xFF	; 255
    7fde:	71 f0       	breq	.+28     	; 0x7ffc <__fp_splitA+0x1a>
    7fe0:	47 95       	ror	r20

00007fe2 <__fp_splitA>:
    7fe2:	88 0f       	add	r24, r24
    7fe4:	97 fb       	bst	r25, 7
    7fe6:	99 1f       	adc	r25, r25
    7fe8:	61 f0       	breq	.+24     	; 0x8002 <__fp_splitA+0x20>
    7fea:	9f 3f       	cpi	r25, 0xFF	; 255
    7fec:	79 f0       	breq	.+30     	; 0x800c <__fp_splitA+0x2a>
    7fee:	87 95       	ror	r24
    7ff0:	08 95       	ret
    7ff2:	12 16       	cp	r1, r18
    7ff4:	13 06       	cpc	r1, r19
    7ff6:	14 06       	cpc	r1, r20
    7ff8:	55 1f       	adc	r21, r21
    7ffa:	f2 cf       	rjmp	.-28     	; 0x7fe0 <__fp_split3+0xe>
    7ffc:	46 95       	lsr	r20
    7ffe:	f1 df       	rcall	.-30     	; 0x7fe2 <__fp_splitA>
    8000:	08 c0       	rjmp	.+16     	; 0x8012 <__fp_splitA+0x30>
    8002:	16 16       	cp	r1, r22
    8004:	17 06       	cpc	r1, r23
    8006:	18 06       	cpc	r1, r24
    8008:	99 1f       	adc	r25, r25
    800a:	f1 cf       	rjmp	.-30     	; 0x7fee <__fp_splitA+0xc>
    800c:	86 95       	lsr	r24
    800e:	71 05       	cpc	r23, r1
    8010:	61 05       	cpc	r22, r1
    8012:	08 94       	sec
    8014:	08 95       	ret

00008016 <__fp_zero>:
    8016:	e8 94       	clt

00008018 <__fp_szero>:
    8018:	bb 27       	eor	r27, r27
    801a:	66 27       	eor	r22, r22
    801c:	77 27       	eor	r23, r23
    801e:	cb 01       	movw	r24, r22
    8020:	97 f9       	bld	r25, 7
    8022:	08 95       	ret

00008024 <__gesf2>:
    8024:	1b df       	rcall	.-458    	; 0x7e5c <__fp_cmp>
    8026:	08 f4       	brcc	.+2      	; 0x802a <__gesf2+0x6>
    8028:	8f ef       	ldi	r24, 0xFF	; 255
    802a:	08 95       	ret

0000802c <inverse>:
    802c:	9b 01       	movw	r18, r22
    802e:	ac 01       	movw	r20, r24
    8030:	60 e0       	ldi	r22, 0x00	; 0
    8032:	70 e0       	ldi	r23, 0x00	; 0
    8034:	80 e8       	ldi	r24, 0x80	; 128
    8036:	9f e3       	ldi	r25, 0x3F	; 63
    8038:	20 ce       	rjmp	.-960    	; 0x7c7a <__divsf3>

0000803a <__mulsf3>:
    803a:	0b d0       	rcall	.+22     	; 0x8052 <__mulsf3x>
    803c:	a8 cf       	rjmp	.-176    	; 0x7f8e <__fp_round>
    803e:	71 df       	rcall	.-286    	; 0x7f22 <__fp_pscA>
    8040:	28 f0       	brcs	.+10     	; 0x804c <__mulsf3+0x12>
    8042:	76 df       	rcall	.-276    	; 0x7f30 <__fp_pscB>
    8044:	18 f0       	brcs	.+6      	; 0x804c <__mulsf3+0x12>
    8046:	95 23       	and	r25, r21
    8048:	09 f0       	breq	.+2      	; 0x804c <__mulsf3+0x12>
    804a:	2c cf       	rjmp	.-424    	; 0x7ea4 <__fp_inf>
    804c:	31 cf       	rjmp	.-414    	; 0x7eb0 <__fp_nan>
    804e:	11 24       	eor	r1, r1
    8050:	e3 cf       	rjmp	.-58     	; 0x8018 <__fp_szero>

00008052 <__mulsf3x>:
    8052:	bf df       	rcall	.-130    	; 0x7fd2 <__fp_split3>
    8054:	a0 f3       	brcs	.-24     	; 0x803e <__mulsf3+0x4>

00008056 <__mulsf3_pse>:
    8056:	95 9f       	mul	r25, r21
    8058:	d1 f3       	breq	.-12     	; 0x804e <__mulsf3+0x14>
    805a:	95 0f       	add	r25, r21
    805c:	50 e0       	ldi	r21, 0x00	; 0
    805e:	55 1f       	adc	r21, r21
    8060:	62 9f       	mul	r22, r18
    8062:	f0 01       	movw	r30, r0
    8064:	72 9f       	mul	r23, r18
    8066:	bb 27       	eor	r27, r27
    8068:	f0 0d       	add	r31, r0
    806a:	b1 1d       	adc	r27, r1
    806c:	63 9f       	mul	r22, r19
    806e:	aa 27       	eor	r26, r26
    8070:	f0 0d       	add	r31, r0
    8072:	b1 1d       	adc	r27, r1
    8074:	aa 1f       	adc	r26, r26
    8076:	64 9f       	mul	r22, r20
    8078:	66 27       	eor	r22, r22
    807a:	b0 0d       	add	r27, r0
    807c:	a1 1d       	adc	r26, r1
    807e:	66 1f       	adc	r22, r22
    8080:	82 9f       	mul	r24, r18
    8082:	22 27       	eor	r18, r18
    8084:	b0 0d       	add	r27, r0
    8086:	a1 1d       	adc	r26, r1
    8088:	62 1f       	adc	r22, r18
    808a:	73 9f       	mul	r23, r19
    808c:	b0 0d       	add	r27, r0
    808e:	a1 1d       	adc	r26, r1
    8090:	62 1f       	adc	r22, r18
    8092:	83 9f       	mul	r24, r19
    8094:	a0 0d       	add	r26, r0
    8096:	61 1d       	adc	r22, r1
    8098:	22 1f       	adc	r18, r18
    809a:	74 9f       	mul	r23, r20
    809c:	33 27       	eor	r19, r19
    809e:	a0 0d       	add	r26, r0
    80a0:	61 1d       	adc	r22, r1
    80a2:	23 1f       	adc	r18, r19
    80a4:	84 9f       	mul	r24, r20
    80a6:	60 0d       	add	r22, r0
    80a8:	21 1d       	adc	r18, r1
    80aa:	82 2f       	mov	r24, r18
    80ac:	76 2f       	mov	r23, r22
    80ae:	6a 2f       	mov	r22, r26
    80b0:	11 24       	eor	r1, r1
    80b2:	9f 57       	subi	r25, 0x7F	; 127
    80b4:	50 40       	sbci	r21, 0x00	; 0
    80b6:	8a f0       	brmi	.+34     	; 0x80da <__mulsf3_pse+0x84>
    80b8:	e1 f0       	breq	.+56     	; 0x80f2 <__mulsf3_pse+0x9c>
    80ba:	88 23       	and	r24, r24
    80bc:	4a f0       	brmi	.+18     	; 0x80d0 <__mulsf3_pse+0x7a>
    80be:	ee 0f       	add	r30, r30
    80c0:	ff 1f       	adc	r31, r31
    80c2:	bb 1f       	adc	r27, r27
    80c4:	66 1f       	adc	r22, r22
    80c6:	77 1f       	adc	r23, r23
    80c8:	88 1f       	adc	r24, r24
    80ca:	91 50       	subi	r25, 0x01	; 1
    80cc:	50 40       	sbci	r21, 0x00	; 0
    80ce:	a9 f7       	brne	.-22     	; 0x80ba <__mulsf3_pse+0x64>
    80d0:	9e 3f       	cpi	r25, 0xFE	; 254
    80d2:	51 05       	cpc	r21, r1
    80d4:	70 f0       	brcs	.+28     	; 0x80f2 <__mulsf3_pse+0x9c>
    80d6:	e6 ce       	rjmp	.-564    	; 0x7ea4 <__fp_inf>
    80d8:	9f cf       	rjmp	.-194    	; 0x8018 <__fp_szero>
    80da:	5f 3f       	cpi	r21, 0xFF	; 255
    80dc:	ec f3       	brlt	.-6      	; 0x80d8 <__mulsf3_pse+0x82>
    80de:	98 3e       	cpi	r25, 0xE8	; 232
    80e0:	dc f3       	brlt	.-10     	; 0x80d8 <__mulsf3_pse+0x82>
    80e2:	86 95       	lsr	r24
    80e4:	77 95       	ror	r23
    80e6:	67 95       	ror	r22
    80e8:	b7 95       	ror	r27
    80ea:	f7 95       	ror	r31
    80ec:	e7 95       	ror	r30
    80ee:	9f 5f       	subi	r25, 0xFF	; 255
    80f0:	c1 f7       	brne	.-16     	; 0x80e2 <__mulsf3_pse+0x8c>
    80f2:	fe 2b       	or	r31, r30
    80f4:	88 0f       	add	r24, r24
    80f6:	91 1d       	adc	r25, r1
    80f8:	96 95       	lsr	r25
    80fa:	87 95       	ror	r24
    80fc:	97 f9       	bld	r25, 7
    80fe:	08 95       	ret

00008100 <sin>:
    8100:	9f 93       	push	r25
    8102:	1e df       	rcall	.-452    	; 0x7f40 <__fp_rempio2>
    8104:	0f 90       	pop	r0
    8106:	07 fc       	sbrc	r0, 7
    8108:	ee 5f       	subi	r30, 0xFE	; 254
    810a:	52 cf       	rjmp	.-348    	; 0x7fb0 <__fp_sinus>
    810c:	11 f4       	brne	.+4      	; 0x8112 <sin+0x12>
    810e:	0e f4       	brtc	.+2      	; 0x8112 <sin+0x12>
    8110:	cf ce       	rjmp	.-610    	; 0x7eb0 <__fp_nan>
    8112:	41 c0       	rjmp	.+130    	; 0x8196 <__fp_mpack>

00008114 <sqrt>:
    8114:	66 df       	rcall	.-308    	; 0x7fe2 <__fp_splitA>
    8116:	d0 f3       	brcs	.-12     	; 0x810c <sin+0xc>
    8118:	99 23       	and	r25, r25
    811a:	d9 f3       	breq	.-10     	; 0x8112 <sin+0x12>
    811c:	ce f3       	brts	.-14     	; 0x8110 <sin+0x10>
    811e:	9f 57       	subi	r25, 0x7F	; 127
    8120:	55 0b       	sbc	r21, r21
    8122:	87 ff       	sbrs	r24, 7
    8124:	46 d0       	rcall	.+140    	; 0x81b2 <__fp_norm2>
    8126:	00 24       	eor	r0, r0
    8128:	a0 e6       	ldi	r26, 0x60	; 96
    812a:	40 ea       	ldi	r20, 0xA0	; 160
    812c:	90 01       	movw	r18, r0
    812e:	80 58       	subi	r24, 0x80	; 128
    8130:	56 95       	lsr	r21
    8132:	97 95       	ror	r25
    8134:	28 f4       	brcc	.+10     	; 0x8140 <sqrt+0x2c>
    8136:	80 5c       	subi	r24, 0xC0	; 192
    8138:	66 0f       	add	r22, r22
    813a:	77 1f       	adc	r23, r23
    813c:	88 1f       	adc	r24, r24
    813e:	20 f0       	brcs	.+8      	; 0x8148 <sqrt+0x34>
    8140:	26 17       	cp	r18, r22
    8142:	37 07       	cpc	r19, r23
    8144:	48 07       	cpc	r20, r24
    8146:	30 f4       	brcc	.+12     	; 0x8154 <sqrt+0x40>
    8148:	62 1b       	sub	r22, r18
    814a:	73 0b       	sbc	r23, r19
    814c:	84 0b       	sbc	r24, r20
    814e:	20 29       	or	r18, r0
    8150:	31 29       	or	r19, r1
    8152:	4a 2b       	or	r20, r26
    8154:	a6 95       	lsr	r26
    8156:	17 94       	ror	r1
    8158:	07 94       	ror	r0
    815a:	20 25       	eor	r18, r0
    815c:	31 25       	eor	r19, r1
    815e:	4a 27       	eor	r20, r26
    8160:	58 f7       	brcc	.-42     	; 0x8138 <sqrt+0x24>
    8162:	66 0f       	add	r22, r22
    8164:	77 1f       	adc	r23, r23
    8166:	88 1f       	adc	r24, r24
    8168:	20 f0       	brcs	.+8      	; 0x8172 <sqrt+0x5e>
    816a:	26 17       	cp	r18, r22
    816c:	37 07       	cpc	r19, r23
    816e:	48 07       	cpc	r20, r24
    8170:	30 f4       	brcc	.+12     	; 0x817e <sqrt+0x6a>
    8172:	62 0b       	sbc	r22, r18
    8174:	73 0b       	sbc	r23, r19
    8176:	84 0b       	sbc	r24, r20
    8178:	20 0d       	add	r18, r0
    817a:	31 1d       	adc	r19, r1
    817c:	41 1d       	adc	r20, r1
    817e:	a0 95       	com	r26
    8180:	81 f7       	brne	.-32     	; 0x8162 <sqrt+0x4e>
    8182:	b9 01       	movw	r22, r18
    8184:	84 2f       	mov	r24, r20
    8186:	91 58       	subi	r25, 0x81	; 129
    8188:	88 0f       	add	r24, r24
    818a:	96 95       	lsr	r25
    818c:	87 95       	ror	r24
    818e:	08 95       	ret

00008190 <square>:
    8190:	9b 01       	movw	r18, r22
    8192:	ac 01       	movw	r20, r24
    8194:	52 cf       	rjmp	.-348    	; 0x803a <__mulsf3>

00008196 <__fp_mpack>:
    8196:	9f 3f       	cpi	r25, 0xFF	; 255
    8198:	31 f0       	breq	.+12     	; 0x81a6 <__fp_mpack_finite+0xc>

0000819a <__fp_mpack_finite>:
    819a:	91 50       	subi	r25, 0x01	; 1
    819c:	20 f4       	brcc	.+8      	; 0x81a6 <__fp_mpack_finite+0xc>
    819e:	87 95       	ror	r24
    81a0:	77 95       	ror	r23
    81a2:	67 95       	ror	r22
    81a4:	b7 95       	ror	r27
    81a6:	88 0f       	add	r24, r24
    81a8:	91 1d       	adc	r25, r1
    81aa:	96 95       	lsr	r25
    81ac:	87 95       	ror	r24
    81ae:	97 f9       	bld	r25, 7
    81b0:	08 95       	ret

000081b2 <__fp_norm2>:
    81b2:	91 50       	subi	r25, 0x01	; 1
    81b4:	50 40       	sbci	r21, 0x00	; 0
    81b6:	66 0f       	add	r22, r22
    81b8:	77 1f       	adc	r23, r23
    81ba:	88 1f       	adc	r24, r24
    81bc:	d2 f7       	brpl	.-12     	; 0x81b2 <__fp_norm2>
    81be:	08 95       	ret

000081c0 <__mulsi3>:
    81c0:	62 9f       	mul	r22, r18
    81c2:	d0 01       	movw	r26, r0
    81c4:	73 9f       	mul	r23, r19
    81c6:	f0 01       	movw	r30, r0
    81c8:	82 9f       	mul	r24, r18
    81ca:	e0 0d       	add	r30, r0
    81cc:	f1 1d       	adc	r31, r1
    81ce:	64 9f       	mul	r22, r20
    81d0:	e0 0d       	add	r30, r0
    81d2:	f1 1d       	adc	r31, r1
    81d4:	92 9f       	mul	r25, r18
    81d6:	f0 0d       	add	r31, r0
    81d8:	83 9f       	mul	r24, r19
    81da:	f0 0d       	add	r31, r0
    81dc:	74 9f       	mul	r23, r20
    81de:	f0 0d       	add	r31, r0
    81e0:	65 9f       	mul	r22, r21
    81e2:	f0 0d       	add	r31, r0
    81e4:	99 27       	eor	r25, r25
    81e6:	72 9f       	mul	r23, r18
    81e8:	b0 0d       	add	r27, r0
    81ea:	e1 1d       	adc	r30, r1
    81ec:	f9 1f       	adc	r31, r25
    81ee:	63 9f       	mul	r22, r19
    81f0:	b0 0d       	add	r27, r0
    81f2:	e1 1d       	adc	r30, r1
    81f4:	f9 1f       	adc	r31, r25
    81f6:	bd 01       	movw	r22, r26
    81f8:	cf 01       	movw	r24, r30
    81fa:	11 24       	eor	r1, r1
    81fc:	08 95       	ret

000081fe <__udivmodhi4>:
    81fe:	aa 1b       	sub	r26, r26
    8200:	bb 1b       	sub	r27, r27
    8202:	51 e1       	ldi	r21, 0x11	; 17
    8204:	07 c0       	rjmp	.+14     	; 0x8214 <__udivmodhi4_ep>

00008206 <__udivmodhi4_loop>:
    8206:	aa 1f       	adc	r26, r26
    8208:	bb 1f       	adc	r27, r27
    820a:	a6 17       	cp	r26, r22
    820c:	b7 07       	cpc	r27, r23
    820e:	10 f0       	brcs	.+4      	; 0x8214 <__udivmodhi4_ep>
    8210:	a6 1b       	sub	r26, r22
    8212:	b7 0b       	sbc	r27, r23

00008214 <__udivmodhi4_ep>:
    8214:	88 1f       	adc	r24, r24
    8216:	99 1f       	adc	r25, r25
    8218:	5a 95       	dec	r21
    821a:	a9 f7       	brne	.-22     	; 0x8206 <__udivmodhi4_loop>
    821c:	80 95       	com	r24
    821e:	90 95       	com	r25
    8220:	bc 01       	movw	r22, r24
    8222:	cd 01       	movw	r24, r26
    8224:	08 95       	ret

00008226 <__divmodhi4>:
    8226:	97 fb       	bst	r25, 7
    8228:	09 2e       	mov	r0, r25
    822a:	07 26       	eor	r0, r23
    822c:	0a d0       	rcall	.+20     	; 0x8242 <__divmodhi4_neg1>
    822e:	77 fd       	sbrc	r23, 7
    8230:	04 d0       	rcall	.+8      	; 0x823a <__divmodhi4_neg2>
    8232:	e5 df       	rcall	.-54     	; 0x81fe <__udivmodhi4>
    8234:	06 d0       	rcall	.+12     	; 0x8242 <__divmodhi4_neg1>
    8236:	00 20       	and	r0, r0
    8238:	1a f4       	brpl	.+6      	; 0x8240 <__divmodhi4_exit>

0000823a <__divmodhi4_neg2>:
    823a:	70 95       	com	r23
    823c:	61 95       	neg	r22
    823e:	7f 4f       	sbci	r23, 0xFF	; 255

00008240 <__divmodhi4_exit>:
    8240:	08 95       	ret

00008242 <__divmodhi4_neg1>:
    8242:	f6 f7       	brtc	.-4      	; 0x8240 <__divmodhi4_exit>
    8244:	90 95       	com	r25
    8246:	81 95       	neg	r24
    8248:	9f 4f       	sbci	r25, 0xFF	; 255
    824a:	08 95       	ret

0000824c <__udivmodsi4>:
    824c:	a1 e2       	ldi	r26, 0x21	; 33
    824e:	1a 2e       	mov	r1, r26
    8250:	aa 1b       	sub	r26, r26
    8252:	bb 1b       	sub	r27, r27
    8254:	fd 01       	movw	r30, r26
    8256:	0d c0       	rjmp	.+26     	; 0x8272 <__udivmodsi4_ep>

00008258 <__udivmodsi4_loop>:
    8258:	aa 1f       	adc	r26, r26
    825a:	bb 1f       	adc	r27, r27
    825c:	ee 1f       	adc	r30, r30
    825e:	ff 1f       	adc	r31, r31
    8260:	a2 17       	cp	r26, r18
    8262:	b3 07       	cpc	r27, r19
    8264:	e4 07       	cpc	r30, r20
    8266:	f5 07       	cpc	r31, r21
    8268:	20 f0       	brcs	.+8      	; 0x8272 <__udivmodsi4_ep>
    826a:	a2 1b       	sub	r26, r18
    826c:	b3 0b       	sbc	r27, r19
    826e:	e4 0b       	sbc	r30, r20
    8270:	f5 0b       	sbc	r31, r21

00008272 <__udivmodsi4_ep>:
    8272:	66 1f       	adc	r22, r22
    8274:	77 1f       	adc	r23, r23
    8276:	88 1f       	adc	r24, r24
    8278:	99 1f       	adc	r25, r25
    827a:	1a 94       	dec	r1
    827c:	69 f7       	brne	.-38     	; 0x8258 <__udivmodsi4_loop>
    827e:	60 95       	com	r22
    8280:	70 95       	com	r23
    8282:	80 95       	com	r24
    8284:	90 95       	com	r25
    8286:	9b 01       	movw	r18, r22
    8288:	ac 01       	movw	r20, r24
    828a:	bd 01       	movw	r22, r26
    828c:	cf 01       	movw	r24, r30
    828e:	08 95       	ret

00008290 <__divmodsi4>:
    8290:	97 fb       	bst	r25, 7
    8292:	09 2e       	mov	r0, r25
    8294:	05 26       	eor	r0, r21
    8296:	0e d0       	rcall	.+28     	; 0x82b4 <__divmodsi4_neg1>
    8298:	57 fd       	sbrc	r21, 7
    829a:	04 d0       	rcall	.+8      	; 0x82a4 <__divmodsi4_neg2>
    829c:	d7 df       	rcall	.-82     	; 0x824c <__udivmodsi4>
    829e:	0a d0       	rcall	.+20     	; 0x82b4 <__divmodsi4_neg1>
    82a0:	00 1c       	adc	r0, r0
    82a2:	38 f4       	brcc	.+14     	; 0x82b2 <__divmodsi4_exit>

000082a4 <__divmodsi4_neg2>:
    82a4:	50 95       	com	r21
    82a6:	40 95       	com	r20
    82a8:	30 95       	com	r19
    82aa:	21 95       	neg	r18
    82ac:	3f 4f       	sbci	r19, 0xFF	; 255
    82ae:	4f 4f       	sbci	r20, 0xFF	; 255
    82b0:	5f 4f       	sbci	r21, 0xFF	; 255

000082b2 <__divmodsi4_exit>:
    82b2:	08 95       	ret

000082b4 <__divmodsi4_neg1>:
    82b4:	f6 f7       	brtc	.-4      	; 0x82b2 <__divmodsi4_exit>
    82b6:	90 95       	com	r25
    82b8:	80 95       	com	r24
    82ba:	70 95       	com	r23
    82bc:	61 95       	neg	r22
    82be:	7f 4f       	sbci	r23, 0xFF	; 255
    82c0:	8f 4f       	sbci	r24, 0xFF	; 255
    82c2:	9f 4f       	sbci	r25, 0xFF	; 255
    82c4:	08 95       	ret

000082c6 <__tablejump_elpm__>:
    82c6:	07 90       	elpm	r0, Z+
    82c8:	f6 91       	elpm	r31, Z+
    82ca:	e0 2d       	mov	r30, r0
    82cc:	19 94       	eijmp

000082ce <__do_global_dtors>:
    82ce:	12 e0       	ldi	r17, 0x02	; 2
    82d0:	c2 e9       	ldi	r28, 0x92	; 146
    82d2:	d2 e0       	ldi	r29, 0x02	; 2
    82d4:	00 e0       	ldi	r16, 0x00	; 0
    82d6:	06 c0       	rjmp	.+12     	; 0x82e4 <__do_global_dtors+0x16>
    82d8:	22 97       	sbiw	r28, 0x02	; 2
    82da:	01 09       	sbc	r16, r1
    82dc:	fe 01       	movw	r30, r28
    82de:	0b bf       	out	0x3b, r16	; 59
    82e0:	0e 94 63 41 	call	0x82c6	; 0x82c6 <__tablejump_elpm__>
    82e4:	c4 39       	cpi	r28, 0x94	; 148
    82e6:	d1 07       	cpc	r29, r17
    82e8:	80 e0       	ldi	r24, 0x00	; 0
    82ea:	08 07       	cpc	r16, r24
    82ec:	a9 f7       	brne	.-22     	; 0x82d8 <__do_global_dtors+0xa>
    82ee:	f8 94       	cli

000082f0 <__stop_program>:
    82f0:	ff cf       	rjmp	.-2      	; 0x82f0 <__stop_program>
