In archive libArduino.a:

HardwareSerial.o:     file format elf32-avr

Sections:
Idx Name          Size      VMA       LMA       File off  Algn
  0 .text         00000000  00000000  00000000  00000034  2**0
                  CONTENTS, ALLOC, LOAD, READONLY, CODE
  1 .data         00000000  00000000  00000000  00000034  2**0
                  CONTENTS, ALLOC, LOAD, DATA
  2 .bss          00000000  00000000  00000000  00000034  2**0
                  ALLOC
  3 .text.__vector_18 0000007a  00000000  00000000  00000034  2**0
                  CONTENTS, ALLOC, LOAD, RELOC, READONLY, CODE
  4 .text._ZN14HardwareSerialC2EP11ring_bufferPVhS3_S3_S3_S3_hhhhh 00000060  00000000  00000000  000000ae  2**0
                  CONTENTS, ALLOC, LOAD, RELOC, READONLY, CODE
  5 .text._ZN14HardwareSerialC1EP11ring_bufferPVhS3_S3_S3_S3_hhhhh 00000060  00000000  00000000  0000010e  2**0
                  CONTENTS, ALLOC, LOAD, RELOC, READONLY, CODE
  6 .text._ZN14HardwareSerial5beginEl 000001e2  00000000  00000000  0000016e  2**0
                  CONTENTS, ALLOC, LOAD, RELOC, READONLY, CODE
  7 .text._ZN14HardwareSerial3endEv 00000054  00000000  00000000  00000350  2**0
                  CONTENTS, ALLOC, LOAD, RELOC, READONLY, CODE
  8 .text._ZN14HardwareSerial9availableEv 00000028  00000000  00000000  000003a4  2**0
                  CONTENTS, ALLOC, LOAD, RELOC, READONLY, CODE
  9 .text._ZN14HardwareSerial4peekEv 00000034  00000000  00000000  000003cc  2**0
                  CONTENTS, ALLOC, LOAD, RELOC, READONLY, CODE
 10 .text._ZN14HardwareSerial4readEv 00000050  00000000  00000000  00000400  2**0
                  CONTENTS, ALLOC, LOAD, RELOC, READONLY, CODE
 11 .text._ZN14HardwareSerial5flushEv 00000018  00000000  00000000  00000450  2**0
                  CONTENTS, ALLOC, LOAD, READONLY, CODE
 12 .text._ZN14HardwareSerial5writeEh 00000026  00000000  00000000  00000468  2**0
                  CONTENTS, ALLOC, LOAD, RELOC, READONLY, CODE
 13 .text._GLOBAL__I_rx_buffer 00000074  00000000  00000000  0000048e  2**0
                  CONTENTS, ALLOC, LOAD, RELOC, READONLY, CODE
 14 .ctors        00000002  00000000  00000000  00000502  2**0
                  CONTENTS, ALLOC, LOAD, RELOC, READONLY, DATA
 15 .bss.rx_buffer 00000084  00000000  00000000  00000504  2**0
                  ALLOC
 16 .bss.Serial   00000013  00000000  00000000  00000504  2**0
                  ALLOC
 17 .rodata._ZTV14HardwareSerial 00000012  00000000  00000000  00000504  2**0
                  CONTENTS, ALLOC, LOAD, RELOC, READONLY, DATA
 18 .rodata._ZTV6Stream 00000010  00000000  00000000  00000516  2**0
                  CONTENTS, ALLOC, LOAD, RELOC, READONLY, DATA

Disassembly of section .text.__vector_18:

00000000 <__vector_18>:
   0:	1f 92       	push	r1
   2:	0f 92       	push	r0
   4:	0f b6       	in	r0, 0x3f	; 63
   6:	0f 92       	push	r0
   8:	11 24       	eor	r1, r1
   a:	2f 93       	push	r18
   c:	3f 93       	push	r19
   e:	4f 93       	push	r20
  10:	5f 93       	push	r21
  12:	6f 93       	push	r22
  14:	7f 93       	push	r23
  16:	8f 93       	push	r24
  18:	9f 93       	push	r25
  1a:	af 93       	push	r26
  1c:	bf 93       	push	r27
  1e:	ef 93       	push	r30
  20:	ff 93       	push	r31
  22:	40 91 c6 00 	lds	r20, 0x00C6
  26:	e0 91 00 00 	lds	r30, 0x0000
  2a:	f0 91 00 00 	lds	r31, 0x0000
  2e:	cf 01       	movw	r24, r30
  30:	01 96       	adiw	r24, 0x01	; 1
  32:	60 e8       	ldi	r22, 0x80	; 128
  34:	70 e0       	ldi	r23, 0x00	; 0
  36:	0e 94 00 00 	call	0	; 0x0 <__vector_18>
  3a:	9c 01       	movw	r18, r24
  3c:	80 91 00 00 	lds	r24, 0x0000
  40:	90 91 00 00 	lds	r25, 0x0000
  44:	28 17       	cp	r18, r24
  46:	39 07       	cpc	r19, r25
  48:	01 f0       	breq	.+0      	; 0x4a <__vector_18+0x4a>
  4a:	e0 50       	subi	r30, 0x00	; 0
  4c:	f0 40       	sbci	r31, 0x00	; 0
  4e:	40 83       	st	Z, r20
  50:	30 93 00 00 	sts	0x0000, r19
  54:	20 93 00 00 	sts	0x0000, r18
  58:	ff 91       	pop	r31
  5a:	ef 91       	pop	r30
  5c:	bf 91       	pop	r27
  5e:	af 91       	pop	r26
  60:	9f 91       	pop	r25
  62:	8f 91       	pop	r24
  64:	7f 91       	pop	r23
  66:	6f 91       	pop	r22
  68:	5f 91       	pop	r21
  6a:	4f 91       	pop	r20
  6c:	3f 91       	pop	r19
  6e:	2f 91       	pop	r18
  70:	0f 90       	pop	r0
  72:	0f be       	out	0x3f, r0	; 63
  74:	0f 90       	pop	r0
  76:	1f 90       	pop	r1
  78:	18 95       	reti

Disassembly of section .text._ZN14HardwareSerialC2EP11ring_bufferPVhS3_S3_S3_S3_hhhhh:

00000000 <_ZN14HardwareSerialC2EP11ring_bufferPVhS3_S3_S3_S3_hhhhh>:
   0:	8f 92       	push	r8
   2:	af 92       	push	r10
   4:	cf 92       	push	r12
   6:	df 92       	push	r13
   8:	ef 92       	push	r14
   a:	ff 92       	push	r15
   c:	0f 93       	push	r16
   e:	1f 93       	push	r17
  10:	df 93       	push	r29
  12:	cf 93       	push	r28
  14:	cd b7       	in	r28, 0x3d	; 61
  16:	de b7       	in	r29, 0x3e	; 62
  18:	fc 01       	movw	r30, r24
  1a:	80 e0       	ldi	r24, 0x00	; 0
  1c:	90 e0       	ldi	r25, 0x00	; 0
  1e:	91 83       	std	Z+1, r25	; 0x01
  20:	80 83       	st	Z, r24
  22:	73 83       	std	Z+3, r23	; 0x03
  24:	62 83       	std	Z+2, r22	; 0x02
  26:	55 83       	std	Z+5, r21	; 0x05
  28:	44 83       	std	Z+4, r20	; 0x04
  2a:	37 83       	std	Z+7, r19	; 0x07
  2c:	26 83       	std	Z+6, r18	; 0x06
  2e:	11 87       	std	Z+9, r17	; 0x09
  30:	00 87       	std	Z+8, r16	; 0x08
  32:	f3 86       	std	Z+11, r15	; 0x0b
  34:	e2 86       	std	Z+10, r14	; 0x0a
  36:	d5 86       	std	Z+13, r13	; 0x0d
  38:	c4 86       	std	Z+12, r12	; 0x0c
  3a:	a6 86       	std	Z+14, r10	; 0x0e
  3c:	87 86       	std	Z+15, r8	; 0x0f
  3e:	8d 85       	ldd	r24, Y+13	; 0x0d
  40:	80 8b       	std	Z+16, r24	; 0x10
  42:	8e 85       	ldd	r24, Y+14	; 0x0e
  44:	81 8b       	std	Z+17, r24	; 0x11
  46:	8f 85       	ldd	r24, Y+15	; 0x0f
  48:	82 8b       	std	Z+18, r24	; 0x12
  4a:	cf 91       	pop	r28
  4c:	df 91       	pop	r29
  4e:	1f 91       	pop	r17
  50:	0f 91       	pop	r16
  52:	ff 90       	pop	r15
  54:	ef 90       	pop	r14
  56:	df 90       	pop	r13
  58:	cf 90       	pop	r12
  5a:	af 90       	pop	r10
  5c:	8f 90       	pop	r8
  5e:	08 95       	ret

Disassembly of section .text._ZN14HardwareSerialC1EP11ring_bufferPVhS3_S3_S3_S3_hhhhh:

00000000 <_ZN14HardwareSerialC1EP11ring_bufferPVhS3_S3_S3_S3_hhhhh>:
   0:	8f 92       	push	r8
   2:	af 92       	push	r10
   4:	cf 92       	push	r12
   6:	df 92       	push	r13
   8:	ef 92       	push	r14
   a:	ff 92       	push	r15
   c:	0f 93       	push	r16
   e:	1f 93       	push	r17
  10:	df 93       	push	r29
  12:	cf 93       	push	r28
  14:	cd b7       	in	r28, 0x3d	; 61
  16:	de b7       	in	r29, 0x3e	; 62
  18:	fc 01       	movw	r30, r24
  1a:	80 e0       	ldi	r24, 0x00	; 0
  1c:	90 e0       	ldi	r25, 0x00	; 0
  1e:	91 83       	std	Z+1, r25	; 0x01
  20:	80 83       	st	Z, r24
  22:	73 83       	std	Z+3, r23	; 0x03
  24:	62 83       	std	Z+2, r22	; 0x02
  26:	55 83       	std	Z+5, r21	; 0x05
  28:	44 83       	std	Z+4, r20	; 0x04
  2a:	37 83       	std	Z+7, r19	; 0x07
  2c:	26 83       	std	Z+6, r18	; 0x06
  2e:	11 87       	std	Z+9, r17	; 0x09
  30:	00 87       	std	Z+8, r16	; 0x08
  32:	f3 86       	std	Z+11, r15	; 0x0b
  34:	e2 86       	std	Z+10, r14	; 0x0a
  36:	d5 86       	std	Z+13, r13	; 0x0d
  38:	c4 86       	std	Z+12, r12	; 0x0c
  3a:	a6 86       	std	Z+14, r10	; 0x0e
  3c:	87 86       	std	Z+15, r8	; 0x0f
  3e:	8d 85       	ldd	r24, Y+13	; 0x0d
  40:	80 8b       	std	Z+16, r24	; 0x10
  42:	8e 85       	ldd	r24, Y+14	; 0x0e
  44:	81 8b       	std	Z+17, r24	; 0x11
  46:	8f 85       	ldd	r24, Y+15	; 0x0f
  48:	82 8b       	std	Z+18, r24	; 0x12
  4a:	cf 91       	pop	r28
  4c:	df 91       	pop	r29
  4e:	1f 91       	pop	r17
  50:	0f 91       	pop	r16
  52:	ff 90       	pop	r15
  54:	ef 90       	pop	r14
  56:	df 90       	pop	r13
  58:	cf 90       	pop	r12
  5a:	af 90       	pop	r10
  5c:	8f 90       	pop	r8
  5e:	08 95       	ret

Disassembly of section .text._ZN14HardwareSerial5beginEl:

00000000 <_ZN14HardwareSerial5beginEl>:
   0:	5f 92       	push	r5
   2:	6f 92       	push	r6
   4:	7f 92       	push	r7
   6:	8f 92       	push	r8
   8:	9f 92       	push	r9
   a:	af 92       	push	r10
   c:	bf 92       	push	r11
   e:	cf 92       	push	r12
  10:	df 92       	push	r13
  12:	ef 92       	push	r14
  14:	ff 92       	push	r15
  16:	0f 93       	push	r16
  18:	1f 93       	push	r17
  1a:	cf 93       	push	r28
  1c:	df 93       	push	r29
  1e:	ec 01       	movw	r28, r24
  20:	5a 01       	movw	r10, r20
  22:	6b 01       	movw	r12, r22
  24:	81 e4       	ldi	r24, 0x41	; 65
  26:	a8 16       	cp	r10, r24
  28:	82 e4       	ldi	r24, 0x42	; 66
  2a:	b8 06       	cpc	r11, r24
  2c:	8f e0       	ldi	r24, 0x0F	; 15
  2e:	c8 06       	cpc	r12, r24
  30:	80 e0       	ldi	r24, 0x00	; 0
  32:	d8 06       	cpc	r13, r24
  34:	00 f0       	brcs	.+0      	; 0x36 <_ZN14HardwareSerial5beginEl+0x36>
  36:	00 c0       	rjmp	.+0      	; 0x38 <_ZN14HardwareSerial5beginEl+0x38>
  38:	60 e8       	ldi	r22, 0x80	; 128
  3a:	74 e8       	ldi	r23, 0x84	; 132
  3c:	8e e1       	ldi	r24, 0x1E	; 30
  3e:	90 e0       	ldi	r25, 0x00	; 0
  40:	a6 01       	movw	r20, r12
  42:	95 01       	movw	r18, r10
  44:	0e 94 00 00 	call	0	; 0x0 <_ZN14HardwareSerial5beginEl>
  48:	39 01       	movw	r6, r18
  4a:	4a 01       	movw	r8, r20
  4c:	08 94       	sec
  4e:	61 08       	sbc	r6, r1
  50:	71 08       	sbc	r7, r1
  52:	81 08       	sbc	r8, r1
  54:	91 08       	sbc	r9, r1
  56:	96 94       	lsr	r9
  58:	87 94       	ror	r8
  5a:	77 94       	ror	r7
  5c:	67 94       	ror	r6
  5e:	a4 01       	movw	r20, r8
  60:	93 01       	movw	r18, r6
  62:	2f 5f       	subi	r18, 0xFF	; 255
  64:	3f 4f       	sbci	r19, 0xFF	; 255
  66:	4f 4f       	sbci	r20, 0xFF	; 255
  68:	5f 4f       	sbci	r21, 0xFF	; 255
  6a:	74 e0       	ldi	r23, 0x04	; 4
  6c:	22 0f       	add	r18, r18
  6e:	33 1f       	adc	r19, r19
  70:	44 1f       	adc	r20, r20
  72:	55 1f       	adc	r21, r21
  74:	7a 95       	dec	r23
  76:	01 f4       	brne	.+0      	; 0x78 <_ZN14HardwareSerial5beginEl+0x78>
  78:	60 e0       	ldi	r22, 0x00	; 0
  7a:	74 e2       	ldi	r23, 0x24	; 36
  7c:	84 ef       	ldi	r24, 0xF4	; 244
  7e:	90 e0       	ldi	r25, 0x00	; 0
  80:	0e 94 00 00 	call	0	; 0x0 <_ZN14HardwareSerial5beginEl>
  84:	ca 01       	movw	r24, r20
  86:	b9 01       	movw	r22, r18
  88:	2f ef       	ldi	r18, 0xFF	; 255
  8a:	30 e0       	ldi	r19, 0x00	; 0
  8c:	40 e0       	ldi	r20, 0x00	; 0
  8e:	50 e0       	ldi	r21, 0x00	; 0
  90:	0e 94 00 00 	call	0	; 0x0 <_ZN14HardwareSerial5beginEl>
  94:	a6 01       	movw	r20, r12
  96:	95 01       	movw	r18, r10
  98:	0e 94 00 00 	call	0	; 0x0 <_ZN14HardwareSerial5beginEl>
  9c:	8f ef       	ldi	r24, 0xFF	; 255
  9e:	90 e0       	ldi	r25, 0x00	; 0
  a0:	82 1b       	sub	r24, r18
  a2:	93 0b       	sbc	r25, r19
  a4:	18 16       	cp	r1, r24
  a6:	19 06       	cpc	r1, r25
  a8:	04 f4       	brge	.+0      	; 0xaa <_ZN14HardwareSerial5beginEl+0xaa>
  aa:	52 2e       	mov	r5, r18
  ac:	50 94       	com	r5
  ae:	00 c0       	rjmp	.+0      	; 0xb0 <_ZN14HardwareSerial5beginEl+0xb0>
  b0:	52 2e       	mov	r5, r18
  b2:	53 94       	inc	r5
  b4:	60 e0       	ldi	r22, 0x00	; 0
  b6:	79 e0       	ldi	r23, 0x09	; 9
  b8:	8d e3       	ldi	r24, 0x3D	; 61
  ba:	90 e0       	ldi	r25, 0x00	; 0
  bc:	a6 01       	movw	r20, r12
  be:	95 01       	movw	r18, r10
  c0:	0e 94 00 00 	call	0	; 0x0 <_ZN14HardwareSerial5beginEl>
  c4:	21 50       	subi	r18, 0x01	; 1
  c6:	30 40       	sbci	r19, 0x00	; 0
  c8:	40 40       	sbci	r20, 0x00	; 0
  ca:	50 40       	sbci	r21, 0x00	; 0
  cc:	56 95       	lsr	r21
  ce:	47 95       	ror	r20
  d0:	37 95       	ror	r19
  d2:	27 95       	ror	r18
  d4:	2f 5f       	subi	r18, 0xFF	; 255
  d6:	3f 4f       	sbci	r19, 0xFF	; 255
  d8:	4f 4f       	sbci	r20, 0xFF	; 255
  da:	5f 4f       	sbci	r21, 0xFF	; 255
  dc:	93 e0       	ldi	r25, 0x03	; 3
  de:	22 0f       	add	r18, r18
  e0:	33 1f       	adc	r19, r19
  e2:	44 1f       	adc	r20, r20
  e4:	55 1f       	adc	r21, r21
  e6:	9a 95       	dec	r25
  e8:	01 f4       	brne	.+0      	; 0xea <_ZN14HardwareSerial5beginEl+0xea>
  ea:	60 e0       	ldi	r22, 0x00	; 0
  ec:	74 e2       	ldi	r23, 0x24	; 36
  ee:	84 ef       	ldi	r24, 0xF4	; 244
  f0:	90 e0       	ldi	r25, 0x00	; 0
  f2:	0e 94 00 00 	call	0	; 0x0 <_ZN14HardwareSerial5beginEl>
  f6:	ca 01       	movw	r24, r20
  f8:	b9 01       	movw	r22, r18
  fa:	2f ef       	ldi	r18, 0xFF	; 255
  fc:	30 e0       	ldi	r19, 0x00	; 0
  fe:	40 e0       	ldi	r20, 0x00	; 0
 100:	50 e0       	ldi	r21, 0x00	; 0
 102:	0e 94 00 00 	call	0	; 0x0 <_ZN14HardwareSerial5beginEl>
 106:	a6 01       	movw	r20, r12
 108:	95 01       	movw	r18, r10
 10a:	0e 94 00 00 	call	0	; 0x0 <_ZN14HardwareSerial5beginEl>
 10e:	8f ef       	ldi	r24, 0xFF	; 255
 110:	90 e0       	ldi	r25, 0x00	; 0
 112:	82 1b       	sub	r24, r18
 114:	93 0b       	sbc	r25, r19
 116:	18 16       	cp	r1, r24
 118:	19 06       	cpc	r1, r25
 11a:	04 f4       	brge	.+0      	; 0x11c <_ZN14HardwareSerial5beginEl+0x11c>
 11c:	20 95       	com	r18
 11e:	00 c0       	rjmp	.+0      	; 0x120 <_ZN14HardwareSerial5beginEl+0x120>
 120:	2f 5f       	subi	r18, 0xFF	; 255
 122:	25 15       	cp	r18, r5
 124:	00 f4       	brcc	.+0      	; 0x126 <_ZN14HardwareSerial5beginEl+0x126>
 126:	e8 85       	ldd	r30, Y+8	; 0x08
 128:	f9 85       	ldd	r31, Y+9	; 0x09
 12a:	81 e0       	ldi	r24, 0x01	; 1
 12c:	90 e0       	ldi	r25, 0x00	; 0
 12e:	0a 88       	ldd	r0, Y+18	; 0x12
 130:	00 c0       	rjmp	.+0      	; 0x132 <_ZN14HardwareSerial5beginEl+0x132>
 132:	88 0f       	add	r24, r24
 134:	99 1f       	adc	r25, r25
 136:	0a 94       	dec	r0
 138:	02 f4       	brpl	.+0      	; 0x13a <_ZN14HardwareSerial5beginEl+0x13a>
 13a:	80 83       	st	Z, r24
 13c:	60 e0       	ldi	r22, 0x00	; 0
 13e:	79 e0       	ldi	r23, 0x09	; 9
 140:	8d e3       	ldi	r24, 0x3D	; 61
 142:	90 e0       	ldi	r25, 0x00	; 0
 144:	a6 01       	movw	r20, r12
 146:	95 01       	movw	r18, r10
 148:	0e 94 00 00 	call	0	; 0x0 <_ZN14HardwareSerial5beginEl>
 14c:	21 50       	subi	r18, 0x01	; 1
 14e:	30 40       	sbci	r19, 0x00	; 0
 150:	40 40       	sbci	r20, 0x00	; 0
 152:	50 40       	sbci	r21, 0x00	; 0
 154:	56 95       	lsr	r21
 156:	47 95       	ror	r20
 158:	37 95       	ror	r19
 15a:	27 95       	ror	r18
 15c:	82 2f       	mov	r24, r18
 15e:	23 2f       	mov	r18, r19
 160:	00 c0       	rjmp	.+0      	; 0x162 <_ZN14HardwareSerial5beginEl+0x162>
 162:	e8 85       	ldd	r30, Y+8	; 0x08
 164:	f9 85       	ldd	r31, Y+9	; 0x09
 166:	10 82       	st	Z, r1
 168:	86 2d       	mov	r24, r6
 16a:	27 2d       	mov	r18, r7
 16c:	ec 81       	ldd	r30, Y+4	; 0x04
 16e:	fd 81       	ldd	r31, Y+5	; 0x05
 170:	20 83       	st	Z, r18
 172:	ee 81       	ldd	r30, Y+6	; 0x06
 174:	ff 81       	ldd	r31, Y+7	; 0x07
 176:	80 83       	st	Z, r24
 178:	ea 85       	ldd	r30, Y+10	; 0x0a
 17a:	fb 85       	ldd	r31, Y+11	; 0x0b
 17c:	20 81       	ld	r18, Z
 17e:	41 e0       	ldi	r20, 0x01	; 1
 180:	50 e0       	ldi	r21, 0x00	; 0
 182:	ca 01       	movw	r24, r20
 184:	0e 84       	ldd	r0, Y+14	; 0x0e
 186:	00 c0       	rjmp	.+0      	; 0x188 <_ZN14HardwareSerial5beginEl+0x188>
 188:	88 0f       	add	r24, r24
 18a:	99 1f       	adc	r25, r25
 18c:	0a 94       	dec	r0
 18e:	02 f4       	brpl	.+0      	; 0x190 <_ZN14HardwareSerial5beginEl+0x190>
 190:	28 2b       	or	r18, r24
 192:	20 83       	st	Z, r18
 194:	ea 85       	ldd	r30, Y+10	; 0x0a
 196:	fb 85       	ldd	r31, Y+11	; 0x0b
 198:	20 81       	ld	r18, Z
 19a:	ca 01       	movw	r24, r20
 19c:	0f 84       	ldd	r0, Y+15	; 0x0f
 19e:	00 c0       	rjmp	.+0      	; 0x1a0 <_ZN14HardwareSerial5beginEl+0x1a0>
 1a0:	88 0f       	add	r24, r24
 1a2:	99 1f       	adc	r25, r25
 1a4:	0a 94       	dec	r0
 1a6:	02 f4       	brpl	.+0      	; 0x1a8 <_ZN14HardwareSerial5beginEl+0x1a8>
 1a8:	28 2b       	or	r18, r24
 1aa:	20 83       	st	Z, r18
 1ac:	ea 85       	ldd	r30, Y+10	; 0x0a
 1ae:	fb 85       	ldd	r31, Y+11	; 0x0b
 1b0:	80 81       	ld	r24, Z
 1b2:	08 88       	ldd	r0, Y+16	; 0x10
 1b4:	00 c0       	rjmp	.+0      	; 0x1b6 <_ZN14HardwareSerial5beginEl+0x1b6>
 1b6:	44 0f       	add	r20, r20
 1b8:	55 1f       	adc	r21, r21
 1ba:	0a 94       	dec	r0
 1bc:	02 f4       	brpl	.+0      	; 0x1be <_ZN14HardwareSerial5beginEl+0x1be>
 1be:	84 2b       	or	r24, r20
 1c0:	80 83       	st	Z, r24
 1c2:	df 91       	pop	r29
 1c4:	cf 91       	pop	r28
 1c6:	1f 91       	pop	r17
 1c8:	0f 91       	pop	r16
 1ca:	ff 90       	pop	r15
 1cc:	ef 90       	pop	r14
 1ce:	df 90       	pop	r13
 1d0:	cf 90       	pop	r12
 1d2:	bf 90       	pop	r11
 1d4:	af 90       	pop	r10
 1d6:	9f 90       	pop	r9
 1d8:	8f 90       	pop	r8
 1da:	7f 90       	pop	r7
 1dc:	6f 90       	pop	r6
 1de:	5f 90       	pop	r5
 1e0:	08 95       	ret

Disassembly of section .text._ZN14HardwareSerial3endEv:

00000000 <_ZN14HardwareSerial3endEv>:
   0:	fc 01       	movw	r30, r24
   2:	a2 85       	ldd	r26, Z+10	; 0x0a
   4:	b3 85       	ldd	r27, Z+11	; 0x0b
   6:	4c 91       	ld	r20, X
   8:	21 e0       	ldi	r18, 0x01	; 1
   a:	30 e0       	ldi	r19, 0x00	; 0
   c:	c9 01       	movw	r24, r18
   e:	06 84       	ldd	r0, Z+14	; 0x0e
  10:	00 c0       	rjmp	.+0      	; 0x12 <_ZN14HardwareSerial3endEv+0x12>
  12:	88 0f       	add	r24, r24
  14:	99 1f       	adc	r25, r25
  16:	0a 94       	dec	r0
  18:	02 f4       	brpl	.+0      	; 0x1a <_ZN14HardwareSerial3endEv+0x1a>
  1a:	80 95       	com	r24
  1c:	84 23       	and	r24, r20
  1e:	8c 93       	st	X, r24
  20:	a2 85       	ldd	r26, Z+10	; 0x0a
  22:	b3 85       	ldd	r27, Z+11	; 0x0b
  24:	4c 91       	ld	r20, X
  26:	c9 01       	movw	r24, r18
  28:	07 84       	ldd	r0, Z+15	; 0x0f
  2a:	00 c0       	rjmp	.+0      	; 0x2c <_ZN14HardwareSerial3endEv+0x2c>
  2c:	88 0f       	add	r24, r24
  2e:	99 1f       	adc	r25, r25
  30:	0a 94       	dec	r0
  32:	02 f4       	brpl	.+0      	; 0x34 <_ZN14HardwareSerial3endEv+0x34>
  34:	80 95       	com	r24
  36:	84 23       	and	r24, r20
  38:	8c 93       	st	X, r24
  3a:	a2 85       	ldd	r26, Z+10	; 0x0a
  3c:	b3 85       	ldd	r27, Z+11	; 0x0b
  3e:	8c 91       	ld	r24, X
  40:	00 88       	ldd	r0, Z+16	; 0x10
  42:	00 c0       	rjmp	.+0      	; 0x44 <_ZN14HardwareSerial3endEv+0x44>
  44:	22 0f       	add	r18, r18
  46:	33 1f       	adc	r19, r19
  48:	0a 94       	dec	r0
  4a:	02 f4       	brpl	.+0      	; 0x4c <_ZN14HardwareSerial3endEv+0x4c>
  4c:	20 95       	com	r18
  4e:	28 23       	and	r18, r24
  50:	2c 93       	st	X, r18
  52:	08 95       	ret

Disassembly of section .text._ZN14HardwareSerial9availableEv:

00000000 <_ZN14HardwareSerial9availableEv>:
   0:	dc 01       	movw	r26, r24
   2:	12 96       	adiw	r26, 0x02	; 2
   4:	ed 91       	ld	r30, X+
   6:	fc 91       	ld	r31, X
   8:	13 97       	sbiw	r26, 0x03	; 3
   a:	e0 58       	subi	r30, 0x80	; 128
   c:	ff 4f       	sbci	r31, 0xFF	; 255
   e:	81 91       	ld	r24, Z+
  10:	91 91       	ld	r25, Z+
  12:	80 58       	subi	r24, 0x80	; 128
  14:	9f 4f       	sbci	r25, 0xFF	; 255
  16:	20 81       	ld	r18, Z
  18:	31 81       	ldd	r19, Z+1	; 0x01
  1a:	82 1b       	sub	r24, r18
  1c:	93 0b       	sbc	r25, r19
  1e:	60 e8       	ldi	r22, 0x80	; 128
  20:	70 e0       	ldi	r23, 0x00	; 0
  22:	0e 94 00 00 	call	0	; 0x0 <_ZN14HardwareSerial9availableEv>
  26:	08 95       	ret

Disassembly of section .text._ZN14HardwareSerial4peekEv:

00000000 <_ZN14HardwareSerial4peekEv>:
   0:	dc 01       	movw	r26, r24
   2:	12 96       	adiw	r26, 0x02	; 2
   4:	ed 91       	ld	r30, X+
   6:	fc 91       	ld	r31, X
   8:	13 97       	sbiw	r26, 0x03	; 3
   a:	ee 57       	subi	r30, 0x7E	; 126
   c:	ff 4f       	sbci	r31, 0xFF	; 255
   e:	20 81       	ld	r18, Z
  10:	31 81       	ldd	r19, Z+1	; 0x01
  12:	92 91       	ld	r25, -Z
  14:	82 91       	ld	r24, -Z
  16:	e0 58       	subi	r30, 0x80	; 128
  18:	f0 40       	sbci	r31, 0x00	; 0
  1a:	82 17       	cp	r24, r18
  1c:	93 07       	cpc	r25, r19
  1e:	01 f4       	brne	.+0      	; 0x20 <_ZN14HardwareSerial4peekEv+0x20>
  20:	2f ef       	ldi	r18, 0xFF	; 255
  22:	3f ef       	ldi	r19, 0xFF	; 255
  24:	00 c0       	rjmp	.+0      	; 0x26 <_ZN14HardwareSerial4peekEv+0x26>
  26:	e2 0f       	add	r30, r18
  28:	f3 1f       	adc	r31, r19
  2a:	80 81       	ld	r24, Z
  2c:	28 2f       	mov	r18, r24
  2e:	30 e0       	ldi	r19, 0x00	; 0
  30:	c9 01       	movw	r24, r18
  32:	08 95       	ret

Disassembly of section .text._ZN14HardwareSerial4readEv:

00000000 <_ZN14HardwareSerial4readEv>:
   0:	cf 93       	push	r28
   2:	df 93       	push	r29
   4:	dc 01       	movw	r26, r24
   6:	12 96       	adiw	r26, 0x02	; 2
   8:	ed 91       	ld	r30, X+
   a:	fc 91       	ld	r31, X
   c:	13 97       	sbiw	r26, 0x03	; 3
   e:	ef 01       	movw	r28, r30
  10:	ce 57       	subi	r28, 0x7E	; 126
  12:	df 4f       	sbci	r29, 0xFF	; 255
  14:	48 81       	ld	r20, Y
  16:	59 81       	ldd	r21, Y+1	; 0x01
  18:	e0 58       	subi	r30, 0x80	; 128
  1a:	ff 4f       	sbci	r31, 0xFF	; 255
  1c:	80 81       	ld	r24, Z
  1e:	91 81       	ldd	r25, Z+1	; 0x01
  20:	e0 58       	subi	r30, 0x80	; 128
  22:	f0 40       	sbci	r31, 0x00	; 0
  24:	84 17       	cp	r24, r20
  26:	95 07       	cpc	r25, r21
  28:	01 f4       	brne	.+0      	; 0x2a <_ZN14HardwareSerial4readEv+0x2a>
  2a:	2f ef       	ldi	r18, 0xFF	; 255
  2c:	3f ef       	ldi	r19, 0xFF	; 255
  2e:	00 c0       	rjmp	.+0      	; 0x30 <_ZN14HardwareSerial4readEv+0x30>
  30:	e4 0f       	add	r30, r20
  32:	f5 1f       	adc	r31, r21
  34:	20 81       	ld	r18, Z
  36:	ca 01       	movw	r24, r20
  38:	01 96       	adiw	r24, 0x01	; 1
  3a:	60 e8       	ldi	r22, 0x80	; 128
  3c:	70 e0       	ldi	r23, 0x00	; 0
  3e:	0e 94 00 00 	call	0	; 0x0 <_ZN14HardwareSerial4readEv>
  42:	99 83       	std	Y+1, r25	; 0x01
  44:	88 83       	st	Y, r24
  46:	30 e0       	ldi	r19, 0x00	; 0
  48:	c9 01       	movw	r24, r18
  4a:	df 91       	pop	r29
  4c:	cf 91       	pop	r28
  4e:	08 95       	ret

Disassembly of section .text._ZN14HardwareSerial5flushEv:

00000000 <_ZN14HardwareSerial5flushEv>:
   0:	dc 01       	movw	r26, r24
   2:	12 96       	adiw	r26, 0x02	; 2
   4:	ed 91       	ld	r30, X+
   6:	fc 91       	ld	r31, X
   8:	13 97       	sbiw	r26, 0x03	; 3
   a:	ee 57       	subi	r30, 0x7E	; 126
   c:	ff 4f       	sbci	r31, 0xFF	; 255
   e:	80 81       	ld	r24, Z
  10:	91 81       	ldd	r25, Z+1	; 0x01
  12:	92 93       	st	-Z, r25
  14:	82 93       	st	-Z, r24
  16:	08 95       	ret

Disassembly of section .text._ZN14HardwareSerial5writeEh:

00000000 <_ZN14HardwareSerial5writeEh>:
   0:	fc 01       	movw	r30, r24
   2:	a0 85       	ldd	r26, Z+8	; 0x08
   4:	b1 85       	ldd	r27, Z+9	; 0x09
   6:	21 89       	ldd	r18, Z+17	; 0x11
   8:	8c 91       	ld	r24, X
   a:	90 e0       	ldi	r25, 0x00	; 0
   c:	02 2e       	mov	r0, r18
   e:	00 c0       	rjmp	.+0      	; 0x10 <_ZN14HardwareSerial5writeEh+0x10>
  10:	95 95       	asr	r25
  12:	87 95       	ror	r24
  14:	0a 94       	dec	r0
  16:	02 f4       	brpl	.+0      	; 0x18 <_ZN14HardwareSerial5writeEh+0x18>
  18:	80 ff       	sbrs	r24, 0
  1a:	00 c0       	rjmp	.+0      	; 0x1c <_ZN14HardwareSerial5writeEh+0x1c>
  1c:	04 84       	ldd	r0, Z+12	; 0x0c
  1e:	f5 85       	ldd	r31, Z+13	; 0x0d
  20:	e0 2d       	mov	r30, r0
  22:	60 83       	st	Z, r22
  24:	08 95       	ret

Disassembly of section .text._GLOBAL__I_rx_buffer:

00000000 <_GLOBAL__I_rx_buffer>:
   0:	80 e0       	ldi	r24, 0x00	; 0
   2:	90 e0       	ldi	r25, 0x00	; 0
   4:	90 93 00 00 	sts	0x0000, r25
   8:	80 93 00 00 	sts	0x0000, r24
   c:	80 e0       	ldi	r24, 0x00	; 0
   e:	90 e0       	ldi	r25, 0x00	; 0
  10:	90 93 00 00 	sts	0x0000, r25
  14:	80 93 00 00 	sts	0x0000, r24
  18:	85 ec       	ldi	r24, 0xC5	; 197
  1a:	90 e0       	ldi	r25, 0x00	; 0
  1c:	90 93 00 00 	sts	0x0000, r25
  20:	80 93 00 00 	sts	0x0000, r24
  24:	84 ec       	ldi	r24, 0xC4	; 196
  26:	90 e0       	ldi	r25, 0x00	; 0
  28:	90 93 00 00 	sts	0x0000, r25
  2c:	80 93 00 00 	sts	0x0000, r24
  30:	80 ec       	ldi	r24, 0xC0	; 192
  32:	90 e0       	ldi	r25, 0x00	; 0
  34:	90 93 00 00 	sts	0x0000, r25
  38:	80 93 00 00 	sts	0x0000, r24
  3c:	81 ec       	ldi	r24, 0xC1	; 193
  3e:	90 e0       	ldi	r25, 0x00	; 0
  40:	90 93 00 00 	sts	0x0000, r25
  44:	80 93 00 00 	sts	0x0000, r24
  48:	86 ec       	ldi	r24, 0xC6	; 198
  4a:	90 e0       	ldi	r25, 0x00	; 0
  4c:	90 93 00 00 	sts	0x0000, r25
  50:	80 93 00 00 	sts	0x0000, r24
  54:	84 e0       	ldi	r24, 0x04	; 4
  56:	80 93 00 00 	sts	0x0000, r24
  5a:	83 e0       	ldi	r24, 0x03	; 3
  5c:	80 93 00 00 	sts	0x0000, r24
  60:	87 e0       	ldi	r24, 0x07	; 7
  62:	80 93 00 00 	sts	0x0000, r24
  66:	85 e0       	ldi	r24, 0x05	; 5
  68:	80 93 00 00 	sts	0x0000, r24
  6c:	81 e0       	ldi	r24, 0x01	; 1
  6e:	80 93 00 00 	sts	0x0000, r24
  72:	08 95       	ret

Print.o:     file format elf32-avr

Sections:
Idx Name          Size      VMA       LMA       File off  Algn
  0 .text         00000000  00000000  00000000  00000034  2**0
                  CONTENTS, ALLOC, LOAD, READONLY, CODE
  1 .data         00000002  00000000  00000000  00000034  2**0
                  CONTENTS, ALLOC, LOAD, DATA
  2 .bss          00000000  00000000  00000000  00000036  2**0
                  ALLOC
  3 .text._ZN5Print5writeEPKc 00000030  00000000  00000000  00000036  2**0
                  CONTENTS, ALLOC, LOAD, RELOC, READONLY, CODE
  4 .text._ZN5Print5writeEPKhj 0000003e  00000000  00000000  00000066  2**0
                  CONTENTS, ALLOC, LOAD, RELOC, READONLY, CODE
  5 .text._ZN5Print5printEPKc 00000010  00000000  00000000  000000a4  2**0
                  CONTENTS, ALLOC, LOAD, READONLY, CODE
  6 .text._ZN5Print5printERK6String 00000054  00000000  00000000  000000b4  2**0
                  CONTENTS, ALLOC, LOAD, RELOC, READONLY, CODE
  7 .text._ZN5Print11printNumberEmh 00000130  00000000  00000000  00000108  2**0
                  CONTENTS, ALLOC, LOAD, RELOC, READONLY, CODE
  8 .text._ZN5Print5printEmi 0000001e  00000000  00000000  00000238  2**0
                  CONTENTS, ALLOC, LOAD, RELOC, READONLY, CODE
  9 .text._ZN5Print5printEji 00000022  00000000  00000000  00000256  2**0
                  CONTENTS, ALLOC, LOAD, RELOC, READONLY, CODE
 10 .text._ZN5Print5printEhi 00000024  00000000  00000000  00000278  2**0
                  CONTENTS, ALLOC, LOAD, RELOC, READONLY, CODE
 11 .text._ZN5Print5printEli 0000006c  00000000  00000000  0000029c  2**0
                  CONTENTS, ALLOC, LOAD, RELOC, READONLY, CODE
 12 .text._ZN5Print5printEii 00000026  00000000  00000000  00000308  2**0
                  CONTENTS, ALLOC, LOAD, RELOC, READONLY, CODE
 13 .text._ZN5Print5printEci 00000024  00000000  00000000  0000032e  2**0
                  CONTENTS, ALLOC, LOAD, RELOC, READONLY, CODE
 14 .text._ZN5Print7printlnEv 0000002e  00000000  00000000  00000352  2**0
                  CONTENTS, ALLOC, LOAD, RELOC, READONLY, CODE
 15 .text._ZN5Print7printlnEmi 00000016  00000000  00000000  00000380  2**0
                  CONTENTS, ALLOC, LOAD, RELOC, READONLY, CODE
 16 .text._ZN5Print7printlnEji 00000032  00000000  00000000  00000396  2**0
                  CONTENTS, ALLOC, LOAD, RELOC, READONLY, CODE
 17 .text._ZN5Print7printlnEhi 00000034  00000000  00000000  000003c8  2**0
                  CONTENTS, ALLOC, LOAD, RELOC, READONLY, CODE
 18 .text._ZN5Print7printlnEPKc 00000016  00000000  00000000  000003fc  2**0
                  CONTENTS, ALLOC, LOAD, RELOC, READONLY, CODE
 19 .text._ZN5Print7printlnERK6String 00000016  00000000  00000000  00000412  2**0
                  CONTENTS, ALLOC, LOAD, RELOC, READONLY, CODE
 20 .text._ZN5Print7printlnEli 00000016  00000000  00000000  00000428  2**0
                  CONTENTS, ALLOC, LOAD, RELOC, READONLY, CODE
 21 .text._ZN5Print7printlnEii 00000036  00000000  00000000  0000043e  2**0
                  CONTENTS, ALLOC, LOAD, RELOC, READONLY, CODE
 22 .text._ZN5Print7printlnEci 00000034  00000000  00000000  00000474  2**0
                  CONTENTS, ALLOC, LOAD, RELOC, READONLY, CODE
 23 .text._ZN5Print10printFloatEdh 00000118  00000000  00000000  000004a8  2**0
                  CONTENTS, ALLOC, LOAD, RELOC, READONLY, CODE
 24 .text._ZN5Print5printEdi 00000006  00000000  00000000  000005c0  2**0
                  CONTENTS, ALLOC, LOAD, RELOC, READONLY, CODE
 25 .text._ZN5Print7printlnEdi 00000016  00000000  00000000  000005c6  2**0
                  CONTENTS, ALLOC, LOAD, RELOC, READONLY, CODE
 26 .rodata._ZTV5Print 0000000a  00000000  00000000  000005dc  2**0
                  CONTENTS, ALLOC, LOAD, RELOC, READONLY, DATA

Disassembly of section .text._ZN5Print5writeEPKc:

00000000 <_ZN5Print5writeEPKc>:
   0:	0f 93       	push	r16
   2:	1f 93       	push	r17
   4:	cf 93       	push	r28
   6:	df 93       	push	r29
   8:	8c 01       	movw	r16, r24
   a:	eb 01       	movw	r28, r22
   c:	00 c0       	rjmp	.+0      	; 0xe <_ZN5Print5writeEPKc+0xe>
   e:	21 96       	adiw	r28, 0x01	; 1
  10:	d8 01       	movw	r26, r16
  12:	ed 91       	ld	r30, X+
  14:	fc 91       	ld	r31, X
  16:	01 90       	ld	r0, Z+
  18:	f0 81       	ld	r31, Z
  1a:	e0 2d       	mov	r30, r0
  1c:	c8 01       	movw	r24, r16
  1e:	09 95       	icall
  20:	68 81       	ld	r22, Y
  22:	66 23       	and	r22, r22
  24:	01 f4       	brne	.+0      	; 0x26 <_ZN5Print5writeEPKc+0x26>
  26:	df 91       	pop	r29
  28:	cf 91       	pop	r28
  2a:	1f 91       	pop	r17
  2c:	0f 91       	pop	r16
  2e:	08 95       	ret

Disassembly of section .text._ZN5Print5writeEPKhj:

00000000 <_ZN5Print5writeEPKhj>:
   0:	ef 92       	push	r14
   2:	ff 92       	push	r15
   4:	0f 93       	push	r16
   6:	1f 93       	push	r17
   8:	cf 93       	push	r28
   a:	df 93       	push	r29
   c:	8c 01       	movw	r16, r24
   e:	7b 01       	movw	r14, r22
  10:	ea 01       	movw	r28, r20
  12:	00 c0       	rjmp	.+0      	; 0x14 <_ZN5Print5writeEPKhj+0x14>
  14:	d7 01       	movw	r26, r14
  16:	6d 91       	ld	r22, X+
  18:	7d 01       	movw	r14, r26
  1a:	d8 01       	movw	r26, r16
  1c:	ed 91       	ld	r30, X+
  1e:	fc 91       	ld	r31, X
  20:	01 90       	ld	r0, Z+
  22:	f0 81       	ld	r31, Z
  24:	e0 2d       	mov	r30, r0
  26:	c8 01       	movw	r24, r16
  28:	09 95       	icall
  2a:	21 97       	sbiw	r28, 0x01	; 1
  2c:	20 97       	sbiw	r28, 0x00	; 0
  2e:	01 f4       	brne	.+0      	; 0x30 <_ZN5Print5writeEPKhj+0x30>
  30:	df 91       	pop	r29
  32:	cf 91       	pop	r28
  34:	1f 91       	pop	r17
  36:	0f 91       	pop	r16
  38:	ff 90       	pop	r15
  3a:	ef 90       	pop	r14
  3c:	08 95       	ret

Disassembly of section .text._ZN5Print5printEPKc:

00000000 <_ZN5Print5printEPKc>:
   0:	dc 01       	movw	r26, r24
   2:	ed 91       	ld	r30, X+
   4:	fc 91       	ld	r31, X
   6:	02 80       	ldd	r0, Z+2	; 0x02
   8:	f3 81       	ldd	r31, Z+3	; 0x03
   a:	e0 2d       	mov	r30, r0
   c:	09 95       	icall
   e:	08 95       	ret

Disassembly of section .text._ZN5Print5printERK6String:

00000000 <_ZN5Print5printERK6String>:
   0:	cf 92       	push	r12
   2:	df 92       	push	r13
   4:	ef 92       	push	r14
   6:	ff 92       	push	r15
   8:	0f 93       	push	r16
   a:	1f 93       	push	r17
   c:	cf 93       	push	r28
   e:	df 93       	push	r29
  10:	6c 01       	movw	r12, r24
  12:	7b 01       	movw	r14, r22
  14:	c0 e0       	ldi	r28, 0x00	; 0
  16:	d0 e0       	ldi	r29, 0x00	; 0
  18:	00 c0       	rjmp	.+0      	; 0x1a <_ZN5Print5printERK6String+0x1a>
  1a:	d6 01       	movw	r26, r12
  1c:	ed 91       	ld	r30, X+
  1e:	fc 91       	ld	r31, X
  20:	00 81       	ld	r16, Z
  22:	11 81       	ldd	r17, Z+1	; 0x01
  24:	c7 01       	movw	r24, r14
  26:	be 01       	movw	r22, r28
  28:	0e 94 00 00 	call	0	; 0x0 <_ZN5Print5printERK6String>
  2c:	68 2f       	mov	r22, r24
  2e:	c6 01       	movw	r24, r12
  30:	f8 01       	movw	r30, r16
  32:	09 95       	icall
  34:	21 96       	adiw	r28, 0x01	; 1
  36:	f7 01       	movw	r30, r14
  38:	84 81       	ldd	r24, Z+4	; 0x04
  3a:	95 81       	ldd	r25, Z+5	; 0x05
  3c:	c8 17       	cp	r28, r24
  3e:	d9 07       	cpc	r29, r25
  40:	00 f0       	brcs	.+0      	; 0x42 <_ZN5Print5printERK6String+0x42>
  42:	df 91       	pop	r29
  44:	cf 91       	pop	r28
  46:	1f 91       	pop	r17
  48:	0f 91       	pop	r16
  4a:	ff 90       	pop	r15
  4c:	ef 90       	pop	r14
  4e:	df 90       	pop	r13
  50:	cf 90       	pop	r12
  52:	08 95       	ret

Disassembly of section .text._ZN5Print11printNumberEmh:

00000000 <_ZN5Print11printNumberEmh>:
   0:	2f 92       	push	r2
   2:	3f 92       	push	r3
   4:	4f 92       	push	r4
   6:	5f 92       	push	r5
   8:	6f 92       	push	r6
   a:	7f 92       	push	r7
   c:	8f 92       	push	r8
   e:	9f 92       	push	r9
  10:	af 92       	push	r10
  12:	bf 92       	push	r11
  14:	cf 92       	push	r12
  16:	df 92       	push	r13
  18:	ef 92       	push	r14
  1a:	ff 92       	push	r15
  1c:	0f 93       	push	r16
  1e:	1f 93       	push	r17
  20:	df 93       	push	r29
  22:	cf 93       	push	r28
  24:	cd b7       	in	r28, 0x3d	; 61
  26:	de b7       	in	r29, 0x3e	; 62
  28:	a0 97       	sbiw	r28, 0x20	; 32
  2a:	0f b6       	in	r0, 0x3f	; 63
  2c:	f8 94       	cli
  2e:	de bf       	out	0x3e, r29	; 62
  30:	0f be       	out	0x3f, r0	; 63
  32:	cd bf       	out	0x3d, r28	; 61
  34:	1c 01       	movw	r2, r24
  36:	6a 01       	movw	r12, r20
  38:	7b 01       	movw	r14, r22
  3a:	41 15       	cp	r20, r1
  3c:	51 05       	cpc	r21, r1
  3e:	61 05       	cpc	r22, r1
  40:	71 05       	cpc	r23, r1
  42:	01 f4       	brne	.+0      	; 0x44 <_ZN5Print11printNumberEmh+0x44>
  44:	40 e3       	ldi	r20, 0x30	; 48
  46:	50 e0       	ldi	r21, 0x00	; 0
  48:	60 e0       	ldi	r22, 0x00	; 0
  4a:	70 e0       	ldi	r23, 0x00	; 0
  4c:	20 e0       	ldi	r18, 0x00	; 0
  4e:	30 e0       	ldi	r19, 0x00	; 0
  50:	0e 94 00 00 	call	0	; 0x0 <_ZN5Print11printNumberEmh>
  54:	00 c0       	rjmp	.+0      	; 0x56 <_ZN5Print11printNumberEmh+0x56>
  56:	88 24       	eor	r8, r8
  58:	99 24       	eor	r9, r9
  5a:	54 01       	movw	r10, r8
  5c:	42 2e       	mov	r4, r18
  5e:	55 24       	eor	r5, r5
  60:	66 24       	eor	r6, r6
  62:	77 24       	eor	r7, r7
  64:	01 e0       	ldi	r16, 0x01	; 1
  66:	10 e0       	ldi	r17, 0x00	; 0
  68:	0c 0f       	add	r16, r28
  6a:	1d 1f       	adc	r17, r29
  6c:	08 0d       	add	r16, r8
  6e:	19 1d       	adc	r17, r9
  70:	c7 01       	movw	r24, r14
  72:	b6 01       	movw	r22, r12
  74:	a3 01       	movw	r20, r6
  76:	92 01       	movw	r18, r4
  78:	0e 94 00 00 	call	0	; 0x0 <_ZN5Print11printNumberEmh>
  7c:	f8 01       	movw	r30, r16
  7e:	60 83       	st	Z, r22
  80:	08 94       	sec
  82:	81 1c       	adc	r8, r1
  84:	91 1c       	adc	r9, r1
  86:	a1 1c       	adc	r10, r1
  88:	b1 1c       	adc	r11, r1
  8a:	c7 01       	movw	r24, r14
  8c:	b6 01       	movw	r22, r12
  8e:	a3 01       	movw	r20, r6
  90:	92 01       	movw	r18, r4
  92:	0e 94 00 00 	call	0	; 0x0 <_ZN5Print11printNumberEmh>
  96:	c9 01       	movw	r24, r18
  98:	da 01       	movw	r26, r20
  9a:	6c 01       	movw	r12, r24
  9c:	7d 01       	movw	r14, r26
  9e:	c1 14       	cp	r12, r1
  a0:	d1 04       	cpc	r13, r1
  a2:	e1 04       	cpc	r14, r1
  a4:	f1 04       	cpc	r15, r1
  a6:	01 f4       	brne	.+0      	; 0xa8 <_ZN5Print11printNumberEmh+0xa8>
  a8:	81 e0       	ldi	r24, 0x01	; 1
  aa:	e8 2e       	mov	r14, r24
  ac:	f1 2c       	mov	r15, r1
  ae:	ec 0e       	add	r14, r28
  b0:	fd 1e       	adc	r15, r29
  b2:	e8 0c       	add	r14, r8
  b4:	f9 1c       	adc	r15, r9
  b6:	3e 01       	movw	r6, r28
  b8:	08 94       	sec
  ba:	61 1c       	adc	r6, r1
  bc:	71 1c       	adc	r7, r1
  be:	d5 01       	movw	r26, r10
  c0:	c4 01       	movw	r24, r8
  c2:	01 97       	sbiw	r24, 0x01	; 1
  c4:	a1 09       	sbc	r26, r1
  c6:	b1 09       	sbc	r27, r1
  c8:	6c 01       	movw	r12, r24
  ca:	c8 18       	sub	r12, r8
  cc:	d9 08       	sbc	r13, r9
  ce:	00 c0       	rjmp	.+0      	; 0xd0 <_ZN5Print11printNumberEmh+0xd0>
  d0:	f6 01       	movw	r30, r12
  d2:	ee 0d       	add	r30, r14
  d4:	ff 1d       	adc	r31, r15
  d6:	40 81       	ld	r20, Z
  d8:	4a 30       	cpi	r20, 0x0A	; 10
  da:	00 f4       	brcc	.+0      	; 0xdc <_ZN5Print11printNumberEmh+0xdc>
  dc:	40 5d       	subi	r20, 0xD0	; 208
  de:	00 c0       	rjmp	.+0      	; 0xe0 <_ZN5Print11printNumberEmh+0xe0>
  e0:	49 5c       	subi	r20, 0xC9	; 201
  e2:	50 e0       	ldi	r21, 0x00	; 0
  e4:	60 e0       	ldi	r22, 0x00	; 0
  e6:	70 e0       	ldi	r23, 0x00	; 0
  e8:	c1 01       	movw	r24, r2
  ea:	20 e0       	ldi	r18, 0x00	; 0
  ec:	30 e0       	ldi	r19, 0x00	; 0
  ee:	0e 94 00 00 	call	0	; 0x0 <_ZN5Print11printNumberEmh>
  f2:	08 94       	sec
  f4:	e1 08       	sbc	r14, r1
  f6:	f1 08       	sbc	r15, r1
  f8:	6e 14       	cp	r6, r14
  fa:	7f 04       	cpc	r7, r15
  fc:	01 f4       	brne	.+0      	; 0xfe <_ZN5Print11printNumberEmh+0xfe>
  fe:	a0 96       	adiw	r28, 0x20	; 32
 100:	0f b6       	in	r0, 0x3f	; 63
 102:	f8 94       	cli
 104:	de bf       	out	0x3e, r29	; 62
 106:	0f be       	out	0x3f, r0	; 63
 108:	cd bf       	out	0x3d, r28	; 61
 10a:	cf 91       	pop	r28
 10c:	df 91       	pop	r29
 10e:	1f 91       	pop	r17
 110:	0f 91       	pop	r16
 112:	ff 90       	pop	r15
 114:	ef 90       	pop	r14
 116:	df 90       	pop	r13
 118:	cf 90       	pop	r12
 11a:	bf 90       	pop	r11
 11c:	af 90       	pop	r10
 11e:	9f 90       	pop	r9
 120:	8f 90       	pop	r8
 122:	7f 90       	pop	r7
 124:	6f 90       	pop	r6
 126:	5f 90       	pop	r5
 128:	4f 90       	pop	r4
 12a:	3f 90       	pop	r3
 12c:	2f 90       	pop	r2
 12e:	08 95       	ret

Disassembly of section .text._ZN5Print5printEmi:

00000000 <_ZN5Print5printEmi>:
   0:	dc 01       	movw	r26, r24
   2:	21 15       	cp	r18, r1
   4:	31 05       	cpc	r19, r1
   6:	01 f4       	brne	.+0      	; 0x8 <_ZN5Print5printEmi+0x8>
   8:	ed 91       	ld	r30, X+
   a:	fc 91       	ld	r31, X
   c:	01 90       	ld	r0, Z+
   e:	f0 81       	ld	r31, Z
  10:	e0 2d       	mov	r30, r0
  12:	64 2f       	mov	r22, r20
  14:	09 95       	icall
  16:	08 95       	ret
  18:	0e 94 00 00 	call	0	; 0x0 <_ZN5Print5printEmi>
  1c:	08 95       	ret

Disassembly of section .text._ZN5Print5printEji:

00000000 <_ZN5Print5printEji>:
   0:	ef 92       	push	r14
   2:	ff 92       	push	r15
   4:	0f 93       	push	r16
   6:	1f 93       	push	r17
   8:	9a 01       	movw	r18, r20
   a:	7b 01       	movw	r14, r22
   c:	00 e0       	ldi	r16, 0x00	; 0
   e:	10 e0       	ldi	r17, 0x00	; 0
  10:	b8 01       	movw	r22, r16
  12:	a7 01       	movw	r20, r14
  14:	0e 94 00 00 	call	0	; 0x0 <_ZN5Print5printEji>
  18:	1f 91       	pop	r17
  1a:	0f 91       	pop	r16
  1c:	ff 90       	pop	r15
  1e:	ef 90       	pop	r14
  20:	08 95       	ret

Disassembly of section .text._ZN5Print5printEhi:

00000000 <_ZN5Print5printEhi>:
   0:	ef 92       	push	r14
   2:	ff 92       	push	r15
   4:	0f 93       	push	r16
   6:	1f 93       	push	r17
   8:	9a 01       	movw	r18, r20
   a:	e6 2e       	mov	r14, r22
   c:	ff 24       	eor	r15, r15
   e:	00 e0       	ldi	r16, 0x00	; 0
  10:	10 e0       	ldi	r17, 0x00	; 0
  12:	b8 01       	movw	r22, r16
  14:	a7 01       	movw	r20, r14
  16:	0e 94 00 00 	call	0	; 0x0 <_ZN5Print5printEhi>
  1a:	1f 91       	pop	r17
  1c:	0f 91       	pop	r16
  1e:	ff 90       	pop	r15
  20:	ef 90       	pop	r14
  22:	08 95       	ret

Disassembly of section .text._ZN5Print5printEli:

00000000 <_ZN5Print5printEli>:
   0:	ef 92       	push	r14
   2:	ff 92       	push	r15
   4:	0f 93       	push	r16
   6:	1f 93       	push	r17
   8:	cf 93       	push	r28
   a:	df 93       	push	r29
   c:	ec 01       	movw	r28, r24
   e:	7a 01       	movw	r14, r20
  10:	8b 01       	movw	r16, r22
  12:	21 15       	cp	r18, r1
  14:	31 05       	cpc	r19, r1
  16:	01 f4       	brne	.+0      	; 0x18 <_ZN5Print5printEli+0x18>
  18:	e8 81       	ld	r30, Y
  1a:	f9 81       	ldd	r31, Y+1	; 0x01
  1c:	01 90       	ld	r0, Z+
  1e:	f0 81       	ld	r31, Z
  20:	e0 2d       	mov	r30, r0
  22:	64 2f       	mov	r22, r20
  24:	09 95       	icall
  26:	00 c0       	rjmp	.+0      	; 0x28 <_ZN5Print5printEli+0x28>
  28:	2a 30       	cpi	r18, 0x0A	; 10
  2a:	31 05       	cpc	r19, r1
  2c:	01 f4       	brne	.+0      	; 0x2e <_ZN5Print5printEli+0x2e>
  2e:	77 ff       	sbrs	r23, 7
  30:	00 c0       	rjmp	.+0      	; 0x32 <_ZN5Print5printEli+0x32>
  32:	4d e2       	ldi	r20, 0x2D	; 45
  34:	50 e0       	ldi	r21, 0x00	; 0
  36:	60 e0       	ldi	r22, 0x00	; 0
  38:	70 e0       	ldi	r23, 0x00	; 0
  3a:	20 e0       	ldi	r18, 0x00	; 0
  3c:	30 e0       	ldi	r19, 0x00	; 0
  3e:	0e 94 00 00 	call	0	; 0x0 <_ZN5Print5printEli>
  42:	10 95       	com	r17
  44:	00 95       	com	r16
  46:	f0 94       	com	r15
  48:	e0 94       	com	r14
  4a:	e1 1c       	adc	r14, r1
  4c:	f1 1c       	adc	r15, r1
  4e:	01 1d       	adc	r16, r1
  50:	11 1d       	adc	r17, r1
  52:	ce 01       	movw	r24, r28
  54:	b8 01       	movw	r22, r16
  56:	a7 01       	movw	r20, r14
  58:	2a e0       	ldi	r18, 0x0A	; 10
  5a:	0e 94 00 00 	call	0	; 0x0 <_ZN5Print5printEli>
  5e:	df 91       	pop	r29
  60:	cf 91       	pop	r28
  62:	1f 91       	pop	r17
  64:	0f 91       	pop	r16
  66:	ff 90       	pop	r15
  68:	ef 90       	pop	r14
  6a:	08 95       	ret

Disassembly of section .text._ZN5Print5printEii:

00000000 <_ZN5Print5printEii>:
   0:	ef 92       	push	r14
   2:	ff 92       	push	r15
   4:	0f 93       	push	r16
   6:	1f 93       	push	r17
   8:	7b 01       	movw	r14, r22
   a:	9a 01       	movw	r18, r20
   c:	00 27       	eor	r16, r16
   e:	f7 fc       	sbrc	r15, 7
  10:	00 95       	com	r16
  12:	10 2f       	mov	r17, r16
  14:	b8 01       	movw	r22, r16
  16:	a7 01       	movw	r20, r14
  18:	0e 94 00 00 	call	0	; 0x0 <_ZN5Print5printEii>
  1c:	1f 91       	pop	r17
  1e:	0f 91       	pop	r16
  20:	ff 90       	pop	r15
  22:	ef 90       	pop	r14
  24:	08 95       	ret

Disassembly of section .text._ZN5Print5printEci:

00000000 <_ZN5Print5printEci>:
   0:	ef 92       	push	r14
   2:	ff 92       	push	r15
   4:	0f 93       	push	r16
   6:	1f 93       	push	r17
   8:	9a 01       	movw	r18, r20
   a:	e6 2e       	mov	r14, r22
   c:	ff 24       	eor	r15, r15
   e:	00 e0       	ldi	r16, 0x00	; 0
  10:	10 e0       	ldi	r17, 0x00	; 0
  12:	b8 01       	movw	r22, r16
  14:	a7 01       	movw	r20, r14
  16:	0e 94 00 00 	call	0	; 0x0 <_ZN5Print5printEci>
  1a:	1f 91       	pop	r17
  1c:	0f 91       	pop	r16
  1e:	ff 90       	pop	r15
  20:	ef 90       	pop	r14
  22:	08 95       	ret

Disassembly of section .text._ZN5Print7printlnEv:

00000000 <_ZN5Print7printlnEv>:
   0:	0f 93       	push	r16
   2:	1f 93       	push	r17
   4:	8c 01       	movw	r16, r24
   6:	4d e0       	ldi	r20, 0x0D	; 13
   8:	50 e0       	ldi	r21, 0x00	; 0
   a:	60 e0       	ldi	r22, 0x00	; 0
   c:	70 e0       	ldi	r23, 0x00	; 0
   e:	20 e0       	ldi	r18, 0x00	; 0
  10:	30 e0       	ldi	r19, 0x00	; 0
  12:	0e 94 00 00 	call	0	; 0x0 <_ZN5Print7printlnEv>
  16:	c8 01       	movw	r24, r16
  18:	4a e0       	ldi	r20, 0x0A	; 10
  1a:	50 e0       	ldi	r21, 0x00	; 0
  1c:	60 e0       	ldi	r22, 0x00	; 0
  1e:	70 e0       	ldi	r23, 0x00	; 0
  20:	20 e0       	ldi	r18, 0x00	; 0
  22:	30 e0       	ldi	r19, 0x00	; 0
  24:	0e 94 00 00 	call	0	; 0x0 <_ZN5Print7printlnEv>
  28:	1f 91       	pop	r17
  2a:	0f 91       	pop	r16
  2c:	08 95       	ret

Disassembly of section .text._ZN5Print7printlnEmi:

00000000 <_ZN5Print7printlnEmi>:
   0:	0f 93       	push	r16
   2:	1f 93       	push	r17
   4:	8c 01       	movw	r16, r24
   6:	0e 94 00 00 	call	0	; 0x0 <_ZN5Print7printlnEmi>
   a:	c8 01       	movw	r24, r16
   c:	0e 94 00 00 	call	0	; 0x0 <_ZN5Print7printlnEmi>
  10:	1f 91       	pop	r17
  12:	0f 91       	pop	r16
  14:	08 95       	ret

Disassembly of section .text._ZN5Print7printlnEji:

00000000 <_ZN5Print7printlnEji>:
   0:	cf 92       	push	r12
   2:	df 92       	push	r13
   4:	ef 92       	push	r14
   6:	ff 92       	push	r15
   8:	0f 93       	push	r16
   a:	1f 93       	push	r17
   c:	8c 01       	movw	r16, r24
   e:	9a 01       	movw	r18, r20
  10:	6b 01       	movw	r12, r22
  12:	ee 24       	eor	r14, r14
  14:	ff 24       	eor	r15, r15
  16:	b7 01       	movw	r22, r14
  18:	a6 01       	movw	r20, r12
  1a:	0e 94 00 00 	call	0	; 0x0 <_ZN5Print7printlnEji>
  1e:	c8 01       	movw	r24, r16
  20:	0e 94 00 00 	call	0	; 0x0 <_ZN5Print7printlnEji>
  24:	1f 91       	pop	r17
  26:	0f 91       	pop	r16
  28:	ff 90       	pop	r15
  2a:	ef 90       	pop	r14
  2c:	df 90       	pop	r13
  2e:	cf 90       	pop	r12
  30:	08 95       	ret

Disassembly of section .text._ZN5Print7printlnEhi:

00000000 <_ZN5Print7printlnEhi>:
   0:	cf 92       	push	r12
   2:	df 92       	push	r13
   4:	ef 92       	push	r14
   6:	ff 92       	push	r15
   8:	0f 93       	push	r16
   a:	1f 93       	push	r17
   c:	8c 01       	movw	r16, r24
   e:	9a 01       	movw	r18, r20
  10:	c6 2e       	mov	r12, r22
  12:	dd 24       	eor	r13, r13
  14:	ee 24       	eor	r14, r14
  16:	ff 24       	eor	r15, r15
  18:	b7 01       	movw	r22, r14
  1a:	a6 01       	movw	r20, r12
  1c:	0e 94 00 00 	call	0	; 0x0 <_ZN5Print7printlnEhi>
  20:	c8 01       	movw	r24, r16
  22:	0e 94 00 00 	call	0	; 0x0 <_ZN5Print7printlnEhi>
  26:	1f 91       	pop	r17
  28:	0f 91       	pop	r16
  2a:	ff 90       	pop	r15
  2c:	ef 90       	pop	r14
  2e:	df 90       	pop	r13
  30:	cf 90       	pop	r12
  32:	08 95       	ret

Disassembly of section .text._ZN5Print7printlnEPKc:

00000000 <_ZN5Print7printlnEPKc>:
   0:	0f 93       	push	r16
   2:	1f 93       	push	r17
   4:	8c 01       	movw	r16, r24
   6:	0e 94 00 00 	call	0	; 0x0 <_ZN5Print7printlnEPKc>
   a:	c8 01       	movw	r24, r16
   c:	0e 94 00 00 	call	0	; 0x0 <_ZN5Print7printlnEPKc>
  10:	1f 91       	pop	r17
  12:	0f 91       	pop	r16
  14:	08 95       	ret

Disassembly of section .text._ZN5Print7printlnERK6String:

00000000 <_ZN5Print7printlnERK6String>:
   0:	0f 93       	push	r16
   2:	1f 93       	push	r17
   4:	8c 01       	movw	r16, r24
   6:	0e 94 00 00 	call	0	; 0x0 <_ZN5Print7printlnERK6String>
   a:	c8 01       	movw	r24, r16
   c:	0e 94 00 00 	call	0	; 0x0 <_ZN5Print7printlnERK6String>
  10:	1f 91       	pop	r17
  12:	0f 91       	pop	r16
  14:	08 95       	ret

Disassembly of section .text._ZN5Print7printlnEli:

00000000 <_ZN5Print7printlnEli>:
   0:	0f 93       	push	r16
   2:	1f 93       	push	r17
   4:	8c 01       	movw	r16, r24
   6:	0e 94 00 00 	call	0	; 0x0 <_ZN5Print7printlnEli>
   a:	c8 01       	movw	r24, r16
   c:	0e 94 00 00 	call	0	; 0x0 <_ZN5Print7printlnEli>
  10:	1f 91       	pop	r17
  12:	0f 91       	pop	r16
  14:	08 95       	ret

Disassembly of section .text._ZN5Print7printlnEii:

00000000 <_ZN5Print7printlnEii>:
   0:	cf 92       	push	r12
   2:	df 92       	push	r13
   4:	ef 92       	push	r14
   6:	ff 92       	push	r15
   8:	0f 93       	push	r16
   a:	1f 93       	push	r17
   c:	8c 01       	movw	r16, r24
   e:	6b 01       	movw	r12, r22
  10:	9a 01       	movw	r18, r20
  12:	ee 24       	eor	r14, r14
  14:	d7 fc       	sbrc	r13, 7
  16:	e0 94       	com	r14
  18:	fe 2c       	mov	r15, r14
  1a:	b7 01       	movw	r22, r14
  1c:	a6 01       	movw	r20, r12
  1e:	0e 94 00 00 	call	0	; 0x0 <_ZN5Print7printlnEii>
  22:	c8 01       	movw	r24, r16
  24:	0e 94 00 00 	call	0	; 0x0 <_ZN5Print7printlnEii>
  28:	1f 91       	pop	r17
  2a:	0f 91       	pop	r16
  2c:	ff 90       	pop	r15
  2e:	ef 90       	pop	r14
  30:	df 90       	pop	r13
  32:	cf 90       	pop	r12
  34:	08 95       	ret

Disassembly of section .text._ZN5Print7printlnEci:

00000000 <_ZN5Print7printlnEci>:
   0:	cf 92       	push	r12
   2:	df 92       	push	r13
   4:	ef 92       	push	r14
   6:	ff 92       	push	r15
   8:	0f 93       	push	r16
   a:	1f 93       	push	r17
   c:	8c 01       	movw	r16, r24
   e:	9a 01       	movw	r18, r20
  10:	c6 2e       	mov	r12, r22
  12:	dd 24       	eor	r13, r13
  14:	ee 24       	eor	r14, r14
  16:	ff 24       	eor	r15, r15
  18:	b7 01       	movw	r22, r14
  1a:	a6 01       	movw	r20, r12
  1c:	0e 94 00 00 	call	0	; 0x0 <_ZN5Print7printlnEci>
  20:	c8 01       	movw	r24, r16
  22:	0e 94 00 00 	call	0	; 0x0 <_ZN5Print7printlnEci>
  26:	1f 91       	pop	r17
  28:	0f 91       	pop	r16
  2a:	ff 90       	pop	r15
  2c:	ef 90       	pop	r14
  2e:	df 90       	pop	r13
  30:	cf 90       	pop	r12
  32:	08 95       	ret

Disassembly of section .text._ZN5Print10printFloatEdh:

00000000 <_ZN5Print10printFloatEdh>:
   0:	9f 92       	push	r9
   2:	af 92       	push	r10
   4:	bf 92       	push	r11
   6:	cf 92       	push	r12
   8:	df 92       	push	r13
   a:	ef 92       	push	r14
   c:	ff 92       	push	r15
   e:	0f 93       	push	r16
  10:	1f 93       	push	r17
  12:	cf 93       	push	r28
  14:	df 93       	push	r29
  16:	ec 01       	movw	r28, r24
  18:	7a 01       	movw	r14, r20
  1a:	8b 01       	movw	r16, r22
  1c:	92 2e       	mov	r9, r18
  1e:	cb 01       	movw	r24, r22
  20:	ba 01       	movw	r22, r20
  22:	20 e0       	ldi	r18, 0x00	; 0
  24:	30 e0       	ldi	r19, 0x00	; 0
  26:	40 e0       	ldi	r20, 0x00	; 0
  28:	50 e0       	ldi	r21, 0x00	; 0
  2a:	0e 94 00 00 	call	0	; 0x0 <_ZN5Print10printFloatEdh>
  2e:	88 23       	and	r24, r24
  30:	04 f4       	brge	.+0      	; 0x32 <_ZN5Print10printFloatEdh+0x32>
  32:	ce 01       	movw	r24, r28
  34:	4d e2       	ldi	r20, 0x2D	; 45
  36:	50 e0       	ldi	r21, 0x00	; 0
  38:	60 e0       	ldi	r22, 0x00	; 0
  3a:	70 e0       	ldi	r23, 0x00	; 0
  3c:	20 e0       	ldi	r18, 0x00	; 0
  3e:	30 e0       	ldi	r19, 0x00	; 0
  40:	0e 94 00 00 	call	0	; 0x0 <_ZN5Print10printFloatEdh>
  44:	17 fb       	bst	r17, 7
  46:	10 95       	com	r17
  48:	17 f9       	bld	r17, 7
  4a:	10 95       	com	r17
  4c:	20 e0       	ldi	r18, 0x00	; 0
  4e:	30 e0       	ldi	r19, 0x00	; 0
  50:	40 e0       	ldi	r20, 0x00	; 0
  52:	5f e3       	ldi	r21, 0x3F	; 63
  54:	aa 24       	eor	r10, r10
  56:	00 c0       	rjmp	.+0      	; 0x58 <_ZN5Print10printFloatEdh+0x58>
  58:	ca 01       	movw	r24, r20
  5a:	b9 01       	movw	r22, r18
  5c:	20 e0       	ldi	r18, 0x00	; 0
  5e:	30 e0       	ldi	r19, 0x00	; 0
  60:	40 e2       	ldi	r20, 0x20	; 32
  62:	51 e4       	ldi	r21, 0x41	; 65
  64:	0e 94 00 00 	call	0	; 0x0 <_ZN5Print10printFloatEdh>
  68:	9b 01       	movw	r18, r22
  6a:	ac 01       	movw	r20, r24
  6c:	a3 94       	inc	r10
  6e:	a9 14       	cp	r10, r9
  70:	00 f0       	brcs	.+0      	; 0x72 <_ZN5Print10printFloatEdh+0x72>
  72:	c8 01       	movw	r24, r16
  74:	b7 01       	movw	r22, r14
  76:	0e 94 00 00 	call	0	; 0x0 <_ZN5Print10printFloatEdh>
  7a:	5b 01       	movw	r10, r22
  7c:	6c 01       	movw	r12, r24
  7e:	0e 94 00 00 	call	0	; 0x0 <_ZN5Print10printFloatEdh>
  82:	7b 01       	movw	r14, r22
  84:	8c 01       	movw	r16, r24
  86:	ce 01       	movw	r24, r28
  88:	b8 01       	movw	r22, r16
  8a:	a7 01       	movw	r20, r14
  8c:	2a e0       	ldi	r18, 0x0A	; 10
  8e:	30 e0       	ldi	r19, 0x00	; 0
  90:	0e 94 00 00 	call	0	; 0x0 <_ZN5Print10printFloatEdh>
  94:	99 20       	and	r9, r9
  96:	01 f0       	breq	.+0      	; 0x98 <_ZN5Print10printFloatEdh+0x98>
  98:	ce 01       	movw	r24, r28
  9a:	60 e0       	ldi	r22, 0x00	; 0
  9c:	70 e0       	ldi	r23, 0x00	; 0
  9e:	0e 94 00 00 	call	0	; 0x0 <_ZN5Print10printFloatEdh>
  a2:	c8 01       	movw	r24, r16
  a4:	b7 01       	movw	r22, r14
  a6:	0e 94 00 00 	call	0	; 0x0 <_ZN5Print10printFloatEdh>
  aa:	9b 01       	movw	r18, r22
  ac:	ac 01       	movw	r20, r24
  ae:	c6 01       	movw	r24, r12
  b0:	b5 01       	movw	r22, r10
  b2:	0e 94 00 00 	call	0	; 0x0 <_ZN5Print10printFloatEdh>
  b6:	00 c0       	rjmp	.+0      	; 0xb8 <_ZN5Print10printFloatEdh+0xb8>
  b8:	20 e0       	ldi	r18, 0x00	; 0
  ba:	30 e0       	ldi	r19, 0x00	; 0
  bc:	40 e2       	ldi	r20, 0x20	; 32
  be:	51 e4       	ldi	r21, 0x41	; 65
  c0:	0e 94 00 00 	call	0	; 0x0 <_ZN5Print10printFloatEdh>
  c4:	7b 01       	movw	r14, r22
  c6:	8c 01       	movw	r16, r24
  c8:	0e 94 00 00 	call	0	; 0x0 <_ZN5Print10printFloatEdh>
  cc:	5b 01       	movw	r10, r22
  ce:	6c 01       	movw	r12, r24
  d0:	cc 24       	eor	r12, r12
  d2:	b7 fc       	sbrc	r11, 7
  d4:	c0 94       	com	r12
  d6:	dc 2c       	mov	r13, r12
  d8:	ce 01       	movw	r24, r28
  da:	b6 01       	movw	r22, r12
  dc:	a5 01       	movw	r20, r10
  de:	2a e0       	ldi	r18, 0x0A	; 10
  e0:	30 e0       	ldi	r19, 0x00	; 0
  e2:	0e 94 00 00 	call	0	; 0x0 <_ZN5Print10printFloatEdh>
  e6:	c6 01       	movw	r24, r12
  e8:	b5 01       	movw	r22, r10
  ea:	0e 94 00 00 	call	0	; 0x0 <_ZN5Print10printFloatEdh>
  ee:	9b 01       	movw	r18, r22
  f0:	ac 01       	movw	r20, r24
  f2:	c8 01       	movw	r24, r16
  f4:	b7 01       	movw	r22, r14
  f6:	0e 94 00 00 	call	0	; 0x0 <_ZN5Print10printFloatEdh>
  fa:	9a 94       	dec	r9
  fc:	99 20       	and	r9, r9
  fe:	01 f4       	brne	.+0      	; 0x100 <_ZN5Print10printFloatEdh+0x100>
 100:	df 91       	pop	r29
 102:	cf 91       	pop	r28
 104:	1f 91       	pop	r17
 106:	0f 91       	pop	r16
 108:	ff 90       	pop	r15
 10a:	ef 90       	pop	r14
 10c:	df 90       	pop	r13
 10e:	cf 90       	pop	r12
 110:	bf 90       	pop	r11
 112:	af 90       	pop	r10
 114:	9f 90       	pop	r9
 116:	08 95       	ret

Disassembly of section .text._ZN5Print5printEdi:

00000000 <_ZN5Print5printEdi>:
   0:	0e 94 00 00 	call	0	; 0x0 <_ZN5Print5printEdi>
   4:	08 95       	ret

Disassembly of section .text._ZN5Print7printlnEdi:

00000000 <_ZN5Print7printlnEdi>:
   0:	0f 93       	push	r16
   2:	1f 93       	push	r17
   4:	8c 01       	movw	r16, r24
   6:	0e 94 00 00 	call	0	; 0x0 <_ZN5Print7printlnEdi>
   a:	c8 01       	movw	r24, r16
   c:	0e 94 00 00 	call	0	; 0x0 <_ZN5Print7printlnEdi>
  10:	1f 91       	pop	r17
  12:	0f 91       	pop	r16
  14:	08 95       	ret

Tone.o:     file format elf32-avr

Sections:
Idx Name          Size      VMA       LMA       File off  Algn
  0 .text         00000000  00000000  00000000  00000034  2**0
                  CONTENTS, ALLOC, LOAD, READONLY, CODE
  1 .data         00000000  00000000  00000000  00000034  2**0
                  CONTENTS, ALLOC, LOAD, DATA
  2 .bss          00000000  00000000  00000000  00000034  2**0
                  ALLOC
  3 .text._Z12disableTimerh 00000042  00000000  00000000  00000034  2**0
                  CONTENTS, ALLOC, LOAD, RELOC, READONLY, CODE
  4 .text.__vector_7 000000ca  00000000  00000000  00000076  2**0
                  CONTENTS, ALLOC, LOAD, RELOC, READONLY, CODE
  5 .text._Z6noToneh 0000002e  00000000  00000000  00000140  2**0
                  CONTENTS, ALLOC, LOAD, RELOC, READONLY, CODE
  6 .text._Z4tonehjm 0000042a  00000000  00000000  0000016e  2**0
                  CONTENTS, ALLOC, LOAD, RELOC, READONLY, CODE
  7 .bss.timer0_toggle_count 00000004  00000000  00000000  00000598  2**0
                  ALLOC
  8 .bss.timer0_pin_port 00000002  00000000  00000000  00000598  2**0
                  ALLOC
  9 .bss.timer0_pin_mask 00000001  00000000  00000000  00000598  2**0
                  ALLOC
 10 .bss.timer1_toggle_count 00000004  00000000  00000000  00000598  2**0
                  ALLOC
 11 .bss.timer1_pin_port 00000002  00000000  00000000  00000598  2**0
                  ALLOC
 12 .bss.timer1_pin_mask 00000001  00000000  00000000  00000598  2**0
                  ALLOC
 13 .bss.timer2_toggle_count 00000004  00000000  00000000  00000598  2**0
                  ALLOC
 14 .bss.timer2_pin_port 00000002  00000000  00000000  00000598  2**0
                  ALLOC
 15 .bss.timer2_pin_mask 00000001  00000000  00000000  00000598  2**0
                  ALLOC
 16 .data._ZL9tone_pins 00000001  00000000  00000000  00000598  2**0
                  CONTENTS, ALLOC, LOAD, DATA
 17 .progmem.data 00000001  00000000  00000000  00000599  2**0
                  CONTENTS, ALLOC, LOAD, READONLY, DATA

Disassembly of section .text._Z12disableTimerh:

00000000 <_Z12disableTimerh>:
   0:	81 30       	cpi	r24, 0x01	; 1
   2:	01 f0       	breq	.+0      	; 0x4 <_Z12disableTimerh+0x4>
   4:	81 30       	cpi	r24, 0x01	; 1
   6:	00 f0       	brcs	.+0      	; 0x8 <_Z12disableTimerh+0x8>
   8:	82 30       	cpi	r24, 0x02	; 2
   a:	01 f4       	brne	.+0      	; 0xc <_Z12disableTimerh+0xc>
   c:	00 c0       	rjmp	.+0      	; 0xe <_Z12disableTimerh+0xe>
   e:	10 92 6e 00 	sts	0x006E, r1
  12:	08 95       	ret
  14:	80 91 6f 00 	lds	r24, 0x006F
  18:	8d 7f       	andi	r24, 0xFD	; 253
  1a:	80 93 6f 00 	sts	0x006F, r24
  1e:	08 95       	ret
  20:	80 91 70 00 	lds	r24, 0x0070
  24:	8d 7f       	andi	r24, 0xFD	; 253
  26:	80 93 70 00 	sts	0x0070, r24
  2a:	81 e0       	ldi	r24, 0x01	; 1
  2c:	80 93 b0 00 	sts	0x00B0, r24
  30:	80 91 b1 00 	lds	r24, 0x00B1
  34:	88 7f       	andi	r24, 0xF8	; 248
  36:	84 60       	ori	r24, 0x04	; 4
  38:	80 93 b1 00 	sts	0x00B1, r24
  3c:	10 92 b3 00 	sts	0x00B3, r1
  40:	08 95       	ret

Disassembly of section .text.__vector_7:

00000000 <__vector_7>:
   0:	1f 92       	push	r1
   2:	0f 92       	push	r0
   4:	0f b6       	in	r0, 0x3f	; 63
   6:	0f 92       	push	r0
   8:	11 24       	eor	r1, r1
   a:	2f 93       	push	r18
   c:	3f 93       	push	r19
   e:	4f 93       	push	r20
  10:	5f 93       	push	r21
  12:	6f 93       	push	r22
  14:	7f 93       	push	r23
  16:	8f 93       	push	r24
  18:	9f 93       	push	r25
  1a:	af 93       	push	r26
  1c:	bf 93       	push	r27
  1e:	ef 93       	push	r30
  20:	ff 93       	push	r31
  22:	80 91 00 00 	lds	r24, 0x0000
  26:	90 91 00 00 	lds	r25, 0x0000
  2a:	a0 91 00 00 	lds	r26, 0x0000
  2e:	b0 91 00 00 	lds	r27, 0x0000
  32:	00 97       	sbiw	r24, 0x00	; 0
  34:	a1 05       	cpc	r26, r1
  36:	b1 05       	cpc	r27, r1
  38:	01 f0       	breq	.+0      	; 0x3a <__vector_7+0x3a>
  3a:	e0 91 00 00 	lds	r30, 0x0000
  3e:	f0 91 00 00 	lds	r31, 0x0000
  42:	80 81       	ld	r24, Z
  44:	90 91 00 00 	lds	r25, 0x0000
  48:	89 27       	eor	r24, r25
  4a:	80 83       	st	Z, r24
  4c:	80 91 00 00 	lds	r24, 0x0000
  50:	90 91 00 00 	lds	r25, 0x0000
  54:	a0 91 00 00 	lds	r26, 0x0000
  58:	b0 91 00 00 	lds	r27, 0x0000
  5c:	18 16       	cp	r1, r24
  5e:	19 06       	cpc	r1, r25
  60:	1a 06       	cpc	r1, r26
  62:	1b 06       	cpc	r1, r27
  64:	04 f4       	brge	.+0      	; 0x66 <__vector_7+0x66>
  66:	80 91 00 00 	lds	r24, 0x0000
  6a:	90 91 00 00 	lds	r25, 0x0000
  6e:	a0 91 00 00 	lds	r26, 0x0000
  72:	b0 91 00 00 	lds	r27, 0x0000
  76:	01 97       	sbiw	r24, 0x01	; 1
  78:	a1 09       	sbc	r26, r1
  7a:	b1 09       	sbc	r27, r1
  7c:	80 93 00 00 	sts	0x0000, r24
  80:	90 93 00 00 	sts	0x0000, r25
  84:	a0 93 00 00 	sts	0x0000, r26
  88:	b0 93 00 00 	sts	0x0000, r27
  8c:	00 c0       	rjmp	.+0      	; 0x8e <__vector_7+0x8e>
  8e:	82 e0       	ldi	r24, 0x02	; 2
  90:	0e 94 00 00 	call	0	; 0x0 <__vector_7>
  94:	e0 91 00 00 	lds	r30, 0x0000
  98:	f0 91 00 00 	lds	r31, 0x0000
  9c:	90 81       	ld	r25, Z
  9e:	80 91 00 00 	lds	r24, 0x0000
  a2:	80 95       	com	r24
  a4:	89 23       	and	r24, r25
  a6:	80 83       	st	Z, r24
  a8:	ff 91       	pop	r31
  aa:	ef 91       	pop	r30
  ac:	bf 91       	pop	r27
  ae:	af 91       	pop	r26
  b0:	9f 91       	pop	r25
  b2:	8f 91       	pop	r24
  b4:	7f 91       	pop	r23
  b6:	6f 91       	pop	r22
  b8:	5f 91       	pop	r21
  ba:	4f 91       	pop	r20
  bc:	3f 91       	pop	r19
  be:	2f 91       	pop	r18
  c0:	0f 90       	pop	r0
  c2:	0f be       	out	0x3f, r0	; 63
  c4:	0f 90       	pop	r0
  c6:	1f 90       	pop	r1
  c8:	18 95       	reti

Disassembly of section .text._Z6noToneh:

00000000 <_Z6noToneh>:
   0:	1f 93       	push	r17
   2:	18 2f       	mov	r17, r24
   4:	80 91 00 00 	lds	r24, 0x0000
   8:	81 17       	cp	r24, r17
   a:	01 f0       	breq	.+0      	; 0xc <_Z6noToneh+0xc>
   c:	9f ef       	ldi	r25, 0xFF	; 255
   e:	00 c0       	rjmp	.+0      	; 0x10 <_Z6noToneh+0x10>
  10:	e0 e0       	ldi	r30, 0x00	; 0
  12:	f0 e0       	ldi	r31, 0x00	; 0
  14:	94 91       	lpm	r25, Z+
  16:	8f ef       	ldi	r24, 0xFF	; 255
  18:	80 93 00 00 	sts	0x0000, r24
  1c:	89 2f       	mov	r24, r25
  1e:	0e 94 00 00 	call	0	; 0x0 <_Z6noToneh>
  22:	81 2f       	mov	r24, r17
  24:	60 e0       	ldi	r22, 0x00	; 0
  26:	0e 94 00 00 	call	0	; 0x0 <_Z6noToneh>
  2a:	1f 91       	pop	r17
  2c:	08 95       	ret

Disassembly of section .text._Z4tonehjm:

00000000 <_Z4tonehjm>:
   0:	2f 92       	push	r2
   2:	3f 92       	push	r3
   4:	5f 92       	push	r5
   6:	6f 92       	push	r6
   8:	7f 92       	push	r7
   a:	8f 92       	push	r8
   c:	9f 92       	push	r9
   e:	af 92       	push	r10
  10:	bf 92       	push	r11
  12:	cf 92       	push	r12
  14:	df 92       	push	r13
  16:	ef 92       	push	r14
  18:	ff 92       	push	r15
  1a:	0f 93       	push	r16
  1c:	1f 93       	push	r17
  1e:	df 93       	push	r29
  20:	cf 93       	push	r28
  22:	00 d0       	rcall	.+0      	; 0x24 <_Z4tonehjm+0x24>
  24:	00 d0       	rcall	.+0      	; 0x26 <_Z4tonehjm+0x26>
  26:	cd b7       	in	r28, 0x3d	; 61
  28:	de b7       	in	r29, 0x3e	; 62
  2a:	a8 2f       	mov	r26, r24
  2c:	1b 01       	movw	r2, r22
  2e:	29 83       	std	Y+1, r18	; 0x01
  30:	3a 83       	std	Y+2, r19	; 0x02
  32:	4b 83       	std	Y+3, r20	; 0x03
  34:	5c 83       	std	Y+4, r21	; 0x04
  36:	80 91 00 00 	lds	r24, 0x0000
  3a:	8a 17       	cp	r24, r26
  3c:	01 f4       	brne	.+0      	; 0x3e <_Z4tonehjm+0x3e>
  3e:	e0 e0       	ldi	r30, 0x00	; 0
  40:	f0 e0       	ldi	r31, 0x00	; 0
  42:	54 90       	lpm	r5, Z+
  44:	00 c0       	rjmp	.+0      	; 0x46 <_Z4tonehjm+0x46>
  46:	8f 3f       	cpi	r24, 0xFF	; 255
  48:	01 f0       	breq	.+0      	; 0x4a <_Z4tonehjm+0x4a>
  4a:	00 c0       	rjmp	.+0      	; 0x4c <_Z4tonehjm+0x4c>
  4c:	a0 93 00 00 	sts	0x0000, r26
  50:	e0 e0       	ldi	r30, 0x00	; 0
  52:	f0 e0       	ldi	r31, 0x00	; 0
  54:	54 90       	lpm	r5, Z+
  56:	2f ef       	ldi	r18, 0xFF	; 255
  58:	52 16       	cp	r5, r18
  5a:	01 f4       	brne	.+0      	; 0x5c <_Z4tonehjm+0x5c>
  5c:	00 c0       	rjmp	.+0      	; 0x5e <_Z4tonehjm+0x5e>
  5e:	81 e0       	ldi	r24, 0x01	; 1
  60:	58 16       	cp	r5, r24
  62:	01 f0       	breq	.+0      	; 0x64 <_Z4tonehjm+0x64>
  64:	92 e0       	ldi	r25, 0x02	; 2
  66:	59 16       	cp	r5, r25
  68:	01 f4       	brne	.+0      	; 0x6a <_Z4tonehjm+0x6a>
  6a:	00 c0       	rjmp	.+0      	; 0x6c <_Z4tonehjm+0x6c>
  6c:	55 20       	and	r5, r5
  6e:	01 f0       	breq	.+0      	; 0x70 <_Z4tonehjm+0x70>
  70:	00 c0       	rjmp	.+0      	; 0x72 <_Z4tonehjm+0x72>
  72:	14 bc       	out	0x24, r1	; 36
  74:	15 bc       	out	0x25, r1	; 37
  76:	84 b5       	in	r24, 0x24	; 36
  78:	82 60       	ori	r24, 0x02	; 2
  7a:	84 bd       	out	0x24, r24	; 36
  7c:	85 b5       	in	r24, 0x25	; 37
  7e:	81 60       	ori	r24, 0x01	; 1
  80:	85 bd       	out	0x25, r24	; 37
  82:	2a 2f       	mov	r18, r26
  84:	30 e0       	ldi	r19, 0x00	; 0
  86:	f9 01       	movw	r30, r18
  88:	e0 50       	subi	r30, 0x00	; 0
  8a:	f0 40       	sbci	r31, 0x00	; 0
  8c:	e4 91       	lpm	r30, Z+
  8e:	f0 e0       	ldi	r31, 0x00	; 0
  90:	ee 0f       	add	r30, r30
  92:	ff 1f       	adc	r31, r31
  94:	e0 50       	subi	r30, 0x00	; 0
  96:	f0 40       	sbci	r31, 0x00	; 0
  98:	85 91       	lpm	r24, Z+
  9a:	94 91       	lpm	r25, Z+
  9c:	90 93 00 00 	sts	0x0000, r25
  a0:	80 93 00 00 	sts	0x0000, r24
  a4:	20 50       	subi	r18, 0x00	; 0
  a6:	30 40       	sbci	r19, 0x00	; 0
  a8:	f9 01       	movw	r30, r18
  aa:	84 91       	lpm	r24, Z+
  ac:	80 93 00 00 	sts	0x0000, r24
  b0:	00 c0       	rjmp	.+0      	; 0xb2 <_Z4tonehjm+0xb2>
  b2:	10 92 80 00 	sts	0x0080, r1
  b6:	10 92 81 00 	sts	0x0081, r1
  ba:	80 91 81 00 	lds	r24, 0x0081
  be:	88 60       	ori	r24, 0x08	; 8
  c0:	80 93 81 00 	sts	0x0081, r24
  c4:	80 91 81 00 	lds	r24, 0x0081
  c8:	81 60       	ori	r24, 0x01	; 1
  ca:	80 93 81 00 	sts	0x0081, r24
  ce:	2a 2f       	mov	r18, r26
  d0:	30 e0       	ldi	r19, 0x00	; 0
  d2:	f9 01       	movw	r30, r18
  d4:	e0 50       	subi	r30, 0x00	; 0
  d6:	f0 40       	sbci	r31, 0x00	; 0
  d8:	e4 91       	lpm	r30, Z+
  da:	f0 e0       	ldi	r31, 0x00	; 0
  dc:	ee 0f       	add	r30, r30
  de:	ff 1f       	adc	r31, r31
  e0:	e0 50       	subi	r30, 0x00	; 0
  e2:	f0 40       	sbci	r31, 0x00	; 0
  e4:	85 91       	lpm	r24, Z+
  e6:	94 91       	lpm	r25, Z+
  e8:	90 93 00 00 	sts	0x0000, r25
  ec:	80 93 00 00 	sts	0x0000, r24
  f0:	20 50       	subi	r18, 0x00	; 0
  f2:	30 40       	sbci	r19, 0x00	; 0
  f4:	f9 01       	movw	r30, r18
  f6:	84 91       	lpm	r24, Z+
  f8:	80 93 00 00 	sts	0x0000, r24
  fc:	00 c0       	rjmp	.+0      	; 0xfe <_Z4tonehjm+0xfe>
  fe:	10 92 b0 00 	sts	0x00B0, r1
 102:	10 92 b1 00 	sts	0x00B1, r1
 106:	80 91 b0 00 	lds	r24, 0x00B0
 10a:	82 60       	ori	r24, 0x02	; 2
 10c:	80 93 b0 00 	sts	0x00B0, r24
 110:	80 91 b1 00 	lds	r24, 0x00B1
 114:	81 60       	ori	r24, 0x01	; 1
 116:	80 93 b1 00 	sts	0x00B1, r24
 11a:	2a 2f       	mov	r18, r26
 11c:	30 e0       	ldi	r19, 0x00	; 0
 11e:	f9 01       	movw	r30, r18
 120:	e0 50       	subi	r30, 0x00	; 0
 122:	f0 40       	sbci	r31, 0x00	; 0
 124:	e4 91       	lpm	r30, Z+
 126:	f0 e0       	ldi	r31, 0x00	; 0
 128:	ee 0f       	add	r30, r30
 12a:	ff 1f       	adc	r31, r31
 12c:	e0 50       	subi	r30, 0x00	; 0
 12e:	f0 40       	sbci	r31, 0x00	; 0
 130:	85 91       	lpm	r24, Z+
 132:	94 91       	lpm	r25, Z+
 134:	90 93 00 00 	sts	0x0000, r25
 138:	80 93 00 00 	sts	0x0000, r24
 13c:	20 50       	subi	r18, 0x00	; 0
 13e:	30 40       	sbci	r19, 0x00	; 0
 140:	f9 01       	movw	r30, r18
 142:	84 91       	lpm	r24, Z+
 144:	80 93 00 00 	sts	0x0000, r24
 148:	00 c0       	rjmp	.+0      	; 0x14a <_Z4tonehjm+0x14a>
 14a:	57 fc       	sbrc	r5, 7
 14c:	00 c0       	rjmp	.+0      	; 0x14e <_Z4tonehjm+0x14e>
 14e:	8a 2f       	mov	r24, r26
 150:	61 e0       	ldi	r22, 0x01	; 1
 152:	0e 94 00 00 	call	0	; 0x0 <_Z4tonehjm>
 156:	55 20       	and	r5, r5
 158:	01 f0       	breq	.+0      	; 0x15a <_Z4tonehjm+0x15a>
 15a:	f2 e0       	ldi	r31, 0x02	; 2
 15c:	5f 16       	cp	r5, r31
 15e:	01 f0       	breq	.+0      	; 0x160 <_Z4tonehjm+0x160>
 160:	00 c0       	rjmp	.+0      	; 0x162 <_Z4tonehjm+0x162>
 162:	31 01       	movw	r6, r2
 164:	88 24       	eor	r8, r8
 166:	99 24       	eor	r9, r9
 168:	60 e0       	ldi	r22, 0x00	; 0
 16a:	72 e1       	ldi	r23, 0x12	; 18
 16c:	8a e7       	ldi	r24, 0x7A	; 122
 16e:	90 e0       	ldi	r25, 0x00	; 0
 170:	a4 01       	movw	r20, r8
 172:	93 01       	movw	r18, r6
 174:	0e 94 00 00 	call	0	; 0x0 <_Z4tonehjm>
 178:	59 01       	movw	r10, r18
 17a:	6a 01       	movw	r12, r20
 17c:	86 01       	movw	r16, r12
 17e:	75 01       	movw	r14, r10
 180:	08 94       	sec
 182:	e1 08       	sbc	r14, r1
 184:	f1 08       	sbc	r15, r1
 186:	01 09       	sbc	r16, r1
 188:	11 09       	sbc	r17, r1
 18a:	2f ef       	ldi	r18, 0xFF	; 255
 18c:	e2 16       	cp	r14, r18
 18e:	f1 04       	cpc	r15, r1
 190:	01 05       	cpc	r16, r1
 192:	11 05       	cpc	r17, r1
 194:	01 f0       	breq	.+0      	; 0x196 <_Z4tonehjm+0x196>
 196:	00 f4       	brcc	.+0      	; 0x198 <_Z4tonehjm+0x198>
 198:	00 c0       	rjmp	.+0      	; 0x19a <_Z4tonehjm+0x19a>
 19a:	60 e4       	ldi	r22, 0x40	; 64
 19c:	72 e4       	ldi	r23, 0x42	; 66
 19e:	8f e0       	ldi	r24, 0x0F	; 15
 1a0:	90 e0       	ldi	r25, 0x00	; 0
 1a2:	a4 01       	movw	r20, r8
 1a4:	93 01       	movw	r18, r6
 1a6:	0e 94 00 00 	call	0	; 0x0 <_Z4tonehjm>
 1aa:	79 01       	movw	r14, r18
 1ac:	8a 01       	movw	r16, r20
 1ae:	08 94       	sec
 1b0:	e1 08       	sbc	r14, r1
 1b2:	f1 08       	sbc	r15, r1
 1b4:	01 09       	sbc	r16, r1
 1b6:	11 09       	sbc	r17, r1
 1b8:	82 e0       	ldi	r24, 0x02	; 2
 1ba:	58 16       	cp	r5, r24
 1bc:	01 f4       	brne	.+0      	; 0x1be <_Z4tonehjm+0x1be>
 1be:	9f ef       	ldi	r25, 0xFF	; 255
 1c0:	e9 16       	cp	r14, r25
 1c2:	f1 04       	cpc	r15, r1
 1c4:	01 05       	cpc	r16, r1
 1c6:	11 05       	cpc	r17, r1
 1c8:	01 f0       	breq	.+0      	; 0x1ca <_Z4tonehjm+0x1ca>
 1ca:	00 f4       	brcc	.+0      	; 0x1cc <_Z4tonehjm+0x1cc>
 1cc:	00 c0       	rjmp	.+0      	; 0x1ce <_Z4tonehjm+0x1ce>
 1ce:	60 e9       	ldi	r22, 0x90	; 144
 1d0:	70 ed       	ldi	r23, 0xD0	; 208
 1d2:	83 e0       	ldi	r24, 0x03	; 3
 1d4:	90 e0       	ldi	r25, 0x00	; 0
 1d6:	a4 01       	movw	r20, r8
 1d8:	93 01       	movw	r18, r6
 1da:	0e 94 00 00 	call	0	; 0x0 <_Z4tonehjm>
 1de:	79 01       	movw	r14, r18
 1e0:	8a 01       	movw	r16, r20
 1e2:	08 94       	sec
 1e4:	e1 08       	sbc	r14, r1
 1e6:	f1 08       	sbc	r15, r1
 1e8:	01 09       	sbc	r16, r1
 1ea:	11 09       	sbc	r17, r1
 1ec:	83 e0       	ldi	r24, 0x03	; 3
 1ee:	af ef       	ldi	r26, 0xFF	; 255
 1f0:	ea 16       	cp	r14, r26
 1f2:	f1 04       	cpc	r15, r1
 1f4:	01 05       	cpc	r16, r1
 1f6:	11 05       	cpc	r17, r1
 1f8:	01 f0       	breq	.+0      	; 0x1fa <_Z4tonehjm+0x1fa>
 1fa:	00 f4       	brcc	.+0      	; 0x1fc <_Z4tonehjm+0x1fc>
 1fc:	00 c0       	rjmp	.+0      	; 0x1fe <_Z4tonehjm+0x1fe>
 1fe:	68 e4       	ldi	r22, 0x48	; 72
 200:	78 ee       	ldi	r23, 0xE8	; 232
 202:	81 e0       	ldi	r24, 0x01	; 1
 204:	90 e0       	ldi	r25, 0x00	; 0
 206:	a4 01       	movw	r20, r8
 208:	93 01       	movw	r18, r6
 20a:	0e 94 00 00 	call	0	; 0x0 <_Z4tonehjm>
 20e:	79 01       	movw	r14, r18
 210:	8a 01       	movw	r16, r20
 212:	08 94       	sec
 214:	e1 08       	sbc	r14, r1
 216:	f1 08       	sbc	r15, r1
 218:	01 09       	sbc	r16, r1
 21a:	11 09       	sbc	r17, r1
 21c:	55 20       	and	r5, r5
 21e:	01 f4       	brne	.+0      	; 0x220 <_Z4tonehjm+0x220>
 220:	83 e0       	ldi	r24, 0x03	; 3
 222:	00 c0       	rjmp	.+0      	; 0x224 <_Z4tonehjm+0x224>
 224:	b2 e0       	ldi	r27, 0x02	; 2
 226:	5b 16       	cp	r5, r27
 228:	01 f0       	breq	.+0      	; 0x22a <_Z4tonehjm+0x22a>
 22a:	84 e0       	ldi	r24, 0x04	; 4
 22c:	00 c0       	rjmp	.+0      	; 0x22e <_Z4tonehjm+0x22e>
 22e:	ef ef       	ldi	r30, 0xFF	; 255
 230:	ee 16       	cp	r14, r30
 232:	f1 04       	cpc	r15, r1
 234:	01 05       	cpc	r16, r1
 236:	11 05       	cpc	r17, r1
 238:	01 f0       	breq	.+0      	; 0x23a <_Z4tonehjm+0x23a>
 23a:	00 f4       	brcc	.+0      	; 0x23c <_Z4tonehjm+0x23c>
 23c:	00 c0       	rjmp	.+0      	; 0x23e <_Z4tonehjm+0x23e>
 23e:	64 e2       	ldi	r22, 0x24	; 36
 240:	74 ef       	ldi	r23, 0xF4	; 244
 242:	80 e0       	ldi	r24, 0x00	; 0
 244:	90 e0       	ldi	r25, 0x00	; 0
 246:	a4 01       	movw	r20, r8
 248:	93 01       	movw	r18, r6
 24a:	0e 94 00 00 	call	0	; 0x0 <_Z4tonehjm>
 24e:	79 01       	movw	r14, r18
 250:	8a 01       	movw	r16, r20
 252:	08 94       	sec
 254:	e1 08       	sbc	r14, r1
 256:	f1 08       	sbc	r15, r1
 258:	01 09       	sbc	r16, r1
 25a:	11 09       	sbc	r17, r1
 25c:	85 e0       	ldi	r24, 0x05	; 5
 25e:	ff ef       	ldi	r31, 0xFF	; 255
 260:	ef 16       	cp	r14, r31
 262:	f1 04       	cpc	r15, r1
 264:	01 05       	cpc	r16, r1
 266:	11 05       	cpc	r17, r1
 268:	01 f0       	breq	.+0      	; 0x26a <_Z4tonehjm+0x26a>
 26a:	00 f0       	brcs	.+0      	; 0x26c <_Z4tonehjm+0x26c>
 26c:	62 e1       	ldi	r22, 0x12	; 18
 26e:	7a e7       	ldi	r23, 0x7A	; 122
 270:	80 e0       	ldi	r24, 0x00	; 0
 272:	90 e0       	ldi	r25, 0x00	; 0
 274:	a4 01       	movw	r20, r8
 276:	93 01       	movw	r18, r6
 278:	0e 94 00 00 	call	0	; 0x0 <_Z4tonehjm>
 27c:	79 01       	movw	r14, r18
 27e:	8a 01       	movw	r16, r20
 280:	08 94       	sec
 282:	e1 08       	sbc	r14, r1
 284:	f1 08       	sbc	r15, r1
 286:	01 09       	sbc	r16, r1
 288:	11 09       	sbc	r17, r1
 28a:	55 20       	and	r5, r5
 28c:	01 f0       	breq	.+0      	; 0x28e <_Z4tonehjm+0x28e>
 28e:	86 e0       	ldi	r24, 0x06	; 6
 290:	00 c0       	rjmp	.+0      	; 0x292 <_Z4tonehjm+0x292>
 292:	84 e0       	ldi	r24, 0x04	; 4
 294:	2f ef       	ldi	r18, 0xFF	; 255
 296:	e2 16       	cp	r14, r18
 298:	f1 04       	cpc	r15, r1
 29a:	01 05       	cpc	r16, r1
 29c:	11 05       	cpc	r17, r1
 29e:	01 f0       	breq	.+0      	; 0x2a0 <_Z4tonehjm+0x2a0>
 2a0:	00 f0       	brcs	.+0      	; 0x2a2 <_Z4tonehjm+0x2a2>
 2a2:	86 01       	movw	r16, r12
 2a4:	75 01       	movw	r14, r10
 2a6:	9a e0       	ldi	r25, 0x0A	; 10
 2a8:	16 95       	lsr	r17
 2aa:	07 95       	ror	r16
 2ac:	f7 94       	ror	r15
 2ae:	e7 94       	ror	r14
 2b0:	9a 95       	dec	r25
 2b2:	01 f4       	brne	.+0      	; 0x2b4 <_Z4tonehjm+0x2b4>
 2b4:	08 94       	sec
 2b6:	e1 08       	sbc	r14, r1
 2b8:	f1 08       	sbc	r15, r1
 2ba:	01 09       	sbc	r16, r1
 2bc:	11 09       	sbc	r17, r1
 2be:	55 20       	and	r5, r5
 2c0:	01 f0       	breq	.+0      	; 0x2c2 <_Z4tonehjm+0x2c2>
 2c2:	87 e0       	ldi	r24, 0x07	; 7
 2c4:	00 c0       	rjmp	.+0      	; 0x2c6 <_Z4tonehjm+0x2c6>
 2c6:	85 e0       	ldi	r24, 0x05	; 5
 2c8:	00 c0       	rjmp	.+0      	; 0x2ca <_Z4tonehjm+0x2ca>
 2ca:	81 e0       	ldi	r24, 0x01	; 1
 2cc:	55 20       	and	r5, r5
 2ce:	01 f4       	brne	.+0      	; 0x2d0 <_Z4tonehjm+0x2d0>
 2d0:	85 bd       	out	0x25, r24	; 37
 2d2:	00 c0       	rjmp	.+0      	; 0x2d4 <_Z4tonehjm+0x2d4>
 2d4:	82 e0       	ldi	r24, 0x02	; 2
 2d6:	80 93 b1 00 	sts	0x00B1, r24
 2da:	00 c0       	rjmp	.+0      	; 0x2dc <_Z4tonehjm+0x2dc>
 2dc:	51 01       	movw	r10, r2
 2de:	cc 24       	eor	r12, r12
 2e0:	dd 24       	eor	r13, r13
 2e2:	60 e0       	ldi	r22, 0x00	; 0
 2e4:	72 e1       	ldi	r23, 0x12	; 18
 2e6:	8a e7       	ldi	r24, 0x7A	; 122
 2e8:	90 e0       	ldi	r25, 0x00	; 0
 2ea:	a6 01       	movw	r20, r12
 2ec:	95 01       	movw	r18, r10
 2ee:	0e 94 00 00 	call	0	; 0x0 <_Z4tonehjm>
 2f2:	79 01       	movw	r14, r18
 2f4:	8a 01       	movw	r16, r20
 2f6:	08 94       	sec
 2f8:	e1 08       	sbc	r14, r1
 2fa:	f1 08       	sbc	r15, r1
 2fc:	01 09       	sbc	r16, r1
 2fe:	11 09       	sbc	r17, r1
 300:	80 e0       	ldi	r24, 0x00	; 0
 302:	e8 16       	cp	r14, r24
 304:	80 e0       	ldi	r24, 0x00	; 0
 306:	f8 06       	cpc	r15, r24
 308:	81 e0       	ldi	r24, 0x01	; 1
 30a:	08 07       	cpc	r16, r24
 30c:	80 e0       	ldi	r24, 0x00	; 0
 30e:	18 07       	cpc	r17, r24
 310:	00 f4       	brcc	.+0      	; 0x312 <_Z4tonehjm+0x312>
 312:	91 e0       	ldi	r25, 0x01	; 1
 314:	00 c0       	rjmp	.+0      	; 0x316 <_Z4tonehjm+0x316>
 316:	68 e4       	ldi	r22, 0x48	; 72
 318:	78 ee       	ldi	r23, 0xE8	; 232
 31a:	81 e0       	ldi	r24, 0x01	; 1
 31c:	90 e0       	ldi	r25, 0x00	; 0
 31e:	a6 01       	movw	r20, r12
 320:	95 01       	movw	r18, r10
 322:	0e 94 00 00 	call	0	; 0x0 <_Z4tonehjm>
 326:	79 01       	movw	r14, r18
 328:	8a 01       	movw	r16, r20
 32a:	08 94       	sec
 32c:	e1 08       	sbc	r14, r1
 32e:	f1 08       	sbc	r15, r1
 330:	01 09       	sbc	r16, r1
 332:	11 09       	sbc	r17, r1
 334:	93 e0       	ldi	r25, 0x03	; 3
 336:	a1 e0       	ldi	r26, 0x01	; 1
 338:	5a 16       	cp	r5, r26
 33a:	01 f4       	brne	.+0      	; 0x33c <_Z4tonehjm+0x33c>
 33c:	80 91 81 00 	lds	r24, 0x0081
 340:	88 7f       	andi	r24, 0xF8	; 248
 342:	98 2b       	or	r25, r24
 344:	90 93 81 00 	sts	0x0081, r25
 348:	89 81       	ldd	r24, Y+1	; 0x01
 34a:	9a 81       	ldd	r25, Y+2	; 0x02
 34c:	ab 81       	ldd	r26, Y+3	; 0x03
 34e:	bc 81       	ldd	r27, Y+4	; 0x04
 350:	00 97       	sbiw	r24, 0x00	; 0
 352:	a1 05       	cpc	r26, r1
 354:	b1 05       	cpc	r27, r1
 356:	01 f4       	brne	.+0      	; 0x358 <_Z4tonehjm+0x358>
 358:	8f ef       	ldi	r24, 0xFF	; 255
 35a:	9f ef       	ldi	r25, 0xFF	; 255
 35c:	af ef       	ldi	r26, 0xFF	; 255
 35e:	bf ef       	ldi	r27, 0xFF	; 255
 360:	00 c0       	rjmp	.+0      	; 0x362 <_Z4tonehjm+0x362>
 362:	22 0c       	add	r2, r2
 364:	33 1c       	adc	r3, r3
 366:	b1 01       	movw	r22, r2
 368:	80 e0       	ldi	r24, 0x00	; 0
 36a:	90 e0       	ldi	r25, 0x00	; 0
 36c:	29 81       	ldd	r18, Y+1	; 0x01
 36e:	3a 81       	ldd	r19, Y+2	; 0x02
 370:	4b 81       	ldd	r20, Y+3	; 0x03
 372:	5c 81       	ldd	r21, Y+4	; 0x04
 374:	0e 94 00 00 	call	0	; 0x0 <_Z4tonehjm>
 378:	28 ee       	ldi	r18, 0xE8	; 232
 37a:	33 e0       	ldi	r19, 0x03	; 3
 37c:	40 e0       	ldi	r20, 0x00	; 0
 37e:	50 e0       	ldi	r21, 0x00	; 0
 380:	0e 94 00 00 	call	0	; 0x0 <_Z4tonehjm>
 384:	c9 01       	movw	r24, r18
 386:	da 01       	movw	r26, r20
 388:	e1 e0       	ldi	r30, 0x01	; 1
 38a:	5e 16       	cp	r5, r30
 38c:	01 f0       	breq	.+0      	; 0x38e <_Z4tonehjm+0x38e>
 38e:	f2 e0       	ldi	r31, 0x02	; 2
 390:	5f 16       	cp	r5, r31
 392:	01 f0       	breq	.+0      	; 0x394 <_Z4tonehjm+0x394>
 394:	55 20       	and	r5, r5
 396:	01 f4       	brne	.+0      	; 0x398 <_Z4tonehjm+0x398>
 398:	e7 bc       	out	0x27, r14	; 39
 39a:	80 93 00 00 	sts	0x0000, r24
 39e:	90 93 00 00 	sts	0x0000, r25
 3a2:	a0 93 00 00 	sts	0x0000, r26
 3a6:	b0 93 00 00 	sts	0x0000, r27
 3aa:	80 91 6e 00 	lds	r24, 0x006E
 3ae:	82 60       	ori	r24, 0x02	; 2
 3b0:	80 93 6e 00 	sts	0x006E, r24
 3b4:	00 c0       	rjmp	.+0      	; 0x3b6 <_Z4tonehjm+0x3b6>
 3b6:	f0 92 89 00 	sts	0x0089, r15
 3ba:	e0 92 88 00 	sts	0x0088, r14
 3be:	80 93 00 00 	sts	0x0000, r24
 3c2:	90 93 00 00 	sts	0x0000, r25
 3c6:	a0 93 00 00 	sts	0x0000, r26
 3ca:	b0 93 00 00 	sts	0x0000, r27
 3ce:	80 91 6f 00 	lds	r24, 0x006F
 3d2:	82 60       	ori	r24, 0x02	; 2
 3d4:	80 93 6f 00 	sts	0x006F, r24
 3d8:	00 c0       	rjmp	.+0      	; 0x3da <_Z4tonehjm+0x3da>
 3da:	e0 92 b3 00 	sts	0x00B3, r14
 3de:	80 93 00 00 	sts	0x0000, r24
 3e2:	90 93 00 00 	sts	0x0000, r25
 3e6:	a0 93 00 00 	sts	0x0000, r26
 3ea:	b0 93 00 00 	sts	0x0000, r27
 3ee:	80 91 70 00 	lds	r24, 0x0070
 3f2:	82 60       	ori	r24, 0x02	; 2
 3f4:	80 93 70 00 	sts	0x0070, r24
 3f8:	00 c0       	rjmp	.+0      	; 0x3fa <_Z4tonehjm+0x3fa>
 3fa:	84 e0       	ldi	r24, 0x04	; 4
 3fc:	00 c0       	rjmp	.+0      	; 0x3fe <_Z4tonehjm+0x3fe>
 3fe:	0f 90       	pop	r0
 400:	0f 90       	pop	r0
 402:	0f 90       	pop	r0
 404:	0f 90       	pop	r0
 406:	cf 91       	pop	r28
 408:	df 91       	pop	r29
 40a:	1f 91       	pop	r17
 40c:	0f 91       	pop	r16
 40e:	ff 90       	pop	r15
 410:	ef 90       	pop	r14
 412:	df 90       	pop	r13
 414:	cf 90       	pop	r12
 416:	bf 90       	pop	r11
 418:	af 90       	pop	r10
 41a:	9f 90       	pop	r9
 41c:	8f 90       	pop	r8
 41e:	7f 90       	pop	r7
 420:	6f 90       	pop	r6
 422:	5f 90       	pop	r5
 424:	3f 90       	pop	r3
 426:	2f 90       	pop	r2
 428:	08 95       	ret

WInterrupts.o:     file format elf32-avr

Sections:
Idx Name          Size      VMA       LMA       File off  Algn
  0 .text         00000000  00000000  00000000  00000034  2**0
                  CONTENTS, ALLOC, LOAD, READONLY, CODE
  1 .data         00000000  00000000  00000000  00000034  2**0
                  CONTENTS, ALLOC, LOAD, DATA
  2 .bss          00000000  00000000  00000000  00000034  2**0
                  ALLOC
  3 .text.attachInterrupt 00000046  00000000  00000000  00000034  2**0
                  CONTENTS, ALLOC, LOAD, RELOC, READONLY, CODE
  4 .text.detachInterrupt 00000026  00000000  00000000  0000007a  2**0
                  CONTENTS, ALLOC, LOAD, RELOC, READONLY, CODE
  5 .text.__vector_1 0000005a  00000000  00000000  000000a0  2**0
                  CONTENTS, ALLOC, LOAD, RELOC, READONLY, CODE
  6 .text.__vector_2 0000005a  00000000  00000000  000000fa  2**0
                  CONTENTS, ALLOC, LOAD, RELOC, READONLY, CODE
  7 .bss.intFunc  00000004  00000000  00000000  00000154  2**0
                  ALLOC

Disassembly of section .text.attachInterrupt:

00000000 <attachInterrupt>:
   0:	82 30       	cpi	r24, 0x02	; 2
   2:	00 f4       	brcc	.+0      	; 0x4 <attachInterrupt+0x4>
   4:	e8 2f       	mov	r30, r24
   6:	f0 e0       	ldi	r31, 0x00	; 0
   8:	ee 0f       	add	r30, r30
   a:	ff 1f       	adc	r31, r31
   c:	e0 50       	subi	r30, 0x00	; 0
   e:	f0 40       	sbci	r31, 0x00	; 0
  10:	71 83       	std	Z+1, r23	; 0x01
  12:	60 83       	st	Z, r22
  14:	88 23       	and	r24, r24
  16:	01 f0       	breq	.+0      	; 0x18 <attachInterrupt+0x18>
  18:	81 30       	cpi	r24, 0x01	; 1
  1a:	01 f4       	brne	.+0      	; 0x1c <attachInterrupt+0x1c>
  1c:	00 c0       	rjmp	.+0      	; 0x1e <attachInterrupt+0x1e>
  1e:	80 91 69 00 	lds	r24, 0x0069
  22:	8c 7f       	andi	r24, 0xFC	; 252
  24:	84 2b       	or	r24, r20
  26:	80 93 69 00 	sts	0x0069, r24
  2a:	e8 9a       	sbi	0x1d, 0	; 29
  2c:	08 95       	ret
  2e:	80 91 69 00 	lds	r24, 0x0069
  32:	44 0f       	add	r20, r20
  34:	55 1f       	adc	r21, r21
  36:	44 0f       	add	r20, r20
  38:	55 1f       	adc	r21, r21
  3a:	83 7f       	andi	r24, 0xF3	; 243
  3c:	84 2b       	or	r24, r20
  3e:	80 93 69 00 	sts	0x0069, r24
  42:	e9 9a       	sbi	0x1d, 1	; 29
  44:	08 95       	ret

Disassembly of section .text.detachInterrupt:

00000000 <detachInterrupt>:
   0:	82 30       	cpi	r24, 0x02	; 2
   2:	00 f4       	brcc	.+0      	; 0x4 <detachInterrupt+0x4>
   4:	88 23       	and	r24, r24
   6:	01 f0       	breq	.+0      	; 0x8 <detachInterrupt+0x8>
   8:	81 30       	cpi	r24, 0x01	; 1
   a:	01 f4       	brne	.+0      	; 0xc <detachInterrupt+0xc>
   c:	00 c0       	rjmp	.+0      	; 0xe <detachInterrupt+0xe>
   e:	e8 98       	cbi	0x1d, 0	; 29
  10:	00 c0       	rjmp	.+0      	; 0x12 <detachInterrupt+0x12>
  12:	e9 98       	cbi	0x1d, 1	; 29
  14:	e8 2f       	mov	r30, r24
  16:	f0 e0       	ldi	r31, 0x00	; 0
  18:	ee 0f       	add	r30, r30
  1a:	ff 1f       	adc	r31, r31
  1c:	e0 50       	subi	r30, 0x00	; 0
  1e:	f0 40       	sbci	r31, 0x00	; 0
  20:	11 82       	std	Z+1, r1	; 0x01
  22:	10 82       	st	Z, r1
  24:	08 95       	ret

Disassembly of section .text.__vector_1:

00000000 <__vector_1>:
   0:	1f 92       	push	r1
   2:	0f 92       	push	r0
   4:	0f b6       	in	r0, 0x3f	; 63
   6:	0f 92       	push	r0
   8:	11 24       	eor	r1, r1
   a:	2f 93       	push	r18
   c:	3f 93       	push	r19
   e:	4f 93       	push	r20
  10:	5f 93       	push	r21
  12:	6f 93       	push	r22
  14:	7f 93       	push	r23
  16:	8f 93       	push	r24
  18:	9f 93       	push	r25
  1a:	af 93       	push	r26
  1c:	bf 93       	push	r27
  1e:	ef 93       	push	r30
  20:	ff 93       	push	r31
  22:	80 91 00 00 	lds	r24, 0x0000
  26:	90 91 00 00 	lds	r25, 0x0000
  2a:	89 2b       	or	r24, r25
  2c:	01 f0       	breq	.+0      	; 0x2e <__vector_1+0x2e>
  2e:	e0 91 00 00 	lds	r30, 0x0000
  32:	f0 91 00 00 	lds	r31, 0x0000
  36:	09 95       	icall
  38:	ff 91       	pop	r31
  3a:	ef 91       	pop	r30
  3c:	bf 91       	pop	r27
  3e:	af 91       	pop	r26
  40:	9f 91       	pop	r25
  42:	8f 91       	pop	r24
  44:	7f 91       	pop	r23
  46:	6f 91       	pop	r22
  48:	5f 91       	pop	r21
  4a:	4f 91       	pop	r20
  4c:	3f 91       	pop	r19
  4e:	2f 91       	pop	r18
  50:	0f 90       	pop	r0
  52:	0f be       	out	0x3f, r0	; 63
  54:	0f 90       	pop	r0
  56:	1f 90       	pop	r1
  58:	18 95       	reti

Disassembly of section .text.__vector_2:

00000000 <__vector_2>:
   0:	1f 92       	push	r1
   2:	0f 92       	push	r0
   4:	0f b6       	in	r0, 0x3f	; 63
   6:	0f 92       	push	r0
   8:	11 24       	eor	r1, r1
   a:	2f 93       	push	r18
   c:	3f 93       	push	r19
   e:	4f 93       	push	r20
  10:	5f 93       	push	r21
  12:	6f 93       	push	r22
  14:	7f 93       	push	r23
  16:	8f 93       	push	r24
  18:	9f 93       	push	r25
  1a:	af 93       	push	r26
  1c:	bf 93       	push	r27
  1e:	ef 93       	push	r30
  20:	ff 93       	push	r31
  22:	80 91 00 00 	lds	r24, 0x0000
  26:	90 91 00 00 	lds	r25, 0x0000
  2a:	89 2b       	or	r24, r25
  2c:	01 f0       	breq	.+0      	; 0x2e <__vector_2+0x2e>
  2e:	e0 91 00 00 	lds	r30, 0x0000
  32:	f0 91 00 00 	lds	r31, 0x0000
  36:	09 95       	icall
  38:	ff 91       	pop	r31
  3a:	ef 91       	pop	r30
  3c:	bf 91       	pop	r27
  3e:	af 91       	pop	r26
  40:	9f 91       	pop	r25
  42:	8f 91       	pop	r24
  44:	7f 91       	pop	r23
  46:	6f 91       	pop	r22
  48:	5f 91       	pop	r21
  4a:	4f 91       	pop	r20
  4c:	3f 91       	pop	r19
  4e:	2f 91       	pop	r18
  50:	0f 90       	pop	r0
  52:	0f be       	out	0x3f, r0	; 63
  54:	0f 90       	pop	r0
  56:	1f 90       	pop	r1
  58:	18 95       	reti

WMath.o:     file format elf32-avr

Sections:
Idx Name          Size      VMA       LMA       File off  Algn
  0 .text         00000000  00000000  00000000  00000034  2**0
                  CONTENTS, ALLOC, LOAD, READONLY, CODE
  1 .data         00000000  00000000  00000000  00000034  2**0
                  CONTENTS, ALLOC, LOAD, DATA
  2 .bss          00000000  00000000  00000000  00000034  2**0
                  ALLOC
  3 .text._Z3maplllll 00000092  00000000  00000000  00000034  2**0
                  CONTENTS, ALLOC, LOAD, RELOC, READONLY, CODE
  4 .text._Z8makeWordj 00000002  00000000  00000000  000000c6  2**0
                  CONTENTS, ALLOC, LOAD, READONLY, CODE
  5 .text._Z8makeWordhh 0000000e  00000000  00000000  000000c8  2**0
                  CONTENTS, ALLOC, LOAD, READONLY, CODE
  6 .text._Z6randoml 00000044  00000000  00000000  000000d6  2**0
                  CONTENTS, ALLOC, LOAD, RELOC, READONLY, CODE
  7 .text._Z6randomll 0000003c  00000000  00000000  0000011a  2**0
                  CONTENTS, ALLOC, LOAD, RELOC, READONLY, CODE
  8 .text._Z10randomSeedj 00000010  00000000  00000000  00000156  2**0
                  CONTENTS, ALLOC, LOAD, RELOC, READONLY, CODE

Disassembly of section .text._Z3maplllll:

00000000 <_Z3maplllll>:
   0:	2f 92       	push	r2
   2:	3f 92       	push	r3
   4:	4f 92       	push	r4
   6:	5f 92       	push	r5
   8:	6f 92       	push	r6
   a:	7f 92       	push	r7
   c:	8f 92       	push	r8
   e:	9f 92       	push	r9
  10:	af 92       	push	r10
  12:	bf 92       	push	r11
  14:	cf 92       	push	r12
  16:	df 92       	push	r13
  18:	ef 92       	push	r14
  1a:	ff 92       	push	r15
  1c:	0f 93       	push	r16
  1e:	1f 93       	push	r17
  20:	df 93       	push	r29
  22:	cf 93       	push	r28
  24:	cd b7       	in	r28, 0x3d	; 61
  26:	de b7       	in	r29, 0x3e	; 62
  28:	3b 01       	movw	r6, r22
  2a:	4c 01       	movw	r8, r24
  2c:	19 01       	movw	r2, r18
  2e:	2a 01       	movw	r4, r20
  30:	6d 89       	ldd	r22, Y+21	; 0x15
  32:	7e 89       	ldd	r23, Y+22	; 0x16
  34:	8f 89       	ldd	r24, Y+23	; 0x17
  36:	98 8d       	ldd	r25, Y+24	; 0x18
  38:	6a 19       	sub	r22, r10
  3a:	7b 09       	sbc	r23, r11
  3c:	8c 09       	sbc	r24, r12
  3e:	9d 09       	sbc	r25, r13
  40:	62 1a       	sub	r6, r18
  42:	73 0a       	sbc	r7, r19
  44:	84 0a       	sbc	r8, r20
  46:	95 0a       	sbc	r9, r21
  48:	a4 01       	movw	r20, r8
  4a:	93 01       	movw	r18, r6
  4c:	0e 94 00 00 	call	0	; 0x0 <_Z3maplllll>
  50:	e2 18       	sub	r14, r2
  52:	f3 08       	sbc	r15, r3
  54:	04 09       	sbc	r16, r4
  56:	15 09       	sbc	r17, r5
  58:	a8 01       	movw	r20, r16
  5a:	97 01       	movw	r18, r14
  5c:	0e 94 00 00 	call	0	; 0x0 <_Z3maplllll>
  60:	2a 0d       	add	r18, r10
  62:	3b 1d       	adc	r19, r11
  64:	4c 1d       	adc	r20, r12
  66:	5d 1d       	adc	r21, r13
  68:	b9 01       	movw	r22, r18
  6a:	ca 01       	movw	r24, r20
  6c:	cf 91       	pop	r28
  6e:	df 91       	pop	r29
  70:	1f 91       	pop	r17
  72:	0f 91       	pop	r16
  74:	ff 90       	pop	r15
  76:	ef 90       	pop	r14
  78:	df 90       	pop	r13
  7a:	cf 90       	pop	r12
  7c:	bf 90       	pop	r11
  7e:	af 90       	pop	r10
  80:	9f 90       	pop	r9
  82:	8f 90       	pop	r8
  84:	7f 90       	pop	r7
  86:	6f 90       	pop	r6
  88:	5f 90       	pop	r5
  8a:	4f 90       	pop	r4
  8c:	3f 90       	pop	r3
  8e:	2f 90       	pop	r2
  90:	08 95       	ret

Disassembly of section .text._Z8makeWordj:

00000000 <_Z8makeWordj>:
   0:	08 95       	ret

Disassembly of section .text._Z8makeWordhh:

00000000 <_Z8makeWordhh>:
   0:	70 e0       	ldi	r23, 0x00	; 0
   2:	38 2f       	mov	r19, r24
   4:	20 e0       	ldi	r18, 0x00	; 0
   6:	62 2b       	or	r22, r18
   8:	73 2b       	or	r23, r19
   a:	cb 01       	movw	r24, r22
   c:	08 95       	ret

Disassembly of section .text._Z6randoml:

00000000 <_Z6randoml>:
   0:	ef 92       	push	r14
   2:	ff 92       	push	r15
   4:	0f 93       	push	r16
   6:	1f 93       	push	r17
   8:	7b 01       	movw	r14, r22
   a:	8c 01       	movw	r16, r24
   c:	61 15       	cp	r22, r1
   e:	71 05       	cpc	r23, r1
  10:	81 05       	cpc	r24, r1
  12:	91 05       	cpc	r25, r1
  14:	01 f4       	brne	.+0      	; 0x16 <_Z6randoml+0x16>
  16:	20 e0       	ldi	r18, 0x00	; 0
  18:	30 e0       	ldi	r19, 0x00	; 0
  1a:	40 e0       	ldi	r20, 0x00	; 0
  1c:	50 e0       	ldi	r21, 0x00	; 0
  1e:	00 c0       	rjmp	.+0      	; 0x20 <_Z6randoml+0x20>
  20:	0e 94 00 00 	call	0	; 0x0 <_Z6randoml>
  24:	a8 01       	movw	r20, r16
  26:	97 01       	movw	r18, r14
  28:	0e 94 00 00 	call	0	; 0x0 <_Z6randoml>
  2c:	ac 01       	movw	r20, r24
  2e:	cb 01       	movw	r24, r22
  30:	da 01       	movw	r26, r20
  32:	9c 01       	movw	r18, r24
  34:	ad 01       	movw	r20, r26
  36:	b9 01       	movw	r22, r18
  38:	ca 01       	movw	r24, r20
  3a:	1f 91       	pop	r17
  3c:	0f 91       	pop	r16
  3e:	ff 90       	pop	r15
  40:	ef 90       	pop	r14
  42:	08 95       	ret

Disassembly of section .text._Z6randomll:

00000000 <_Z6randomll>:
   0:	ef 92       	push	r14
   2:	ff 92       	push	r15
   4:	0f 93       	push	r16
   6:	1f 93       	push	r17
   8:	7b 01       	movw	r14, r22
   a:	8c 01       	movw	r16, r24
   c:	62 17       	cp	r22, r18
   e:	73 07       	cpc	r23, r19
  10:	84 07       	cpc	r24, r20
  12:	95 07       	cpc	r25, r21
  14:	04 f4       	brge	.+0      	; 0x16 <_Z6randomll+0x16>
  16:	26 1b       	sub	r18, r22
  18:	37 0b       	sbc	r19, r23
  1a:	48 0b       	sbc	r20, r24
  1c:	59 0b       	sbc	r21, r25
  1e:	ca 01       	movw	r24, r20
  20:	b9 01       	movw	r22, r18
  22:	0e 94 00 00 	call	0	; 0x0 <_Z6randomll>
  26:	e6 0e       	add	r14, r22
  28:	f7 1e       	adc	r15, r23
  2a:	08 1f       	adc	r16, r24
  2c:	19 1f       	adc	r17, r25
  2e:	b7 01       	movw	r22, r14
  30:	c8 01       	movw	r24, r16
  32:	1f 91       	pop	r17
  34:	0f 91       	pop	r16
  36:	ff 90       	pop	r15
  38:	ef 90       	pop	r14
  3a:	08 95       	ret

Disassembly of section .text._Z10randomSeedj:

00000000 <_Z10randomSeedj>:
   0:	00 97       	sbiw	r24, 0x00	; 0
   2:	01 f0       	breq	.+0      	; 0x4 <_Z10randomSeedj+0x4>
   4:	bc 01       	movw	r22, r24
   6:	80 e0       	ldi	r24, 0x00	; 0
   8:	90 e0       	ldi	r25, 0x00	; 0
   a:	0e 94 00 00 	call	0	; 0x0 <_Z10randomSeedj>
   e:	08 95       	ret

WString.o:     file format elf32-avr

Sections:
Idx Name          Size      VMA       LMA       File off  Algn
  0 .text         00000000  00000000  00000000  00000034  2**0
                  CONTENTS, ALLOC, LOAD, READONLY, CODE
  1 .data         00000001  00000000  00000000  00000034  2**0
                  CONTENTS, ALLOC, LOAD, DATA
  2 .bss          00000000  00000000  00000000  00000035  2**0
                  ALLOC
  3 .text._ZNK6String6charAtEj 00000010  00000000  00000000  00000035  2**0
                  CONTENTS, ALLOC, LOAD, READONLY, CODE
  4 .text._ZN6String9setCharAtEjc 00000022  00000000  00000000  00000045  2**0
                  CONTENTS, ALLOC, LOAD, RELOC, READONLY, CODE
  5 .text._ZN6StringixEj 0000002a  00000000  00000000  00000067  2**0
                  CONTENTS, ALLOC, LOAD, RELOC, READONLY, CODE
  6 .text._ZNK6StringixEj 00000010  00000000  00000000  00000091  2**0
                  CONTENTS, ALLOC, LOAD, READONLY, CODE
  7 .text._ZN6String11toCharArrayEPcj 00000044  00000000  00000000  000000a1  2**0
                  CONTENTS, ALLOC, LOAD, RELOC, READONLY, CODE
  8 .text._ZN6String8getBytesEPhj 00000044  00000000  00000000  000000e5  2**0
                  CONTENTS, ALLOC, LOAD, RELOC, READONLY, CODE
  9 .text._ZN6StringD1Ev 00000020  00000000  00000000  00000129  2**0
                  CONTENTS, ALLOC, LOAD, RELOC, READONLY, CODE
 10 .text._ZNK6String10startsWithERKS_j 0000003c  00000000  00000000  00000149  2**0
                  CONTENTS, ALLOC, LOAD, RELOC, READONLY, CODE
 11 .text._ZNK6String10startsWithERKS_ 00000026  00000000  00000000  00000185  2**0
                  CONTENTS, ALLOC, LOAD, RELOC, READONLY, CODE
 12 .text._ZNK6String11lastIndexOfEcj 0000006a  00000000  00000000  000001ab  2**0
                  CONTENTS, ALLOC, LOAD, RELOC, READONLY, CODE
 13 .text._ZNK6String11lastIndexOfEc 00000010  00000000  00000000  00000215  2**0
                  CONTENTS, ALLOC, LOAD, RELOC, READONLY, CODE
 14 .text._ZNK6String7indexOfERKS_j 0000003c  00000000  00000000  00000225  2**0
                  CONTENTS, ALLOC, LOAD, RELOC, READONLY, CODE
 15 .text._ZNK6String7indexOfERKS_ 0000000a  00000000  00000000  00000261  2**0
                  CONTENTS, ALLOC, LOAD, RELOC, READONLY, CODE
 16 .text._ZNK6String7indexOfEcj 00000038  00000000  00000000  0000026b  2**0
                  CONTENTS, ALLOC, LOAD, RELOC, READONLY, CODE
 17 .text._ZNK6String7indexOfEc 0000000a  00000000  00000000  000002a3  2**0
                  CONTENTS, ALLOC, LOAD, RELOC, READONLY, CODE
 18 .text._ZNK6String6equalsERKS_ 00000032  00000000  00000000  000002ad  2**0
                  CONTENTS, ALLOC, LOAD, RELOC, READONLY, CODE
 19 .text._ZNK6String8endsWithERKS_ 0000003a  00000000  00000000  000002df  2**0
                  CONTENTS, ALLOC, LOAD, RELOC, READONLY, CODE
 20 .text._ZNK6StringgeERKS_ 00000028  00000000  00000000  00000319  2**0
                  CONTENTS, ALLOC, LOAD, RELOC, READONLY, CODE
 21 .text._ZNK6StringleERKS_ 00000022  00000000  00000000  00000341  2**0
                  CONTENTS, ALLOC, LOAD, RELOC, READONLY, CODE
 22 .text._ZNK6StringgtERKS_ 00000022  00000000  00000000  00000363  2**0
                  CONTENTS, ALLOC, LOAD, RELOC, READONLY, CODE
 23 .text._ZNK6StringltERKS_ 00000024  00000000  00000000  00000385  2**0
                  CONTENTS, ALLOC, LOAD, RELOC, READONLY, CODE
 24 .text._ZNK6StringneERKS_ 00000030  00000000  00000000  000003a9  2**0
                  CONTENTS, ALLOC, LOAD, RELOC, READONLY, CODE
 25 .text._ZNK6StringeqERKS_ 00000034  00000000  00000000  000003d9  2**0
                  CONTENTS, ALLOC, LOAD, RELOC, READONLY, CODE
 26 .text._ZNK6String9compareToERKS_ 00000012  00000000  00000000  0000040d  2**0
                  CONTENTS, ALLOC, LOAD, RELOC, READONLY, CODE
 27 .text._ZN6String9getBufferEj 00000028  00000000  00000000  0000041f  2**0
                  CONTENTS, ALLOC, LOAD, RELOC, READONLY, CODE
 28 .text._ZN6StringpLERKS_ 0000006c  00000000  00000000  00000447  2**0
                  CONTENTS, ALLOC, LOAD, RELOC, READONLY, CODE
 29 .text._ZN6String6concatERKS_ 00000006  00000000  00000000  000004b3  2**0
                  CONTENTS, ALLOC, LOAD, RELOC, READONLY, CODE
 30 .text._ZN6StringaSERKS_ 00000060  00000000  00000000  000004b9  2**0
                  CONTENTS, ALLOC, LOAD, RELOC, READONLY, CODE
 31 .text._ZN6StringC1Eh 00000034  00000000  00000000  00000519  2**0
                  CONTENTS, ALLOC, LOAD, RELOC, READONLY, CODE
 32 .text._ZN6StringC2Eh 00000034  00000000  00000000  0000054d  2**0
                  CONTENTS, ALLOC, LOAD, RELOC, READONLY, CODE
 33 .text._ZN6StringC1Ec 00000034  00000000  00000000  00000581  2**0
                  CONTENTS, ALLOC, LOAD, RELOC, READONLY, CODE
 34 .text._ZN6StringC2Ec 00000034  00000000  00000000  000005b5  2**0
                  CONTENTS, ALLOC, LOAD, RELOC, READONLY, CODE
 35 .text._ZN6StringC1ERKS_ 00000036  00000000  00000000  000005e9  2**0
                  CONTENTS, ALLOC, LOAD, RELOC, READONLY, CODE
 36 .text._ZN6StringC2ERKS_ 00000036  00000000  00000000  0000061f  2**0
                  CONTENTS, ALLOC, LOAD, RELOC, READONLY, CODE
 37 .text._ZN6StringC1Emi 0000007e  00000000  00000000  00000655  2**0
                  CONTENTS, ALLOC, LOAD, RELOC, READONLY, CODE
 38 .text._ZN6StringC2Emi 0000007e  00000000  00000000  000006d3  2**0
                  CONTENTS, ALLOC, LOAD, RELOC, READONLY, CODE
 39 .text._ZN6StringC1Eji 0000007c  00000000  00000000  00000751  2**0
                  CONTENTS, ALLOC, LOAD, RELOC, READONLY, CODE
 40 .text._ZN6StringC2Eji 0000007c  00000000  00000000  000007cd  2**0
                  CONTENTS, ALLOC, LOAD, RELOC, READONLY, CODE
 41 .text._ZN6StringC1EPKc 00000050  00000000  00000000  00000849  2**0
                  CONTENTS, ALLOC, LOAD, RELOC, READONLY, CODE
 42 .text._ZNK6String11toUpperCaseEv 00000072  00000000  00000000  00000899  2**0
                  CONTENTS, ALLOC, LOAD, RELOC, READONLY, CODE
 43 .text._ZNK6String11toLowerCaseEv 00000072  00000000  00000000  0000090b  2**0
                  CONTENTS, ALLOC, LOAD, RELOC, READONLY, CODE
 44 .text._ZNK6String16equalsIgnoreCaseERKS_ 00000098  00000000  00000000  0000097d  2**0
                  CONTENTS, ALLOC, LOAD, RELOC, READONLY, CODE
 45 .text._ZNK6String9substringEjj 0000006e  00000000  00000000  00000a15  2**0
                  CONTENTS, ALLOC, LOAD, RELOC, READONLY, CODE
 46 .text._ZNK6String9substringEj 00000018  00000000  00000000  00000a83  2**0
                  CONTENTS, ALLOC, LOAD, RELOC, READONLY, CODE
 47 .text._ZNK6String11lastIndexOfERKS_j 000000ca  00000000  00000000  00000a9b  2**0
                  CONTENTS, ALLOC, LOAD, RELOC, READONLY, CODE
 48 .text._ZNK6String11lastIndexOfERKS_ 0000001c  00000000  00000000  00000b65  2**0
                  CONTENTS, ALLOC, LOAD, RELOC, READONLY, CODE
 49 .text._ZNK6String4trimEv 000000d6  00000000  00000000  00000b81  2**0
                  CONTENTS, ALLOC, LOAD, RELOC, READONLY, CODE
 50 .text._ZN6String7replaceERKS_S1_ 00000136  00000000  00000000  00000c57  2**0
                  CONTENTS, ALLOC, LOAD, RELOC, READONLY, CODE
 51 .text._ZN6String7replaceEcc 0000007e  00000000  00000000  00000d8d  2**0
                  CONTENTS, ALLOC, LOAD, RELOC, READONLY, CODE
 52 .text._ZN6StringC2EPKc 00000050  00000000  00000000  00000e0b  2**0
                  CONTENTS, ALLOC, LOAD, RELOC, READONLY, CODE
 53 .text._ZN6StringC1Eli 0000007a  00000000  00000000  00000e5b  2**0
                  CONTENTS, ALLOC, LOAD, RELOC, READONLY, CODE
 54 .text._ZN6StringC2Eli 0000007a  00000000  00000000  00000ed5  2**0
                  CONTENTS, ALLOC, LOAD, RELOC, READONLY, CODE
 55 .text._ZN6StringC1Eii 00000078  00000000  00000000  00000f4f  2**0
                  CONTENTS, ALLOC, LOAD, RELOC, READONLY, CODE
 56 .text._ZN6StringC2Eii 00000078  00000000  00000000  00000fc7  2**0
                  CONTENTS, ALLOC, LOAD, RELOC, READONLY, CODE
 57 .bss._ZZN6StringixEjE19dummy_writable_char 00000001  00000000  00000000  0000103f  2**0
                  ALLOC

Disassembly of section .text._ZNK6String6charAtEj:

00000000 <_ZNK6String6charAtEj>:
   0:	fc 01       	movw	r30, r24
   2:	01 90       	ld	r0, Z+
   4:	f0 81       	ld	r31, Z
   6:	e0 2d       	mov	r30, r0
   8:	e6 0f       	add	r30, r22
   a:	f7 1f       	adc	r31, r23
   c:	80 81       	ld	r24, Z
   e:	08 95       	ret

Disassembly of section .text._ZN6String9setCharAtEjc:

00000000 <_ZN6String9setCharAtEjc>:
   0:	dc 01       	movw	r26, r24
   2:	ed 91       	ld	r30, X+
   4:	fc 91       	ld	r31, X
   6:	11 97       	sbiw	r26, 0x01	; 1
   8:	30 97       	sbiw	r30, 0x00	; 0
   a:	01 f0       	breq	.+0      	; 0xc <_ZN6String9setCharAtEjc+0xc>
   c:	14 96       	adiw	r26, 0x04	; 4
   e:	8d 91       	ld	r24, X+
  10:	9c 91       	ld	r25, X
  12:	15 97       	sbiw	r26, 0x05	; 5
  14:	68 17       	cp	r22, r24
  16:	79 07       	cpc	r23, r25
  18:	00 f4       	brcc	.+0      	; 0x1a <_ZN6String9setCharAtEjc+0x1a>
  1a:	e6 0f       	add	r30, r22
  1c:	f7 1f       	adc	r31, r23
  1e:	40 83       	st	Z, r20
  20:	08 95       	ret

Disassembly of section .text._ZN6StringixEj:

00000000 <_ZN6StringixEj>:
   0:	fc 01       	movw	r30, r24
   2:	9b 01       	movw	r18, r22
   4:	84 81       	ldd	r24, Z+4	; 0x04
   6:	95 81       	ldd	r25, Z+5	; 0x05
   8:	68 17       	cp	r22, r24
   a:	79 07       	cpc	r23, r25
   c:	00 f4       	brcc	.+0      	; 0xe <_ZN6StringixEj+0xe>
   e:	60 81       	ld	r22, Z
  10:	71 81       	ldd	r23, Z+1	; 0x01
  12:	61 15       	cp	r22, r1
  14:	71 05       	cpc	r23, r1
  16:	01 f4       	brne	.+0      	; 0x18 <_ZN6StringixEj+0x18>
  18:	10 92 00 00 	sts	0x0000, r1
  1c:	60 e0       	ldi	r22, 0x00	; 0
  1e:	70 e0       	ldi	r23, 0x00	; 0
  20:	00 c0       	rjmp	.+0      	; 0x22 <_ZN6StringixEj+0x22>
  22:	62 0f       	add	r22, r18
  24:	73 1f       	adc	r23, r19
  26:	cb 01       	movw	r24, r22
  28:	08 95       	ret

Disassembly of section .text._ZNK6StringixEj:

00000000 <_ZNK6StringixEj>:
   0:	fc 01       	movw	r30, r24
   2:	01 90       	ld	r0, Z+
   4:	f0 81       	ld	r31, Z
   6:	e0 2d       	mov	r30, r0
   8:	e6 0f       	add	r30, r22
   a:	f7 1f       	adc	r31, r23
   c:	80 81       	ld	r24, Z
   e:	08 95       	ret

Disassembly of section .text._ZN6String11toCharArrayEPcj:

00000000 <_ZN6String11toCharArrayEPcj>:
   0:	0f 93       	push	r16
   2:	1f 93       	push	r17
   4:	cf 93       	push	r28
   6:	df 93       	push	r29
   8:	fc 01       	movw	r30, r24
   a:	8b 01       	movw	r16, r22
   c:	41 15       	cp	r20, r1
   e:	51 05       	cpc	r21, r1
  10:	01 f0       	breq	.+0      	; 0x12 <_ZN6String11toCharArrayEPcj+0x12>
  12:	61 15       	cp	r22, r1
  14:	71 05       	cpc	r23, r1
  16:	01 f0       	breq	.+0      	; 0x18 <_ZN6String11toCharArrayEPcj+0x18>
  18:	84 81       	ldd	r24, Z+4	; 0x04
  1a:	95 81       	ldd	r25, Z+5	; 0x05
  1c:	ea 01       	movw	r28, r20
  1e:	21 97       	sbiw	r28, 0x01	; 1
  20:	8c 17       	cp	r24, r28
  22:	9d 07       	cpc	r25, r29
  24:	00 f4       	brcc	.+0      	; 0x26 <_ZN6String11toCharArrayEPcj+0x26>
  26:	ec 01       	movw	r28, r24
  28:	60 81       	ld	r22, Z
  2a:	71 81       	ldd	r23, Z+1	; 0x01
  2c:	c8 01       	movw	r24, r16
  2e:	ae 01       	movw	r20, r28
  30:	0e 94 00 00 	call	0	; 0x0 <_ZN6String11toCharArrayEPcj>
  34:	c0 0f       	add	r28, r16
  36:	d1 1f       	adc	r29, r17
  38:	18 82       	st	Y, r1
  3a:	df 91       	pop	r29
  3c:	cf 91       	pop	r28
  3e:	1f 91       	pop	r17
  40:	0f 91       	pop	r16
  42:	08 95       	ret

Disassembly of section .text._ZN6String8getBytesEPhj:

00000000 <_ZN6String8getBytesEPhj>:
   0:	0f 93       	push	r16
   2:	1f 93       	push	r17
   4:	cf 93       	push	r28
   6:	df 93       	push	r29
   8:	fc 01       	movw	r30, r24
   a:	8b 01       	movw	r16, r22
   c:	41 15       	cp	r20, r1
   e:	51 05       	cpc	r21, r1
  10:	01 f0       	breq	.+0      	; 0x12 <_ZN6String8getBytesEPhj+0x12>
  12:	61 15       	cp	r22, r1
  14:	71 05       	cpc	r23, r1
  16:	01 f0       	breq	.+0      	; 0x18 <_ZN6String8getBytesEPhj+0x18>
  18:	84 81       	ldd	r24, Z+4	; 0x04
  1a:	95 81       	ldd	r25, Z+5	; 0x05
  1c:	ea 01       	movw	r28, r20
  1e:	21 97       	sbiw	r28, 0x01	; 1
  20:	8c 17       	cp	r24, r28
  22:	9d 07       	cpc	r25, r29
  24:	00 f4       	brcc	.+0      	; 0x26 <_ZN6String8getBytesEPhj+0x26>
  26:	ec 01       	movw	r28, r24
  28:	60 81       	ld	r22, Z
  2a:	71 81       	ldd	r23, Z+1	; 0x01
  2c:	c8 01       	movw	r24, r16
  2e:	ae 01       	movw	r20, r28
  30:	0e 94 00 00 	call	0	; 0x0 <_ZN6String8getBytesEPhj>
  34:	c0 0f       	add	r28, r16
  36:	d1 1f       	adc	r29, r17
  38:	18 82       	st	Y, r1
  3a:	df 91       	pop	r29
  3c:	cf 91       	pop	r28
  3e:	1f 91       	pop	r17
  40:	0f 91       	pop	r16
  42:	08 95       	ret

Disassembly of section .text._ZN6StringD1Ev:

00000000 <_ZN6StringD1Ev>:
   0:	0f 93       	push	r16
   2:	1f 93       	push	r17
   4:	8c 01       	movw	r16, r24
   6:	fc 01       	movw	r30, r24
   8:	80 81       	ld	r24, Z
   a:	91 81       	ldd	r25, Z+1	; 0x01
   c:	0e 94 00 00 	call	0	; 0x0 <_ZN6StringD1Ev>
  10:	f8 01       	movw	r30, r16
  12:	13 82       	std	Z+3, r1	; 0x03
  14:	12 82       	std	Z+2, r1	; 0x02
  16:	15 82       	std	Z+5, r1	; 0x05
  18:	14 82       	std	Z+4, r1	; 0x04
  1a:	1f 91       	pop	r17
  1c:	0f 91       	pop	r16
  1e:	08 95       	ret

Disassembly of section .text._ZNK6String10startsWithERKS_j:

00000000 <_ZNK6String10startsWithERKS_j>:
   0:	fc 01       	movw	r30, r24
   2:	db 01       	movw	r26, r22
   4:	14 96       	adiw	r26, 0x04	; 4
   6:	2d 91       	ld	r18, X+
   8:	3c 91       	ld	r19, X
   a:	15 97       	sbiw	r26, 0x05	; 5
   c:	84 81       	ldd	r24, Z+4	; 0x04
   e:	95 81       	ldd	r25, Z+5	; 0x05
  10:	82 1b       	sub	r24, r18
  12:	93 0b       	sbc	r25, r19
  14:	84 17       	cp	r24, r20
  16:	95 07       	cpc	r25, r21
  18:	00 f4       	brcc	.+0      	; 0x1a <_ZNK6String10startsWithERKS_j+0x1a>
  1a:	80 e0       	ldi	r24, 0x00	; 0
  1c:	08 95       	ret
  1e:	80 81       	ld	r24, Z
  20:	91 81       	ldd	r25, Z+1	; 0x01
  22:	6d 91       	ld	r22, X+
  24:	7c 91       	ld	r23, X
  26:	84 0f       	add	r24, r20
  28:	95 1f       	adc	r25, r21
  2a:	a9 01       	movw	r20, r18
  2c:	0e 94 00 00 	call	0	; 0x0 <_ZNK6String10startsWithERKS_j>
  30:	9c 01       	movw	r18, r24
  32:	80 e0       	ldi	r24, 0x00	; 0
  34:	23 2b       	or	r18, r19
  36:	01 f4       	brne	.+0      	; 0x38 <_ZNK6String10startsWithERKS_j+0x38>
  38:	81 e0       	ldi	r24, 0x01	; 1
  3a:	08 95       	ret

Disassembly of section .text._ZNK6String10startsWithERKS_:

00000000 <_ZNK6String10startsWithERKS_>:
   0:	fc 01       	movw	r30, r24
   2:	db 01       	movw	r26, r22
   4:	24 81       	ldd	r18, Z+4	; 0x04
   6:	35 81       	ldd	r19, Z+5	; 0x05
   8:	14 96       	adiw	r26, 0x04	; 4
   a:	8d 91       	ld	r24, X+
   c:	9c 91       	ld	r25, X
   e:	15 97       	sbiw	r26, 0x05	; 5
  10:	28 17       	cp	r18, r24
  12:	39 07       	cpc	r19, r25
  14:	00 f4       	brcc	.+0      	; 0x16 <_ZNK6String10startsWithERKS_+0x16>
  16:	80 e0       	ldi	r24, 0x00	; 0
  18:	08 95       	ret
  1a:	cf 01       	movw	r24, r30
  1c:	40 e0       	ldi	r20, 0x00	; 0
  1e:	50 e0       	ldi	r21, 0x00	; 0
  20:	0e 94 00 00 	call	0	; 0x0 <_ZNK6String10startsWithERKS_>
  24:	08 95       	ret

Disassembly of section .text._ZNK6String11lastIndexOfEcj:

00000000 <_ZNK6String11lastIndexOfEcj>:
   0:	df 92       	push	r13
   2:	ef 92       	push	r14
   4:	ff 92       	push	r15
   6:	0f 93       	push	r16
   8:	1f 93       	push	r17
   a:	cf 93       	push	r28
   c:	df 93       	push	r29
   e:	ec 01       	movw	r28, r24
  10:	8c 81       	ldd	r24, Y+4	; 0x04
  12:	9d 81       	ldd	r25, Y+5	; 0x05
  14:	48 17       	cp	r20, r24
  16:	59 07       	cpc	r21, r25
  18:	00 f4       	brcc	.+0      	; 0x1a <_ZNK6String11lastIndexOfEcj+0x1a>
  1a:	7a 01       	movw	r14, r20
  1c:	08 94       	sec
  1e:	e1 1c       	adc	r14, r1
  20:	f1 1c       	adc	r15, r1
  22:	e8 81       	ld	r30, Y
  24:	f9 81       	ldd	r31, Y+1	; 0x01
  26:	ee 0d       	add	r30, r14
  28:	ff 1d       	adc	r31, r15
  2a:	d0 80       	ld	r13, Z
  2c:	10 82       	st	Z, r1
  2e:	08 81       	ld	r16, Y
  30:	19 81       	ldd	r17, Y+1	; 0x01
  32:	c8 01       	movw	r24, r16
  34:	70 e0       	ldi	r23, 0x00	; 0
  36:	0e 94 00 00 	call	0	; 0x0 <_ZNK6String11lastIndexOfEcj>
  3a:	9c 01       	movw	r18, r24
  3c:	0e 0d       	add	r16, r14
  3e:	1f 1d       	adc	r17, r15
  40:	f8 01       	movw	r30, r16
  42:	d0 82       	st	Z, r13
  44:	00 97       	sbiw	r24, 0x00	; 0
  46:	01 f4       	brne	.+0      	; 0x48 <_ZNK6String11lastIndexOfEcj+0x48>
  48:	ef ef       	ldi	r30, 0xFF	; 255
  4a:	ff ef       	ldi	r31, 0xFF	; 255
  4c:	00 c0       	rjmp	.+0      	; 0x4e <_ZNK6String11lastIndexOfEcj+0x4e>
  4e:	88 81       	ld	r24, Y
  50:	99 81       	ldd	r25, Y+1	; 0x01
  52:	f9 01       	movw	r30, r18
  54:	e8 1b       	sub	r30, r24
  56:	f9 0b       	sbc	r31, r25
  58:	cf 01       	movw	r24, r30
  5a:	df 91       	pop	r29
  5c:	cf 91       	pop	r28
  5e:	1f 91       	pop	r17
  60:	0f 91       	pop	r16
  62:	ff 90       	pop	r15
  64:	ef 90       	pop	r14
  66:	df 90       	pop	r13
  68:	08 95       	ret

Disassembly of section .text._ZNK6String11lastIndexOfEc:

00000000 <_ZNK6String11lastIndexOfEc>:
   0:	fc 01       	movw	r30, r24
   2:	44 81       	ldd	r20, Z+4	; 0x04
   4:	55 81       	ldd	r21, Z+5	; 0x05
   6:	41 50       	subi	r20, 0x01	; 1
   8:	50 40       	sbci	r21, 0x00	; 0
   a:	0e 94 00 00 	call	0	; 0x0 <_ZNK6String11lastIndexOfEc>
   e:	08 95       	ret

Disassembly of section .text._ZNK6String7indexOfERKS_j:

00000000 <_ZNK6String7indexOfERKS_j>:
   0:	cf 93       	push	r28
   2:	df 93       	push	r29
   4:	fc 01       	movw	r30, r24
   6:	db 01       	movw	r26, r22
   8:	84 81       	ldd	r24, Z+4	; 0x04
   a:	95 81       	ldd	r25, Z+5	; 0x05
   c:	48 17       	cp	r20, r24
   e:	59 07       	cpc	r21, r25
  10:	00 f4       	brcc	.+0      	; 0x12 <_ZNK6String7indexOfERKS_j+0x12>
  12:	c0 81       	ld	r28, Z
  14:	d1 81       	ldd	r29, Z+1	; 0x01
  16:	6d 91       	ld	r22, X+
  18:	7c 91       	ld	r23, X
  1a:	ce 01       	movw	r24, r28
  1c:	84 0f       	add	r24, r20
  1e:	95 1f       	adc	r25, r21
  20:	0e 94 00 00 	call	0	; 0x0 <_ZNK6String7indexOfERKS_j>
  24:	9c 01       	movw	r18, r24
  26:	00 97       	sbiw	r24, 0x00	; 0
  28:	01 f4       	brne	.+0      	; 0x2a <_ZNK6String7indexOfERKS_j+0x2a>
  2a:	2f ef       	ldi	r18, 0xFF	; 255
  2c:	3f ef       	ldi	r19, 0xFF	; 255
  2e:	00 c0       	rjmp	.+0      	; 0x30 <_ZNK6String7indexOfERKS_j+0x30>
  30:	2c 1b       	sub	r18, r28
  32:	3d 0b       	sbc	r19, r29
  34:	c9 01       	movw	r24, r18
  36:	df 91       	pop	r29
  38:	cf 91       	pop	r28
  3a:	08 95       	ret

Disassembly of section .text._ZNK6String7indexOfERKS_:

00000000 <_ZNK6String7indexOfERKS_>:
   0:	40 e0       	ldi	r20, 0x00	; 0
   2:	50 e0       	ldi	r21, 0x00	; 0
   4:	0e 94 00 00 	call	0	; 0x0 <_ZNK6String7indexOfERKS_>
   8:	08 95       	ret

Disassembly of section .text._ZNK6String7indexOfEcj:

00000000 <_ZNK6String7indexOfEcj>:
   0:	cf 93       	push	r28
   2:	df 93       	push	r29
   4:	fc 01       	movw	r30, r24
   6:	84 81       	ldd	r24, Z+4	; 0x04
   8:	95 81       	ldd	r25, Z+5	; 0x05
   a:	48 17       	cp	r20, r24
   c:	59 07       	cpc	r21, r25
   e:	00 f4       	brcc	.+0      	; 0x10 <_ZNK6String7indexOfEcj+0x10>
  10:	c0 81       	ld	r28, Z
  12:	d1 81       	ldd	r29, Z+1	; 0x01
  14:	ce 01       	movw	r24, r28
  16:	84 0f       	add	r24, r20
  18:	95 1f       	adc	r25, r21
  1a:	70 e0       	ldi	r23, 0x00	; 0
  1c:	0e 94 00 00 	call	0	; 0x0 <_ZNK6String7indexOfEcj>
  20:	9c 01       	movw	r18, r24
  22:	00 97       	sbiw	r24, 0x00	; 0
  24:	01 f4       	brne	.+0      	; 0x26 <_ZNK6String7indexOfEcj+0x26>
  26:	2f ef       	ldi	r18, 0xFF	; 255
  28:	3f ef       	ldi	r19, 0xFF	; 255
  2a:	00 c0       	rjmp	.+0      	; 0x2c <_ZNK6String7indexOfEcj+0x2c>
  2c:	2c 1b       	sub	r18, r28
  2e:	3d 0b       	sbc	r19, r29
  30:	c9 01       	movw	r24, r18
  32:	df 91       	pop	r29
  34:	cf 91       	pop	r28
  36:	08 95       	ret

Disassembly of section .text._ZNK6String7indexOfEc:

00000000 <_ZNK6String7indexOfEc>:
   0:	40 e0       	ldi	r20, 0x00	; 0
   2:	50 e0       	ldi	r21, 0x00	; 0
   4:	0e 94 00 00 	call	0	; 0x0 <_ZNK6String7indexOfEc>
   8:	08 95       	ret

Disassembly of section .text._ZNK6String6equalsERKS_:

00000000 <_ZNK6String6equalsERKS_>:
   0:	dc 01       	movw	r26, r24
   2:	fb 01       	movw	r30, r22
   4:	14 96       	adiw	r26, 0x04	; 4
   6:	2d 91       	ld	r18, X+
   8:	3c 91       	ld	r19, X
   a:	15 97       	sbiw	r26, 0x05	; 5
   c:	84 81       	ldd	r24, Z+4	; 0x04
   e:	95 81       	ldd	r25, Z+5	; 0x05
  10:	28 17       	cp	r18, r24
  12:	39 07       	cpc	r19, r25
  14:	01 f0       	breq	.+0      	; 0x16 <_ZNK6String6equalsERKS_+0x16>
  16:	80 e0       	ldi	r24, 0x00	; 0
  18:	08 95       	ret
  1a:	60 81       	ld	r22, Z
  1c:	71 81       	ldd	r23, Z+1	; 0x01
  1e:	8d 91       	ld	r24, X+
  20:	9c 91       	ld	r25, X
  22:	0e 94 00 00 	call	0	; 0x0 <_ZNK6String6equalsERKS_>
  26:	9c 01       	movw	r18, r24
  28:	80 e0       	ldi	r24, 0x00	; 0
  2a:	23 2b       	or	r18, r19
  2c:	01 f4       	brne	.+0      	; 0x2e <_ZNK6String6equalsERKS_+0x2e>
  2e:	81 e0       	ldi	r24, 0x01	; 1
  30:	08 95       	ret

Disassembly of section .text._ZNK6String8endsWithERKS_:

00000000 <_ZNK6String8endsWithERKS_>:
   0:	fc 01       	movw	r30, r24
   2:	db 01       	movw	r26, r22
   4:	24 81       	ldd	r18, Z+4	; 0x04
   6:	35 81       	ldd	r19, Z+5	; 0x05
   8:	14 96       	adiw	r26, 0x04	; 4
   a:	8d 91       	ld	r24, X+
   c:	9c 91       	ld	r25, X
   e:	15 97       	sbiw	r26, 0x05	; 5
  10:	28 17       	cp	r18, r24
  12:	39 07       	cpc	r19, r25
  14:	00 f4       	brcc	.+0      	; 0x16 <_ZNK6String8endsWithERKS_+0x16>
  16:	80 e0       	ldi	r24, 0x00	; 0
  18:	08 95       	ret
  1a:	28 1b       	sub	r18, r24
  1c:	39 0b       	sbc	r19, r25
  1e:	80 81       	ld	r24, Z
  20:	91 81       	ldd	r25, Z+1	; 0x01
  22:	6d 91       	ld	r22, X+
  24:	7c 91       	ld	r23, X
  26:	82 0f       	add	r24, r18
  28:	93 1f       	adc	r25, r19
  2a:	0e 94 00 00 	call	0	; 0x0 <_ZNK6String8endsWithERKS_>
  2e:	9c 01       	movw	r18, r24
  30:	80 e0       	ldi	r24, 0x00	; 0
  32:	23 2b       	or	r18, r19
  34:	01 f4       	brne	.+0      	; 0x36 <_ZNK6String8endsWithERKS_+0x36>
  36:	81 e0       	ldi	r24, 0x01	; 1
  38:	08 95       	ret

Disassembly of section .text._ZNK6StringgeERKS_:

00000000 <_ZNK6StringgeERKS_>:
   0:	dc 01       	movw	r26, r24
   2:	fb 01       	movw	r30, r22
   4:	60 81       	ld	r22, Z
   6:	71 81       	ldd	r23, Z+1	; 0x01
   8:	8d 91       	ld	r24, X+
   a:	9c 91       	ld	r25, X
   c:	0e 94 00 00 	call	0	; 0x0 <_ZNK6StringgeERKS_>
  10:	29 2f       	mov	r18, r25
  12:	33 27       	eor	r19, r19
  14:	27 fd       	sbrc	r18, 7
  16:	30 95       	com	r19
  18:	20 95       	com	r18
  1a:	30 95       	com	r19
  1c:	22 27       	eor	r18, r18
  1e:	33 0f       	add	r19, r19
  20:	22 1f       	adc	r18, r18
  22:	33 27       	eor	r19, r19
  24:	c9 01       	movw	r24, r18
  26:	08 95       	ret

Disassembly of section .text._ZNK6StringleERKS_:

00000000 <_ZNK6StringleERKS_>:
   0:	dc 01       	movw	r26, r24
   2:	fb 01       	movw	r30, r22
   4:	60 81       	ld	r22, Z
   6:	71 81       	ldd	r23, Z+1	; 0x01
   8:	8d 91       	ld	r24, X+
   a:	9c 91       	ld	r25, X
   c:	0e 94 00 00 	call	0	; 0x0 <_ZNK6StringleERKS_>
  10:	40 e0       	ldi	r20, 0x00	; 0
  12:	50 e0       	ldi	r21, 0x00	; 0
  14:	18 16       	cp	r1, r24
  16:	19 06       	cpc	r1, r25
  18:	04 f0       	brlt	.+0      	; 0x1a <_ZNK6StringleERKS_+0x1a>
  1a:	41 e0       	ldi	r20, 0x01	; 1
  1c:	50 e0       	ldi	r21, 0x00	; 0
  1e:	ca 01       	movw	r24, r20
  20:	08 95       	ret

Disassembly of section .text._ZNK6StringgtERKS_:

00000000 <_ZNK6StringgtERKS_>:
   0:	dc 01       	movw	r26, r24
   2:	fb 01       	movw	r30, r22
   4:	60 81       	ld	r22, Z
   6:	71 81       	ldd	r23, Z+1	; 0x01
   8:	8d 91       	ld	r24, X+
   a:	9c 91       	ld	r25, X
   c:	0e 94 00 00 	call	0	; 0x0 <_ZNK6StringgtERKS_>
  10:	40 e0       	ldi	r20, 0x00	; 0
  12:	50 e0       	ldi	r21, 0x00	; 0
  14:	18 16       	cp	r1, r24
  16:	19 06       	cpc	r1, r25
  18:	04 f4       	brge	.+0      	; 0x1a <_ZNK6StringgtERKS_+0x1a>
  1a:	41 e0       	ldi	r20, 0x01	; 1
  1c:	50 e0       	ldi	r21, 0x00	; 0
  1e:	ca 01       	movw	r24, r20
  20:	08 95       	ret

Disassembly of section .text._ZNK6StringltERKS_:

00000000 <_ZNK6StringltERKS_>:
   0:	dc 01       	movw	r26, r24
   2:	fb 01       	movw	r30, r22
   4:	60 81       	ld	r22, Z
   6:	71 81       	ldd	r23, Z+1	; 0x01
   8:	8d 91       	ld	r24, X+
   a:	9c 91       	ld	r25, X
   c:	0e 94 00 00 	call	0	; 0x0 <_ZNK6StringltERKS_>
  10:	29 2f       	mov	r18, r25
  12:	33 27       	eor	r19, r19
  14:	27 fd       	sbrc	r18, 7
  16:	30 95       	com	r19
  18:	22 27       	eor	r18, r18
  1a:	33 0f       	add	r19, r19
  1c:	22 1f       	adc	r18, r18
  1e:	33 27       	eor	r19, r19
  20:	c9 01       	movw	r24, r18
  22:	08 95       	ret

Disassembly of section .text._ZNK6StringneERKS_:

00000000 <_ZNK6StringneERKS_>:
   0:	dc 01       	movw	r26, r24
   2:	fb 01       	movw	r30, r22
   4:	14 96       	adiw	r26, 0x04	; 4
   6:	2d 91       	ld	r18, X+
   8:	3c 91       	ld	r19, X
   a:	15 97       	sbiw	r26, 0x05	; 5
   c:	84 81       	ldd	r24, Z+4	; 0x04
   e:	95 81       	ldd	r25, Z+5	; 0x05
  10:	28 17       	cp	r18, r24
  12:	39 07       	cpc	r19, r25
  14:	01 f4       	brne	.+0      	; 0x16 <_ZNK6StringneERKS_+0x16>
  16:	60 81       	ld	r22, Z
  18:	71 81       	ldd	r23, Z+1	; 0x01
  1a:	8d 91       	ld	r24, X+
  1c:	9c 91       	ld	r25, X
  1e:	0e 94 00 00 	call	0	; 0x0 <_ZNK6StringneERKS_>
  22:	9c 01       	movw	r18, r24
  24:	80 e0       	ldi	r24, 0x00	; 0
  26:	23 2b       	or	r18, r19
  28:	01 f0       	breq	.+0      	; 0x2a <_ZNK6StringneERKS_+0x2a>
  2a:	81 e0       	ldi	r24, 0x01	; 1
  2c:	90 e0       	ldi	r25, 0x00	; 0
  2e:	08 95       	ret

Disassembly of section .text._ZNK6StringeqERKS_:

00000000 <_ZNK6StringeqERKS_>:
   0:	dc 01       	movw	r26, r24
   2:	fb 01       	movw	r30, r22
   4:	14 96       	adiw	r26, 0x04	; 4
   6:	2d 91       	ld	r18, X+
   8:	3c 91       	ld	r19, X
   a:	15 97       	sbiw	r26, 0x05	; 5
   c:	84 81       	ldd	r24, Z+4	; 0x04
   e:	95 81       	ldd	r25, Z+5	; 0x05
  10:	28 17       	cp	r18, r24
  12:	39 07       	cpc	r19, r25
  14:	01 f0       	breq	.+0      	; 0x16 <_ZNK6StringeqERKS_+0x16>
  16:	80 e0       	ldi	r24, 0x00	; 0
  18:	00 c0       	rjmp	.+0      	; 0x1a <_ZNK6StringeqERKS_+0x1a>
  1a:	60 81       	ld	r22, Z
  1c:	71 81       	ldd	r23, Z+1	; 0x01
  1e:	8d 91       	ld	r24, X+
  20:	9c 91       	ld	r25, X
  22:	0e 94 00 00 	call	0	; 0x0 <_ZNK6StringeqERKS_>
  26:	9c 01       	movw	r18, r24
  28:	80 e0       	ldi	r24, 0x00	; 0
  2a:	23 2b       	or	r18, r19
  2c:	01 f4       	brne	.+0      	; 0x2e <_ZNK6StringeqERKS_+0x2e>
  2e:	81 e0       	ldi	r24, 0x01	; 1
  30:	90 e0       	ldi	r25, 0x00	; 0
  32:	08 95       	ret

Disassembly of section .text._ZNK6String9compareToERKS_:

00000000 <_ZNK6String9compareToERKS_>:
   0:	fc 01       	movw	r30, r24
   2:	db 01       	movw	r26, r22
   4:	6d 91       	ld	r22, X+
   6:	7c 91       	ld	r23, X
   8:	80 81       	ld	r24, Z
   a:	91 81       	ldd	r25, Z+1	; 0x01
   c:	0e 94 00 00 	call	0	; 0x0 <_ZNK6String9compareToERKS_>
  10:	08 95       	ret

Disassembly of section .text._ZN6String9getBufferEj:

00000000 <_ZN6String9getBufferEj>:
   0:	cf 93       	push	r28
   2:	df 93       	push	r29
   4:	ec 01       	movw	r28, r24
   6:	cb 01       	movw	r24, r22
   8:	7b 83       	std	Y+3, r23	; 0x03
   a:	6a 83       	std	Y+2, r22	; 0x02
   c:	01 96       	adiw	r24, 0x01	; 1
   e:	0e 94 00 00 	call	0	; 0x0 <_ZN6String9getBufferEj>
  12:	99 83       	std	Y+1, r25	; 0x01
  14:	88 83       	st	Y, r24
  16:	00 97       	sbiw	r24, 0x00	; 0
  18:	01 f4       	brne	.+0      	; 0x1a <_ZN6String9getBufferEj+0x1a>
  1a:	1b 82       	std	Y+3, r1	; 0x03
  1c:	1a 82       	std	Y+2, r1	; 0x02
  1e:	1d 82       	std	Y+5, r1	; 0x05
  20:	1c 82       	std	Y+4, r1	; 0x04
  22:	df 91       	pop	r29
  24:	cf 91       	pop	r28
  26:	08 95       	ret

Disassembly of section .text._ZN6StringpLERKS_:

00000000 <_ZN6StringpLERKS_>:
   0:	ef 92       	push	r14
   2:	ff 92       	push	r15
   4:	0f 93       	push	r16
   6:	1f 93       	push	r17
   8:	cf 93       	push	r28
   a:	df 93       	push	r29
   c:	ec 01       	movw	r28, r24
   e:	7b 01       	movw	r14, r22
  10:	fb 01       	movw	r30, r22
  12:	64 81       	ldd	r22, Z+4	; 0x04
  14:	75 81       	ldd	r23, Z+5	; 0x05
  16:	8c 81       	ldd	r24, Y+4	; 0x04
  18:	9d 81       	ldd	r25, Y+5	; 0x05
  1a:	68 0f       	add	r22, r24
  1c:	79 1f       	adc	r23, r25
  1e:	7d 83       	std	Y+5, r23	; 0x05
  20:	6c 83       	std	Y+4, r22	; 0x04
  22:	8a 81       	ldd	r24, Y+2	; 0x02
  24:	9b 81       	ldd	r25, Y+3	; 0x03
  26:	86 17       	cp	r24, r22
  28:	97 07       	cpc	r25, r23
  2a:	00 f4       	brcc	.+0      	; 0x2c <_ZN6StringpLERKS_+0x2c>
  2c:	08 81       	ld	r16, Y
  2e:	19 81       	ldd	r17, Y+1	; 0x01
  30:	ce 01       	movw	r24, r28
  32:	0e 94 00 00 	call	0	; 0x0 <_ZN6StringpLERKS_>
  36:	88 81       	ld	r24, Y
  38:	99 81       	ldd	r25, Y+1	; 0x01
  3a:	00 97       	sbiw	r24, 0x00	; 0
  3c:	01 f0       	breq	.+0      	; 0x3e <_ZN6StringpLERKS_+0x3e>
  3e:	b8 01       	movw	r22, r16
  40:	0e 94 00 00 	call	0	; 0x0 <_ZN6StringpLERKS_>
  44:	c8 01       	movw	r24, r16
  46:	0e 94 00 00 	call	0	; 0x0 <_ZN6StringpLERKS_>
  4a:	88 81       	ld	r24, Y
  4c:	99 81       	ldd	r25, Y+1	; 0x01
  4e:	00 97       	sbiw	r24, 0x00	; 0
  50:	01 f0       	breq	.+0      	; 0x52 <_ZN6StringpLERKS_+0x52>
  52:	f7 01       	movw	r30, r14
  54:	60 81       	ld	r22, Z
  56:	71 81       	ldd	r23, Z+1	; 0x01
  58:	0e 94 00 00 	call	0	; 0x0 <_ZN6StringpLERKS_>
  5c:	ce 01       	movw	r24, r28
  5e:	df 91       	pop	r29
  60:	cf 91       	pop	r28
  62:	1f 91       	pop	r17
  64:	0f 91       	pop	r16
  66:	ff 90       	pop	r15
  68:	ef 90       	pop	r14
  6a:	08 95       	ret

Disassembly of section .text._ZN6String6concatERKS_:

00000000 <_ZN6String6concatERKS_>:
   0:	0e 94 00 00 	call	0	; 0x0 <_ZN6String6concatERKS_>
   4:	08 95       	ret

Disassembly of section .text._ZN6StringaSERKS_:

00000000 <_ZN6StringaSERKS_>:
   0:	0f 93       	push	r16
   2:	1f 93       	push	r17
   4:	cf 93       	push	r28
   6:	df 93       	push	r29
   8:	ec 01       	movw	r28, r24
   a:	8b 01       	movw	r16, r22
   c:	86 17       	cp	r24, r22
   e:	97 07       	cpc	r25, r23
  10:	01 f0       	breq	.+0      	; 0x12 <_ZN6StringaSERKS_+0x12>
  12:	fb 01       	movw	r30, r22
  14:	24 81       	ldd	r18, Z+4	; 0x04
  16:	35 81       	ldd	r19, Z+5	; 0x05
  18:	8c 81       	ldd	r24, Y+4	; 0x04
  1a:	9d 81       	ldd	r25, Y+5	; 0x05
  1c:	82 17       	cp	r24, r18
  1e:	93 07       	cpc	r25, r19
  20:	00 f4       	brcc	.+0      	; 0x22 <_ZN6StringaSERKS_+0x22>
  22:	88 81       	ld	r24, Y
  24:	99 81       	ldd	r25, Y+1	; 0x01
  26:	0e 94 00 00 	call	0	; 0x0 <_ZN6StringaSERKS_>
  2a:	f8 01       	movw	r30, r16
  2c:	64 81       	ldd	r22, Z+4	; 0x04
  2e:	75 81       	ldd	r23, Z+5	; 0x05
  30:	ce 01       	movw	r24, r28
  32:	0e 94 00 00 	call	0	; 0x0 <_ZN6StringaSERKS_>
  36:	28 81       	ld	r18, Y
  38:	39 81       	ldd	r19, Y+1	; 0x01
  3a:	21 15       	cp	r18, r1
  3c:	31 05       	cpc	r19, r1
  3e:	01 f0       	breq	.+0      	; 0x40 <_ZN6StringaSERKS_+0x40>
  40:	f8 01       	movw	r30, r16
  42:	84 81       	ldd	r24, Z+4	; 0x04
  44:	95 81       	ldd	r25, Z+5	; 0x05
  46:	9d 83       	std	Y+5, r25	; 0x05
  48:	8c 83       	std	Y+4, r24	; 0x04
  4a:	60 81       	ld	r22, Z
  4c:	71 81       	ldd	r23, Z+1	; 0x01
  4e:	c9 01       	movw	r24, r18
  50:	0e 94 00 00 	call	0	; 0x0 <_ZN6StringaSERKS_>
  54:	ce 01       	movw	r24, r28
  56:	df 91       	pop	r29
  58:	cf 91       	pop	r28
  5a:	1f 91       	pop	r17
  5c:	0f 91       	pop	r16
  5e:	08 95       	ret

Disassembly of section .text._ZN6StringC1Eh:

00000000 <_ZN6StringC1Eh>:
   0:	1f 93       	push	r17
   2:	cf 93       	push	r28
   4:	df 93       	push	r29
   6:	ec 01       	movw	r28, r24
   8:	16 2f       	mov	r17, r22
   a:	81 e0       	ldi	r24, 0x01	; 1
   c:	90 e0       	ldi	r25, 0x00	; 0
   e:	9d 83       	std	Y+5, r25	; 0x05
  10:	8c 83       	std	Y+4, r24	; 0x04
  12:	ce 01       	movw	r24, r28
  14:	61 e0       	ldi	r22, 0x01	; 1
  16:	70 e0       	ldi	r23, 0x00	; 0
  18:	0e 94 00 00 	call	0	; 0x0 <_ZN6StringC1Eh>
  1c:	e8 81       	ld	r30, Y
  1e:	f9 81       	ldd	r31, Y+1	; 0x01
  20:	30 97       	sbiw	r30, 0x00	; 0
  22:	01 f0       	breq	.+0      	; 0x24 <_ZN6StringC1Eh+0x24>
  24:	10 83       	st	Z, r17
  26:	e8 81       	ld	r30, Y
  28:	f9 81       	ldd	r31, Y+1	; 0x01
  2a:	11 82       	std	Z+1, r1	; 0x01
  2c:	df 91       	pop	r29
  2e:	cf 91       	pop	r28
  30:	1f 91       	pop	r17
  32:	08 95       	ret

Disassembly of section .text._ZN6StringC2Eh:

00000000 <_ZN6StringC2Eh>:
   0:	1f 93       	push	r17
   2:	cf 93       	push	r28
   4:	df 93       	push	r29
   6:	ec 01       	movw	r28, r24
   8:	16 2f       	mov	r17, r22
   a:	81 e0       	ldi	r24, 0x01	; 1
   c:	90 e0       	ldi	r25, 0x00	; 0
   e:	9d 83       	std	Y+5, r25	; 0x05
  10:	8c 83       	std	Y+4, r24	; 0x04
  12:	ce 01       	movw	r24, r28
  14:	61 e0       	ldi	r22, 0x01	; 1
  16:	70 e0       	ldi	r23, 0x00	; 0
  18:	0e 94 00 00 	call	0	; 0x0 <_ZN6StringC2Eh>
  1c:	e8 81       	ld	r30, Y
  1e:	f9 81       	ldd	r31, Y+1	; 0x01
  20:	30 97       	sbiw	r30, 0x00	; 0
  22:	01 f0       	breq	.+0      	; 0x24 <_ZN6StringC2Eh+0x24>
  24:	10 83       	st	Z, r17
  26:	e8 81       	ld	r30, Y
  28:	f9 81       	ldd	r31, Y+1	; 0x01
  2a:	11 82       	std	Z+1, r1	; 0x01
  2c:	df 91       	pop	r29
  2e:	cf 91       	pop	r28
  30:	1f 91       	pop	r17
  32:	08 95       	ret

Disassembly of section .text._ZN6StringC1Ec:

00000000 <_ZN6StringC1Ec>:
   0:	1f 93       	push	r17
   2:	cf 93       	push	r28
   4:	df 93       	push	r29
   6:	ec 01       	movw	r28, r24
   8:	16 2f       	mov	r17, r22
   a:	81 e0       	ldi	r24, 0x01	; 1
   c:	90 e0       	ldi	r25, 0x00	; 0
   e:	9d 83       	std	Y+5, r25	; 0x05
  10:	8c 83       	std	Y+4, r24	; 0x04
  12:	ce 01       	movw	r24, r28
  14:	61 e0       	ldi	r22, 0x01	; 1
  16:	70 e0       	ldi	r23, 0x00	; 0
  18:	0e 94 00 00 	call	0	; 0x0 <_ZN6StringC1Ec>
  1c:	e8 81       	ld	r30, Y
  1e:	f9 81       	ldd	r31, Y+1	; 0x01
  20:	30 97       	sbiw	r30, 0x00	; 0
  22:	01 f0       	breq	.+0      	; 0x24 <_ZN6StringC1Ec+0x24>
  24:	10 83       	st	Z, r17
  26:	e8 81       	ld	r30, Y
  28:	f9 81       	ldd	r31, Y+1	; 0x01
  2a:	11 82       	std	Z+1, r1	; 0x01
  2c:	df 91       	pop	r29
  2e:	cf 91       	pop	r28
  30:	1f 91       	pop	r17
  32:	08 95       	ret

Disassembly of section .text._ZN6StringC2Ec:

00000000 <_ZN6StringC2Ec>:
   0:	1f 93       	push	r17
   2:	cf 93       	push	r28
   4:	df 93       	push	r29
   6:	ec 01       	movw	r28, r24
   8:	16 2f       	mov	r17, r22
   a:	81 e0       	ldi	r24, 0x01	; 1
   c:	90 e0       	ldi	r25, 0x00	; 0
   e:	9d 83       	std	Y+5, r25	; 0x05
  10:	8c 83       	std	Y+4, r24	; 0x04
  12:	ce 01       	movw	r24, r28
  14:	61 e0       	ldi	r22, 0x01	; 1
  16:	70 e0       	ldi	r23, 0x00	; 0
  18:	0e 94 00 00 	call	0	; 0x0 <_ZN6StringC2Ec>
  1c:	e8 81       	ld	r30, Y
  1e:	f9 81       	ldd	r31, Y+1	; 0x01
  20:	30 97       	sbiw	r30, 0x00	; 0
  22:	01 f0       	breq	.+0      	; 0x24 <_ZN6StringC2Ec+0x24>
  24:	10 83       	st	Z, r17
  26:	e8 81       	ld	r30, Y
  28:	f9 81       	ldd	r31, Y+1	; 0x01
  2a:	11 82       	std	Z+1, r1	; 0x01
  2c:	df 91       	pop	r29
  2e:	cf 91       	pop	r28
  30:	1f 91       	pop	r17
  32:	08 95       	ret

Disassembly of section .text._ZN6StringC1ERKS_:

00000000 <_ZN6StringC1ERKS_>:
   0:	0f 93       	push	r16
   2:	1f 93       	push	r17
   4:	cf 93       	push	r28
   6:	df 93       	push	r29
   8:	8c 01       	movw	r16, r24
   a:	eb 01       	movw	r28, r22
   c:	6c 81       	ldd	r22, Y+4	; 0x04
   e:	7d 81       	ldd	r23, Y+5	; 0x05
  10:	fc 01       	movw	r30, r24
  12:	75 83       	std	Z+5, r23	; 0x05
  14:	64 83       	std	Z+4, r22	; 0x04
  16:	0e 94 00 00 	call	0	; 0x0 <_ZN6StringC1ERKS_>
  1a:	f8 01       	movw	r30, r16
  1c:	80 81       	ld	r24, Z
  1e:	91 81       	ldd	r25, Z+1	; 0x01
  20:	00 97       	sbiw	r24, 0x00	; 0
  22:	01 f0       	breq	.+0      	; 0x24 <_ZN6StringC1ERKS_+0x24>
  24:	68 81       	ld	r22, Y
  26:	79 81       	ldd	r23, Y+1	; 0x01
  28:	0e 94 00 00 	call	0	; 0x0 <_ZN6StringC1ERKS_>
  2c:	df 91       	pop	r29
  2e:	cf 91       	pop	r28
  30:	1f 91       	pop	r17
  32:	0f 91       	pop	r16
  34:	08 95       	ret

Disassembly of section .text._ZN6StringC2ERKS_:

00000000 <_ZN6StringC2ERKS_>:
   0:	0f 93       	push	r16
   2:	1f 93       	push	r17
   4:	cf 93       	push	r28
   6:	df 93       	push	r29
   8:	8c 01       	movw	r16, r24
   a:	eb 01       	movw	r28, r22
   c:	6c 81       	ldd	r22, Y+4	; 0x04
   e:	7d 81       	ldd	r23, Y+5	; 0x05
  10:	fc 01       	movw	r30, r24
  12:	75 83       	std	Z+5, r23	; 0x05
  14:	64 83       	std	Z+4, r22	; 0x04
  16:	0e 94 00 00 	call	0	; 0x0 <_ZN6StringC2ERKS_>
  1a:	f8 01       	movw	r30, r16
  1c:	80 81       	ld	r24, Z
  1e:	91 81       	ldd	r25, Z+1	; 0x01
  20:	00 97       	sbiw	r24, 0x00	; 0
  22:	01 f0       	breq	.+0      	; 0x24 <_ZN6StringC2ERKS_+0x24>
  24:	68 81       	ld	r22, Y
  26:	79 81       	ldd	r23, Y+1	; 0x01
  28:	0e 94 00 00 	call	0	; 0x0 <_ZN6StringC2ERKS_>
  2c:	df 91       	pop	r29
  2e:	cf 91       	pop	r28
  30:	1f 91       	pop	r17
  32:	0f 91       	pop	r16
  34:	08 95       	ret

Disassembly of section .text._ZN6StringC1Emi:

00000000 <_ZN6StringC1Emi>:
   0:	ef 92       	push	r14
   2:	ff 92       	push	r15
   4:	0f 93       	push	r16
   6:	1f 93       	push	r17
   8:	df 93       	push	r29
   a:	cf 93       	push	r28
   c:	cd b7       	in	r28, 0x3d	; 61
   e:	de b7       	in	r29, 0x3e	; 62
  10:	a1 97       	sbiw	r28, 0x21	; 33
  12:	0f b6       	in	r0, 0x3f	; 63
  14:	f8 94       	cli
  16:	de bf       	out	0x3e, r29	; 62
  18:	0f be       	out	0x3f, r0	; 63
  1a:	cd bf       	out	0x3d, r28	; 61
  1c:	8c 01       	movw	r16, r24
  1e:	cb 01       	movw	r24, r22
  20:	ba 01       	movw	r22, r20
  22:	7e 01       	movw	r14, r28
  24:	08 94       	sec
  26:	e1 1c       	adc	r14, r1
  28:	f1 1c       	adc	r15, r1
  2a:	a7 01       	movw	r20, r14
  2c:	2a e0       	ldi	r18, 0x0A	; 10
  2e:	30 e0       	ldi	r19, 0x00	; 0
  30:	0e 94 00 00 	call	0	; 0x0 <_ZN6StringC1Emi>
  34:	f7 01       	movw	r30, r14
  36:	01 90       	ld	r0, Z+
  38:	00 20       	and	r0, r0
  3a:	01 f4       	brne	.+0      	; 0x3c <_ZN6StringC1Emi+0x3c>
  3c:	31 97       	sbiw	r30, 0x01	; 1
  3e:	ee 19       	sub	r30, r14
  40:	ff 09       	sbc	r31, r15
  42:	d8 01       	movw	r26, r16
  44:	15 96       	adiw	r26, 0x05	; 5
  46:	fc 93       	st	X, r31
  48:	ee 93       	st	-X, r30
  4a:	14 97       	sbiw	r26, 0x04	; 4
  4c:	c8 01       	movw	r24, r16
  4e:	bf 01       	movw	r22, r30
  50:	0e 94 00 00 	call	0	; 0x0 <_ZN6StringC1Emi>
  54:	f8 01       	movw	r30, r16
  56:	80 81       	ld	r24, Z
  58:	91 81       	ldd	r25, Z+1	; 0x01
  5a:	00 97       	sbiw	r24, 0x00	; 0
  5c:	01 f0       	breq	.+0      	; 0x5e <_ZN6StringC1Emi+0x5e>
  5e:	b7 01       	movw	r22, r14
  60:	0e 94 00 00 	call	0	; 0x0 <_ZN6StringC1Emi>
  64:	a1 96       	adiw	r28, 0x21	; 33
  66:	0f b6       	in	r0, 0x3f	; 63
  68:	f8 94       	cli
  6a:	de bf       	out	0x3e, r29	; 62
  6c:	0f be       	out	0x3f, r0	; 63
  6e:	cd bf       	out	0x3d, r28	; 61
  70:	cf 91       	pop	r28
  72:	df 91       	pop	r29
  74:	1f 91       	pop	r17
  76:	0f 91       	pop	r16
  78:	ff 90       	pop	r15
  7a:	ef 90       	pop	r14
  7c:	08 95       	ret

Disassembly of section .text._ZN6StringC2Emi:

00000000 <_ZN6StringC2Emi>:
   0:	ef 92       	push	r14
   2:	ff 92       	push	r15
   4:	0f 93       	push	r16
   6:	1f 93       	push	r17
   8:	df 93       	push	r29
   a:	cf 93       	push	r28
   c:	cd b7       	in	r28, 0x3d	; 61
   e:	de b7       	in	r29, 0x3e	; 62
  10:	a1 97       	sbiw	r28, 0x21	; 33
  12:	0f b6       	in	r0, 0x3f	; 63
  14:	f8 94       	cli
  16:	de bf       	out	0x3e, r29	; 62
  18:	0f be       	out	0x3f, r0	; 63
  1a:	cd bf       	out	0x3d, r28	; 61
  1c:	8c 01       	movw	r16, r24
  1e:	cb 01       	movw	r24, r22
  20:	ba 01       	movw	r22, r20
  22:	7e 01       	movw	r14, r28
  24:	08 94       	sec
  26:	e1 1c       	adc	r14, r1
  28:	f1 1c       	adc	r15, r1
  2a:	a7 01       	movw	r20, r14
  2c:	2a e0       	ldi	r18, 0x0A	; 10
  2e:	30 e0       	ldi	r19, 0x00	; 0
  30:	0e 94 00 00 	call	0	; 0x0 <_ZN6StringC2Emi>
  34:	f7 01       	movw	r30, r14
  36:	01 90       	ld	r0, Z+
  38:	00 20       	and	r0, r0
  3a:	01 f4       	brne	.+0      	; 0x3c <_ZN6StringC2Emi+0x3c>
  3c:	31 97       	sbiw	r30, 0x01	; 1
  3e:	ee 19       	sub	r30, r14
  40:	ff 09       	sbc	r31, r15
  42:	d8 01       	movw	r26, r16
  44:	15 96       	adiw	r26, 0x05	; 5
  46:	fc 93       	st	X, r31
  48:	ee 93       	st	-X, r30
  4a:	14 97       	sbiw	r26, 0x04	; 4
  4c:	c8 01       	movw	r24, r16
  4e:	bf 01       	movw	r22, r30
  50:	0e 94 00 00 	call	0	; 0x0 <_ZN6StringC2Emi>
  54:	f8 01       	movw	r30, r16
  56:	80 81       	ld	r24, Z
  58:	91 81       	ldd	r25, Z+1	; 0x01
  5a:	00 97       	sbiw	r24, 0x00	; 0
  5c:	01 f0       	breq	.+0      	; 0x5e <_ZN6StringC2Emi+0x5e>
  5e:	b7 01       	movw	r22, r14
  60:	0e 94 00 00 	call	0	; 0x0 <_ZN6StringC2Emi>
  64:	a1 96       	adiw	r28, 0x21	; 33
  66:	0f b6       	in	r0, 0x3f	; 63
  68:	f8 94       	cli
  6a:	de bf       	out	0x3e, r29	; 62
  6c:	0f be       	out	0x3f, r0	; 63
  6e:	cd bf       	out	0x3d, r28	; 61
  70:	cf 91       	pop	r28
  72:	df 91       	pop	r29
  74:	1f 91       	pop	r17
  76:	0f 91       	pop	r16
  78:	ff 90       	pop	r15
  7a:	ef 90       	pop	r14
  7c:	08 95       	ret

Disassembly of section .text._ZN6StringC1Eji:

00000000 <_ZN6StringC1Eji>:
   0:	ef 92       	push	r14
   2:	ff 92       	push	r15
   4:	0f 93       	push	r16
   6:	1f 93       	push	r17
   8:	df 93       	push	r29
   a:	cf 93       	push	r28
   c:	cd b7       	in	r28, 0x3d	; 61
   e:	de b7       	in	r29, 0x3e	; 62
  10:	a1 97       	sbiw	r28, 0x21	; 33
  12:	0f b6       	in	r0, 0x3f	; 63
  14:	f8 94       	cli
  16:	de bf       	out	0x3e, r29	; 62
  18:	0f be       	out	0x3f, r0	; 63
  1a:	cd bf       	out	0x3d, r28	; 61
  1c:	8c 01       	movw	r16, r24
  1e:	9a 01       	movw	r18, r20
  20:	80 e0       	ldi	r24, 0x00	; 0
  22:	90 e0       	ldi	r25, 0x00	; 0
  24:	7e 01       	movw	r14, r28
  26:	08 94       	sec
  28:	e1 1c       	adc	r14, r1
  2a:	f1 1c       	adc	r15, r1
  2c:	a7 01       	movw	r20, r14
  2e:	0e 94 00 00 	call	0	; 0x0 <_ZN6StringC1Eji>
  32:	f7 01       	movw	r30, r14
  34:	01 90       	ld	r0, Z+
  36:	00 20       	and	r0, r0
  38:	01 f4       	brne	.+0      	; 0x3a <_ZN6StringC1Eji+0x3a>
  3a:	31 97       	sbiw	r30, 0x01	; 1
  3c:	ee 19       	sub	r30, r14
  3e:	ff 09       	sbc	r31, r15
  40:	d8 01       	movw	r26, r16
  42:	15 96       	adiw	r26, 0x05	; 5
  44:	fc 93       	st	X, r31
  46:	ee 93       	st	-X, r30
  48:	14 97       	sbiw	r26, 0x04	; 4
  4a:	c8 01       	movw	r24, r16
  4c:	bf 01       	movw	r22, r30
  4e:	0e 94 00 00 	call	0	; 0x0 <_ZN6StringC1Eji>
  52:	f8 01       	movw	r30, r16
  54:	80 81       	ld	r24, Z
  56:	91 81       	ldd	r25, Z+1	; 0x01
  58:	00 97       	sbiw	r24, 0x00	; 0
  5a:	01 f0       	breq	.+0      	; 0x5c <_ZN6StringC1Eji+0x5c>
  5c:	b7 01       	movw	r22, r14
  5e:	0e 94 00 00 	call	0	; 0x0 <_ZN6StringC1Eji>
  62:	a1 96       	adiw	r28, 0x21	; 33
  64:	0f b6       	in	r0, 0x3f	; 63
  66:	f8 94       	cli
  68:	de bf       	out	0x3e, r29	; 62
  6a:	0f be       	out	0x3f, r0	; 63
  6c:	cd bf       	out	0x3d, r28	; 61
  6e:	cf 91       	pop	r28
  70:	df 91       	pop	r29
  72:	1f 91       	pop	r17
  74:	0f 91       	pop	r16
  76:	ff 90       	pop	r15
  78:	ef 90       	pop	r14
  7a:	08 95       	ret

Disassembly of section .text._ZN6StringC2Eji:

00000000 <_ZN6StringC2Eji>:
   0:	ef 92       	push	r14
   2:	ff 92       	push	r15
   4:	0f 93       	push	r16
   6:	1f 93       	push	r17
   8:	df 93       	push	r29
   a:	cf 93       	push	r28
   c:	cd b7       	in	r28, 0x3d	; 61
   e:	de b7       	in	r29, 0x3e	; 62
  10:	a1 97       	sbiw	r28, 0x21	; 33
  12:	0f b6       	in	r0, 0x3f	; 63
  14:	f8 94       	cli
  16:	de bf       	out	0x3e, r29	; 62
  18:	0f be       	out	0x3f, r0	; 63
  1a:	cd bf       	out	0x3d, r28	; 61
  1c:	8c 01       	movw	r16, r24
  1e:	9a 01       	movw	r18, r20
  20:	80 e0       	ldi	r24, 0x00	; 0
  22:	90 e0       	ldi	r25, 0x00	; 0
  24:	7e 01       	movw	r14, r28
  26:	08 94       	sec
  28:	e1 1c       	adc	r14, r1
  2a:	f1 1c       	adc	r15, r1
  2c:	a7 01       	movw	r20, r14
  2e:	0e 94 00 00 	call	0	; 0x0 <_ZN6StringC2Eji>
  32:	f7 01       	movw	r30, r14
  34:	01 90       	ld	r0, Z+
  36:	00 20       	and	r0, r0
  38:	01 f4       	brne	.+0      	; 0x3a <_ZN6StringC2Eji+0x3a>
  3a:	31 97       	sbiw	r30, 0x01	; 1
  3c:	ee 19       	sub	r30, r14
  3e:	ff 09       	sbc	r31, r15
  40:	d8 01       	movw	r26, r16
  42:	15 96       	adiw	r26, 0x05	; 5
  44:	fc 93       	st	X, r31
  46:	ee 93       	st	-X, r30
  48:	14 97       	sbiw	r26, 0x04	; 4
  4a:	c8 01       	movw	r24, r16
  4c:	bf 01       	movw	r22, r30
  4e:	0e 94 00 00 	call	0	; 0x0 <_ZN6StringC2Eji>
  52:	f8 01       	movw	r30, r16
  54:	80 81       	ld	r24, Z
  56:	91 81       	ldd	r25, Z+1	; 0x01
  58:	00 97       	sbiw	r24, 0x00	; 0
  5a:	01 f0       	breq	.+0      	; 0x5c <_ZN6StringC2Eji+0x5c>
  5c:	b7 01       	movw	r22, r14
  5e:	0e 94 00 00 	call	0	; 0x0 <_ZN6StringC2Eji>
  62:	a1 96       	adiw	r28, 0x21	; 33
  64:	0f b6       	in	r0, 0x3f	; 63
  66:	f8 94       	cli
  68:	de bf       	out	0x3e, r29	; 62
  6a:	0f be       	out	0x3f, r0	; 63
  6c:	cd bf       	out	0x3d, r28	; 61
  6e:	cf 91       	pop	r28
  70:	df 91       	pop	r29
  72:	1f 91       	pop	r17
  74:	0f 91       	pop	r16
  76:	ff 90       	pop	r15
  78:	ef 90       	pop	r14
  7a:	08 95       	ret

Disassembly of section .text._ZN6StringC1EPKc:

00000000 <_ZN6StringC1EPKc>:
   0:	0f 93       	push	r16
   2:	1f 93       	push	r17
   4:	cf 93       	push	r28
   6:	df 93       	push	r29
   8:	8c 01       	movw	r16, r24
   a:	eb 01       	movw	r28, r22
   c:	61 15       	cp	r22, r1
   e:	71 05       	cpc	r23, r1
  10:	01 f4       	brne	.+0      	; 0x12 <_ZN6StringC1EPKc+0x12>
  12:	c0 e0       	ldi	r28, 0x00	; 0
  14:	d0 e0       	ldi	r29, 0x00	; 0
  16:	fe 01       	movw	r30, r28
  18:	01 90       	ld	r0, Z+
  1a:	00 20       	and	r0, r0
  1c:	01 f4       	brne	.+0      	; 0x1e <_ZN6StringC1EPKc+0x1e>
  1e:	31 97       	sbiw	r30, 0x01	; 1
  20:	ec 1b       	sub	r30, r28
  22:	fd 0b       	sbc	r31, r29
  24:	d8 01       	movw	r26, r16
  26:	15 96       	adiw	r26, 0x05	; 5
  28:	fc 93       	st	X, r31
  2a:	ee 93       	st	-X, r30
  2c:	14 97       	sbiw	r26, 0x04	; 4
  2e:	c8 01       	movw	r24, r16
  30:	bf 01       	movw	r22, r30
  32:	0e 94 00 00 	call	0	; 0x0 <_ZN6StringC1EPKc>
  36:	f8 01       	movw	r30, r16
  38:	80 81       	ld	r24, Z
  3a:	91 81       	ldd	r25, Z+1	; 0x01
  3c:	00 97       	sbiw	r24, 0x00	; 0
  3e:	01 f0       	breq	.+0      	; 0x40 <_ZN6StringC1EPKc+0x40>
  40:	be 01       	movw	r22, r28
  42:	0e 94 00 00 	call	0	; 0x0 <_ZN6StringC1EPKc>
  46:	df 91       	pop	r29
  48:	cf 91       	pop	r28
  4a:	1f 91       	pop	r17
  4c:	0f 91       	pop	r16
  4e:	08 95       	ret

Disassembly of section .text._ZNK6String11toUpperCaseEv:

00000000 <_ZNK6String11toUpperCaseEv>:
   0:	af 92       	push	r10
   2:	bf 92       	push	r11
   4:	cf 92       	push	r12
   6:	df 92       	push	r13
   8:	ef 92       	push	r14
   a:	ff 92       	push	r15
   c:	0f 93       	push	r16
   e:	1f 93       	push	r17
  10:	cf 93       	push	r28
  12:	df 93       	push	r29
  14:	b8 2e       	mov	r11, r24
  16:	a9 2e       	mov	r10, r25
  18:	6b 01       	movw	r12, r22
  1a:	c8 2f       	mov	r28, r24
  1c:	d9 2f       	mov	r29, r25
  1e:	fb 01       	movw	r30, r22
  20:	60 81       	ld	r22, Z
  22:	71 81       	ldd	r23, Z+1	; 0x01
  24:	ce 01       	movw	r24, r28
  26:	0e 94 00 00 	call	0	; 0x0 <_ZNK6String11toUpperCaseEv>
  2a:	ee 24       	eor	r14, r14
  2c:	ff 24       	eor	r15, r15
  2e:	00 c0       	rjmp	.+0      	; 0x30 <_ZNK6String11toUpperCaseEv+0x30>
  30:	08 81       	ld	r16, Y
  32:	19 81       	ldd	r17, Y+1	; 0x01
  34:	0e 0d       	add	r16, r14
  36:	1f 1d       	adc	r17, r15
  38:	f8 01       	movw	r30, r16
  3a:	80 81       	ld	r24, Z
  3c:	90 e0       	ldi	r25, 0x00	; 0
  3e:	0e 94 00 00 	call	0	; 0x0 <_ZNK6String11toUpperCaseEv>
  42:	f8 01       	movw	r30, r16
  44:	80 83       	st	Z, r24
  46:	08 94       	sec
  48:	e1 1c       	adc	r14, r1
  4a:	f1 1c       	adc	r15, r1
  4c:	f6 01       	movw	r30, r12
  4e:	84 81       	ldd	r24, Z+4	; 0x04
  50:	95 81       	ldd	r25, Z+5	; 0x05
  52:	e8 16       	cp	r14, r24
  54:	f9 06       	cpc	r15, r25
  56:	00 f0       	brcs	.+0      	; 0x58 <_ZNK6String11toUpperCaseEv+0x58>
  58:	8b 2d       	mov	r24, r11
  5a:	9a 2d       	mov	r25, r10
  5c:	df 91       	pop	r29
  5e:	cf 91       	pop	r28
  60:	1f 91       	pop	r17
  62:	0f 91       	pop	r16
  64:	ff 90       	pop	r15
  66:	ef 90       	pop	r14
  68:	df 90       	pop	r13
  6a:	cf 90       	pop	r12
  6c:	bf 90       	pop	r11
  6e:	af 90       	pop	r10
  70:	08 95       	ret

Disassembly of section .text._ZNK6String11toLowerCaseEv:

00000000 <_ZNK6String11toLowerCaseEv>:
   0:	af 92       	push	r10
   2:	bf 92       	push	r11
   4:	cf 92       	push	r12
   6:	df 92       	push	r13
   8:	ef 92       	push	r14
   a:	ff 92       	push	r15
   c:	0f 93       	push	r16
   e:	1f 93       	push	r17
  10:	cf 93       	push	r28
  12:	df 93       	push	r29
  14:	b8 2e       	mov	r11, r24
  16:	a9 2e       	mov	r10, r25
  18:	6b 01       	movw	r12, r22
  1a:	c8 2f       	mov	r28, r24
  1c:	d9 2f       	mov	r29, r25
  1e:	fb 01       	movw	r30, r22
  20:	60 81       	ld	r22, Z
  22:	71 81       	ldd	r23, Z+1	; 0x01
  24:	ce 01       	movw	r24, r28
  26:	0e 94 00 00 	call	0	; 0x0 <_ZNK6String11toLowerCaseEv>
  2a:	ee 24       	eor	r14, r14
  2c:	ff 24       	eor	r15, r15
  2e:	00 c0       	rjmp	.+0      	; 0x30 <_ZNK6String11toLowerCaseEv+0x30>
  30:	08 81       	ld	r16, Y
  32:	19 81       	ldd	r17, Y+1	; 0x01
  34:	0e 0d       	add	r16, r14
  36:	1f 1d       	adc	r17, r15
  38:	f8 01       	movw	r30, r16
  3a:	80 81       	ld	r24, Z
  3c:	90 e0       	ldi	r25, 0x00	; 0
  3e:	0e 94 00 00 	call	0	; 0x0 <_ZNK6String11toLowerCaseEv>
  42:	f8 01       	movw	r30, r16
  44:	80 83       	st	Z, r24
  46:	08 94       	sec
  48:	e1 1c       	adc	r14, r1
  4a:	f1 1c       	adc	r15, r1
  4c:	f6 01       	movw	r30, r12
  4e:	84 81       	ldd	r24, Z+4	; 0x04
  50:	95 81       	ldd	r25, Z+5	; 0x05
  52:	e8 16       	cp	r14, r24
  54:	f9 06       	cpc	r15, r25
  56:	00 f0       	brcs	.+0      	; 0x58 <_ZNK6String11toLowerCaseEv+0x58>
  58:	8b 2d       	mov	r24, r11
  5a:	9a 2d       	mov	r25, r10
  5c:	df 91       	pop	r29
  5e:	cf 91       	pop	r28
  60:	1f 91       	pop	r17
  62:	0f 91       	pop	r16
  64:	ff 90       	pop	r15
  66:	ef 90       	pop	r14
  68:	df 90       	pop	r13
  6a:	cf 90       	pop	r12
  6c:	bf 90       	pop	r11
  6e:	af 90       	pop	r10
  70:	08 95       	ret

Disassembly of section .text._ZNK6String16equalsIgnoreCaseERKS_:

00000000 <_ZNK6String16equalsIgnoreCaseERKS_>:
   0:	ef 92       	push	r14
   2:	ff 92       	push	r15
   4:	0f 93       	push	r16
   6:	1f 93       	push	r17
   8:	df 93       	push	r29
   a:	cf 93       	push	r28
   c:	cd b7       	in	r28, 0x3d	; 61
   e:	de b7       	in	r29, 0x3e	; 62
  10:	2c 97       	sbiw	r28, 0x0c	; 12
  12:	0f b6       	in	r0, 0x3f	; 63
  14:	f8 94       	cli
  16:	de bf       	out	0x3e, r29	; 62
  18:	0f be       	out	0x3f, r0	; 63
  1a:	cd bf       	out	0x3d, r28	; 61
  1c:	fc 01       	movw	r30, r24
  1e:	7b 01       	movw	r14, r22
  20:	86 17       	cp	r24, r22
  22:	97 07       	cpc	r25, r23
  24:	01 f4       	brne	.+0      	; 0x26 <_ZNK6String16equalsIgnoreCaseERKS_+0x26>
  26:	01 e0       	ldi	r16, 0x01	; 1
  28:	00 c0       	rjmp	.+0      	; 0x2a <_ZNK6String16equalsIgnoreCaseERKS_+0x2a>
  2a:	24 81       	ldd	r18, Z+4	; 0x04
  2c:	35 81       	ldd	r19, Z+5	; 0x05
  2e:	db 01       	movw	r26, r22
  30:	14 96       	adiw	r26, 0x04	; 4
  32:	8d 91       	ld	r24, X+
  34:	9c 91       	ld	r25, X
  36:	15 97       	sbiw	r26, 0x05	; 5
  38:	28 17       	cp	r18, r24
  3a:	39 07       	cpc	r19, r25
  3c:	01 f0       	breq	.+0      	; 0x3e <_ZNK6String16equalsIgnoreCaseERKS_+0x3e>
  3e:	00 e0       	ldi	r16, 0x00	; 0
  40:	00 c0       	rjmp	.+0      	; 0x42 <_ZNK6String16equalsIgnoreCaseERKS_+0x42>
  42:	ce 01       	movw	r24, r28
  44:	01 96       	adiw	r24, 0x01	; 1
  46:	bf 01       	movw	r22, r30
  48:	0e 94 00 00 	call	0	; 0x0 <_ZNK6String16equalsIgnoreCaseERKS_>
  4c:	09 81       	ldd	r16, Y+1	; 0x01
  4e:	1a 81       	ldd	r17, Y+2	; 0x02
  50:	ce 01       	movw	r24, r28
  52:	07 96       	adiw	r24, 0x07	; 7
  54:	b7 01       	movw	r22, r14
  56:	0e 94 00 00 	call	0	; 0x0 <_ZNK6String16equalsIgnoreCaseERKS_>
  5a:	6f 81       	ldd	r22, Y+7	; 0x07
  5c:	78 85       	ldd	r23, Y+8	; 0x08
  5e:	c8 01       	movw	r24, r16
  60:	0e 94 00 00 	call	0	; 0x0 <_ZNK6String16equalsIgnoreCaseERKS_>
  64:	00 e0       	ldi	r16, 0x00	; 0
  66:	00 97       	sbiw	r24, 0x00	; 0
  68:	01 f4       	brne	.+0      	; 0x6a <_ZNK6String16equalsIgnoreCaseERKS_+0x6a>
  6a:	01 e0       	ldi	r16, 0x01	; 1
  6c:	ce 01       	movw	r24, r28
  6e:	07 96       	adiw	r24, 0x07	; 7
  70:	0e 94 00 00 	call	0	; 0x0 <_ZNK6String16equalsIgnoreCaseERKS_>
  74:	ce 01       	movw	r24, r28
  76:	01 96       	adiw	r24, 0x01	; 1
  78:	0e 94 00 00 	call	0	; 0x0 <_ZNK6String16equalsIgnoreCaseERKS_>
  7c:	80 2f       	mov	r24, r16
  7e:	2c 96       	adiw	r28, 0x0c	; 12
  80:	0f b6       	in	r0, 0x3f	; 63
  82:	f8 94       	cli
  84:	de bf       	out	0x3e, r29	; 62
  86:	0f be       	out	0x3f, r0	; 63
  88:	cd bf       	out	0x3d, r28	; 61
  8a:	cf 91       	pop	r28
  8c:	df 91       	pop	r29
  8e:	1f 91       	pop	r17
  90:	0f 91       	pop	r16
  92:	ff 90       	pop	r15
  94:	ef 90       	pop	r14
  96:	08 95       	ret

Disassembly of section .text._ZNK6String9substringEjj:

00000000 <_ZNK6String9substringEjj>:
   0:	cf 92       	push	r12
   2:	df 92       	push	r13
   4:	ef 92       	push	r14
   6:	ff 92       	push	r15
   8:	1f 93       	push	r17
   a:	cf 93       	push	r28
   c:	df 93       	push	r29
   e:	6c 01       	movw	r12, r24
  10:	7b 01       	movw	r14, r22
  12:	b9 01       	movw	r22, r18
  14:	24 17       	cp	r18, r20
  16:	35 07       	cpc	r19, r21
  18:	00 f4       	brcc	.+0      	; 0x1a <_ZNK6String9substringEjj+0x1a>
  1a:	ba 01       	movw	r22, r20
  1c:	a9 01       	movw	r20, r18
  1e:	d7 01       	movw	r26, r14
  20:	14 96       	adiw	r26, 0x04	; 4
  22:	8d 91       	ld	r24, X+
  24:	9c 91       	ld	r25, X
  26:	15 97       	sbiw	r26, 0x05	; 5
  28:	eb 01       	movw	r28, r22
  2a:	86 17       	cp	r24, r22
  2c:	97 07       	cpc	r25, r23
  2e:	00 f4       	brcc	.+0      	; 0x30 <_ZNK6String9substringEjj+0x30>
  30:	ec 01       	movw	r28, r24
  32:	d7 01       	movw	r26, r14
  34:	ed 91       	ld	r30, X+
  36:	fc 91       	ld	r31, X
  38:	11 97       	sbiw	r26, 0x01	; 1
  3a:	ec 0f       	add	r30, r28
  3c:	fd 1f       	adc	r31, r29
  3e:	10 81       	ld	r17, Z
  40:	10 82       	st	Z, r1
  42:	6d 91       	ld	r22, X+
  44:	7c 91       	ld	r23, X
  46:	64 0f       	add	r22, r20
  48:	75 1f       	adc	r23, r21
  4a:	c6 01       	movw	r24, r12
  4c:	0e 94 00 00 	call	0	; 0x0 <_ZNK6String9substringEjj>
  50:	d7 01       	movw	r26, r14
  52:	ed 91       	ld	r30, X+
  54:	fc 91       	ld	r31, X
  56:	ec 0f       	add	r30, r28
  58:	fd 1f       	adc	r31, r29
  5a:	10 83       	st	Z, r17
  5c:	c6 01       	movw	r24, r12
  5e:	df 91       	pop	r29
  60:	cf 91       	pop	r28
  62:	1f 91       	pop	r17
  64:	ff 90       	pop	r15
  66:	ef 90       	pop	r14
  68:	df 90       	pop	r13
  6a:	cf 90       	pop	r12
  6c:	08 95       	ret

Disassembly of section .text._ZNK6String9substringEj:

00000000 <_ZNK6String9substringEj>:
   0:	0f 93       	push	r16
   2:	1f 93       	push	r17
   4:	8c 01       	movw	r16, r24
   6:	fb 01       	movw	r30, r22
   8:	24 81       	ldd	r18, Z+4	; 0x04
   a:	35 81       	ldd	r19, Z+5	; 0x05
   c:	0e 94 00 00 	call	0	; 0x0 <_ZNK6String9substringEj>
  10:	c8 01       	movw	r24, r16
  12:	1f 91       	pop	r17
  14:	0f 91       	pop	r16
  16:	08 95       	ret

Disassembly of section .text._ZNK6String11lastIndexOfERKS_j:

00000000 <_ZNK6String11lastIndexOfERKS_j>:
   0:	8f 92       	push	r8
   2:	9f 92       	push	r9
   4:	af 92       	push	r10
   6:	bf 92       	push	r11
   8:	cf 92       	push	r12
   a:	df 92       	push	r13
   c:	ef 92       	push	r14
   e:	ff 92       	push	r15
  10:	0f 93       	push	r16
  12:	1f 93       	push	r17
  14:	df 93       	push	r29
  16:	cf 93       	push	r28
  18:	00 d0       	rcall	.+0      	; 0x1a <_ZNK6String11lastIndexOfERKS_j+0x1a>
  1a:	00 d0       	rcall	.+0      	; 0x1c <_ZNK6String11lastIndexOfERKS_j+0x1c>
  1c:	00 d0       	rcall	.+0      	; 0x1e <_ZNK6String11lastIndexOfERKS_j+0x1e>
  1e:	cd b7       	in	r28, 0x3d	; 61
  20:	de b7       	in	r29, 0x3e	; 62
  22:	5c 01       	movw	r10, r24
  24:	6b 01       	movw	r12, r22
  26:	db 01       	movw	r26, r22
  28:	14 96       	adiw	r26, 0x04	; 4
  2a:	8d 91       	ld	r24, X+
  2c:	9c 91       	ld	r25, X
  2e:	15 97       	sbiw	r26, 0x05	; 5
  30:	00 97       	sbiw	r24, 0x00	; 0
  32:	01 f0       	breq	.+0      	; 0x34 <_ZNK6String11lastIndexOfERKS_j+0x34>
  34:	01 97       	sbiw	r24, 0x01	; 1
  36:	48 17       	cp	r20, r24
  38:	59 07       	cpc	r21, r25
  3a:	00 f0       	brcs	.+0      	; 0x3c <_ZNK6String11lastIndexOfERKS_j+0x3c>
  3c:	f5 01       	movw	r30, r10
  3e:	84 81       	ldd	r24, Z+4	; 0x04
  40:	95 81       	ldd	r25, Z+5	; 0x05
  42:	48 17       	cp	r20, r24
  44:	59 07       	cpc	r21, r25
  46:	00 f4       	brcc	.+0      	; 0x48 <_ZNK6String11lastIndexOfERKS_j+0x48>
  48:	ed 91       	ld	r30, X+
  4a:	fc 91       	ld	r31, X
  4c:	00 81       	ld	r16, Z
  4e:	7a 01       	movw	r14, r20
  50:	4e 01       	movw	r8, r28
  52:	08 94       	sec
  54:	81 1c       	adc	r8, r1
  56:	91 1c       	adc	r9, r1
  58:	00 c0       	rjmp	.+0      	; 0x5a <_ZNK6String11lastIndexOfERKS_j+0x5a>
  5a:	d5 01       	movw	r26, r10
  5c:	ed 91       	ld	r30, X+
  5e:	fc 91       	ld	r31, X
  60:	ee 0d       	add	r30, r14
  62:	ff 1d       	adc	r31, r15
  64:	80 81       	ld	r24, Z
  66:	80 17       	cp	r24, r16
  68:	01 f4       	brne	.+0      	; 0x6a <_ZNK6String11lastIndexOfERKS_j+0x6a>
  6a:	f6 01       	movw	r30, r12
  6c:	24 81       	ldd	r18, Z+4	; 0x04
  6e:	35 81       	ldd	r19, Z+5	; 0x05
  70:	2e 0d       	add	r18, r14
  72:	3f 1d       	adc	r19, r15
  74:	c4 01       	movw	r24, r8
  76:	b5 01       	movw	r22, r10
  78:	a7 01       	movw	r20, r14
  7a:	0e 94 00 00 	call	0	; 0x0 <_ZNK6String11lastIndexOfERKS_j>
  7e:	c4 01       	movw	r24, r8
  80:	b6 01       	movw	r22, r12
  82:	0e 94 00 00 	call	0	; 0x0 <_ZNK6String11lastIndexOfERKS_j>
  86:	18 2f       	mov	r17, r24
  88:	c4 01       	movw	r24, r8
  8a:	0e 94 00 00 	call	0	; 0x0 <_ZNK6String11lastIndexOfERKS_j>
  8e:	11 23       	and	r17, r17
  90:	01 f4       	brne	.+0      	; 0x92 <_ZNK6String11lastIndexOfERKS_j+0x92>
  92:	08 94       	sec
  94:	e1 08       	sbc	r14, r1
  96:	f1 08       	sbc	r15, r1
  98:	f7 fe       	sbrs	r15, 7
  9a:	00 c0       	rjmp	.+0      	; 0x9c <_ZNK6String11lastIndexOfERKS_j+0x9c>
  9c:	ee 24       	eor	r14, r14
  9e:	ea 94       	dec	r14
  a0:	fe 2c       	mov	r15, r14
  a2:	c7 01       	movw	r24, r14
  a4:	26 96       	adiw	r28, 0x06	; 6
  a6:	0f b6       	in	r0, 0x3f	; 63
  a8:	f8 94       	cli
  aa:	de bf       	out	0x3e, r29	; 62
  ac:	0f be       	out	0x3f, r0	; 63
  ae:	cd bf       	out	0x3d, r28	; 61
  b0:	cf 91       	pop	r28
  b2:	df 91       	pop	r29
  b4:	1f 91       	pop	r17
  b6:	0f 91       	pop	r16
  b8:	ff 90       	pop	r15
  ba:	ef 90       	pop	r14
  bc:	df 90       	pop	r13
  be:	cf 90       	pop	r12
  c0:	bf 90       	pop	r11
  c2:	af 90       	pop	r10
  c4:	9f 90       	pop	r9
  c6:	8f 90       	pop	r8
  c8:	08 95       	ret

Disassembly of section .text._ZNK6String11lastIndexOfERKS_:

00000000 <_ZNK6String11lastIndexOfERKS_>:
   0:	fc 01       	movw	r30, r24
   2:	db 01       	movw	r26, r22
   4:	44 81       	ldd	r20, Z+4	; 0x04
   6:	55 81       	ldd	r21, Z+5	; 0x05
   8:	14 96       	adiw	r26, 0x04	; 4
   a:	8d 91       	ld	r24, X+
   c:	9c 91       	ld	r25, X
   e:	15 97       	sbiw	r26, 0x05	; 5
  10:	48 1b       	sub	r20, r24
  12:	59 0b       	sbc	r21, r25
  14:	cf 01       	movw	r24, r30
  16:	0e 94 00 00 	call	0	; 0x0 <_ZNK6String11lastIndexOfERKS_>
  1a:	08 95       	ret

Disassembly of section .text._ZNK6String4trimEv:

00000000 <_ZNK6String4trimEv>:
   0:	af 92       	push	r10
   2:	bf 92       	push	r11
   4:	cf 92       	push	r12
   6:	df 92       	push	r13
   8:	ef 92       	push	r14
   a:	ff 92       	push	r15
   c:	0f 93       	push	r16
   e:	1f 93       	push	r17
  10:	df 93       	push	r29
  12:	cf 93       	push	r28
  14:	00 d0       	rcall	.+0      	; 0x16 <_ZNK6String4trimEv+0x16>
  16:	00 d0       	rcall	.+0      	; 0x18 <_ZNK6String4trimEv+0x18>
  18:	00 d0       	rcall	.+0      	; 0x1a <_ZNK6String4trimEv+0x1a>
  1a:	cd b7       	in	r28, 0x3d	; 61
  1c:	de b7       	in	r29, 0x3e	; 62
  1e:	5c 01       	movw	r10, r24
  20:	8b 01       	movw	r16, r22
  22:	db 01       	movw	r26, r22
  24:	6d 91       	ld	r22, X+
  26:	7c 91       	ld	r23, X
  28:	61 15       	cp	r22, r1
  2a:	71 05       	cpc	r23, r1
  2c:	01 f4       	brne	.+0      	; 0x2e <_ZNK6String4trimEv+0x2e>
  2e:	b8 01       	movw	r22, r16
  30:	0e 94 00 00 	call	0	; 0x0 <_ZNK6String4trimEv>
  34:	00 c0       	rjmp	.+0      	; 0x36 <_ZNK6String4trimEv+0x36>
  36:	ce 01       	movw	r24, r28
  38:	01 96       	adiw	r24, 0x01	; 1
  3a:	0e 94 00 00 	call	0	; 0x0 <_ZNK6String4trimEv>
  3e:	f8 01       	movw	r30, r16
  40:	e4 80       	ldd	r14, Z+4	; 0x04
  42:	f5 80       	ldd	r15, Z+5	; 0x05
  44:	cc 24       	eor	r12, r12
  46:	dd 24       	eor	r13, r13
  48:	00 c0       	rjmp	.+0      	; 0x4a <_ZNK6String4trimEv+0x4a>
  4a:	d8 01       	movw	r26, r16
  4c:	ed 91       	ld	r30, X+
  4e:	fc 91       	ld	r31, X
  50:	ec 0d       	add	r30, r12
  52:	fd 1d       	adc	r31, r13
  54:	80 81       	ld	r24, Z
  56:	90 e0       	ldi	r25, 0x00	; 0
  58:	0e 94 00 00 	call	0	; 0x0 <_ZNK6String4trimEv>
  5c:	89 2b       	or	r24, r25
  5e:	01 f0       	breq	.+0      	; 0x60 <_ZNK6String4trimEv+0x60>
  60:	08 94       	sec
  62:	c1 1c       	adc	r12, r1
  64:	d1 1c       	adc	r13, r1
  66:	ce 14       	cp	r12, r14
  68:	df 04       	cpc	r13, r15
  6a:	00 f0       	brcs	.+0      	; 0x6c <_ZNK6String4trimEv+0x6c>
  6c:	ed 80       	ldd	r14, Y+5	; 0x05
  6e:	fe 80       	ldd	r15, Y+6	; 0x06
  70:	00 c0       	rjmp	.+0      	; 0x72 <_ZNK6String4trimEv+0x72>
  72:	d8 01       	movw	r26, r16
  74:	ed 91       	ld	r30, X+
  76:	fc 91       	ld	r31, X
  78:	ee 0d       	add	r30, r14
  7a:	ff 1d       	adc	r31, r15
  7c:	80 81       	ld	r24, Z
  7e:	90 e0       	ldi	r25, 0x00	; 0
  80:	0e 94 00 00 	call	0	; 0x0 <_ZNK6String4trimEv>
  84:	89 2b       	or	r24, r25
  86:	01 f0       	breq	.+0      	; 0x88 <_ZNK6String4trimEv+0x88>
  88:	08 94       	sec
  8a:	e1 08       	sbc	r14, r1
  8c:	f1 08       	sbc	r15, r1
  8e:	ce 14       	cp	r12, r14
  90:	df 04       	cpc	r13, r15
  92:	00 f0       	brcs	.+0      	; 0x94 <_ZNK6String4trimEv+0x94>
  94:	08 94       	sec
  96:	e1 1c       	adc	r14, r1
  98:	f1 1c       	adc	r15, r1
  9a:	c5 01       	movw	r24, r10
  9c:	8e 01       	movw	r16, r28
  9e:	0f 5f       	subi	r16, 0xFF	; 255
  a0:	1f 4f       	sbci	r17, 0xFF	; 255
  a2:	b8 01       	movw	r22, r16
  a4:	a6 01       	movw	r20, r12
  a6:	97 01       	movw	r18, r14
  a8:	0e 94 00 00 	call	0	; 0x0 <_ZNK6String4trimEv>
  ac:	c8 01       	movw	r24, r16
  ae:	0e 94 00 00 	call	0	; 0x0 <_ZNK6String4trimEv>
  b2:	c5 01       	movw	r24, r10
  b4:	26 96       	adiw	r28, 0x06	; 6
  b6:	0f b6       	in	r0, 0x3f	; 63
  b8:	f8 94       	cli
  ba:	de bf       	out	0x3e, r29	; 62
  bc:	0f be       	out	0x3f, r0	; 63
  be:	cd bf       	out	0x3d, r28	; 61
  c0:	cf 91       	pop	r28
  c2:	df 91       	pop	r29
  c4:	1f 91       	pop	r17
  c6:	0f 91       	pop	r16
  c8:	ff 90       	pop	r15
  ca:	ef 90       	pop	r14
  cc:	df 90       	pop	r13
  ce:	cf 90       	pop	r12
  d0:	bf 90       	pop	r11
  d2:	af 90       	pop	r10
  d4:	08 95       	ret

Disassembly of section .text._ZN6String7replaceERKS_S1_:

00000000 <_ZN6String7replaceERKS_S1_>:
   0:	2f 92       	push	r2
   2:	3f 92       	push	r3
   4:	4f 92       	push	r4
   6:	5f 92       	push	r5
   8:	6f 92       	push	r6
   a:	7f 92       	push	r7
   c:	8f 92       	push	r8
   e:	9f 92       	push	r9
  10:	af 92       	push	r10
  12:	bf 92       	push	r11
  14:	cf 92       	push	r12
  16:	df 92       	push	r13
  18:	ef 92       	push	r14
  1a:	ff 92       	push	r15
  1c:	0f 93       	push	r16
  1e:	1f 93       	push	r17
  20:	df 93       	push	r29
  22:	cf 93       	push	r28
  24:	cd b7       	in	r28, 0x3d	; 61
  26:	de b7       	in	r29, 0x3e	; 62
  28:	68 97       	sbiw	r28, 0x18	; 24
  2a:	0f b6       	in	r0, 0x3f	; 63
  2c:	f8 94       	cli
  2e:	de bf       	out	0x3e, r29	; 62
  30:	0f be       	out	0x3f, r0	; 63
  32:	cd bf       	out	0x3d, r28	; 61
  34:	3c 01       	movw	r6, r24
  36:	fb 01       	movw	r30, r22
  38:	2a 01       	movw	r4, r20
  3a:	19 01       	movw	r2, r18
  3c:	60 81       	ld	r22, Z
  3e:	71 81       	ldd	r23, Z+1	; 0x01
  40:	61 15       	cp	r22, r1
  42:	71 05       	cpc	r23, r1
  44:	01 f4       	brne	.+0      	; 0x46 <_ZN6String7replaceERKS_S1_+0x46>
  46:	bf 01       	movw	r22, r30
  48:	0e 94 00 00 	call	0	; 0x0 <_ZN6String7replaceERKS_S1_>
  4c:	00 c0       	rjmp	.+0      	; 0x4e <_ZN6String7replaceERKS_S1_+0x4e>
  4e:	7e 01       	movw	r14, r28
  50:	08 94       	sec
  52:	e1 1c       	adc	r14, r1
  54:	f1 1c       	adc	r15, r1
  56:	c7 01       	movw	r24, r14
  58:	0e 94 00 00 	call	0	; 0x0 <_ZN6String7replaceERKS_S1_>
  5c:	8e 01       	movw	r16, r28
  5e:	09 5f       	subi	r16, 0xF9	; 249
  60:	1f 4f       	sbci	r17, 0xFF	; 255
  62:	c8 01       	movw	r24, r16
  64:	60 e0       	ldi	r22, 0x00	; 0
  66:	70 e0       	ldi	r23, 0x00	; 0
  68:	0e 94 00 00 	call	0	; 0x0 <_ZN6String7replaceERKS_S1_>
  6c:	d0 2e       	mov	r13, r16
  6e:	c1 2e       	mov	r12, r17
  70:	3d e0       	ldi	r19, 0x0D	; 13
  72:	83 2e       	mov	r8, r19
  74:	91 2c       	mov	r9, r1
  76:	8c 0e       	add	r8, r28
  78:	9d 1e       	adc	r9, r29
  7a:	23 e1       	ldi	r18, 0x13	; 19
  7c:	a2 2e       	mov	r10, r18
  7e:	b1 2c       	mov	r11, r1
  80:	ac 0e       	add	r10, r28
  82:	bd 1e       	adc	r11, r29
  84:	00 c0       	rjmp	.+0      	; 0x86 <_ZN6String7replaceERKS_S1_+0x86>
  86:	c4 01       	movw	r24, r8
  88:	b7 01       	movw	r22, r14
  8a:	40 e0       	ldi	r20, 0x00	; 0
  8c:	50 e0       	ldi	r21, 0x00	; 0
  8e:	98 01       	movw	r18, r16
  90:	0e 94 00 00 	call	0	; 0x0 <_ZN6String7replaceERKS_S1_>
  94:	8d 2d       	mov	r24, r13
  96:	9c 2d       	mov	r25, r12
  98:	b4 01       	movw	r22, r8
  9a:	0e 94 00 00 	call	0	; 0x0 <_ZN6String7replaceERKS_S1_>
  9e:	c4 01       	movw	r24, r8
  a0:	0e 94 00 00 	call	0	; 0x0 <_ZN6String7replaceERKS_S1_>
  a4:	8d 2d       	mov	r24, r13
  a6:	9c 2d       	mov	r25, r12
  a8:	b1 01       	movw	r22, r2
  aa:	0e 94 00 00 	call	0	; 0x0 <_ZN6String7replaceERKS_S1_>
  ae:	f2 01       	movw	r30, r4
  b0:	44 81       	ldd	r20, Z+4	; 0x04
  b2:	55 81       	ldd	r21, Z+5	; 0x05
  b4:	40 0f       	add	r20, r16
  b6:	51 1f       	adc	r21, r17
  b8:	c5 01       	movw	r24, r10
  ba:	b7 01       	movw	r22, r14
  bc:	0e 94 00 00 	call	0	; 0x0 <_ZN6String7replaceERKS_S1_>
  c0:	c7 01       	movw	r24, r14
  c2:	b5 01       	movw	r22, r10
  c4:	0e 94 00 00 	call	0	; 0x0 <_ZN6String7replaceERKS_S1_>
  c8:	c5 01       	movw	r24, r10
  ca:	0e 94 00 00 	call	0	; 0x0 <_ZN6String7replaceERKS_S1_>
  ce:	c7 01       	movw	r24, r14
  d0:	b2 01       	movw	r22, r4
  d2:	0e 94 00 00 	call	0	; 0x0 <_ZN6String7replaceERKS_S1_>
  d6:	8c 01       	movw	r16, r24
  d8:	ff ef       	ldi	r31, 0xFF	; 255
  da:	8f 3f       	cpi	r24, 0xFF	; 255
  dc:	9f 07       	cpc	r25, r31
  de:	01 f4       	brne	.+0      	; 0xe0 <_ZN6String7replaceERKS_S1_+0xe0>
  e0:	8d 2d       	mov	r24, r13
  e2:	9c 2d       	mov	r25, r12
  e4:	b7 01       	movw	r22, r14
  e6:	0e 94 00 00 	call	0	; 0x0 <_ZN6String7replaceERKS_S1_>
  ea:	c3 01       	movw	r24, r6
  ec:	6d 2d       	mov	r22, r13
  ee:	7c 2d       	mov	r23, r12
  f0:	0e 94 00 00 	call	0	; 0x0 <_ZN6String7replaceERKS_S1_>
  f4:	8d 2d       	mov	r24, r13
  f6:	9c 2d       	mov	r25, r12
  f8:	0e 94 00 00 	call	0	; 0x0 <_ZN6String7replaceERKS_S1_>
  fc:	c7 01       	movw	r24, r14
  fe:	0e 94 00 00 	call	0	; 0x0 <_ZN6String7replaceERKS_S1_>
 102:	c3 01       	movw	r24, r6
 104:	68 96       	adiw	r28, 0x18	; 24
 106:	0f b6       	in	r0, 0x3f	; 63
 108:	f8 94       	cli
 10a:	de bf       	out	0x3e, r29	; 62
 10c:	0f be       	out	0x3f, r0	; 63
 10e:	cd bf       	out	0x3d, r28	; 61
 110:	cf 91       	pop	r28
 112:	df 91       	pop	r29
 114:	1f 91       	pop	r17
 116:	0f 91       	pop	r16
 118:	ff 90       	pop	r15
 11a:	ef 90       	pop	r14
 11c:	df 90       	pop	r13
 11e:	cf 90       	pop	r12
 120:	bf 90       	pop	r11
 122:	af 90       	pop	r10
 124:	9f 90       	pop	r9
 126:	8f 90       	pop	r8
 128:	7f 90       	pop	r7
 12a:	6f 90       	pop	r6
 12c:	5f 90       	pop	r5
 12e:	4f 90       	pop	r4
 130:	3f 90       	pop	r3
 132:	2f 90       	pop	r2
 134:	08 95       	ret

Disassembly of section .text._ZN6String7replaceEcc:

00000000 <_ZN6String7replaceEcc>:
   0:	ef 92       	push	r14
   2:	ff 92       	push	r15
   4:	0f 93       	push	r16
   6:	1f 93       	push	r17
   8:	df 93       	push	r29
   a:	cf 93       	push	r28
   c:	00 d0       	rcall	.+0      	; 0xe <_ZN6String7replaceEcc+0xe>
   e:	00 d0       	rcall	.+0      	; 0x10 <_ZN6String7replaceEcc+0x10>
  10:	00 d0       	rcall	.+0      	; 0x12 <_ZN6String7replaceEcc+0x12>
  12:	cd b7       	in	r28, 0x3d	; 61
  14:	de b7       	in	r29, 0x3e	; 62
  16:	7c 01       	movw	r14, r24
  18:	fb 01       	movw	r30, r22
  1a:	14 2f       	mov	r17, r20
  1c:	02 2f       	mov	r16, r18
  1e:	60 81       	ld	r22, Z
  20:	71 81       	ldd	r23, Z+1	; 0x01
  22:	61 15       	cp	r22, r1
  24:	71 05       	cpc	r23, r1
  26:	01 f4       	brne	.+0      	; 0x28 <_ZN6String7replaceEcc+0x28>
  28:	bf 01       	movw	r22, r30
  2a:	0e 94 00 00 	call	0	; 0x0 <_ZN6String7replaceEcc>
  2e:	00 c0       	rjmp	.+0      	; 0x30 <_ZN6String7replaceEcc+0x30>
  30:	ce 01       	movw	r24, r28
  32:	01 96       	adiw	r24, 0x01	; 1
  34:	0e 94 00 00 	call	0	; 0x0 <_ZN6String7replaceEcc>
  38:	89 81       	ldd	r24, Y+1	; 0x01
  3a:	9a 81       	ldd	r25, Y+2	; 0x02
  3c:	00 c0       	rjmp	.+0      	; 0x3e <_ZN6String7replaceEcc+0x3e>
  3e:	00 83       	st	Z, r16
  40:	61 2f       	mov	r22, r17
  42:	70 e0       	ldi	r23, 0x00	; 0
  44:	0e 94 00 00 	call	0	; 0x0 <_ZN6String7replaceEcc>
  48:	fc 01       	movw	r30, r24
  4a:	00 97       	sbiw	r24, 0x00	; 0
  4c:	01 f4       	brne	.+0      	; 0x4e <_ZN6String7replaceEcc+0x4e>
  4e:	c7 01       	movw	r24, r14
  50:	8e 01       	movw	r16, r28
  52:	0f 5f       	subi	r16, 0xFF	; 255
  54:	1f 4f       	sbci	r17, 0xFF	; 255
  56:	b8 01       	movw	r22, r16
  58:	0e 94 00 00 	call	0	; 0x0 <_ZN6String7replaceEcc>
  5c:	c8 01       	movw	r24, r16
  5e:	0e 94 00 00 	call	0	; 0x0 <_ZN6String7replaceEcc>
  62:	c7 01       	movw	r24, r14
  64:	26 96       	adiw	r28, 0x06	; 6
  66:	0f b6       	in	r0, 0x3f	; 63
  68:	f8 94       	cli
  6a:	de bf       	out	0x3e, r29	; 62
  6c:	0f be       	out	0x3f, r0	; 63
  6e:	cd bf       	out	0x3d, r28	; 61
  70:	cf 91       	pop	r28
  72:	df 91       	pop	r29
  74:	1f 91       	pop	r17
  76:	0f 91       	pop	r16
  78:	ff 90       	pop	r15
  7a:	ef 90       	pop	r14
  7c:	08 95       	ret

Disassembly of section .text._ZN6StringC2EPKc:

00000000 <_ZN6StringC2EPKc>:
   0:	0f 93       	push	r16
   2:	1f 93       	push	r17
   4:	cf 93       	push	r28
   6:	df 93       	push	r29
   8:	8c 01       	movw	r16, r24
   a:	eb 01       	movw	r28, r22
   c:	61 15       	cp	r22, r1
   e:	71 05       	cpc	r23, r1
  10:	01 f4       	brne	.+0      	; 0x12 <_ZN6StringC2EPKc+0x12>
  12:	c0 e0       	ldi	r28, 0x00	; 0
  14:	d0 e0       	ldi	r29, 0x00	; 0
  16:	fe 01       	movw	r30, r28
  18:	01 90       	ld	r0, Z+
  1a:	00 20       	and	r0, r0
  1c:	01 f4       	brne	.+0      	; 0x1e <_ZN6StringC2EPKc+0x1e>
  1e:	31 97       	sbiw	r30, 0x01	; 1
  20:	ec 1b       	sub	r30, r28
  22:	fd 0b       	sbc	r31, r29
  24:	d8 01       	movw	r26, r16
  26:	15 96       	adiw	r26, 0x05	; 5
  28:	fc 93       	st	X, r31
  2a:	ee 93       	st	-X, r30
  2c:	14 97       	sbiw	r26, 0x04	; 4
  2e:	c8 01       	movw	r24, r16
  30:	bf 01       	movw	r22, r30
  32:	0e 94 00 00 	call	0	; 0x0 <_ZN6StringC2EPKc>
  36:	f8 01       	movw	r30, r16
  38:	80 81       	ld	r24, Z
  3a:	91 81       	ldd	r25, Z+1	; 0x01
  3c:	00 97       	sbiw	r24, 0x00	; 0
  3e:	01 f0       	breq	.+0      	; 0x40 <_ZN6StringC2EPKc+0x40>
  40:	be 01       	movw	r22, r28
  42:	0e 94 00 00 	call	0	; 0x0 <_ZN6StringC2EPKc>
  46:	df 91       	pop	r29
  48:	cf 91       	pop	r28
  4a:	1f 91       	pop	r17
  4c:	0f 91       	pop	r16
  4e:	08 95       	ret

Disassembly of section .text._ZN6StringC1Eli:

00000000 <_ZN6StringC1Eli>:
   0:	ef 92       	push	r14
   2:	ff 92       	push	r15
   4:	0f 93       	push	r16
   6:	1f 93       	push	r17
   8:	df 93       	push	r29
   a:	cf 93       	push	r28
   c:	cd b7       	in	r28, 0x3d	; 61
   e:	de b7       	in	r29, 0x3e	; 62
  10:	a1 97       	sbiw	r28, 0x21	; 33
  12:	0f b6       	in	r0, 0x3f	; 63
  14:	f8 94       	cli
  16:	de bf       	out	0x3e, r29	; 62
  18:	0f be       	out	0x3f, r0	; 63
  1a:	cd bf       	out	0x3d, r28	; 61
  1c:	8c 01       	movw	r16, r24
  1e:	cb 01       	movw	r24, r22
  20:	ba 01       	movw	r22, r20
  22:	7e 01       	movw	r14, r28
  24:	08 94       	sec
  26:	e1 1c       	adc	r14, r1
  28:	f1 1c       	adc	r15, r1
  2a:	a7 01       	movw	r20, r14
  2c:	0e 94 00 00 	call	0	; 0x0 <_ZN6StringC1Eli>
  30:	f7 01       	movw	r30, r14
  32:	01 90       	ld	r0, Z+
  34:	00 20       	and	r0, r0
  36:	01 f4       	brne	.+0      	; 0x38 <_ZN6StringC1Eli+0x38>
  38:	31 97       	sbiw	r30, 0x01	; 1
  3a:	ee 19       	sub	r30, r14
  3c:	ff 09       	sbc	r31, r15
  3e:	d8 01       	movw	r26, r16
  40:	15 96       	adiw	r26, 0x05	; 5
  42:	fc 93       	st	X, r31
  44:	ee 93       	st	-X, r30
  46:	14 97       	sbiw	r26, 0x04	; 4
  48:	c8 01       	movw	r24, r16
  4a:	bf 01       	movw	r22, r30
  4c:	0e 94 00 00 	call	0	; 0x0 <_ZN6StringC1Eli>
  50:	f8 01       	movw	r30, r16
  52:	80 81       	ld	r24, Z
  54:	91 81       	ldd	r25, Z+1	; 0x01
  56:	00 97       	sbiw	r24, 0x00	; 0
  58:	01 f0       	breq	.+0      	; 0x5a <_ZN6StringC1Eli+0x5a>
  5a:	b7 01       	movw	r22, r14
  5c:	0e 94 00 00 	call	0	; 0x0 <_ZN6StringC1Eli>
  60:	a1 96       	adiw	r28, 0x21	; 33
  62:	0f b6       	in	r0, 0x3f	; 63
  64:	f8 94       	cli
  66:	de bf       	out	0x3e, r29	; 62
  68:	0f be       	out	0x3f, r0	; 63
  6a:	cd bf       	out	0x3d, r28	; 61
  6c:	cf 91       	pop	r28
  6e:	df 91       	pop	r29
  70:	1f 91       	pop	r17
  72:	0f 91       	pop	r16
  74:	ff 90       	pop	r15
  76:	ef 90       	pop	r14
  78:	08 95       	ret

Disassembly of section .text._ZN6StringC2Eli:

00000000 <_ZN6StringC2Eli>:
   0:	ef 92       	push	r14
   2:	ff 92       	push	r15
   4:	0f 93       	push	r16
   6:	1f 93       	push	r17
   8:	df 93       	push	r29
   a:	cf 93       	push	r28
   c:	cd b7       	in	r28, 0x3d	; 61
   e:	de b7       	in	r29, 0x3e	; 62
  10:	a1 97       	sbiw	r28, 0x21	; 33
  12:	0f b6       	in	r0, 0x3f	; 63
  14:	f8 94       	cli
  16:	de bf       	out	0x3e, r29	; 62
  18:	0f be       	out	0x3f, r0	; 63
  1a:	cd bf       	out	0x3d, r28	; 61
  1c:	8c 01       	movw	r16, r24
  1e:	cb 01       	movw	r24, r22
  20:	ba 01       	movw	r22, r20
  22:	7e 01       	movw	r14, r28
  24:	08 94       	sec
  26:	e1 1c       	adc	r14, r1
  28:	f1 1c       	adc	r15, r1
  2a:	a7 01       	movw	r20, r14
  2c:	0e 94 00 00 	call	0	; 0x0 <_ZN6StringC2Eli>
  30:	f7 01       	movw	r30, r14
  32:	01 90       	ld	r0, Z+
  34:	00 20       	and	r0, r0
  36:	01 f4       	brne	.+0      	; 0x38 <_ZN6StringC2Eli+0x38>
  38:	31 97       	sbiw	r30, 0x01	; 1
  3a:	ee 19       	sub	r30, r14
  3c:	ff 09       	sbc	r31, r15
  3e:	d8 01       	movw	r26, r16
  40:	15 96       	adiw	r26, 0x05	; 5
  42:	fc 93       	st	X, r31
  44:	ee 93       	st	-X, r30
  46:	14 97       	sbiw	r26, 0x04	; 4
  48:	c8 01       	movw	r24, r16
  4a:	bf 01       	movw	r22, r30
  4c:	0e 94 00 00 	call	0	; 0x0 <_ZN6StringC2Eli>
  50:	f8 01       	movw	r30, r16
  52:	80 81       	ld	r24, Z
  54:	91 81       	ldd	r25, Z+1	; 0x01
  56:	00 97       	sbiw	r24, 0x00	; 0
  58:	01 f0       	breq	.+0      	; 0x5a <_ZN6StringC2Eli+0x5a>
  5a:	b7 01       	movw	r22, r14
  5c:	0e 94 00 00 	call	0	; 0x0 <_ZN6StringC2Eli>
  60:	a1 96       	adiw	r28, 0x21	; 33
  62:	0f b6       	in	r0, 0x3f	; 63
  64:	f8 94       	cli
  66:	de bf       	out	0x3e, r29	; 62
  68:	0f be       	out	0x3f, r0	; 63
  6a:	cd bf       	out	0x3d, r28	; 61
  6c:	cf 91       	pop	r28
  6e:	df 91       	pop	r29
  70:	1f 91       	pop	r17
  72:	0f 91       	pop	r16
  74:	ff 90       	pop	r15
  76:	ef 90       	pop	r14
  78:	08 95       	ret

Disassembly of section .text._ZN6StringC1Eii:

00000000 <_ZN6StringC1Eii>:
   0:	ef 92       	push	r14
   2:	ff 92       	push	r15
   4:	0f 93       	push	r16
   6:	1f 93       	push	r17
   8:	df 93       	push	r29
   a:	cf 93       	push	r28
   c:	cd b7       	in	r28, 0x3d	; 61
   e:	de b7       	in	r29, 0x3e	; 62
  10:	a1 97       	sbiw	r28, 0x21	; 33
  12:	0f b6       	in	r0, 0x3f	; 63
  14:	f8 94       	cli
  16:	de bf       	out	0x3e, r29	; 62
  18:	0f be       	out	0x3f, r0	; 63
  1a:	cd bf       	out	0x3d, r28	; 61
  1c:	8c 01       	movw	r16, r24
  1e:	cb 01       	movw	r24, r22
  20:	7e 01       	movw	r14, r28
  22:	08 94       	sec
  24:	e1 1c       	adc	r14, r1
  26:	f1 1c       	adc	r15, r1
  28:	b7 01       	movw	r22, r14
  2a:	0e 94 00 00 	call	0	; 0x0 <_ZN6StringC1Eii>
  2e:	f7 01       	movw	r30, r14
  30:	01 90       	ld	r0, Z+
  32:	00 20       	and	r0, r0
  34:	01 f4       	brne	.+0      	; 0x36 <_ZN6StringC1Eii+0x36>
  36:	31 97       	sbiw	r30, 0x01	; 1
  38:	ee 19       	sub	r30, r14
  3a:	ff 09       	sbc	r31, r15
  3c:	d8 01       	movw	r26, r16
  3e:	15 96       	adiw	r26, 0x05	; 5
  40:	fc 93       	st	X, r31
  42:	ee 93       	st	-X, r30
  44:	14 97       	sbiw	r26, 0x04	; 4
  46:	c8 01       	movw	r24, r16
  48:	bf 01       	movw	r22, r30
  4a:	0e 94 00 00 	call	0	; 0x0 <_ZN6StringC1Eii>
  4e:	f8 01       	movw	r30, r16
  50:	80 81       	ld	r24, Z
  52:	91 81       	ldd	r25, Z+1	; 0x01
  54:	00 97       	sbiw	r24, 0x00	; 0
  56:	01 f0       	breq	.+0      	; 0x58 <_ZN6StringC1Eii+0x58>
  58:	b7 01       	movw	r22, r14
  5a:	0e 94 00 00 	call	0	; 0x0 <_ZN6StringC1Eii>
  5e:	a1 96       	adiw	r28, 0x21	; 33
  60:	0f b6       	in	r0, 0x3f	; 63
  62:	f8 94       	cli
  64:	de bf       	out	0x3e, r29	; 62
  66:	0f be       	out	0x3f, r0	; 63
  68:	cd bf       	out	0x3d, r28	; 61
  6a:	cf 91       	pop	r28
  6c:	df 91       	pop	r29
  6e:	1f 91       	pop	r17
  70:	0f 91       	pop	r16
  72:	ff 90       	pop	r15
  74:	ef 90       	pop	r14
  76:	08 95       	ret

Disassembly of section .text._ZN6StringC2Eii:

00000000 <_ZN6StringC2Eii>:
   0:	ef 92       	push	r14
   2:	ff 92       	push	r15
   4:	0f 93       	push	r16
   6:	1f 93       	push	r17
   8:	df 93       	push	r29
   a:	cf 93       	push	r28
   c:	cd b7       	in	r28, 0x3d	; 61
   e:	de b7       	in	r29, 0x3e	; 62
  10:	a1 97       	sbiw	r28, 0x21	; 33
  12:	0f b6       	in	r0, 0x3f	; 63
  14:	f8 94       	cli
  16:	de bf       	out	0x3e, r29	; 62
  18:	0f be       	out	0x3f, r0	; 63
  1a:	cd bf       	out	0x3d, r28	; 61
  1c:	8c 01       	movw	r16, r24
  1e:	cb 01       	movw	r24, r22
  20:	7e 01       	movw	r14, r28
  22:	08 94       	sec
  24:	e1 1c       	adc	r14, r1
  26:	f1 1c       	adc	r15, r1
  28:	b7 01       	movw	r22, r14
  2a:	0e 94 00 00 	call	0	; 0x0 <_ZN6StringC2Eii>
  2e:	f7 01       	movw	r30, r14
  30:	01 90       	ld	r0, Z+
  32:	00 20       	and	r0, r0
  34:	01 f4       	brne	.+0      	; 0x36 <_ZN6StringC2Eii+0x36>
  36:	31 97       	sbiw	r30, 0x01	; 1
  38:	ee 19       	sub	r30, r14
  3a:	ff 09       	sbc	r31, r15
  3c:	d8 01       	movw	r26, r16
  3e:	15 96       	adiw	r26, 0x05	; 5
  40:	fc 93       	st	X, r31
  42:	ee 93       	st	-X, r30
  44:	14 97       	sbiw	r26, 0x04	; 4
  46:	c8 01       	movw	r24, r16
  48:	bf 01       	movw	r22, r30
  4a:	0e 94 00 00 	call	0	; 0x0 <_ZN6StringC2Eii>
  4e:	f8 01       	movw	r30, r16
  50:	80 81       	ld	r24, Z
  52:	91 81       	ldd	r25, Z+1	; 0x01
  54:	00 97       	sbiw	r24, 0x00	; 0
  56:	01 f0       	breq	.+0      	; 0x58 <_ZN6StringC2Eii+0x58>
  58:	b7 01       	movw	r22, r14
  5a:	0e 94 00 00 	call	0	; 0x0 <_ZN6StringC2Eii>
  5e:	a1 96       	adiw	r28, 0x21	; 33
  60:	0f b6       	in	r0, 0x3f	; 63
  62:	f8 94       	cli
  64:	de bf       	out	0x3e, r29	; 62
  66:	0f be       	out	0x3f, r0	; 63
  68:	cd bf       	out	0x3d, r28	; 61
  6a:	cf 91       	pop	r28
  6c:	df 91       	pop	r29
  6e:	1f 91       	pop	r17
  70:	0f 91       	pop	r16
  72:	ff 90       	pop	r15
  74:	ef 90       	pop	r14
  76:	08 95       	ret

missing.o:     file format elf32-avr

Sections:
Idx Name          Size      VMA       LMA       File off  Algn
  0 .text         00000000  00000000  00000000  00000034  2**0
                  CONTENTS, ALLOC, LOAD, READONLY, CODE
  1 .data         00000000  00000000  00000000  00000034  2**0
                  CONTENTS, ALLOC, LOAD, DATA
  2 .bss          00000000  00000000  00000000  00000034  2**0
                  ALLOC
  3 .text.__cxa_pure_virtual 00000002  00000000  00000000  00000034  2**0
                  CONTENTS, ALLOC, LOAD, RELOC, READONLY, CODE

Disassembly of section .text.__cxa_pure_virtual:

00000000 <__cxa_pure_virtual>:
   0:	00 c0       	rjmp	.+0      	; 0x2 <__zero_reg__+0x1>

pins_arduino.o:     file format elf32-avr

Sections:
Idx Name          Size      VMA       LMA       File off  Algn
  0 .text         00000000  00000000  00000000  00000034  2**0
                  CONTENTS, ALLOC, LOAD, READONLY, CODE
  1 .data         00000000  00000000  00000000  00000034  2**0
                  CONTENTS, ALLOC, LOAD, DATA
  2 .bss          00000000  00000000  00000000  00000034  2**0
                  ALLOC
  3 .progmem.data 0000005a  00000000  00000000  00000034  2**0
                  CONTENTS, ALLOC, LOAD, READONLY, DATA

wiring.o:     file format elf32-avr

Sections:
Idx Name          Size      VMA       LMA       File off  Algn
  0 .text         00000000  00000000  00000000  00000034  2**0
                  CONTENTS, ALLOC, LOAD, READONLY, CODE
  1 .data         00000000  00000000  00000000  00000034  2**0
                  CONTENTS, ALLOC, LOAD, DATA
  2 .bss          00000000  00000000  00000000  00000034  2**0
                  ALLOC
  3 .text.__vector_16 00000090  00000000  00000000  00000034  2**0
                  CONTENTS, ALLOC, LOAD, RELOC, READONLY, CODE
  4 .text.millis  0000001c  00000000  00000000  000000c4  2**0
                  CONTENTS, ALLOC, LOAD, RELOC, READONLY, CODE
  5 .text.micros  0000004c  00000000  00000000  000000e0  2**0
                  CONTENTS, ALLOC, LOAD, RELOC, READONLY, CODE
  6 .text.delay   0000004c  00000000  00000000  0000012c  2**0
                  CONTENTS, ALLOC, LOAD, RELOC, READONLY, CODE
  7 .text.delayMicroseconds 00000014  00000000  00000000  00000178  2**0
                  CONTENTS, ALLOC, LOAD, RELOC, READONLY, CODE
  8 .text.init    00000076  00000000  00000000  0000018c  2**0
                  CONTENTS, ALLOC, LOAD, READONLY, CODE
  9 .bss.timer0_overflow_count 00000004  00000000  00000000  00000202  2**0
                  ALLOC
 10 .bss.timer0_millis 00000004  00000000  00000000  00000202  2**0
                  ALLOC
 11 .bss.timer0_fract 00000001  00000000  00000000  00000202  2**0
                  ALLOC

Disassembly of section .text.__vector_16:

00000000 <__vector_16>:
   0:	1f 92       	push	r1
   2:	0f 92       	push	r0
   4:	0f b6       	in	r0, 0x3f	; 63
   6:	0f 92       	push	r0
   8:	11 24       	eor	r1, r1
   a:	2f 93       	push	r18
   c:	3f 93       	push	r19
   e:	8f 93       	push	r24
  10:	9f 93       	push	r25
  12:	af 93       	push	r26
  14:	bf 93       	push	r27
  16:	80 91 00 00 	lds	r24, 0x0000
  1a:	90 91 00 00 	lds	r25, 0x0000
  1e:	a0 91 00 00 	lds	r26, 0x0000
  22:	b0 91 00 00 	lds	r27, 0x0000
  26:	30 91 00 00 	lds	r19, 0x0000
  2a:	01 96       	adiw	r24, 0x01	; 1
  2c:	a1 1d       	adc	r26, r1
  2e:	b1 1d       	adc	r27, r1
  30:	23 2f       	mov	r18, r19
  32:	2d 5f       	subi	r18, 0xFD	; 253
  34:	2d 37       	cpi	r18, 0x7D	; 125
  36:	00 f0       	brcs	.+0      	; 0x38 <__vector_16+0x38>
  38:	2d 57       	subi	r18, 0x7D	; 125
  3a:	01 96       	adiw	r24, 0x01	; 1
  3c:	a1 1d       	adc	r26, r1
  3e:	b1 1d       	adc	r27, r1
  40:	20 93 00 00 	sts	0x0000, r18
  44:	80 93 00 00 	sts	0x0000, r24
  48:	90 93 00 00 	sts	0x0000, r25
  4c:	a0 93 00 00 	sts	0x0000, r26
  50:	b0 93 00 00 	sts	0x0000, r27
  54:	80 91 00 00 	lds	r24, 0x0000
  58:	90 91 00 00 	lds	r25, 0x0000
  5c:	a0 91 00 00 	lds	r26, 0x0000
  60:	b0 91 00 00 	lds	r27, 0x0000
  64:	01 96       	adiw	r24, 0x01	; 1
  66:	a1 1d       	adc	r26, r1
  68:	b1 1d       	adc	r27, r1
  6a:	80 93 00 00 	sts	0x0000, r24
  6e:	90 93 00 00 	sts	0x0000, r25
  72:	a0 93 00 00 	sts	0x0000, r26
  76:	b0 93 00 00 	sts	0x0000, r27
  7a:	bf 91       	pop	r27
  7c:	af 91       	pop	r26
  7e:	9f 91       	pop	r25
  80:	8f 91       	pop	r24
  82:	3f 91       	pop	r19
  84:	2f 91       	pop	r18
  86:	0f 90       	pop	r0
  88:	0f be       	out	0x3f, r0	; 63
  8a:	0f 90       	pop	r0
  8c:	1f 90       	pop	r1
  8e:	18 95       	reti

Disassembly of section .text.millis:

00000000 <millis>:
   0:	8f b7       	in	r24, 0x3f	; 63
   2:	f8 94       	cli
   4:	20 91 00 00 	lds	r18, 0x0000
   8:	30 91 00 00 	lds	r19, 0x0000
   c:	40 91 00 00 	lds	r20, 0x0000
  10:	50 91 00 00 	lds	r21, 0x0000
  14:	8f bf       	out	0x3f, r24	; 63
  16:	b9 01       	movw	r22, r18
  18:	ca 01       	movw	r24, r20
  1a:	08 95       	ret

Disassembly of section .text.micros:

00000000 <micros>:
   0:	9f b7       	in	r25, 0x3f	; 63
   2:	f8 94       	cli
   4:	20 91 00 00 	lds	r18, 0x0000
   8:	30 91 00 00 	lds	r19, 0x0000
   c:	40 91 00 00 	lds	r20, 0x0000
  10:	50 91 00 00 	lds	r21, 0x0000
  14:	86 b5       	in	r24, 0x26	; 38
  16:	a8 9b       	sbis	0x15, 0	; 21
  18:	00 c0       	rjmp	.+0      	; 0x1a <micros+0x1a>
  1a:	8f 3f       	cpi	r24, 0xFF	; 255
  1c:	01 f0       	breq	.+0      	; 0x1e <micros+0x1e>
  1e:	2f 5f       	subi	r18, 0xFF	; 255
  20:	3f 4f       	sbci	r19, 0xFF	; 255
  22:	4f 4f       	sbci	r20, 0xFF	; 255
  24:	5f 4f       	sbci	r21, 0xFF	; 255
  26:	9f bf       	out	0x3f, r25	; 63
  28:	54 2f       	mov	r21, r20
  2a:	43 2f       	mov	r20, r19
  2c:	32 2f       	mov	r19, r18
  2e:	22 27       	eor	r18, r18
  30:	28 0f       	add	r18, r24
  32:	31 1d       	adc	r19, r1
  34:	41 1d       	adc	r20, r1
  36:	51 1d       	adc	r21, r1
  38:	82 e0       	ldi	r24, 0x02	; 2
  3a:	22 0f       	add	r18, r18
  3c:	33 1f       	adc	r19, r19
  3e:	44 1f       	adc	r20, r20
  40:	55 1f       	adc	r21, r21
  42:	8a 95       	dec	r24
  44:	01 f4       	brne	.+0      	; 0x46 <micros+0x46>
  46:	b9 01       	movw	r22, r18
  48:	ca 01       	movw	r24, r20
  4a:	08 95       	ret

Disassembly of section .text.delay:

00000000 <delay>:
   0:	ef 92       	push	r14
   2:	ff 92       	push	r15
   4:	0f 93       	push	r16
   6:	1f 93       	push	r17
   8:	cf 93       	push	r28
   a:	df 93       	push	r29
   c:	7b 01       	movw	r14, r22
   e:	8c 01       	movw	r16, r24
  10:	0e 94 00 00 	call	0	; 0x0 <delay>
  14:	eb 01       	movw	r28, r22
  16:	00 c0       	rjmp	.+0      	; 0x18 <delay+0x18>
  18:	0e 94 00 00 	call	0	; 0x0 <delay>
  1c:	6c 1b       	sub	r22, r28
  1e:	7d 0b       	sbc	r23, r29
  20:	68 5e       	subi	r22, 0xE8	; 232
  22:	73 40       	sbci	r23, 0x03	; 3
  24:	00 f0       	brcs	.+0      	; 0x26 <delay+0x26>
  26:	08 94       	sec
  28:	e1 08       	sbc	r14, r1
  2a:	f1 08       	sbc	r15, r1
  2c:	01 09       	sbc	r16, r1
  2e:	11 09       	sbc	r17, r1
  30:	c8 51       	subi	r28, 0x18	; 24
  32:	dc 4f       	sbci	r29, 0xFC	; 252
  34:	e1 14       	cp	r14, r1
  36:	f1 04       	cpc	r15, r1
  38:	01 05       	cpc	r16, r1
  3a:	11 05       	cpc	r17, r1
  3c:	01 f4       	brne	.+0      	; 0x3e <delay+0x3e>
  3e:	df 91       	pop	r29
  40:	cf 91       	pop	r28
  42:	1f 91       	pop	r17
  44:	0f 91       	pop	r16
  46:	ff 90       	pop	r15
  48:	ef 90       	pop	r14
  4a:	08 95       	ret

Disassembly of section .text.delayMicroseconds:

00000000 <delayMicroseconds>:
   0:	01 97       	sbiw	r24, 0x01	; 1
   2:	01 f0       	breq	.+0      	; 0x4 <delayMicroseconds+0x4>
   4:	88 0f       	add	r24, r24
   6:	99 1f       	adc	r25, r25
   8:	88 0f       	add	r24, r24
   a:	99 1f       	adc	r25, r25
   c:	02 97       	sbiw	r24, 0x02	; 2
   e:	01 97       	sbiw	r24, 0x01	; 1
  10:	01 f4       	brne	.+0      	; 0x12 <delayMicroseconds+0x12>
  12:	08 95       	ret

Disassembly of section .text.init:

00000000 <init>:
   0:	78 94       	sei
   2:	84 b5       	in	r24, 0x24	; 36
   4:	82 60       	ori	r24, 0x02	; 2
   6:	84 bd       	out	0x24, r24	; 36
   8:	84 b5       	in	r24, 0x24	; 36
   a:	81 60       	ori	r24, 0x01	; 1
   c:	84 bd       	out	0x24, r24	; 36
   e:	85 b5       	in	r24, 0x25	; 37
  10:	82 60       	ori	r24, 0x02	; 2
  12:	85 bd       	out	0x25, r24	; 37
  14:	85 b5       	in	r24, 0x25	; 37
  16:	81 60       	ori	r24, 0x01	; 1
  18:	85 bd       	out	0x25, r24	; 37
  1a:	ee e6       	ldi	r30, 0x6E	; 110
  1c:	f0 e0       	ldi	r31, 0x00	; 0
  1e:	80 81       	ld	r24, Z
  20:	81 60       	ori	r24, 0x01	; 1
  22:	80 83       	st	Z, r24
  24:	e1 e8       	ldi	r30, 0x81	; 129
  26:	f0 e0       	ldi	r31, 0x00	; 0
  28:	10 82       	st	Z, r1
  2a:	80 81       	ld	r24, Z
  2c:	82 60       	ori	r24, 0x02	; 2
  2e:	80 83       	st	Z, r24
  30:	80 81       	ld	r24, Z
  32:	81 60       	ori	r24, 0x01	; 1
  34:	80 83       	st	Z, r24
  36:	e0 e8       	ldi	r30, 0x80	; 128
  38:	f0 e0       	ldi	r31, 0x00	; 0
  3a:	80 81       	ld	r24, Z
  3c:	81 60       	ori	r24, 0x01	; 1
  3e:	80 83       	st	Z, r24
  40:	e1 eb       	ldi	r30, 0xB1	; 177
  42:	f0 e0       	ldi	r31, 0x00	; 0
  44:	80 81       	ld	r24, Z
  46:	84 60       	ori	r24, 0x04	; 4
  48:	80 83       	st	Z, r24
  4a:	e0 eb       	ldi	r30, 0xB0	; 176
  4c:	f0 e0       	ldi	r31, 0x00	; 0
  4e:	80 81       	ld	r24, Z
  50:	81 60       	ori	r24, 0x01	; 1
  52:	80 83       	st	Z, r24
  54:	ea e7       	ldi	r30, 0x7A	; 122
  56:	f0 e0       	ldi	r31, 0x00	; 0
  58:	80 81       	ld	r24, Z
  5a:	84 60       	ori	r24, 0x04	; 4
  5c:	80 83       	st	Z, r24
  5e:	80 81       	ld	r24, Z
  60:	82 60       	ori	r24, 0x02	; 2
  62:	80 83       	st	Z, r24
  64:	80 81       	ld	r24, Z
  66:	81 60       	ori	r24, 0x01	; 1
  68:	80 83       	st	Z, r24
  6a:	80 81       	ld	r24, Z
  6c:	80 68       	ori	r24, 0x80	; 128
  6e:	80 83       	st	Z, r24
  70:	10 92 c1 00 	sts	0x00C1, r1
  74:	08 95       	ret

wiring_analog.o:     file format elf32-avr

Sections:
Idx Name          Size      VMA       LMA       File off  Algn
  0 .text         00000000  00000000  00000000  00000034  2**0
                  CONTENTS, ALLOC, LOAD, READONLY, CODE
  1 .data         00000000  00000000  00000000  00000034  2**0
                  CONTENTS, ALLOC, LOAD, DATA
  2 .bss          00000000  00000000  00000000  00000034  2**0
                  ALLOC
  3 .text.analogReference 00000006  00000000  00000000  00000034  2**0
                  CONTENTS, ALLOC, LOAD, RELOC, READONLY, CODE
  4 .text.analogRead 00000044  00000000  00000000  0000003a  2**0
                  CONTENTS, ALLOC, LOAD, RELOC, READONLY, CODE
  5 .text.analogWrite 000000b2  00000000  00000000  0000007e  2**0
                  CONTENTS, ALLOC, LOAD, RELOC, READONLY, CODE
  6 .data.analog_reference 00000001  00000000  00000000  00000130  2**0
                  CONTENTS, ALLOC, LOAD, DATA

Disassembly of section .text.analogReference:

00000000 <analogReference>:
   0:	80 93 00 00 	sts	0x0000, r24
   4:	08 95       	ret

Disassembly of section .text.analogRead:

00000000 <analogRead>:
   0:	98 2f       	mov	r25, r24
   2:	8e 30       	cpi	r24, 0x0E	; 14
   4:	00 f0       	brcs	.+0      	; 0x6 <analogRead+0x6>
   6:	9e 50       	subi	r25, 0x0E	; 14
   8:	97 70       	andi	r25, 0x07	; 7
   a:	80 91 00 00 	lds	r24, 0x0000
   e:	82 95       	swap	r24
  10:	88 0f       	add	r24, r24
  12:	88 0f       	add	r24, r24
  14:	80 7c       	andi	r24, 0xC0	; 192
  16:	89 2b       	or	r24, r25
  18:	80 93 7c 00 	sts	0x007C, r24
  1c:	80 91 7a 00 	lds	r24, 0x007A
  20:	80 64       	ori	r24, 0x40	; 64
  22:	80 93 7a 00 	sts	0x007A, r24
  26:	80 91 7a 00 	lds	r24, 0x007A
  2a:	86 fd       	sbrc	r24, 6
  2c:	00 c0       	rjmp	.+0      	; 0x2e <analogRead+0x2e>
  2e:	20 91 78 00 	lds	r18, 0x0078
  32:	40 91 79 00 	lds	r20, 0x0079
  36:	94 2f       	mov	r25, r20
  38:	80 e0       	ldi	r24, 0x00	; 0
  3a:	30 e0       	ldi	r19, 0x00	; 0
  3c:	28 2b       	or	r18, r24
  3e:	39 2b       	or	r19, r25
  40:	c9 01       	movw	r24, r18
  42:	08 95       	ret

Disassembly of section .text.analogWrite:

00000000 <analogWrite>:
   0:	1f 93       	push	r17
   2:	cf 93       	push	r28
   4:	df 93       	push	r29
   6:	18 2f       	mov	r17, r24
   8:	eb 01       	movw	r28, r22
   a:	61 e0       	ldi	r22, 0x01	; 1
   c:	0e 94 00 00 	call	0	; 0x0 <analogWrite>
  10:	e1 2f       	mov	r30, r17
  12:	f0 e0       	ldi	r31, 0x00	; 0
  14:	e0 50       	subi	r30, 0x00	; 0
  16:	f0 40       	sbci	r31, 0x00	; 0
  18:	84 91       	lpm	r24, Z+
  1a:	83 30       	cpi	r24, 0x03	; 3
  1c:	01 f4       	brne	.+0      	; 0x1e <analogWrite+0x1e>
  1e:	80 91 80 00 	lds	r24, 0x0080
  22:	80 68       	ori	r24, 0x80	; 128
  24:	80 93 80 00 	sts	0x0080, r24
  28:	d0 93 89 00 	sts	0x0089, r29
  2c:	c0 93 88 00 	sts	0x0088, r28
  30:	00 c0       	rjmp	.+0      	; 0x32 <analogWrite+0x32>
  32:	84 30       	cpi	r24, 0x04	; 4
  34:	01 f4       	brne	.+0      	; 0x36 <analogWrite+0x36>
  36:	80 91 80 00 	lds	r24, 0x0080
  3a:	80 62       	ori	r24, 0x20	; 32
  3c:	80 93 80 00 	sts	0x0080, r24
  40:	d0 93 8b 00 	sts	0x008B, r29
  44:	c0 93 8a 00 	sts	0x008A, r28
  48:	00 c0       	rjmp	.+0      	; 0x4a <analogWrite+0x4a>
  4a:	81 30       	cpi	r24, 0x01	; 1
  4c:	01 f4       	brne	.+0      	; 0x4e <analogWrite+0x4e>
  4e:	20 97       	sbiw	r28, 0x00	; 0
  50:	01 f0       	breq	.+0      	; 0x52 <analogWrite+0x52>
  52:	84 b5       	in	r24, 0x24	; 36
  54:	80 68       	ori	r24, 0x80	; 128
  56:	84 bd       	out	0x24, r24	; 36
  58:	c7 bd       	out	0x27, r28	; 39
  5a:	00 c0       	rjmp	.+0      	; 0x5c <analogWrite+0x5c>
  5c:	82 30       	cpi	r24, 0x02	; 2
  5e:	01 f4       	brne	.+0      	; 0x60 <analogWrite+0x60>
  60:	20 97       	sbiw	r28, 0x00	; 0
  62:	01 f0       	breq	.+0      	; 0x64 <analogWrite+0x64>
  64:	84 b5       	in	r24, 0x24	; 36
  66:	80 62       	ori	r24, 0x20	; 32
  68:	84 bd       	out	0x24, r24	; 36
  6a:	c8 bd       	out	0x28, r28	; 40
  6c:	00 c0       	rjmp	.+0      	; 0x6e <analogWrite+0x6e>
  6e:	86 30       	cpi	r24, 0x06	; 6
  70:	01 f4       	brne	.+0      	; 0x72 <analogWrite+0x72>
  72:	80 91 b0 00 	lds	r24, 0x00B0
  76:	80 68       	ori	r24, 0x80	; 128
  78:	80 93 b0 00 	sts	0x00B0, r24
  7c:	c0 93 b3 00 	sts	0x00B3, r28
  80:	00 c0       	rjmp	.+0      	; 0x82 <analogWrite+0x82>
  82:	87 30       	cpi	r24, 0x07	; 7
  84:	01 f4       	brne	.+0      	; 0x86 <analogWrite+0x86>
  86:	80 91 b0 00 	lds	r24, 0x00B0
  8a:	80 62       	ori	r24, 0x20	; 32
  8c:	80 93 b0 00 	sts	0x00B0, r24
  90:	c0 93 b4 00 	sts	0x00B4, r28
  94:	00 c0       	rjmp	.+0      	; 0x96 <analogWrite+0x96>
  96:	c0 38       	cpi	r28, 0x80	; 128
  98:	d1 05       	cpc	r29, r1
  9a:	04 f4       	brge	.+0      	; 0x9c <analogWrite+0x9c>
  9c:	81 2f       	mov	r24, r17
  9e:	60 e0       	ldi	r22, 0x00	; 0
  a0:	00 c0       	rjmp	.+0      	; 0xa2 <analogWrite+0xa2>
  a2:	81 2f       	mov	r24, r17
  a4:	61 e0       	ldi	r22, 0x01	; 1
  a6:	0e 94 00 00 	call	0	; 0x0 <analogWrite>
  aa:	df 91       	pop	r29
  ac:	cf 91       	pop	r28
  ae:	1f 91       	pop	r17
  b0:	08 95       	ret

wiring_digital.o:     file format elf32-avr

Sections:
Idx Name          Size      VMA       LMA       File off  Algn
  0 .text         00000000  00000000  00000000  00000034  2**0
                  CONTENTS, ALLOC, LOAD, READONLY, CODE
  1 .data         00000000  00000000  00000000  00000034  2**0
                  CONTENTS, ALLOC, LOAD, DATA
  2 .bss          00000000  00000000  00000000  00000034  2**0
                  ALLOC
  3 .text.pinMode 0000004c  00000000  00000000  00000034  2**0
                  CONTENTS, ALLOC, LOAD, RELOC, READONLY, CODE
  4 .text.digitalWrite 000000a8  00000000  00000000  00000080  2**0
                  CONTENTS, ALLOC, LOAD, RELOC, READONLY, CODE
  5 .text.digitalRead 0000009e  00000000  00000000  00000128  2**0
                  CONTENTS, ALLOC, LOAD, RELOC, READONLY, CODE

Disassembly of section .text.pinMode:

00000000 <pinMode>:
   0:	48 2f       	mov	r20, r24
   2:	50 e0       	ldi	r21, 0x00	; 0
   4:	ca 01       	movw	r24, r20
   6:	80 50       	subi	r24, 0x00	; 0
   8:	90 40       	sbci	r25, 0x00	; 0
   a:	fc 01       	movw	r30, r24
   c:	24 91       	lpm	r18, Z+
   e:	40 50       	subi	r20, 0x00	; 0
  10:	50 40       	sbci	r21, 0x00	; 0
  12:	fa 01       	movw	r30, r20
  14:	84 91       	lpm	r24, Z+
  16:	88 23       	and	r24, r24
  18:	01 f0       	breq	.+0      	; 0x1a <pinMode+0x1a>
  1a:	e8 2f       	mov	r30, r24
  1c:	f0 e0       	ldi	r31, 0x00	; 0
  1e:	ee 0f       	add	r30, r30
  20:	ff 1f       	adc	r31, r31
  22:	e0 50       	subi	r30, 0x00	; 0
  24:	f0 40       	sbci	r31, 0x00	; 0
  26:	a5 91       	lpm	r26, Z+
  28:	b4 91       	lpm	r27, Z+
  2a:	66 23       	and	r22, r22
  2c:	01 f4       	brne	.+0      	; 0x2e <pinMode+0x2e>
  2e:	9f b7       	in	r25, 0x3f	; 63
  30:	f8 94       	cli
  32:	8c 91       	ld	r24, X
  34:	20 95       	com	r18
  36:	82 23       	and	r24, r18
  38:	8c 93       	st	X, r24
  3a:	9f bf       	out	0x3f, r25	; 63
  3c:	08 95       	ret
  3e:	9f b7       	in	r25, 0x3f	; 63
  40:	f8 94       	cli
  42:	8c 91       	ld	r24, X
  44:	82 2b       	or	r24, r18
  46:	8c 93       	st	X, r24
  48:	9f bf       	out	0x3f, r25	; 63
  4a:	08 95       	ret

Disassembly of section .text.digitalWrite:

00000000 <digitalWrite>:
   0:	48 2f       	mov	r20, r24
   2:	50 e0       	ldi	r21, 0x00	; 0
   4:	ca 01       	movw	r24, r20
   6:	80 50       	subi	r24, 0x00	; 0
   8:	90 40       	sbci	r25, 0x00	; 0
   a:	fc 01       	movw	r30, r24
   c:	24 91       	lpm	r18, Z+
   e:	ca 01       	movw	r24, r20
  10:	80 50       	subi	r24, 0x00	; 0
  12:	90 40       	sbci	r25, 0x00	; 0
  14:	fc 01       	movw	r30, r24
  16:	34 91       	lpm	r19, Z+
  18:	40 50       	subi	r20, 0x00	; 0
  1a:	50 40       	sbci	r21, 0x00	; 0
  1c:	fa 01       	movw	r30, r20
  1e:	94 91       	lpm	r25, Z+
  20:	99 23       	and	r25, r25
  22:	01 f4       	brne	.+0      	; 0x24 <digitalWrite+0x24>
  24:	00 c0       	rjmp	.+0      	; 0x26 <digitalWrite+0x26>
  26:	22 23       	and	r18, r18
  28:	01 f0       	breq	.+0      	; 0x2a <digitalWrite+0x2a>
  2a:	23 30       	cpi	r18, 0x03	; 3
  2c:	01 f4       	brne	.+0      	; 0x2e <digitalWrite+0x2e>
  2e:	80 91 80 00 	lds	r24, 0x0080
  32:	8f 77       	andi	r24, 0x7F	; 127
  34:	00 c0       	rjmp	.+0      	; 0x36 <digitalWrite+0x36>
  36:	24 30       	cpi	r18, 0x04	; 4
  38:	01 f4       	brne	.+0      	; 0x3a <digitalWrite+0x3a>
  3a:	80 91 80 00 	lds	r24, 0x0080
  3e:	8f 7d       	andi	r24, 0xDF	; 223
  40:	80 93 80 00 	sts	0x0080, r24
  44:	00 c0       	rjmp	.+0      	; 0x46 <digitalWrite+0x46>
  46:	21 30       	cpi	r18, 0x01	; 1
  48:	01 f4       	brne	.+0      	; 0x4a <digitalWrite+0x4a>
  4a:	84 b5       	in	r24, 0x24	; 36
  4c:	8f 77       	andi	r24, 0x7F	; 127
  4e:	00 c0       	rjmp	.+0      	; 0x50 <digitalWrite+0x50>
  50:	22 30       	cpi	r18, 0x02	; 2
  52:	01 f4       	brne	.+0      	; 0x54 <digitalWrite+0x54>
  54:	84 b5       	in	r24, 0x24	; 36
  56:	8f 7d       	andi	r24, 0xDF	; 223
  58:	84 bd       	out	0x24, r24	; 36
  5a:	00 c0       	rjmp	.+0      	; 0x5c <digitalWrite+0x5c>
  5c:	26 30       	cpi	r18, 0x06	; 6
  5e:	01 f4       	brne	.+0      	; 0x60 <digitalWrite+0x60>
  60:	80 91 b0 00 	lds	r24, 0x00B0
  64:	8f 77       	andi	r24, 0x7F	; 127
  66:	00 c0       	rjmp	.+0      	; 0x68 <digitalWrite+0x68>
  68:	27 30       	cpi	r18, 0x07	; 7
  6a:	01 f4       	brne	.+0      	; 0x6c <digitalWrite+0x6c>
  6c:	80 91 b0 00 	lds	r24, 0x00B0
  70:	8f 7d       	andi	r24, 0xDF	; 223
  72:	80 93 b0 00 	sts	0x00B0, r24
  76:	e9 2f       	mov	r30, r25
  78:	f0 e0       	ldi	r31, 0x00	; 0
  7a:	ee 0f       	add	r30, r30
  7c:	ff 1f       	adc	r31, r31
  7e:	e0 50       	subi	r30, 0x00	; 0
  80:	f0 40       	sbci	r31, 0x00	; 0
  82:	a5 91       	lpm	r26, Z+
  84:	b4 91       	lpm	r27, Z+
  86:	66 23       	and	r22, r22
  88:	01 f4       	brne	.+0      	; 0x8a <digitalWrite+0x8a>
  8a:	9f b7       	in	r25, 0x3f	; 63
  8c:	f8 94       	cli
  8e:	8c 91       	ld	r24, X
  90:	30 95       	com	r19
  92:	83 23       	and	r24, r19
  94:	8c 93       	st	X, r24
  96:	9f bf       	out	0x3f, r25	; 63
  98:	08 95       	ret
  9a:	9f b7       	in	r25, 0x3f	; 63
  9c:	f8 94       	cli
  9e:	8c 91       	ld	r24, X
  a0:	83 2b       	or	r24, r19
  a2:	8c 93       	st	X, r24
  a4:	9f bf       	out	0x3f, r25	; 63
  a6:	08 95       	ret

Disassembly of section .text.digitalRead:

00000000 <digitalRead>:
   0:	68 2f       	mov	r22, r24
   2:	70 e0       	ldi	r23, 0x00	; 0
   4:	cb 01       	movw	r24, r22
   6:	80 50       	subi	r24, 0x00	; 0
   8:	90 40       	sbci	r25, 0x00	; 0
   a:	fc 01       	movw	r30, r24
   c:	24 91       	lpm	r18, Z+
   e:	cb 01       	movw	r24, r22
  10:	80 50       	subi	r24, 0x00	; 0
  12:	90 40       	sbci	r25, 0x00	; 0
  14:	fc 01       	movw	r30, r24
  16:	44 91       	lpm	r20, Z+
  18:	60 50       	subi	r22, 0x00	; 0
  1a:	70 40       	sbci	r23, 0x00	; 0
  1c:	fb 01       	movw	r30, r22
  1e:	94 91       	lpm	r25, Z+
  20:	99 23       	and	r25, r25
  22:	01 f4       	brne	.+0      	; 0x24 <digitalRead+0x24>
  24:	20 e0       	ldi	r18, 0x00	; 0
  26:	30 e0       	ldi	r19, 0x00	; 0
  28:	00 c0       	rjmp	.+0      	; 0x2a <digitalRead+0x2a>
  2a:	22 23       	and	r18, r18
  2c:	01 f0       	breq	.+0      	; 0x2e <digitalRead+0x2e>
  2e:	23 30       	cpi	r18, 0x03	; 3
  30:	01 f4       	brne	.+0      	; 0x32 <digitalRead+0x32>
  32:	80 91 80 00 	lds	r24, 0x0080
  36:	8f 77       	andi	r24, 0x7F	; 127
  38:	00 c0       	rjmp	.+0      	; 0x3a <digitalRead+0x3a>
  3a:	24 30       	cpi	r18, 0x04	; 4
  3c:	01 f4       	brne	.+0      	; 0x3e <digitalRead+0x3e>
  3e:	80 91 80 00 	lds	r24, 0x0080
  42:	8f 7d       	andi	r24, 0xDF	; 223
  44:	80 93 80 00 	sts	0x0080, r24
  48:	00 c0       	rjmp	.+0      	; 0x4a <digitalRead+0x4a>
  4a:	21 30       	cpi	r18, 0x01	; 1
  4c:	01 f4       	brne	.+0      	; 0x4e <digitalRead+0x4e>
  4e:	84 b5       	in	r24, 0x24	; 36
  50:	8f 77       	andi	r24, 0x7F	; 127
  52:	00 c0       	rjmp	.+0      	; 0x54 <digitalRead+0x54>
  54:	22 30       	cpi	r18, 0x02	; 2
  56:	01 f4       	brne	.+0      	; 0x58 <digitalRead+0x58>
  58:	84 b5       	in	r24, 0x24	; 36
  5a:	8f 7d       	andi	r24, 0xDF	; 223
  5c:	84 bd       	out	0x24, r24	; 36
  5e:	00 c0       	rjmp	.+0      	; 0x60 <digitalRead+0x60>
  60:	26 30       	cpi	r18, 0x06	; 6
  62:	01 f4       	brne	.+0      	; 0x64 <digitalRead+0x64>
  64:	80 91 b0 00 	lds	r24, 0x00B0
  68:	8f 77       	andi	r24, 0x7F	; 127
  6a:	00 c0       	rjmp	.+0      	; 0x6c <digitalRead+0x6c>
  6c:	27 30       	cpi	r18, 0x07	; 7
  6e:	01 f4       	brne	.+0      	; 0x70 <digitalRead+0x70>
  70:	80 91 b0 00 	lds	r24, 0x00B0
  74:	8f 7d       	andi	r24, 0xDF	; 223
  76:	80 93 b0 00 	sts	0x00B0, r24
  7a:	89 2f       	mov	r24, r25
  7c:	90 e0       	ldi	r25, 0x00	; 0
  7e:	88 0f       	add	r24, r24
  80:	99 1f       	adc	r25, r25
  82:	80 50       	subi	r24, 0x00	; 0
  84:	90 40       	sbci	r25, 0x00	; 0
  86:	fc 01       	movw	r30, r24
  88:	a5 91       	lpm	r26, Z+
  8a:	b4 91       	lpm	r27, Z+
  8c:	8c 91       	ld	r24, X
  8e:	20 e0       	ldi	r18, 0x00	; 0
  90:	30 e0       	ldi	r19, 0x00	; 0
  92:	84 23       	and	r24, r20
  94:	01 f0       	breq	.+0      	; 0x96 <digitalRead+0x96>
  96:	21 e0       	ldi	r18, 0x01	; 1
  98:	30 e0       	ldi	r19, 0x00	; 0
  9a:	c9 01       	movw	r24, r18
  9c:	08 95       	ret

wiring_pulse.o:     file format elf32-avr

Sections:
Idx Name          Size      VMA       LMA       File off  Algn
  0 .text         00000000  00000000  00000000  00000034  2**0
                  CONTENTS, ALLOC, LOAD, READONLY, CODE
  1 .data         00000000  00000000  00000000  00000034  2**0
                  CONTENTS, ALLOC, LOAD, DATA
  2 .bss          00000000  00000000  00000000  00000034  2**0
                  ALLOC
  3 .text.pulseIn 00000102  00000000  00000000  00000034  2**0
                  CONTENTS, ALLOC, LOAD, RELOC, READONLY, CODE

Disassembly of section .text.pulseIn:

00000000 <pulseIn>:
   0:	df 92       	push	r13
   2:	ef 92       	push	r14
   4:	ff 92       	push	r15
   6:	0f 93       	push	r16
   8:	1f 93       	push	r17
   a:	a8 2f       	mov	r26, r24
   c:	b0 e0       	ldi	r27, 0x00	; 0
   e:	cd 01       	movw	r24, r26
  10:	80 50       	subi	r24, 0x00	; 0
  12:	90 40       	sbci	r25, 0x00	; 0
  14:	fc 01       	movw	r30, r24
  16:	d4 90       	lpm	r13, Z+
  18:	a0 50       	subi	r26, 0x00	; 0
  1a:	b0 40       	sbci	r27, 0x00	; 0
  1c:	fd 01       	movw	r30, r26
  1e:	84 91       	lpm	r24, Z+
  20:	66 23       	and	r22, r22
  22:	01 f4       	brne	.+0      	; 0x24 <pulseIn+0x24>
  24:	90 e0       	ldi	r25, 0x00	; 0
  26:	00 c0       	rjmp	.+0      	; 0x28 <pulseIn+0x28>
  28:	9d 2d       	mov	r25, r13
  2a:	6f ef       	ldi	r22, 0xFF	; 255
  2c:	e6 2e       	mov	r14, r22
  2e:	6f ef       	ldi	r22, 0xFF	; 255
  30:	f6 2e       	mov	r15, r22
  32:	6f ef       	ldi	r22, 0xFF	; 255
  34:	06 2f       	mov	r16, r22
  36:	6f e0       	ldi	r22, 0x0F	; 15
  38:	16 2f       	mov	r17, r22
  3a:	e2 22       	and	r14, r18
  3c:	f3 22       	and	r15, r19
  3e:	04 23       	and	r16, r20
  40:	15 23       	and	r17, r21
  42:	68 2f       	mov	r22, r24
  44:	70 e0       	ldi	r23, 0x00	; 0
  46:	66 0f       	add	r22, r22
  48:	77 1f       	adc	r23, r23
  4a:	60 50       	subi	r22, 0x00	; 0
  4c:	70 40       	sbci	r23, 0x00	; 0
  4e:	20 e0       	ldi	r18, 0x00	; 0
  50:	30 e0       	ldi	r19, 0x00	; 0
  52:	40 e0       	ldi	r20, 0x00	; 0
  54:	50 e0       	ldi	r21, 0x00	; 0
  56:	fb 01       	movw	r30, r22
  58:	a5 91       	lpm	r26, Z+
  5a:	b4 91       	lpm	r27, Z+
  5c:	00 c0       	rjmp	.+0      	; 0x5e <pulseIn+0x5e>
  5e:	2e 15       	cp	r18, r14
  60:	3f 05       	cpc	r19, r15
  62:	40 07       	cpc	r20, r16
  64:	51 07       	cpc	r21, r17
  66:	01 f4       	brne	.+0      	; 0x68 <pulseIn+0x68>
  68:	00 c0       	rjmp	.+0      	; 0x6a <pulseIn+0x6a>
  6a:	2f 5f       	subi	r18, 0xFF	; 255
  6c:	3f 4f       	sbci	r19, 0xFF	; 255
  6e:	4f 4f       	sbci	r20, 0xFF	; 255
  70:	5f 4f       	sbci	r21, 0xFF	; 255
  72:	8c 91       	ld	r24, X
  74:	8d 21       	and	r24, r13
  76:	89 17       	cp	r24, r25
  78:	01 f0       	breq	.+0      	; 0x7a <pulseIn+0x7a>
  7a:	00 c0       	rjmp	.+0      	; 0x7c <pulseIn+0x7c>
  7c:	2e 15       	cp	r18, r14
  7e:	3f 05       	cpc	r19, r15
  80:	40 07       	cpc	r20, r16
  82:	51 07       	cpc	r21, r17
  84:	01 f0       	breq	.+0      	; 0x86 <pulseIn+0x86>
  86:	2f 5f       	subi	r18, 0xFF	; 255
  88:	3f 4f       	sbci	r19, 0xFF	; 255
  8a:	4f 4f       	sbci	r20, 0xFF	; 255
  8c:	5f 4f       	sbci	r21, 0xFF	; 255
  8e:	00 c0       	rjmp	.+0      	; 0x90 <pulseIn+0x90>
  90:	fb 01       	movw	r30, r22
  92:	a5 91       	lpm	r26, Z+
  94:	b4 91       	lpm	r27, Z+
  96:	8c 91       	ld	r24, X
  98:	8d 21       	and	r24, r13
  9a:	89 17       	cp	r24, r25
  9c:	01 f4       	brne	.+0      	; 0x9e <pulseIn+0x9e>
  9e:	20 e0       	ldi	r18, 0x00	; 0
  a0:	30 e0       	ldi	r19, 0x00	; 0
  a2:	40 e0       	ldi	r20, 0x00	; 0
  a4:	50 e0       	ldi	r21, 0x00	; 0
  a6:	fb 01       	movw	r30, r22
  a8:	a5 91       	lpm	r26, Z+
  aa:	b4 91       	lpm	r27, Z+
  ac:	00 c0       	rjmp	.+0      	; 0xae <pulseIn+0xae>
  ae:	2f 5f       	subi	r18, 0xFF	; 255
  b0:	3f 4f       	sbci	r19, 0xFF	; 255
  b2:	4f 4f       	sbci	r20, 0xFF	; 255
  b4:	5f 4f       	sbci	r21, 0xFF	; 255
  b6:	8c 91       	ld	r24, X
  b8:	8d 21       	and	r24, r13
  ba:	89 17       	cp	r24, r25
  bc:	01 f0       	breq	.+0      	; 0xbe <pulseIn+0xbe>
  be:	ca 01       	movw	r24, r20
  c0:	b9 01       	movw	r22, r18
  c2:	2a e0       	ldi	r18, 0x0A	; 10
  c4:	30 e0       	ldi	r19, 0x00	; 0
  c6:	40 e0       	ldi	r20, 0x00	; 0
  c8:	50 e0       	ldi	r21, 0x00	; 0
  ca:	0e 94 00 00 	call	0	; 0x0 <pulseIn>
  ce:	9b 01       	movw	r18, r22
  d0:	ac 01       	movw	r20, r24
  d2:	20 5f       	subi	r18, 0xF0	; 240
  d4:	3f 4f       	sbci	r19, 0xFF	; 255
  d6:	4f 4f       	sbci	r20, 0xFF	; 255
  d8:	5f 4f       	sbci	r21, 0xFF	; 255
  da:	84 e0       	ldi	r24, 0x04	; 4
  dc:	56 95       	lsr	r21
  de:	47 95       	ror	r20
  e0:	37 95       	ror	r19
  e2:	27 95       	ror	r18
  e4:	8a 95       	dec	r24
  e6:	01 f4       	brne	.+0      	; 0xe8 <pulseIn+0xe8>
  e8:	00 c0       	rjmp	.+0      	; 0xea <pulseIn+0xea>
  ea:	20 e0       	ldi	r18, 0x00	; 0
  ec:	30 e0       	ldi	r19, 0x00	; 0
  ee:	40 e0       	ldi	r20, 0x00	; 0
  f0:	50 e0       	ldi	r21, 0x00	; 0
  f2:	b9 01       	movw	r22, r18
  f4:	ca 01       	movw	r24, r20
  f6:	1f 91       	pop	r17
  f8:	0f 91       	pop	r16
  fa:	ff 90       	pop	r15
  fc:	ef 90       	pop	r14
  fe:	df 90       	pop	r13
 100:	08 95       	ret

wiring_shift.o:     file format elf32-avr

Sections:
Idx Name          Size      VMA       LMA       File off  Algn
  0 .text         00000000  00000000  00000000  00000034  2**0
                  CONTENTS, ALLOC, LOAD, READONLY, CODE
  1 .data         00000000  00000000  00000000  00000034  2**0
                  CONTENTS, ALLOC, LOAD, DATA
  2 .bss          00000000  00000000  00000000  00000034  2**0
                  ALLOC
  3 .text.shiftOut 00000084  00000000  00000000  00000034  2**0
                  CONTENTS, ALLOC, LOAD, RELOC, READONLY, CODE
  4 .text.shiftIn 00000080  00000000  00000000  000000b8  2**0
                  CONTENTS, ALLOC, LOAD, RELOC, READONLY, CODE

Disassembly of section .text.shiftOut:

00000000 <shiftOut>:
   0:	bf 92       	push	r11
   2:	cf 92       	push	r12
   4:	df 92       	push	r13
   6:	ef 92       	push	r14
   8:	ff 92       	push	r15
   a:	0f 93       	push	r16
   c:	1f 93       	push	r17
   e:	cf 93       	push	r28
  10:	df 93       	push	r29
  12:	e8 2e       	mov	r14, r24
  14:	f6 2e       	mov	r15, r22
  16:	b4 2e       	mov	r11, r20
  18:	c7 e0       	ldi	r28, 0x07	; 7
  1a:	d0 e0       	ldi	r29, 0x00	; 0
  1c:	02 2f       	mov	r16, r18
  1e:	10 e0       	ldi	r17, 0x00	; 0
  20:	87 e0       	ldi	r24, 0x07	; 7
  22:	c8 2e       	mov	r12, r24
  24:	d1 2c       	mov	r13, r1
  26:	bb 20       	and	r11, r11
  28:	01 f4       	brne	.+0      	; 0x2a <shiftOut+0x2a>
  2a:	b6 01       	movw	r22, r12
  2c:	6c 1b       	sub	r22, r28
  2e:	7d 0b       	sbc	r23, r29
  30:	c8 01       	movw	r24, r16
  32:	00 c0       	rjmp	.+0      	; 0x34 <shiftOut+0x34>
  34:	95 95       	asr	r25
  36:	87 95       	ror	r24
  38:	6a 95       	dec	r22
  3a:	02 f4       	brpl	.+0      	; 0x3c <shiftOut+0x3c>
  3c:	bc 01       	movw	r22, r24
  3e:	00 c0       	rjmp	.+0      	; 0x40 <shiftOut+0x40>
  40:	b8 01       	movw	r22, r16
  42:	0c 2e       	mov	r0, r28
  44:	00 c0       	rjmp	.+0      	; 0x46 <shiftOut+0x46>
  46:	75 95       	asr	r23
  48:	67 95       	ror	r22
  4a:	0a 94       	dec	r0
  4c:	02 f4       	brpl	.+0      	; 0x4e <shiftOut+0x4e>
  4e:	61 70       	andi	r22, 0x01	; 1
  50:	8e 2d       	mov	r24, r14
  52:	0e 94 00 00 	call	0	; 0x0 <shiftOut>
  56:	8f 2d       	mov	r24, r15
  58:	61 e0       	ldi	r22, 0x01	; 1
  5a:	0e 94 00 00 	call	0	; 0x0 <shiftOut>
  5e:	8f 2d       	mov	r24, r15
  60:	60 e0       	ldi	r22, 0x00	; 0
  62:	0e 94 00 00 	call	0	; 0x0 <shiftOut>
  66:	21 97       	sbiw	r28, 0x01	; 1
  68:	9f ef       	ldi	r25, 0xFF	; 255
  6a:	cf 3f       	cpi	r28, 0xFF	; 255
  6c:	d9 07       	cpc	r29, r25
  6e:	01 f4       	brne	.+0      	; 0x70 <shiftOut+0x70>
  70:	df 91       	pop	r29
  72:	cf 91       	pop	r28
  74:	1f 91       	pop	r17
  76:	0f 91       	pop	r16
  78:	ff 90       	pop	r15
  7a:	ef 90       	pop	r14
  7c:	df 90       	pop	r13
  7e:	cf 90       	pop	r12
  80:	bf 90       	pop	r11
  82:	08 95       	ret

Disassembly of section .text.shiftIn:

00000000 <shiftIn>:
   0:	cf 92       	push	r12
   2:	df 92       	push	r13
   4:	ef 92       	push	r14
   6:	ff 92       	push	r15
   8:	0f 93       	push	r16
   a:	1f 93       	push	r17
   c:	cf 93       	push	r28
   e:	df 93       	push	r29
  10:	f8 2e       	mov	r15, r24
  12:	06 2f       	mov	r16, r22
  14:	e4 2e       	mov	r14, r20
  16:	10 e0       	ldi	r17, 0x00	; 0
  18:	c7 e0       	ldi	r28, 0x07	; 7
  1a:	d0 e0       	ldi	r29, 0x00	; 0
  1c:	97 e0       	ldi	r25, 0x07	; 7
  1e:	c9 2e       	mov	r12, r25
  20:	d1 2c       	mov	r13, r1
  22:	80 2f       	mov	r24, r16
  24:	61 e0       	ldi	r22, 0x01	; 1
  26:	0e 94 00 00 	call	0	; 0x0 <shiftIn>
  2a:	ee 20       	and	r14, r14
  2c:	01 f4       	brne	.+0      	; 0x2e <shiftIn+0x2e>
  2e:	8f 2d       	mov	r24, r15
  30:	0e 94 00 00 	call	0	; 0x0 <shiftIn>
  34:	96 01       	movw	r18, r12
  36:	2c 1b       	sub	r18, r28
  38:	3d 0b       	sbc	r19, r29
  3a:	00 c0       	rjmp	.+0      	; 0x3c <shiftIn+0x3c>
  3c:	88 0f       	add	r24, r24
  3e:	99 1f       	adc	r25, r25
  40:	2a 95       	dec	r18
  42:	02 f4       	brpl	.+0      	; 0x44 <shiftIn+0x44>
  44:	00 c0       	rjmp	.+0      	; 0x46 <shiftIn+0x46>
  46:	8f 2d       	mov	r24, r15
  48:	0e 94 00 00 	call	0	; 0x0 <shiftIn>
  4c:	0c 2e       	mov	r0, r28
  4e:	00 c0       	rjmp	.+0      	; 0x50 <shiftIn+0x50>
  50:	88 0f       	add	r24, r24
  52:	99 1f       	adc	r25, r25
  54:	0a 94       	dec	r0
  56:	02 f4       	brpl	.+0      	; 0x58 <shiftIn+0x58>
  58:	18 2b       	or	r17, r24
  5a:	80 2f       	mov	r24, r16
  5c:	60 e0       	ldi	r22, 0x00	; 0
  5e:	0e 94 00 00 	call	0	; 0x0 <shiftIn>
  62:	21 97       	sbiw	r28, 0x01	; 1
  64:	8f ef       	ldi	r24, 0xFF	; 255
  66:	cf 3f       	cpi	r28, 0xFF	; 255
  68:	d8 07       	cpc	r29, r24
  6a:	01 f4       	brne	.+0      	; 0x6c <shiftIn+0x6c>
  6c:	81 2f       	mov	r24, r17
  6e:	df 91       	pop	r29
  70:	cf 91       	pop	r28
  72:	1f 91       	pop	r17
  74:	0f 91       	pop	r16
  76:	ff 90       	pop	r15
  78:	ef 90       	pop	r14
  7a:	df 90       	pop	r13
  7c:	cf 90       	pop	r12
  7e:	08 95       	ret

twi.o:     file format elf32-avr

Sections:
Idx Name          Size      VMA       LMA       File off  Algn
  0 .text         00000000  00000000  00000000  00000034  2**0
                  CONTENTS, ALLOC, LOAD, READONLY, CODE
  1 .data         00000000  00000000  00000000  00000034  2**0
                  CONTENTS, ALLOC, LOAD, DATA
  2 .bss          00000000  00000000  00000000  00000034  2**0
                  ALLOC
  3 .text.twi_init 00000026  00000000  00000000  00000034  2**0
                  CONTENTS, ALLOC, LOAD, RELOC, READONLY, CODE
  4 .text.twi_setAddress 00000008  00000000  00000000  0000005a  2**0
                  CONTENTS, ALLOC, LOAD, READONLY, CODE
  5 .text.twi_readFrom 0000006e  00000000  00000000  00000062  2**0
                  CONTENTS, ALLOC, LOAD, RELOC, READONLY, CODE
  6 .text.twi_writeTo 00000086  00000000  00000000  000000d0  2**0
                  CONTENTS, ALLOC, LOAD, RELOC, READONLY, CODE
  7 .text.twi_transmit 00000036  00000000  00000000  00000156  2**0
                  CONTENTS, ALLOC, LOAD, RELOC, READONLY, CODE
  8 .text.twi_attachSlaveRxEvent 0000000a  00000000  00000000  0000018c  2**0
                  CONTENTS, ALLOC, LOAD, RELOC, READONLY, CODE
  9 .text.twi_attachSlaveTxEvent 0000000a  00000000  00000000  00000196  2**0
                  CONTENTS, ALLOC, LOAD, RELOC, READONLY, CODE
 10 .text.twi_reply 00000010  00000000  00000000  000001a0  2**0
                  CONTENTS, ALLOC, LOAD, RELOC, READONLY, CODE
 11 .text.twi_stop 00000014  00000000  00000000  000001b0  2**0
                  CONTENTS, ALLOC, LOAD, RELOC, READONLY, CODE
 12 .text.twi_releaseBus 0000000c  00000000  00000000  000001c4  2**0
                  CONTENTS, ALLOC, LOAD, RELOC, READONLY, CODE
 13 .text.__vector_24 000002f6  00000000  00000000  000001d0  2**0
                  CONTENTS, ALLOC, LOAD, RELOC, READONLY, CODE
 14 .bss.twi_state 00000001  00000000  00000000  000004c6  2**0
                  ALLOC
 15 .bss.twi_slarw 00000001  00000000  00000000  000004c6  2**0
                  ALLOC
 16 .bss.twi_onSlaveTransmit 00000002  00000000  00000000  000004c6  2**0
                  ALLOC
 17 .bss.twi_onSlaveReceive 00000002  00000000  00000000  000004c6  2**0
                  ALLOC
 18 .bss.twi_masterBuffer 00000020  00000000  00000000  000004c6  2**0
                  ALLOC
 19 .bss.twi_masterBufferIndex 00000001  00000000  00000000  000004c6  2**0
                  ALLOC
 20 .bss.twi_masterBufferLength 00000001  00000000  00000000  000004c6  2**0
                  ALLOC
 21 .bss.twi_txBuffer 00000020  00000000  00000000  000004c6  2**0
                  ALLOC
 22 .bss.twi_txBufferIndex 00000001  00000000  00000000  000004c6  2**0
                  ALLOC
 23 .bss.twi_txBufferLength 00000001  00000000  00000000  000004c6  2**0
                  ALLOC
 24 .bss.twi_rxBuffer 00000020  00000000  00000000  000004c6  2**0
                  ALLOC
 25 .bss.twi_rxBufferIndex 00000001  00000000  00000000  000004c6  2**0
                  ALLOC
 26 .bss.twi_error 00000001  00000000  00000000  000004c6  2**0
                  ALLOC

Disassembly of section .text.twi_init:

00000000 <twi_init>:
   0:	10 92 00 00 	sts	0x0000, r1
   4:	44 9a       	sbi	0x08, 4	; 8
   6:	45 9a       	sbi	0x08, 5	; 8
   8:	e9 eb       	ldi	r30, 0xB9	; 185
   a:	f0 e0       	ldi	r31, 0x00	; 0
   c:	80 81       	ld	r24, Z
   e:	8e 7f       	andi	r24, 0xFE	; 254
  10:	80 83       	st	Z, r24
  12:	80 81       	ld	r24, Z
  14:	8d 7f       	andi	r24, 0xFD	; 253
  16:	80 83       	st	Z, r24
  18:	88 e4       	ldi	r24, 0x48	; 72
  1a:	80 93 b8 00 	sts	0x00B8, r24
  1e:	85 e4       	ldi	r24, 0x45	; 69
  20:	80 93 bc 00 	sts	0x00BC, r24
  24:	08 95       	ret

Disassembly of section .text.twi_setAddress:

00000000 <twi_setAddress>:
   0:	88 0f       	add	r24, r24
   2:	80 93 ba 00 	sts	0x00BA, r24
   6:	08 95       	ret

Disassembly of section .text.twi_readFrom:

00000000 <twi_readFrom>:
   0:	98 2f       	mov	r25, r24
   2:	41 32       	cpi	r20, 0x21	; 33
   4:	00 f0       	brcs	.+0      	; 0x6 <twi_readFrom+0x6>
   6:	40 e0       	ldi	r20, 0x00	; 0
   8:	00 c0       	rjmp	.+0      	; 0xa <twi_readFrom+0xa>
   a:	80 91 00 00 	lds	r24, 0x0000
   e:	88 23       	and	r24, r24
  10:	01 f4       	brne	.+0      	; 0x12 <twi_readFrom+0x12>
  12:	81 e0       	ldi	r24, 0x01	; 1
  14:	80 93 00 00 	sts	0x0000, r24
  18:	8f ef       	ldi	r24, 0xFF	; 255
  1a:	80 93 00 00 	sts	0x0000, r24
  1e:	10 92 00 00 	sts	0x0000, r1
  22:	41 50       	subi	r20, 0x01	; 1
  24:	40 93 00 00 	sts	0x0000, r20
  28:	4f 5f       	subi	r20, 0xFF	; 255
  2a:	99 0f       	add	r25, r25
  2c:	91 60       	ori	r25, 0x01	; 1
  2e:	90 93 00 00 	sts	0x0000, r25
  32:	85 ee       	ldi	r24, 0xE5	; 229
  34:	80 93 bc 00 	sts	0x00BC, r24
  38:	80 91 00 00 	lds	r24, 0x0000
  3c:	81 30       	cpi	r24, 0x01	; 1
  3e:	01 f0       	breq	.+0      	; 0x40 <twi_readFrom+0x40>
  40:	80 91 00 00 	lds	r24, 0x0000
  44:	84 17       	cp	r24, r20
  46:	00 f4       	brcc	.+0      	; 0x48 <twi_readFrom+0x48>
  48:	40 91 00 00 	lds	r20, 0x0000
  4c:	20 e0       	ldi	r18, 0x00	; 0
  4e:	30 e0       	ldi	r19, 0x00	; 0
  50:	00 c0       	rjmp	.+0      	; 0x52 <twi_readFrom+0x52>
  52:	fb 01       	movw	r30, r22
  54:	e2 0f       	add	r30, r18
  56:	f3 1f       	adc	r31, r19
  58:	d9 01       	movw	r26, r18
  5a:	a0 50       	subi	r26, 0x00	; 0
  5c:	b0 40       	sbci	r27, 0x00	; 0
  5e:	8c 91       	ld	r24, X
  60:	80 83       	st	Z, r24
  62:	2f 5f       	subi	r18, 0xFF	; 255
  64:	3f 4f       	sbci	r19, 0xFF	; 255
  66:	24 17       	cp	r18, r20
  68:	00 f0       	brcs	.+0      	; 0x6a <twi_readFrom+0x6a>
  6a:	84 2f       	mov	r24, r20
  6c:	08 95       	ret

Disassembly of section .text.twi_writeTo:

00000000 <twi_writeTo>:
   0:	1f 93       	push	r17
   2:	58 2f       	mov	r21, r24
   4:	12 2f       	mov	r17, r18
   6:	41 32       	cpi	r20, 0x21	; 33
   8:	00 f0       	brcs	.+0      	; 0xa <twi_writeTo+0xa>
   a:	81 e0       	ldi	r24, 0x01	; 1
   c:	00 c0       	rjmp	.+0      	; 0xe <twi_writeTo+0xe>
   e:	80 91 00 00 	lds	r24, 0x0000
  12:	88 23       	and	r24, r24
  14:	01 f4       	brne	.+0      	; 0x16 <twi_writeTo+0x16>
  16:	82 e0       	ldi	r24, 0x02	; 2
  18:	80 93 00 00 	sts	0x0000, r24
  1c:	8f ef       	ldi	r24, 0xFF	; 255
  1e:	80 93 00 00 	sts	0x0000, r24
  22:	10 92 00 00 	sts	0x0000, r1
  26:	40 93 00 00 	sts	0x0000, r20
  2a:	a0 e0       	ldi	r26, 0x00	; 0
  2c:	b0 e0       	ldi	r27, 0x00	; 0
  2e:	fb 01       	movw	r30, r22
  30:	00 c0       	rjmp	.+0      	; 0x32 <twi_writeTo+0x32>
  32:	81 91       	ld	r24, Z+
  34:	8d 93       	st	X+, r24
  36:	8e 2f       	mov	r24, r30
  38:	86 1b       	sub	r24, r22
  3a:	84 17       	cp	r24, r20
  3c:	00 f0       	brcs	.+0      	; 0x3e <twi_writeTo+0x3e>
  3e:	85 2f       	mov	r24, r21
  40:	90 e0       	ldi	r25, 0x00	; 0
  42:	88 0f       	add	r24, r24
  44:	99 1f       	adc	r25, r25
  46:	80 93 00 00 	sts	0x0000, r24
  4a:	85 ee       	ldi	r24, 0xE5	; 229
  4c:	80 93 bc 00 	sts	0x00BC, r24
  50:	11 23       	and	r17, r17
  52:	01 f0       	breq	.+0      	; 0x54 <twi_writeTo+0x54>
  54:	80 91 00 00 	lds	r24, 0x0000
  58:	82 30       	cpi	r24, 0x02	; 2
  5a:	01 f0       	breq	.+0      	; 0x5c <twi_writeTo+0x5c>
  5c:	80 91 00 00 	lds	r24, 0x0000
  60:	8f 3f       	cpi	r24, 0xFF	; 255
  62:	01 f4       	brne	.+0      	; 0x64 <twi_writeTo+0x64>
  64:	80 e0       	ldi	r24, 0x00	; 0
  66:	00 c0       	rjmp	.+0      	; 0x68 <twi_writeTo+0x68>
  68:	80 91 00 00 	lds	r24, 0x0000
  6c:	80 32       	cpi	r24, 0x20	; 32
  6e:	01 f4       	brne	.+0      	; 0x70 <twi_writeTo+0x70>
  70:	82 e0       	ldi	r24, 0x02	; 2
  72:	00 c0       	rjmp	.+0      	; 0x74 <twi_writeTo+0x74>
  74:	80 91 00 00 	lds	r24, 0x0000
  78:	80 33       	cpi	r24, 0x30	; 48
  7a:	01 f0       	breq	.+0      	; 0x7c <twi_writeTo+0x7c>
  7c:	84 e0       	ldi	r24, 0x04	; 4
  7e:	00 c0       	rjmp	.+0      	; 0x80 <twi_writeTo+0x80>
  80:	83 e0       	ldi	r24, 0x03	; 3
  82:	1f 91       	pop	r17
  84:	08 95       	ret

Disassembly of section .text.twi_transmit:

00000000 <twi_transmit>:
   0:	48 2f       	mov	r20, r24
   2:	61 32       	cpi	r22, 0x21	; 33
   4:	00 f0       	brcs	.+0      	; 0x6 <twi_transmit+0x6>
   6:	81 e0       	ldi	r24, 0x01	; 1
   8:	08 95       	ret
   a:	80 91 00 00 	lds	r24, 0x0000
   e:	84 30       	cpi	r24, 0x04	; 4
  10:	01 f0       	breq	.+0      	; 0x12 <twi_transmit+0x12>
  12:	82 e0       	ldi	r24, 0x02	; 2
  14:	08 95       	ret
  16:	60 93 00 00 	sts	0x0000, r22
  1a:	a0 e0       	ldi	r26, 0x00	; 0
  1c:	b0 e0       	ldi	r27, 0x00	; 0
  1e:	84 2f       	mov	r24, r20
  20:	9c 01       	movw	r18, r24
  22:	f9 01       	movw	r30, r18
  24:	00 c0       	rjmp	.+0      	; 0x26 <twi_transmit+0x26>
  26:	81 91       	ld	r24, Z+
  28:	8d 93       	st	X+, r24
  2a:	8e 2f       	mov	r24, r30
  2c:	84 1b       	sub	r24, r20
  2e:	86 17       	cp	r24, r22
  30:	00 f0       	brcs	.+0      	; 0x32 <twi_transmit+0x32>
  32:	80 e0       	ldi	r24, 0x00	; 0
  34:	08 95       	ret

Disassembly of section .text.twi_attachSlaveRxEvent:

00000000 <twi_attachSlaveRxEvent>:
   0:	90 93 00 00 	sts	0x0000, r25
   4:	80 93 00 00 	sts	0x0000, r24
   8:	08 95       	ret

Disassembly of section .text.twi_attachSlaveTxEvent:

00000000 <twi_attachSlaveTxEvent>:
   0:	90 93 00 00 	sts	0x0000, r25
   4:	80 93 00 00 	sts	0x0000, r24
   8:	08 95       	ret

Disassembly of section .text.twi_reply:

00000000 <twi_reply>:
   0:	88 23       	and	r24, r24
   2:	01 f0       	breq	.+0      	; 0x4 <twi_reply+0x4>
   4:	85 ec       	ldi	r24, 0xC5	; 197
   6:	00 c0       	rjmp	.+0      	; 0x8 <twi_reply+0x8>
   8:	85 e8       	ldi	r24, 0x85	; 133
   a:	80 93 bc 00 	sts	0x00BC, r24
   e:	08 95       	ret

Disassembly of section .text.twi_stop:

00000000 <twi_stop>:
   0:	85 ed       	ldi	r24, 0xD5	; 213
   2:	80 93 bc 00 	sts	0x00BC, r24
   6:	80 91 bc 00 	lds	r24, 0x00BC
   a:	84 fd       	sbrc	r24, 4
   c:	00 c0       	rjmp	.+0      	; 0xe <twi_stop+0xe>
   e:	10 92 00 00 	sts	0x0000, r1
  12:	08 95       	ret

Disassembly of section .text.twi_releaseBus:

00000000 <twi_releaseBus>:
   0:	85 ec       	ldi	r24, 0xC5	; 197
   2:	80 93 bc 00 	sts	0x00BC, r24
   6:	10 92 00 00 	sts	0x0000, r1
   a:	08 95       	ret

Disassembly of section .text.__vector_24:

00000000 <__vector_24>:
   0:	1f 92       	push	r1
   2:	0f 92       	push	r0
   4:	0f b6       	in	r0, 0x3f	; 63
   6:	0f 92       	push	r0
   8:	11 24       	eor	r1, r1
   a:	2f 93       	push	r18
   c:	3f 93       	push	r19
   e:	4f 93       	push	r20
  10:	5f 93       	push	r21
  12:	6f 93       	push	r22
  14:	7f 93       	push	r23
  16:	8f 93       	push	r24
  18:	9f 93       	push	r25
  1a:	af 93       	push	r26
  1c:	bf 93       	push	r27
  1e:	ef 93       	push	r30
  20:	ff 93       	push	r31
  22:	80 91 b9 00 	lds	r24, 0x00B9
  26:	90 e0       	ldi	r25, 0x00	; 0
  28:	88 7f       	andi	r24, 0xF8	; 248
  2a:	90 70       	andi	r25, 0x00	; 0
  2c:	80 36       	cpi	r24, 0x60	; 96
  2e:	91 05       	cpc	r25, r1
  30:	01 f4       	brne	.+0      	; 0x32 <__vector_24+0x32>
  32:	00 c0       	rjmp	.+0      	; 0x34 <__vector_24+0x34>
  34:	81 36       	cpi	r24, 0x61	; 97
  36:	91 05       	cpc	r25, r1
  38:	04 f4       	brge	.+0      	; 0x3a <__vector_24+0x3a>
  3a:	88 32       	cpi	r24, 0x28	; 40
  3c:	91 05       	cpc	r25, r1
  3e:	01 f4       	brne	.+0      	; 0x40 <__vector_24+0x40>
  40:	00 c0       	rjmp	.+0      	; 0x42 <__vector_24+0x42>
  42:	89 32       	cpi	r24, 0x29	; 41
  44:	91 05       	cpc	r25, r1
  46:	04 f4       	brge	.+0      	; 0x48 <__vector_24+0x48>
  48:	80 31       	cpi	r24, 0x10	; 16
  4a:	91 05       	cpc	r25, r1
  4c:	01 f4       	brne	.+0      	; 0x4e <__vector_24+0x4e>
  4e:	00 c0       	rjmp	.+0      	; 0x50 <__vector_24+0x50>
  50:	81 31       	cpi	r24, 0x11	; 17
  52:	91 05       	cpc	r25, r1
  54:	04 f4       	brge	.+0      	; 0x56 <__vector_24+0x56>
  56:	00 97       	sbiw	r24, 0x00	; 0
  58:	01 f4       	brne	.+0      	; 0x5a <__vector_24+0x5a>
  5a:	00 c0       	rjmp	.+0      	; 0x5c <__vector_24+0x5c>
  5c:	08 97       	sbiw	r24, 0x08	; 8
  5e:	01 f0       	breq	.+0      	; 0x60 <__vector_24+0x60>
  60:	00 c0       	rjmp	.+0      	; 0x62 <__vector_24+0x62>
  62:	00 c0       	rjmp	.+0      	; 0x64 <__vector_24+0x64>
  64:	88 31       	cpi	r24, 0x18	; 24
  66:	91 05       	cpc	r25, r1
  68:	01 f4       	brne	.+0      	; 0x6a <__vector_24+0x6a>
  6a:	00 c0       	rjmp	.+0      	; 0x6c <__vector_24+0x6c>
  6c:	80 97       	sbiw	r24, 0x20	; 32
  6e:	01 f0       	breq	.+0      	; 0x70 <__vector_24+0x70>
  70:	00 c0       	rjmp	.+0      	; 0x72 <__vector_24+0x72>
  72:	00 c0       	rjmp	.+0      	; 0x74 <__vector_24+0x74>
  74:	80 34       	cpi	r24, 0x40	; 64
  76:	91 05       	cpc	r25, r1
  78:	01 f4       	brne	.+0      	; 0x7a <__vector_24+0x7a>
  7a:	00 c0       	rjmp	.+0      	; 0x7c <__vector_24+0x7c>
  7c:	81 34       	cpi	r24, 0x41	; 65
  7e:	91 05       	cpc	r25, r1
  80:	04 f4       	brge	.+0      	; 0x82 <__vector_24+0x82>
  82:	80 33       	cpi	r24, 0x30	; 48
  84:	91 05       	cpc	r25, r1
  86:	01 f4       	brne	.+0      	; 0x88 <__vector_24+0x88>
  88:	00 c0       	rjmp	.+0      	; 0x8a <__vector_24+0x8a>
  8a:	c8 97       	sbiw	r24, 0x38	; 56
  8c:	01 f0       	breq	.+0      	; 0x8e <__vector_24+0x8e>
  8e:	00 c0       	rjmp	.+0      	; 0x90 <__vector_24+0x90>
  90:	00 c0       	rjmp	.+0      	; 0x92 <__vector_24+0x92>
  92:	80 35       	cpi	r24, 0x50	; 80
  94:	91 05       	cpc	r25, r1
  96:	01 f4       	brne	.+0      	; 0x98 <__vector_24+0x98>
  98:	00 c0       	rjmp	.+0      	; 0x9a <__vector_24+0x9a>
  9a:	88 35       	cpi	r24, 0x58	; 88
  9c:	91 05       	cpc	r25, r1
  9e:	01 f4       	brne	.+0      	; 0xa0 <__vector_24+0xa0>
  a0:	00 c0       	rjmp	.+0      	; 0xa2 <__vector_24+0xa2>
  a2:	88 34       	cpi	r24, 0x48	; 72
  a4:	91 05       	cpc	r25, r1
  a6:	01 f0       	breq	.+0      	; 0xa8 <__vector_24+0xa8>
  a8:	00 c0       	rjmp	.+0      	; 0xaa <__vector_24+0xaa>
  aa:	00 c0       	rjmp	.+0      	; 0xac <__vector_24+0xac>
  ac:	88 39       	cpi	r24, 0x98	; 152
  ae:	91 05       	cpc	r25, r1
  b0:	01 f4       	brne	.+0      	; 0xb2 <__vector_24+0xb2>
  b2:	00 c0       	rjmp	.+0      	; 0xb4 <__vector_24+0xb4>
  b4:	89 39       	cpi	r24, 0x99	; 153
  b6:	91 05       	cpc	r25, r1
  b8:	04 f4       	brge	.+0      	; 0xba <__vector_24+0xba>
  ba:	88 37       	cpi	r24, 0x78	; 120
  bc:	91 05       	cpc	r25, r1
  be:	01 f4       	brne	.+0      	; 0xc0 <__vector_24+0xc0>
  c0:	00 c0       	rjmp	.+0      	; 0xc2 <__vector_24+0xc2>
  c2:	89 37       	cpi	r24, 0x79	; 121
  c4:	91 05       	cpc	r25, r1
  c6:	04 f4       	brge	.+0      	; 0xc8 <__vector_24+0xc8>
  c8:	88 36       	cpi	r24, 0x68	; 104
  ca:	91 05       	cpc	r25, r1
  cc:	01 f4       	brne	.+0      	; 0xce <__vector_24+0xce>
  ce:	00 c0       	rjmp	.+0      	; 0xd0 <__vector_24+0xd0>
  d0:	80 37       	cpi	r24, 0x70	; 112
  d2:	91 05       	cpc	r25, r1
  d4:	01 f0       	breq	.+0      	; 0xd6 <__vector_24+0xd6>
  d6:	00 c0       	rjmp	.+0      	; 0xd8 <__vector_24+0xd8>
  d8:	00 c0       	rjmp	.+0      	; 0xda <__vector_24+0xda>
  da:	88 38       	cpi	r24, 0x88	; 136
  dc:	91 05       	cpc	r25, r1
  de:	01 f4       	brne	.+0      	; 0xe0 <__vector_24+0xe0>
  e0:	00 c0       	rjmp	.+0      	; 0xe2 <__vector_24+0xe2>
  e2:	80 39       	cpi	r24, 0x90	; 144
  e4:	91 05       	cpc	r25, r1
  e6:	01 f4       	brne	.+0      	; 0xe8 <__vector_24+0xe8>
  e8:	00 c0       	rjmp	.+0      	; 0xea <__vector_24+0xea>
  ea:	80 38       	cpi	r24, 0x80	; 128
  ec:	91 05       	cpc	r25, r1
  ee:	01 f0       	breq	.+0      	; 0xf0 <__vector_24+0xf0>
  f0:	00 c0       	rjmp	.+0      	; 0xf2 <__vector_24+0xf2>
  f2:	00 c0       	rjmp	.+0      	; 0xf4 <__vector_24+0xf4>
  f4:	80 3b       	cpi	r24, 0xB0	; 176
  f6:	91 05       	cpc	r25, r1
  f8:	01 f4       	brne	.+0      	; 0xfa <__vector_24+0xfa>
  fa:	00 c0       	rjmp	.+0      	; 0xfc <__vector_24+0xfc>
  fc:	81 3b       	cpi	r24, 0xB1	; 177
  fe:	91 05       	cpc	r25, r1
 100:	04 f4       	brge	.+0      	; 0x102 <__vector_24+0x102>
 102:	80 3a       	cpi	r24, 0xA0	; 160
 104:	91 05       	cpc	r25, r1
 106:	01 f4       	brne	.+0      	; 0x108 <__vector_24+0x108>
 108:	00 c0       	rjmp	.+0      	; 0x10a <__vector_24+0x10a>
 10a:	88 3a       	cpi	r24, 0xA8	; 168
 10c:	91 05       	cpc	r25, r1
 10e:	01 f0       	breq	.+0      	; 0x110 <__vector_24+0x110>
 110:	00 c0       	rjmp	.+0      	; 0x112 <__vector_24+0x112>
 112:	00 c0       	rjmp	.+0      	; 0x114 <__vector_24+0x114>
 114:	80 3c       	cpi	r24, 0xC0	; 192
 116:	91 05       	cpc	r25, r1
 118:	01 f4       	brne	.+0      	; 0x11a <__vector_24+0x11a>
 11a:	00 c0       	rjmp	.+0      	; 0x11c <__vector_24+0x11c>
 11c:	88 3c       	cpi	r24, 0xC8	; 200
 11e:	91 05       	cpc	r25, r1
 120:	01 f4       	brne	.+0      	; 0x122 <__vector_24+0x122>
 122:	00 c0       	rjmp	.+0      	; 0x124 <__vector_24+0x124>
 124:	88 3b       	cpi	r24, 0xB8	; 184
 126:	91 05       	cpc	r25, r1
 128:	01 f0       	breq	.+0      	; 0x12a <__vector_24+0x12a>
 12a:	00 c0       	rjmp	.+0      	; 0x12c <__vector_24+0x12c>
 12c:	00 c0       	rjmp	.+0      	; 0x12e <__vector_24+0x12e>
 12e:	80 91 00 00 	lds	r24, 0x0000
 132:	80 93 bb 00 	sts	0x00BB, r24
 136:	00 c0       	rjmp	.+0      	; 0x138 <__vector_24+0x138>
 138:	90 91 00 00 	lds	r25, 0x0000
 13c:	80 91 00 00 	lds	r24, 0x0000
 140:	98 17       	cp	r25, r24
 142:	00 f4       	brcc	.+0      	; 0x144 <__vector_24+0x144>
 144:	90 91 00 00 	lds	r25, 0x0000
 148:	e9 2f       	mov	r30, r25
 14a:	f0 e0       	ldi	r31, 0x00	; 0
 14c:	e0 50       	subi	r30, 0x00	; 0
 14e:	f0 40       	sbci	r31, 0x00	; 0
 150:	80 81       	ld	r24, Z
 152:	80 93 bb 00 	sts	0x00BB, r24
 156:	9f 5f       	subi	r25, 0xFF	; 255
 158:	90 93 00 00 	sts	0x0000, r25
 15c:	00 c0       	rjmp	.+0      	; 0x15e <__vector_24+0x15e>
 15e:	85 ed       	ldi	r24, 0xD5	; 213
 160:	80 93 bc 00 	sts	0x00BC, r24
 164:	80 91 bc 00 	lds	r24, 0x00BC
 168:	84 fd       	sbrc	r24, 4
 16a:	00 c0       	rjmp	.+0      	; 0x16c <__vector_24+0x16c>
 16c:	00 c0       	rjmp	.+0      	; 0x16e <__vector_24+0x16e>
 16e:	80 e2       	ldi	r24, 0x20	; 32
 170:	80 93 00 00 	sts	0x0000, r24
 174:	85 ed       	ldi	r24, 0xD5	; 213
 176:	80 93 bc 00 	sts	0x00BC, r24
 17a:	80 91 bc 00 	lds	r24, 0x00BC
 17e:	84 fd       	sbrc	r24, 4
 180:	00 c0       	rjmp	.+0      	; 0x182 <__vector_24+0x182>
 182:	00 c0       	rjmp	.+0      	; 0x184 <__vector_24+0x184>
 184:	80 e3       	ldi	r24, 0x30	; 48
 186:	80 93 00 00 	sts	0x0000, r24
 18a:	85 ed       	ldi	r24, 0xD5	; 213
 18c:	80 93 bc 00 	sts	0x00BC, r24
 190:	80 91 bc 00 	lds	r24, 0x00BC
 194:	84 fd       	sbrc	r24, 4
 196:	00 c0       	rjmp	.+0      	; 0x198 <__vector_24+0x198>
 198:	00 c0       	rjmp	.+0      	; 0x19a <__vector_24+0x19a>
 19a:	88 e3       	ldi	r24, 0x38	; 56
 19c:	80 93 00 00 	sts	0x0000, r24
 1a0:	00 c0       	rjmp	.+0      	; 0x1a2 <__vector_24+0x1a2>
 1a2:	80 91 00 00 	lds	r24, 0x0000
 1a6:	90 91 bb 00 	lds	r25, 0x00BB
 1aa:	e8 2f       	mov	r30, r24
 1ac:	f0 e0       	ldi	r31, 0x00	; 0
 1ae:	e0 50       	subi	r30, 0x00	; 0
 1b0:	f0 40       	sbci	r31, 0x00	; 0
 1b2:	90 83       	st	Z, r25
 1b4:	8f 5f       	subi	r24, 0xFF	; 255
 1b6:	80 93 00 00 	sts	0x0000, r24
 1ba:	90 91 00 00 	lds	r25, 0x0000
 1be:	80 91 00 00 	lds	r24, 0x0000
 1c2:	00 c0       	rjmp	.+0      	; 0x1c4 <__vector_24+0x1c4>
 1c4:	80 91 00 00 	lds	r24, 0x0000
 1c8:	90 91 bb 00 	lds	r25, 0x00BB
 1cc:	e8 2f       	mov	r30, r24
 1ce:	f0 e0       	ldi	r31, 0x00	; 0
 1d0:	e0 50       	subi	r30, 0x00	; 0
 1d2:	f0 40       	sbci	r31, 0x00	; 0
 1d4:	90 83       	st	Z, r25
 1d6:	8f 5f       	subi	r24, 0xFF	; 255
 1d8:	80 93 00 00 	sts	0x0000, r24
 1dc:	85 ed       	ldi	r24, 0xD5	; 213
 1de:	80 93 bc 00 	sts	0x00BC, r24
 1e2:	80 91 bc 00 	lds	r24, 0x00BC
 1e6:	84 fd       	sbrc	r24, 4
 1e8:	00 c0       	rjmp	.+0      	; 0x1ea <__vector_24+0x1ea>
 1ea:	00 c0       	rjmp	.+0      	; 0x1ec <__vector_24+0x1ec>
 1ec:	83 e0       	ldi	r24, 0x03	; 3
 1ee:	80 93 00 00 	sts	0x0000, r24
 1f2:	10 92 00 00 	sts	0x0000, r1
 1f6:	00 c0       	rjmp	.+0      	; 0x1f8 <__vector_24+0x1f8>
 1f8:	80 91 00 00 	lds	r24, 0x0000
 1fc:	80 32       	cpi	r24, 0x20	; 32
 1fe:	00 f0       	brcs	.+0      	; 0x200 <__vector_24+0x200>
 200:	00 c0       	rjmp	.+0      	; 0x202 <__vector_24+0x202>
 202:	80 91 00 00 	lds	r24, 0x0000
 206:	90 91 bb 00 	lds	r25, 0x00BB
 20a:	e8 2f       	mov	r30, r24
 20c:	f0 e0       	ldi	r31, 0x00	; 0
 20e:	e0 50       	subi	r30, 0x00	; 0
 210:	f0 40       	sbci	r31, 0x00	; 0
 212:	90 83       	st	Z, r25
 214:	8f 5f       	subi	r24, 0xFF	; 255
 216:	80 93 00 00 	sts	0x0000, r24
 21a:	00 c0       	rjmp	.+0      	; 0x21c <__vector_24+0x21c>
 21c:	80 91 00 00 	lds	r24, 0x0000
 220:	80 32       	cpi	r24, 0x20	; 32
 222:	00 f4       	brcc	.+0      	; 0x224 <__vector_24+0x224>
 224:	e0 91 00 00 	lds	r30, 0x0000
 228:	f0 e0       	ldi	r31, 0x00	; 0
 22a:	e0 50       	subi	r30, 0x00	; 0
 22c:	f0 40       	sbci	r31, 0x00	; 0
 22e:	10 82       	st	Z, r1
 230:	85 ed       	ldi	r24, 0xD5	; 213
 232:	80 93 bc 00 	sts	0x00BC, r24
 236:	80 91 bc 00 	lds	r24, 0x00BC
 23a:	84 fd       	sbrc	r24, 4
 23c:	00 c0       	rjmp	.+0      	; 0x23e <__vector_24+0x23e>
 23e:	10 92 00 00 	sts	0x0000, r1
 242:	60 91 00 00 	lds	r22, 0x0000
 246:	e0 91 00 00 	lds	r30, 0x0000
 24a:	f0 91 00 00 	lds	r31, 0x0000
 24e:	80 e0       	ldi	r24, 0x00	; 0
 250:	90 e0       	ldi	r25, 0x00	; 0
 252:	70 e0       	ldi	r23, 0x00	; 0
 254:	09 95       	icall
 256:	10 92 00 00 	sts	0x0000, r1
 25a:	00 c0       	rjmp	.+0      	; 0x25c <__vector_24+0x25c>
 25c:	84 e0       	ldi	r24, 0x04	; 4
 25e:	80 93 00 00 	sts	0x0000, r24
 262:	10 92 00 00 	sts	0x0000, r1
 266:	10 92 00 00 	sts	0x0000, r1
 26a:	e0 91 00 00 	lds	r30, 0x0000
 26e:	f0 91 00 00 	lds	r31, 0x0000
 272:	09 95       	icall
 274:	80 91 00 00 	lds	r24, 0x0000
 278:	88 23       	and	r24, r24
 27a:	01 f4       	brne	.+0      	; 0x27c <__vector_24+0x27c>
 27c:	81 e0       	ldi	r24, 0x01	; 1
 27e:	80 93 00 00 	sts	0x0000, r24
 282:	10 92 00 00 	sts	0x0000, r1
 286:	90 91 00 00 	lds	r25, 0x0000
 28a:	e9 2f       	mov	r30, r25
 28c:	f0 e0       	ldi	r31, 0x00	; 0
 28e:	e0 50       	subi	r30, 0x00	; 0
 290:	f0 40       	sbci	r31, 0x00	; 0
 292:	80 81       	ld	r24, Z
 294:	80 93 bb 00 	sts	0x00BB, r24
 298:	9f 5f       	subi	r25, 0xFF	; 255
 29a:	90 93 00 00 	sts	0x0000, r25
 29e:	90 91 00 00 	lds	r25, 0x0000
 2a2:	80 91 00 00 	lds	r24, 0x0000
 2a6:	98 17       	cp	r25, r24
 2a8:	00 f4       	brcc	.+0      	; 0x2aa <__vector_24+0x2aa>
 2aa:	85 ec       	ldi	r24, 0xC5	; 197
 2ac:	00 c0       	rjmp	.+0      	; 0x2ae <__vector_24+0x2ae>
 2ae:	85 e8       	ldi	r24, 0x85	; 133
 2b0:	80 93 bc 00 	sts	0x00BC, r24
 2b4:	00 c0       	rjmp	.+0      	; 0x2b6 <__vector_24+0x2b6>
 2b6:	85 ec       	ldi	r24, 0xC5	; 197
 2b8:	80 93 bc 00 	sts	0x00BC, r24
 2bc:	00 c0       	rjmp	.+0      	; 0x2be <__vector_24+0x2be>
 2be:	10 92 00 00 	sts	0x0000, r1
 2c2:	85 ed       	ldi	r24, 0xD5	; 213
 2c4:	80 93 bc 00 	sts	0x00BC, r24
 2c8:	80 91 bc 00 	lds	r24, 0x00BC
 2cc:	84 fd       	sbrc	r24, 4
 2ce:	00 c0       	rjmp	.+0      	; 0x2d0 <__vector_24+0x2d0>
 2d0:	10 92 00 00 	sts	0x0000, r1
 2d4:	ff 91       	pop	r31
 2d6:	ef 91       	pop	r30
 2d8:	bf 91       	pop	r27
 2da:	af 91       	pop	r26
 2dc:	9f 91       	pop	r25
 2de:	8f 91       	pop	r24
 2e0:	7f 91       	pop	r23
 2e2:	6f 91       	pop	r22
 2e4:	5f 91       	pop	r21
 2e6:	4f 91       	pop	r20
 2e8:	3f 91       	pop	r19
 2ea:	2f 91       	pop	r18
 2ec:	0f 90       	pop	r0
 2ee:	0f be       	out	0x3f, r0	; 63
 2f0:	0f 90       	pop	r0
 2f2:	1f 90       	pop	r1
 2f4:	18 95       	reti

Wire.o:     file format elf32-avr

Sections:
Idx Name          Size      VMA       LMA       File off  Algn
  0 .text         00000000  00000000  00000000  00000034  2**0
                  CONTENTS, ALLOC, LOAD, READONLY, CODE
  1 .data         00000000  00000000  00000000  00000034  2**0
                  CONTENTS, ALLOC, LOAD, DATA
  2 .bss          00000000  00000000  00000000  00000034  2**0
                  ALLOC
  3 .text._ZN7TwoWireC2Ev 00000002  00000000  00000000  00000034  2**0
                  CONTENTS, ALLOC, LOAD, READONLY, CODE
  4 .text._ZN7TwoWireC1Ev 00000002  00000000  00000000  00000036  2**0
                  CONTENTS, ALLOC, LOAD, READONLY, CODE
  5 .text._ZN7TwoWire17beginTransmissionEh 00000014  00000000  00000000  00000038  2**0
                  CONTENTS, ALLOC, LOAD, RELOC, READONLY, CODE
  6 .text._ZN7TwoWire17beginTransmissionEi 00000014  00000000  00000000  0000004c  2**0
                  CONTENTS, ALLOC, LOAD, RELOC, READONLY, CODE
  7 .text._ZN7TwoWire9availableEv 0000000c  00000000  00000000  00000060  2**0
                  CONTENTS, ALLOC, LOAD, RELOC, READONLY, CODE
  8 .text._ZN7TwoWire7receiveEv 00000022  00000000  00000000  0000006c  2**0
                  CONTENTS, ALLOC, LOAD, RELOC, READONLY, CODE
  9 .text._ZN7TwoWire16onReceiveServiceEPhi 0000004a  00000000  00000000  0000008e  2**0
                  CONTENTS, ALLOC, LOAD, RELOC, READONLY, CODE
 10 .text._ZN7TwoWire16onRequestServiceEv 00000018  00000000  00000000  000000d8  2**0
                  CONTENTS, ALLOC, LOAD, RELOC, READONLY, CODE
 11 .text._ZN7TwoWire9onReceiveEPFviE 0000000a  00000000  00000000  000000f0  2**0
                  CONTENTS, ALLOC, LOAD, RELOC, READONLY, CODE
 12 .text._ZN7TwoWire9onRequestEPFvvE 0000000a  00000000  00000000  000000fa  2**0
                  CONTENTS, ALLOC, LOAD, RELOC, READONLY, CODE
 13 .text._GLOBAL__I__ZN7TwoWire8rxBufferE 00000002  00000000  00000000  00000104  2**0
                  CONTENTS, ALLOC, LOAD, READONLY, CODE
 14 .ctors        00000002  00000000  00000000  00000106  2**0
                  CONTENTS, ALLOC, LOAD, RELOC, READONLY, DATA
 15 .text._ZN7TwoWire4sendEh 00000048  00000000  00000000  00000108  2**0
                  CONTENTS, ALLOC, LOAD, RELOC, READONLY, CODE
 16 .text._ZN7TwoWire4sendEi 00000006  00000000  00000000  00000150  2**0
                  CONTENTS, ALLOC, LOAD, RELOC, READONLY, CODE
 17 .text._ZN7TwoWire4sendEPhh 00000044  00000000  00000000  00000156  2**0
                  CONTENTS, ALLOC, LOAD, RELOC, READONLY, CODE
 18 .text._ZN7TwoWire4sendEPc 00000016  00000000  00000000  0000019a  2**0
                  CONTENTS, ALLOC, LOAD, RELOC, READONLY, CODE
 19 .text._ZN7TwoWire15endTransmissionEv 00000020  00000000  00000000  000001b0  2**0
                  CONTENTS, ALLOC, LOAD, RELOC, READONLY, CODE
 20 .text._ZN7TwoWire11requestFromEhh 0000001a  00000000  00000000  000001d0  2**0
                  CONTENTS, ALLOC, LOAD, RELOC, READONLY, CODE
 21 .text._ZN7TwoWire11requestFromEii 00000006  00000000  00000000  000001ea  2**0
                  CONTENTS, ALLOC, LOAD, RELOC, READONLY, CODE
 22 .text._ZN7TwoWire5beginEv 00000016  00000000  00000000  000001f0  2**0
                  CONTENTS, ALLOC, LOAD, RELOC, READONLY, CODE
 23 .text._ZN7TwoWire5beginEh 00000028  00000000  00000000  00000206  2**0
                  CONTENTS, ALLOC, LOAD, RELOC, READONLY, CODE
 24 .text._ZN7TwoWire5beginEi 00000006  00000000  00000000  0000022e  2**0
                  CONTENTS, ALLOC, LOAD, RELOC, READONLY, CODE
 25 .bss._ZN7TwoWire8rxBufferE 00000020  00000000  00000000  00000234  2**0
                  ALLOC
 26 .bss._ZN7TwoWire13rxBufferIndexE 00000001  00000000  00000000  00000234  2**0
                  ALLOC
 27 .bss._ZN7TwoWire14rxBufferLengthE 00000001  00000000  00000000  00000234  2**0
                  ALLOC
 28 .bss._ZN7TwoWire9txAddressE 00000001  00000000  00000000  00000234  2**0
                  ALLOC
 29 .bss._ZN7TwoWire8txBufferE 00000020  00000000  00000000  00000234  2**0
                  ALLOC
 30 .bss._ZN7TwoWire13txBufferIndexE 00000001  00000000  00000000  00000234  2**0
                  ALLOC
 31 .bss._ZN7TwoWire14txBufferLengthE 00000001  00000000  00000000  00000234  2**0
                  ALLOC
 32 .bss._ZN7TwoWire12transmittingE 00000001  00000000  00000000  00000234  2**0
                  ALLOC
 33 .bss._ZN7TwoWire14user_onRequestE 00000002  00000000  00000000  00000234  2**0
                  ALLOC
 34 .bss._ZN7TwoWire14user_onReceiveE 00000002  00000000  00000000  00000234  2**0
                  ALLOC
 35 .bss.Wire     00000001  00000000  00000000  00000234  2**0
                  ALLOC

Disassembly of section .text._ZN7TwoWireC2Ev:

00000000 <_ZN7TwoWireC2Ev>:
   0:	08 95       	ret

Disassembly of section .text._ZN7TwoWireC1Ev:

00000000 <_ZN7TwoWireC1Ev>:
   0:	08 95       	ret

Disassembly of section .text._ZN7TwoWire17beginTransmissionEh:

00000000 <_ZN7TwoWire17beginTransmissionEh>:
   0:	81 e0       	ldi	r24, 0x01	; 1
   2:	80 93 00 00 	sts	0x0000, r24
   6:	60 93 00 00 	sts	0x0000, r22
   a:	10 92 00 00 	sts	0x0000, r1
   e:	10 92 00 00 	sts	0x0000, r1
  12:	08 95       	ret

Disassembly of section .text._ZN7TwoWire17beginTransmissionEi:

00000000 <_ZN7TwoWire17beginTransmissionEi>:
   0:	81 e0       	ldi	r24, 0x01	; 1
   2:	80 93 00 00 	sts	0x0000, r24
   6:	60 93 00 00 	sts	0x0000, r22
   a:	10 92 00 00 	sts	0x0000, r1
   e:	10 92 00 00 	sts	0x0000, r1
  12:	08 95       	ret

Disassembly of section .text._ZN7TwoWire9availableEv:

00000000 <_ZN7TwoWire9availableEv>:
   0:	80 91 00 00 	lds	r24, 0x0000
   4:	90 91 00 00 	lds	r25, 0x0000
   8:	89 1b       	sub	r24, r25
   a:	08 95       	ret

Disassembly of section .text._ZN7TwoWire7receiveEv:

00000000 <_ZN7TwoWire7receiveEv>:
   0:	90 91 00 00 	lds	r25, 0x0000
   4:	80 91 00 00 	lds	r24, 0x0000
   8:	98 17       	cp	r25, r24
   a:	00 f0       	brcs	.+0      	; 0xc <_ZN7TwoWire7receiveEv+0xc>
   c:	80 e0       	ldi	r24, 0x00	; 0
   e:	08 95       	ret
  10:	e9 2f       	mov	r30, r25
  12:	f0 e0       	ldi	r31, 0x00	; 0
  14:	e0 50       	subi	r30, 0x00	; 0
  16:	f0 40       	sbci	r31, 0x00	; 0
  18:	80 81       	ld	r24, Z
  1a:	9f 5f       	subi	r25, 0xFF	; 255
  1c:	90 93 00 00 	sts	0x0000, r25
  20:	08 95       	ret

Disassembly of section .text._ZN7TwoWire16onReceiveServiceEPhi:

00000000 <_ZN7TwoWire16onReceiveServiceEPhi>:
   0:	ac 01       	movw	r20, r24
   2:	20 91 00 00 	lds	r18, 0x0000
   6:	30 91 00 00 	lds	r19, 0x0000
   a:	21 15       	cp	r18, r1
   c:	31 05       	cpc	r19, r1
   e:	01 f0       	breq	.+0      	; 0x10 <_ZN7TwoWire16onReceiveServiceEPhi+0x10>
  10:	90 91 00 00 	lds	r25, 0x0000
  14:	80 91 00 00 	lds	r24, 0x0000
  18:	98 17       	cp	r25, r24
  1a:	00 f0       	brcs	.+0      	; 0x1c <_ZN7TwoWire16onReceiveServiceEPhi+0x1c>
  1c:	90 e0       	ldi	r25, 0x00	; 0
  1e:	00 c0       	rjmp	.+0      	; 0x20 <_ZN7TwoWire16onReceiveServiceEPhi+0x20>
  20:	fa 01       	movw	r30, r20
  22:	ea 0f       	add	r30, r26
  24:	fb 1f       	adc	r31, r27
  26:	80 81       	ld	r24, Z
  28:	a0 50       	subi	r26, 0x00	; 0
  2a:	b0 40       	sbci	r27, 0x00	; 0
  2c:	8c 93       	st	X, r24
  2e:	9f 5f       	subi	r25, 0xFF	; 255
  30:	a9 2f       	mov	r26, r25
  32:	b0 e0       	ldi	r27, 0x00	; 0
  34:	a6 17       	cp	r26, r22
  36:	b7 07       	cpc	r27, r23
  38:	04 f0       	brlt	.+0      	; 0x3a <_ZN7TwoWire16onReceiveServiceEPhi+0x3a>
  3a:	10 92 00 00 	sts	0x0000, r1
  3e:	60 93 00 00 	sts	0x0000, r22
  42:	cb 01       	movw	r24, r22
  44:	f9 01       	movw	r30, r18
  46:	09 95       	icall
  48:	08 95       	ret

Disassembly of section .text._ZN7TwoWire16onRequestServiceEv:

00000000 <_ZN7TwoWire16onRequestServiceEv>:
   0:	e0 91 00 00 	lds	r30, 0x0000
   4:	f0 91 00 00 	lds	r31, 0x0000
   8:	30 97       	sbiw	r30, 0x00	; 0
   a:	01 f0       	breq	.+0      	; 0xc <_ZN7TwoWire16onRequestServiceEv+0xc>
   c:	10 92 00 00 	sts	0x0000, r1
  10:	10 92 00 00 	sts	0x0000, r1
  14:	09 95       	icall
  16:	08 95       	ret

Disassembly of section .text._ZN7TwoWire9onReceiveEPFviE:

00000000 <_ZN7TwoWire9onReceiveEPFviE>:
   0:	70 93 00 00 	sts	0x0000, r23
   4:	60 93 00 00 	sts	0x0000, r22
   8:	08 95       	ret

Disassembly of section .text._ZN7TwoWire9onRequestEPFvvE:

00000000 <_ZN7TwoWire9onRequestEPFvvE>:
   0:	70 93 00 00 	sts	0x0000, r23
   4:	60 93 00 00 	sts	0x0000, r22
   8:	08 95       	ret

Disassembly of section .text._GLOBAL__I__ZN7TwoWire8rxBufferE:

00000000 <_GLOBAL__I__ZN7TwoWire8rxBufferE>:
   0:	08 95       	ret

Disassembly of section .text._ZN7TwoWire4sendEh:

00000000 <_ZN7TwoWire4sendEh>:
   0:	df 93       	push	r29
   2:	cf 93       	push	r28
   4:	0f 92       	push	r0
   6:	cd b7       	in	r28, 0x3d	; 61
   8:	de b7       	in	r29, 0x3e	; 62
   a:	69 83       	std	Y+1, r22	; 0x01
   c:	80 91 00 00 	lds	r24, 0x0000
  10:	88 23       	and	r24, r24
  12:	01 f0       	breq	.+0      	; 0x14 <_ZN7TwoWire4sendEh+0x14>
  14:	80 91 00 00 	lds	r24, 0x0000
  18:	80 32       	cpi	r24, 0x20	; 32
  1a:	00 f4       	brcc	.+0      	; 0x1c <_ZN7TwoWire4sendEh+0x1c>
  1c:	80 91 00 00 	lds	r24, 0x0000
  20:	e8 2f       	mov	r30, r24
  22:	f0 e0       	ldi	r31, 0x00	; 0
  24:	e0 50       	subi	r30, 0x00	; 0
  26:	f0 40       	sbci	r31, 0x00	; 0
  28:	60 83       	st	Z, r22
  2a:	8f 5f       	subi	r24, 0xFF	; 255
  2c:	80 93 00 00 	sts	0x0000, r24
  30:	80 93 00 00 	sts	0x0000, r24
  34:	00 c0       	rjmp	.+0      	; 0x36 <_ZN7TwoWire4sendEh+0x36>
  36:	ce 01       	movw	r24, r28
  38:	01 96       	adiw	r24, 0x01	; 1
  3a:	61 e0       	ldi	r22, 0x01	; 1
  3c:	0e 94 00 00 	call	0	; 0x0 <_ZN7TwoWire4sendEh>
  40:	0f 90       	pop	r0
  42:	cf 91       	pop	r28
  44:	df 91       	pop	r29
  46:	08 95       	ret

Disassembly of section .text._ZN7TwoWire4sendEi:

00000000 <_ZN7TwoWire4sendEi>:
   0:	0e 94 00 00 	call	0	; 0x0 <_ZN7TwoWire4sendEi>
   4:	08 95       	ret

Disassembly of section .text._ZN7TwoWire4sendEPhh:

00000000 <_ZN7TwoWire4sendEPhh>:
   0:	ef 92       	push	r14
   2:	ff 92       	push	r15
   4:	0f 93       	push	r16
   6:	1f 93       	push	r17
   8:	cf 93       	push	r28
   a:	df 93       	push	r29
   c:	7c 01       	movw	r14, r24
   e:	04 2f       	mov	r16, r20
  10:	80 91 00 00 	lds	r24, 0x0000
  14:	88 23       	and	r24, r24
  16:	01 f0       	breq	.+0      	; 0x18 <_ZN7TwoWire4sendEPhh+0x18>
  18:	eb 01       	movw	r28, r22
  1a:	10 e0       	ldi	r17, 0x00	; 0
  1c:	00 c0       	rjmp	.+0      	; 0x1e <_ZN7TwoWire4sendEPhh+0x1e>
  1e:	c7 01       	movw	r24, r14
  20:	69 91       	ld	r22, Y+
  22:	0e 94 00 00 	call	0	; 0x0 <_ZN7TwoWire4sendEPhh>
  26:	1f 5f       	subi	r17, 0xFF	; 255
  28:	10 17       	cp	r17, r16
  2a:	00 f0       	brcs	.+0      	; 0x2c <_ZN7TwoWire4sendEPhh+0x2c>
  2c:	00 c0       	rjmp	.+0      	; 0x2e <_ZN7TwoWire4sendEPhh+0x2e>
  2e:	cb 01       	movw	r24, r22
  30:	64 2f       	mov	r22, r20
  32:	0e 94 00 00 	call	0	; 0x0 <_ZN7TwoWire4sendEPhh>
  36:	df 91       	pop	r29
  38:	cf 91       	pop	r28
  3a:	1f 91       	pop	r17
  3c:	0f 91       	pop	r16
  3e:	ff 90       	pop	r15
  40:	ef 90       	pop	r14
  42:	08 95       	ret

Disassembly of section .text._ZN7TwoWire4sendEPc:

00000000 <_ZN7TwoWire4sendEPc>:
   0:	db 01       	movw	r26, r22
   2:	0d 90       	ld	r0, X+
   4:	00 20       	and	r0, r0
   6:	01 f4       	brne	.+0      	; 0x8 <_ZN7TwoWire4sendEPc+0x8>
   8:	11 97       	sbiw	r26, 0x01	; 1
   a:	a6 1b       	sub	r26, r22
   c:	b7 0b       	sbc	r27, r23
   e:	4a 2f       	mov	r20, r26
  10:	0e 94 00 00 	call	0	; 0x0 <_ZN7TwoWire4sendEPc>
  14:	08 95       	ret

Disassembly of section .text._ZN7TwoWire15endTransmissionEv:

00000000 <_ZN7TwoWire15endTransmissionEv>:
   0:	80 91 00 00 	lds	r24, 0x0000
   4:	60 e0       	ldi	r22, 0x00	; 0
   6:	70 e0       	ldi	r23, 0x00	; 0
   8:	40 91 00 00 	lds	r20, 0x0000
   c:	21 e0       	ldi	r18, 0x01	; 1
   e:	0e 94 00 00 	call	0	; 0x0 <_ZN7TwoWire15endTransmissionEv>
  12:	10 92 00 00 	sts	0x0000, r1
  16:	10 92 00 00 	sts	0x0000, r1
  1a:	10 92 00 00 	sts	0x0000, r1
  1e:	08 95       	ret

Disassembly of section .text._ZN7TwoWire11requestFromEhh:

00000000 <_ZN7TwoWire11requestFromEhh>:
   0:	41 32       	cpi	r20, 0x21	; 33
   2:	00 f0       	brcs	.+0      	; 0x4 <_ZN7TwoWire11requestFromEhh+0x4>
   4:	40 e2       	ldi	r20, 0x20	; 32
   6:	86 2f       	mov	r24, r22
   8:	60 e0       	ldi	r22, 0x00	; 0
   a:	70 e0       	ldi	r23, 0x00	; 0
   c:	0e 94 00 00 	call	0	; 0x0 <_ZN7TwoWire11requestFromEhh>
  10:	10 92 00 00 	sts	0x0000, r1
  14:	80 93 00 00 	sts	0x0000, r24
  18:	08 95       	ret

Disassembly of section .text._ZN7TwoWire11requestFromEii:

00000000 <_ZN7TwoWire11requestFromEii>:
   0:	0e 94 00 00 	call	0	; 0x0 <_ZN7TwoWire11requestFromEii>
   4:	08 95       	ret

Disassembly of section .text._ZN7TwoWire5beginEv:

00000000 <_ZN7TwoWire5beginEv>:
   0:	10 92 00 00 	sts	0x0000, r1
   4:	10 92 00 00 	sts	0x0000, r1
   8:	10 92 00 00 	sts	0x0000, r1
   c:	10 92 00 00 	sts	0x0000, r1
  10:	0e 94 00 00 	call	0	; 0x0 <_ZN7TwoWire5beginEv>
  14:	08 95       	ret

Disassembly of section .text._ZN7TwoWire5beginEh:

00000000 <_ZN7TwoWire5beginEh>:
   0:	0f 93       	push	r16
   2:	1f 93       	push	r17
   4:	8c 01       	movw	r16, r24
   6:	86 2f       	mov	r24, r22
   8:	0e 94 00 00 	call	0	; 0x0 <_ZN7TwoWire5beginEh>
   c:	80 e0       	ldi	r24, 0x00	; 0
   e:	90 e0       	ldi	r25, 0x00	; 0
  10:	0e 94 00 00 	call	0	; 0x0 <_ZN7TwoWire5beginEh>
  14:	80 e0       	ldi	r24, 0x00	; 0
  16:	90 e0       	ldi	r25, 0x00	; 0
  18:	0e 94 00 00 	call	0	; 0x0 <_ZN7TwoWire5beginEh>
  1c:	c8 01       	movw	r24, r16
  1e:	0e 94 00 00 	call	0	; 0x0 <_ZN7TwoWire5beginEh>
  22:	1f 91       	pop	r17
  24:	0f 91       	pop	r16
  26:	08 95       	ret

Disassembly of section .text._ZN7TwoWire5beginEi:

00000000 <_ZN7TwoWire5beginEi>:
   0:	0e 94 00 00 	call	0	; 0x0 <_ZN7TwoWire5beginEi>
   4:	08 95       	ret

Stepper.o:     file format elf32-avr

Sections:
Idx Name          Size      VMA       LMA       File off  Algn
  0 .text         00000000  00000000  00000000  00000034  2**0
                  CONTENTS, ALLOC, LOAD, READONLY, CODE
  1 .data         00000000  00000000  00000000  00000034  2**0
                  CONTENTS, ALLOC, LOAD, DATA
  2 .bss          00000000  00000000  00000000  00000034  2**0
                  ALLOC
  3 .text._ZN7Stepper8setSpeedEl 00000050  00000000  00000000  00000034  2**0
                  CONTENTS, ALLOC, LOAD, RELOC, READONLY, CODE
  4 .text._ZN7Stepper7versionEv 00000006  00000000  00000000  00000084  2**0
                  CONTENTS, ALLOC, LOAD, READONLY, CODE
  5 .text._ZN7Stepper9stepMotorEi 000000ec  00000000  00000000  0000008a  2**0
                  CONTENTS, ALLOC, LOAD, RELOC, READONLY, CODE
  6 .text._ZN7Stepper4stepEi 000000c4  00000000  00000000  00000176  2**0
                  CONTENTS, ALLOC, LOAD, RELOC, READONLY, CODE
  7 .text._ZN7StepperC1Eiiiii 00000076  00000000  00000000  0000023a  2**0
                  CONTENTS, ALLOC, LOAD, RELOC, READONLY, CODE
  8 .text._ZN7StepperC2Eiiiii 00000076  00000000  00000000  000002b0  2**0
                  CONTENTS, ALLOC, LOAD, RELOC, READONLY, CODE
  9 .text._ZN7StepperC1Eiii 00000052  00000000  00000000  00000326  2**0
                  CONTENTS, ALLOC, LOAD, RELOC, READONLY, CODE
 10 .text._ZN7StepperC2Eiii 00000052  00000000  00000000  00000378  2**0
                  CONTENTS, ALLOC, LOAD, RELOC, READONLY, CODE

Disassembly of section .text._ZN7Stepper8setSpeedEl:

00000000 <_ZN7Stepper8setSpeedEl>:
   0:	cf 92       	push	r12
   2:	df 92       	push	r13
   4:	ef 92       	push	r14
   6:	ff 92       	push	r15
   8:	0f 93       	push	r16
   a:	1f 93       	push	r17
   c:	6c 01       	movw	r12, r24
   e:	7a 01       	movw	r14, r20
  10:	8b 01       	movw	r16, r22
  12:	fc 01       	movw	r30, r24
  14:	20 85       	ldd	r18, Z+8	; 0x08
  16:	31 85       	ldd	r19, Z+9	; 0x09
  18:	44 27       	eor	r20, r20
  1a:	37 fd       	sbrc	r19, 7
  1c:	40 95       	com	r20
  1e:	54 2f       	mov	r21, r20
  20:	60 e6       	ldi	r22, 0x60	; 96
  22:	7a ee       	ldi	r23, 0xEA	; 234
  24:	80 e0       	ldi	r24, 0x00	; 0
  26:	90 e0       	ldi	r25, 0x00	; 0
  28:	0e 94 00 00 	call	0	; 0x0 <_ZN7Stepper8setSpeedEl>
  2c:	ca 01       	movw	r24, r20
  2e:	b9 01       	movw	r22, r18
  30:	a8 01       	movw	r20, r16
  32:	97 01       	movw	r18, r14
  34:	0e 94 00 00 	call	0	; 0x0 <_ZN7Stepper8setSpeedEl>
  38:	f6 01       	movw	r30, r12
  3a:	24 83       	std	Z+4, r18	; 0x04
  3c:	35 83       	std	Z+5, r19	; 0x05
  3e:	46 83       	std	Z+6, r20	; 0x06
  40:	57 83       	std	Z+7, r21	; 0x07
  42:	1f 91       	pop	r17
  44:	0f 91       	pop	r16
  46:	ff 90       	pop	r15
  48:	ef 90       	pop	r14
  4a:	df 90       	pop	r13
  4c:	cf 90       	pop	r12
  4e:	08 95       	ret

Disassembly of section .text._ZN7Stepper7versionEv:

00000000 <_ZN7Stepper7versionEv>:
   0:	84 e0       	ldi	r24, 0x04	; 4
   2:	90 e0       	ldi	r25, 0x00	; 0
   4:	08 95       	ret

Disassembly of section .text._ZN7Stepper9stepMotorEi:

00000000 <_ZN7Stepper9stepMotorEi>:
   0:	0f 93       	push	r16
   2:	1f 93       	push	r17
   4:	cf 93       	push	r28
   6:	df 93       	push	r29
   8:	ec 01       	movw	r28, r24
   a:	8b 01       	movw	r16, r22
   c:	8a 85       	ldd	r24, Y+10	; 0x0a
   e:	9b 85       	ldd	r25, Y+11	; 0x0b
  10:	02 97       	sbiw	r24, 0x02	; 2
  12:	01 f4       	brne	.+0      	; 0x14 <_ZN7Stepper9stepMotorEi+0x14>
  14:	61 30       	cpi	r22, 0x01	; 1
  16:	71 05       	cpc	r23, r1
  18:	01 f0       	breq	.+0      	; 0x1a <_ZN7Stepper9stepMotorEi+0x1a>
  1a:	62 30       	cpi	r22, 0x02	; 2
  1c:	71 05       	cpc	r23, r1
  1e:	04 f4       	brge	.+0      	; 0x20 <_ZN7Stepper9stepMotorEi+0x20>
  20:	61 15       	cp	r22, r1
  22:	71 05       	cpc	r23, r1
  24:	01 f0       	breq	.+0      	; 0x26 <_ZN7Stepper9stepMotorEi+0x26>
  26:	00 c0       	rjmp	.+0      	; 0x28 <_ZN7Stepper9stepMotorEi+0x28>
  28:	62 30       	cpi	r22, 0x02	; 2
  2a:	71 05       	cpc	r23, r1
  2c:	01 f0       	breq	.+0      	; 0x2e <_ZN7Stepper9stepMotorEi+0x2e>
  2e:	63 30       	cpi	r22, 0x03	; 3
  30:	71 05       	cpc	r23, r1
  32:	01 f4       	brne	.+0      	; 0x34 <_ZN7Stepper9stepMotorEi+0x34>
  34:	00 c0       	rjmp	.+0      	; 0x36 <_ZN7Stepper9stepMotorEi+0x36>
  36:	8e 85       	ldd	r24, Y+14	; 0x0e
  38:	60 e0       	ldi	r22, 0x00	; 0
  3a:	00 c0       	rjmp	.+0      	; 0x3c <_ZN7Stepper9stepMotorEi+0x3c>
  3c:	8e 85       	ldd	r24, Y+14	; 0x0e
  3e:	61 e0       	ldi	r22, 0x01	; 1
  40:	0e 94 00 00 	call	0	; 0x0 <_ZN7Stepper9stepMotorEi>
  44:	88 89       	ldd	r24, Y+16	; 0x10
  46:	61 e0       	ldi	r22, 0x01	; 1
  48:	00 c0       	rjmp	.+0      	; 0x4a <_ZN7Stepper9stepMotorEi+0x4a>
  4a:	8e 85       	ldd	r24, Y+14	; 0x0e
  4c:	61 e0       	ldi	r22, 0x01	; 1
  4e:	00 c0       	rjmp	.+0      	; 0x50 <_ZN7Stepper9stepMotorEi+0x50>
  50:	8e 85       	ldd	r24, Y+14	; 0x0e
  52:	60 e0       	ldi	r22, 0x00	; 0
  54:	0e 94 00 00 	call	0	; 0x0 <_ZN7Stepper9stepMotorEi>
  58:	88 89       	ldd	r24, Y+16	; 0x10
  5a:	60 e0       	ldi	r22, 0x00	; 0
  5c:	0e 94 00 00 	call	0	; 0x0 <_ZN7Stepper9stepMotorEi>
  60:	8a 85       	ldd	r24, Y+10	; 0x0a
  62:	9b 85       	ldd	r25, Y+11	; 0x0b
  64:	04 97       	sbiw	r24, 0x04	; 4
  66:	01 f4       	brne	.+0      	; 0x68 <_ZN7Stepper9stepMotorEi+0x68>
  68:	01 30       	cpi	r16, 0x01	; 1
  6a:	11 05       	cpc	r17, r1
  6c:	01 f0       	breq	.+0      	; 0x6e <_ZN7Stepper9stepMotorEi+0x6e>
  6e:	02 30       	cpi	r16, 0x02	; 2
  70:	11 05       	cpc	r17, r1
  72:	04 f4       	brge	.+0      	; 0x74 <_ZN7Stepper9stepMotorEi+0x74>
  74:	01 2b       	or	r16, r17
  76:	01 f0       	breq	.+0      	; 0x78 <_ZN7Stepper9stepMotorEi+0x78>
  78:	00 c0       	rjmp	.+0      	; 0x7a <_ZN7Stepper9stepMotorEi+0x7a>
  7a:	02 30       	cpi	r16, 0x02	; 2
  7c:	11 05       	cpc	r17, r1
  7e:	01 f0       	breq	.+0      	; 0x80 <_ZN7Stepper9stepMotorEi+0x80>
  80:	03 30       	cpi	r16, 0x03	; 3
  82:	11 05       	cpc	r17, r1
  84:	01 f4       	brne	.+0      	; 0x86 <_ZN7Stepper9stepMotorEi+0x86>
  86:	00 c0       	rjmp	.+0      	; 0x88 <_ZN7Stepper9stepMotorEi+0x88>
  88:	8e 85       	ldd	r24, Y+14	; 0x0e
  8a:	61 e0       	ldi	r22, 0x01	; 1
  8c:	0e 94 00 00 	call	0	; 0x0 <_ZN7Stepper9stepMotorEi>
  90:	88 89       	ldd	r24, Y+16	; 0x10
  92:	60 e0       	ldi	r22, 0x00	; 0
  94:	00 c0       	rjmp	.+0      	; 0x96 <_ZN7Stepper9stepMotorEi+0x96>
  96:	8e 85       	ldd	r24, Y+14	; 0x0e
  98:	60 e0       	ldi	r22, 0x00	; 0
  9a:	0e 94 00 00 	call	0	; 0x0 <_ZN7Stepper9stepMotorEi>
  9e:	88 89       	ldd	r24, Y+16	; 0x10
  a0:	61 e0       	ldi	r22, 0x01	; 1
  a2:	0e 94 00 00 	call	0	; 0x0 <_ZN7Stepper9stepMotorEi>
  a6:	8a 89       	ldd	r24, Y+18	; 0x12
  a8:	61 e0       	ldi	r22, 0x01	; 1
  aa:	0e 94 00 00 	call	0	; 0x0 <_ZN7Stepper9stepMotorEi>
  ae:	8c 89       	ldd	r24, Y+20	; 0x14
  b0:	60 e0       	ldi	r22, 0x00	; 0
  b2:	00 c0       	rjmp	.+0      	; 0xb4 <_ZN7Stepper9stepMotorEi+0xb4>
  b4:	8e 85       	ldd	r24, Y+14	; 0x0e
  b6:	60 e0       	ldi	r22, 0x00	; 0
  b8:	0e 94 00 00 	call	0	; 0x0 <_ZN7Stepper9stepMotorEi>
  bc:	88 89       	ldd	r24, Y+16	; 0x10
  be:	61 e0       	ldi	r22, 0x01	; 1
  c0:	00 c0       	rjmp	.+0      	; 0xc2 <_ZN7Stepper9stepMotorEi+0xc2>
  c2:	8e 85       	ldd	r24, Y+14	; 0x0e
  c4:	61 e0       	ldi	r22, 0x01	; 1
  c6:	0e 94 00 00 	call	0	; 0x0 <_ZN7Stepper9stepMotorEi>
  ca:	88 89       	ldd	r24, Y+16	; 0x10
  cc:	60 e0       	ldi	r22, 0x00	; 0
  ce:	0e 94 00 00 	call	0	; 0x0 <_ZN7Stepper9stepMotorEi>
  d2:	8a 89       	ldd	r24, Y+18	; 0x12
  d4:	60 e0       	ldi	r22, 0x00	; 0
  d6:	0e 94 00 00 	call	0	; 0x0 <_ZN7Stepper9stepMotorEi>
  da:	8c 89       	ldd	r24, Y+20	; 0x14
  dc:	61 e0       	ldi	r22, 0x01	; 1
  de:	0e 94 00 00 	call	0	; 0x0 <_ZN7Stepper9stepMotorEi>
  e2:	df 91       	pop	r29
  e4:	cf 91       	pop	r28
  e6:	1f 91       	pop	r17
  e8:	0f 91       	pop	r16
  ea:	08 95       	ret

Disassembly of section .text._ZN7Stepper4stepEi:

00000000 <_ZN7Stepper4stepEi>:
   0:	0f 93       	push	r16
   2:	1f 93       	push	r17
   4:	cf 93       	push	r28
   6:	df 93       	push	r29
   8:	ec 01       	movw	r28, r24
   a:	16 16       	cp	r1, r22
   c:	17 06       	cpc	r1, r23
   e:	04 f4       	brge	.+0      	; 0x10 <_ZN7Stepper4stepEi+0x10>
  10:	81 e0       	ldi	r24, 0x01	; 1
  12:	90 e0       	ldi	r25, 0x00	; 0
  14:	99 83       	std	Y+1, r25	; 0x01
  16:	88 83       	st	Y, r24
  18:	77 ff       	sbrs	r23, 7
  1a:	00 c0       	rjmp	.+0      	; 0x1c <_ZN7Stepper4stepEi+0x1c>
  1c:	19 82       	std	Y+1, r1	; 0x01
  1e:	18 82       	st	Y, r1
  20:	8b 01       	movw	r16, r22
  22:	77 ff       	sbrs	r23, 7
  24:	00 c0       	rjmp	.+0      	; 0x26 <_ZN7Stepper4stepEi+0x26>
  26:	10 95       	com	r17
  28:	01 95       	neg	r16
  2a:	1f 4f       	sbci	r17, 0xFF	; 255
  2c:	00 c0       	rjmp	.+0      	; 0x2e <_ZN7Stepper4stepEi+0x2e>
  2e:	0e 94 00 00 	call	0	; 0x0 <_ZN7Stepper4stepEi>
  32:	2e 89       	ldd	r18, Y+22	; 0x16
  34:	3f 89       	ldd	r19, Y+23	; 0x17
  36:	48 8d       	ldd	r20, Y+24	; 0x18
  38:	59 8d       	ldd	r21, Y+25	; 0x19
  3a:	62 1b       	sub	r22, r18
  3c:	73 0b       	sbc	r23, r19
  3e:	84 0b       	sbc	r24, r20
  40:	95 0b       	sbc	r25, r21
  42:	2c 81       	ldd	r18, Y+4	; 0x04
  44:	3d 81       	ldd	r19, Y+5	; 0x05
  46:	4e 81       	ldd	r20, Y+6	; 0x06
  48:	5f 81       	ldd	r21, Y+7	; 0x07
  4a:	62 17       	cp	r22, r18
  4c:	73 07       	cpc	r23, r19
  4e:	84 07       	cpc	r24, r20
  50:	95 07       	cpc	r25, r21
  52:	00 f0       	brcs	.+0      	; 0x54 <_ZN7Stepper4stepEi+0x54>
  54:	0e 94 00 00 	call	0	; 0x0 <_ZN7Stepper4stepEi>
  58:	6e 8b       	std	Y+22, r22	; 0x16
  5a:	7f 8b       	std	Y+23, r23	; 0x17
  5c:	88 8f       	std	Y+24, r24	; 0x18
  5e:	99 8f       	std	Y+25, r25	; 0x19
  60:	88 81       	ld	r24, Y
  62:	99 81       	ldd	r25, Y+1	; 0x01
  64:	2c 85       	ldd	r18, Y+12	; 0x0c
  66:	3d 85       	ldd	r19, Y+13	; 0x0d
  68:	01 97       	sbiw	r24, 0x01	; 1
  6a:	01 f4       	brne	.+0      	; 0x6c <_ZN7Stepper4stepEi+0x6c>
  6c:	2f 5f       	subi	r18, 0xFF	; 255
  6e:	3f 4f       	sbci	r19, 0xFF	; 255
  70:	3d 87       	std	Y+13, r19	; 0x0d
  72:	2c 87       	std	Y+12, r18	; 0x0c
  74:	88 85       	ldd	r24, Y+8	; 0x08
  76:	99 85       	ldd	r25, Y+9	; 0x09
  78:	28 17       	cp	r18, r24
  7a:	39 07       	cpc	r19, r25
  7c:	01 f4       	brne	.+0      	; 0x7e <_ZN7Stepper4stepEi+0x7e>
  7e:	1d 86       	std	Y+13, r1	; 0x0d
  80:	1c 86       	std	Y+12, r1	; 0x0c
  82:	00 c0       	rjmp	.+0      	; 0x84 <_ZN7Stepper4stepEi+0x84>
  84:	23 2b       	or	r18, r19
  86:	01 f4       	brne	.+0      	; 0x88 <_ZN7Stepper4stepEi+0x88>
  88:	88 85       	ldd	r24, Y+8	; 0x08
  8a:	99 85       	ldd	r25, Y+9	; 0x09
  8c:	9d 87       	std	Y+13, r25	; 0x0d
  8e:	8c 87       	std	Y+12, r24	; 0x0c
  90:	8c 85       	ldd	r24, Y+12	; 0x0c
  92:	9d 85       	ldd	r25, Y+13	; 0x0d
  94:	01 97       	sbiw	r24, 0x01	; 1
  96:	9d 87       	std	Y+13, r25	; 0x0d
  98:	8c 87       	std	Y+12, r24	; 0x0c
  9a:	01 50       	subi	r16, 0x01	; 1
  9c:	10 40       	sbci	r17, 0x00	; 0
  9e:	8c 85       	ldd	r24, Y+12	; 0x0c
  a0:	9d 85       	ldd	r25, Y+13	; 0x0d
  a2:	64 e0       	ldi	r22, 0x04	; 4
  a4:	70 e0       	ldi	r23, 0x00	; 0
  a6:	0e 94 00 00 	call	0	; 0x0 <_ZN7Stepper4stepEi>
  aa:	bc 01       	movw	r22, r24
  ac:	ce 01       	movw	r24, r28
  ae:	0e 94 00 00 	call	0	; 0x0 <_ZN7Stepper4stepEi>
  b2:	01 15       	cp	r16, r1
  b4:	11 05       	cpc	r17, r1
  b6:	01 f0       	breq	.+0      	; 0xb8 <_ZN7Stepper4stepEi+0xb8>
  b8:	00 c0       	rjmp	.+0      	; 0xba <_ZN7Stepper4stepEi+0xba>
  ba:	df 91       	pop	r29
  bc:	cf 91       	pop	r28
  be:	1f 91       	pop	r17
  c0:	0f 91       	pop	r16
  c2:	08 95       	ret

Disassembly of section .text._ZN7StepperC1Eiiiii:

00000000 <_ZN7StepperC1Eiiiii>:
   0:	cf 92       	push	r12
   2:	df 92       	push	r13
   4:	ef 92       	push	r14
   6:	ff 92       	push	r15
   8:	0f 93       	push	r16
   a:	1f 93       	push	r17
   c:	6c 01       	movw	r12, r24
   e:	84 2f       	mov	r24, r20
  10:	f6 01       	movw	r30, r12
  12:	15 86       	std	Z+13, r1	; 0x0d
  14:	14 86       	std	Z+12, r1	; 0x0c
  16:	13 82       	std	Z+3, r1	; 0x03
  18:	12 82       	std	Z+2, r1	; 0x02
  1a:	11 82       	std	Z+1, r1	; 0x01
  1c:	10 82       	st	Z, r1
  1e:	16 8a       	std	Z+22, r1	; 0x16
  20:	17 8a       	std	Z+23, r1	; 0x17
  22:	10 8e       	std	Z+24, r1	; 0x18
  24:	11 8e       	std	Z+25, r1	; 0x19
  26:	71 87       	std	Z+9, r23	; 0x09
  28:	60 87       	std	Z+8, r22	; 0x08
  2a:	46 87       	std	Z+14, r20	; 0x0e
  2c:	57 87       	std	Z+15, r21	; 0x0f
  2e:	31 8b       	std	Z+17, r19	; 0x11
  30:	20 8b       	std	Z+16, r18	; 0x10
  32:	13 8b       	std	Z+19, r17	; 0x13
  34:	02 8b       	std	Z+18, r16	; 0x12
  36:	f5 8a       	std	Z+21, r15	; 0x15
  38:	e4 8a       	std	Z+20, r14	; 0x14
  3a:	61 e0       	ldi	r22, 0x01	; 1
  3c:	0e 94 00 00 	call	0	; 0x0 <_ZN7StepperC1Eiiiii>
  40:	f6 01       	movw	r30, r12
  42:	80 89       	ldd	r24, Z+16	; 0x10
  44:	61 e0       	ldi	r22, 0x01	; 1
  46:	0e 94 00 00 	call	0	; 0x0 <_ZN7StepperC1Eiiiii>
  4a:	f6 01       	movw	r30, r12
  4c:	82 89       	ldd	r24, Z+18	; 0x12
  4e:	61 e0       	ldi	r22, 0x01	; 1
  50:	0e 94 00 00 	call	0	; 0x0 <_ZN7StepperC1Eiiiii>
  54:	f6 01       	movw	r30, r12
  56:	84 89       	ldd	r24, Z+20	; 0x14
  58:	61 e0       	ldi	r22, 0x01	; 1
  5a:	0e 94 00 00 	call	0	; 0x0 <_ZN7StepperC1Eiiiii>
  5e:	84 e0       	ldi	r24, 0x04	; 4
  60:	90 e0       	ldi	r25, 0x00	; 0
  62:	f6 01       	movw	r30, r12
  64:	93 87       	std	Z+11, r25	; 0x0b
  66:	82 87       	std	Z+10, r24	; 0x0a
  68:	1f 91       	pop	r17
  6a:	0f 91       	pop	r16
  6c:	ff 90       	pop	r15
  6e:	ef 90       	pop	r14
  70:	df 90       	pop	r13
  72:	cf 90       	pop	r12
  74:	08 95       	ret

Disassembly of section .text._ZN7StepperC2Eiiiii:

00000000 <_ZN7StepperC2Eiiiii>:
   0:	cf 92       	push	r12
   2:	df 92       	push	r13
   4:	ef 92       	push	r14
   6:	ff 92       	push	r15
   8:	0f 93       	push	r16
   a:	1f 93       	push	r17
   c:	6c 01       	movw	r12, r24
   e:	84 2f       	mov	r24, r20
  10:	f6 01       	movw	r30, r12
  12:	15 86       	std	Z+13, r1	; 0x0d
  14:	14 86       	std	Z+12, r1	; 0x0c
  16:	13 82       	std	Z+3, r1	; 0x03
  18:	12 82       	std	Z+2, r1	; 0x02
  1a:	11 82       	std	Z+1, r1	; 0x01
  1c:	10 82       	st	Z, r1
  1e:	16 8a       	std	Z+22, r1	; 0x16
  20:	17 8a       	std	Z+23, r1	; 0x17
  22:	10 8e       	std	Z+24, r1	; 0x18
  24:	11 8e       	std	Z+25, r1	; 0x19
  26:	71 87       	std	Z+9, r23	; 0x09
  28:	60 87       	std	Z+8, r22	; 0x08
  2a:	46 87       	std	Z+14, r20	; 0x0e
  2c:	57 87       	std	Z+15, r21	; 0x0f
  2e:	31 8b       	std	Z+17, r19	; 0x11
  30:	20 8b       	std	Z+16, r18	; 0x10
  32:	13 8b       	std	Z+19, r17	; 0x13
  34:	02 8b       	std	Z+18, r16	; 0x12
  36:	f5 8a       	std	Z+21, r15	; 0x15
  38:	e4 8a       	std	Z+20, r14	; 0x14
  3a:	61 e0       	ldi	r22, 0x01	; 1
  3c:	0e 94 00 00 	call	0	; 0x0 <_ZN7StepperC2Eiiiii>
  40:	f6 01       	movw	r30, r12
  42:	80 89       	ldd	r24, Z+16	; 0x10
  44:	61 e0       	ldi	r22, 0x01	; 1
  46:	0e 94 00 00 	call	0	; 0x0 <_ZN7StepperC2Eiiiii>
  4a:	f6 01       	movw	r30, r12
  4c:	82 89       	ldd	r24, Z+18	; 0x12
  4e:	61 e0       	ldi	r22, 0x01	; 1
  50:	0e 94 00 00 	call	0	; 0x0 <_ZN7StepperC2Eiiiii>
  54:	f6 01       	movw	r30, r12
  56:	84 89       	ldd	r24, Z+20	; 0x14
  58:	61 e0       	ldi	r22, 0x01	; 1
  5a:	0e 94 00 00 	call	0	; 0x0 <_ZN7StepperC2Eiiiii>
  5e:	84 e0       	ldi	r24, 0x04	; 4
  60:	90 e0       	ldi	r25, 0x00	; 0
  62:	f6 01       	movw	r30, r12
  64:	93 87       	std	Z+11, r25	; 0x0b
  66:	82 87       	std	Z+10, r24	; 0x0a
  68:	1f 91       	pop	r17
  6a:	0f 91       	pop	r16
  6c:	ff 90       	pop	r15
  6e:	ef 90       	pop	r14
  70:	df 90       	pop	r13
  72:	cf 90       	pop	r12
  74:	08 95       	ret

Disassembly of section .text._ZN7StepperC1Eiii:

00000000 <_ZN7StepperC1Eiii>:
   0:	0f 93       	push	r16
   2:	1f 93       	push	r17
   4:	8c 01       	movw	r16, r24
   6:	84 2f       	mov	r24, r20
   8:	f8 01       	movw	r30, r16
   a:	15 86       	std	Z+13, r1	; 0x0d
   c:	14 86       	std	Z+12, r1	; 0x0c
   e:	13 82       	std	Z+3, r1	; 0x03
  10:	12 82       	std	Z+2, r1	; 0x02
  12:	11 82       	std	Z+1, r1	; 0x01
  14:	10 82       	st	Z, r1
  16:	16 8a       	std	Z+22, r1	; 0x16
  18:	17 8a       	std	Z+23, r1	; 0x17
  1a:	10 8e       	std	Z+24, r1	; 0x18
  1c:	11 8e       	std	Z+25, r1	; 0x19
  1e:	71 87       	std	Z+9, r23	; 0x09
  20:	60 87       	std	Z+8, r22	; 0x08
  22:	46 87       	std	Z+14, r20	; 0x0e
  24:	57 87       	std	Z+15, r21	; 0x0f
  26:	31 8b       	std	Z+17, r19	; 0x11
  28:	20 8b       	std	Z+16, r18	; 0x10
  2a:	61 e0       	ldi	r22, 0x01	; 1
  2c:	0e 94 00 00 	call	0	; 0x0 <_ZN7StepperC1Eiii>
  30:	f8 01       	movw	r30, r16
  32:	80 89       	ldd	r24, Z+16	; 0x10
  34:	61 e0       	ldi	r22, 0x01	; 1
  36:	0e 94 00 00 	call	0	; 0x0 <_ZN7StepperC1Eiii>
  3a:	f8 01       	movw	r30, r16
  3c:	13 8a       	std	Z+19, r1	; 0x13
  3e:	12 8a       	std	Z+18, r1	; 0x12
  40:	15 8a       	std	Z+21, r1	; 0x15
  42:	14 8a       	std	Z+20, r1	; 0x14
  44:	82 e0       	ldi	r24, 0x02	; 2
  46:	90 e0       	ldi	r25, 0x00	; 0
  48:	93 87       	std	Z+11, r25	; 0x0b
  4a:	82 87       	std	Z+10, r24	; 0x0a
  4c:	1f 91       	pop	r17
  4e:	0f 91       	pop	r16
  50:	08 95       	ret

Disassembly of section .text._ZN7StepperC2Eiii:

00000000 <_ZN7StepperC2Eiii>:
   0:	0f 93       	push	r16
   2:	1f 93       	push	r17
   4:	8c 01       	movw	r16, r24
   6:	84 2f       	mov	r24, r20
   8:	f8 01       	movw	r30, r16
   a:	15 86       	std	Z+13, r1	; 0x0d
   c:	14 86       	std	Z+12, r1	; 0x0c
   e:	13 82       	std	Z+3, r1	; 0x03
  10:	12 82       	std	Z+2, r1	; 0x02
  12:	11 82       	std	Z+1, r1	; 0x01
  14:	10 82       	st	Z, r1
  16:	16 8a       	std	Z+22, r1	; 0x16
  18:	17 8a       	std	Z+23, r1	; 0x17
  1a:	10 8e       	std	Z+24, r1	; 0x18
  1c:	11 8e       	std	Z+25, r1	; 0x19
  1e:	71 87       	std	Z+9, r23	; 0x09
  20:	60 87       	std	Z+8, r22	; 0x08
  22:	46 87       	std	Z+14, r20	; 0x0e
  24:	57 87       	std	Z+15, r21	; 0x0f
  26:	31 8b       	std	Z+17, r19	; 0x11
  28:	20 8b       	std	Z+16, r18	; 0x10
  2a:	61 e0       	ldi	r22, 0x01	; 1
  2c:	0e 94 00 00 	call	0	; 0x0 <_ZN7StepperC2Eiii>
  30:	f8 01       	movw	r30, r16
  32:	80 89       	ldd	r24, Z+16	; 0x10
  34:	61 e0       	ldi	r22, 0x01	; 1
  36:	0e 94 00 00 	call	0	; 0x0 <_ZN7StepperC2Eiii>
  3a:	f8 01       	movw	r30, r16
  3c:	13 8a       	std	Z+19, r1	; 0x13
  3e:	12 8a       	std	Z+18, r1	; 0x12
  40:	15 8a       	std	Z+21, r1	; 0x15
  42:	14 8a       	std	Z+20, r1	; 0x14
  44:	82 e0       	ldi	r24, 0x02	; 2
  46:	90 e0       	ldi	r25, 0x00	; 0
  48:	93 87       	std	Z+11, r25	; 0x0b
  4a:	82 87       	std	Z+10, r24	; 0x0a
  4c:	1f 91       	pop	r17
  4e:	0f 91       	pop	r16
  50:	08 95       	ret

Sprite.o:     file format elf32-avr

Sections:
Idx Name          Size      VMA       LMA       File off  Algn
  0 .text         00000000  00000000  00000000  00000034  2**0
                  CONTENTS, ALLOC, LOAD, READONLY, CODE
  1 .data         00000000  00000000  00000000  00000034  2**0
                  CONTENTS, ALLOC, LOAD, DATA
  2 .bss          00000000  00000000  00000000  00000034  2**0
                  ALLOC
  3 .text._ZNK6Sprite5widthEv 00000006  00000000  00000000  00000034  2**0
                  CONTENTS, ALLOC, LOAD, READONLY, CODE
  4 .text._ZNK6Sprite6heightEv 00000006  00000000  00000000  0000003a  2**0
                  CONTENTS, ALLOC, LOAD, READONLY, CODE
  5 .text._ZN6Sprite5writeEhhh 0000004c  00000000  00000000  00000040  2**0
                  CONTENTS, ALLOC, LOAD, RELOC, READONLY, CODE
  6 .text._ZNK6Sprite4readEhh 00000036  00000000  00000000  0000008c  2**0
                  CONTENTS, ALLOC, LOAD, RELOC, READONLY, CODE
  7 .text._ZN6Sprite4initEhh 0000002c  00000000  00000000  000000c2  2**0
                  CONTENTS, ALLOC, LOAD, RELOC, READONLY, CODE
  8 .text._ZN6SpriteC1Ehhhz 000000d2  00000000  00000000  000000ee  2**0
                  CONTENTS, ALLOC, LOAD, RELOC, READONLY, CODE
  9 .text._ZN6SpriteC2Ehhhz 000000d2  00000000  00000000  000001c0  2**0
                  CONTENTS, ALLOC, LOAD, RELOC, READONLY, CODE
 10 .text._ZN6SpriteC1Ehh 00000006  00000000  00000000  00000292  2**0
                  CONTENTS, ALLOC, LOAD, RELOC, READONLY, CODE
 11 .text._ZN6SpriteC2Ehh 00000006  00000000  00000000  00000298  2**0
                  CONTENTS, ALLOC, LOAD, RELOC, READONLY, CODE

Disassembly of section .text._ZNK6Sprite5widthEv:

00000000 <_ZNK6Sprite5widthEv>:
   0:	fc 01       	movw	r30, r24
   2:	80 81       	ld	r24, Z
   4:	08 95       	ret

Disassembly of section .text._ZNK6Sprite6heightEv:

00000000 <_ZNK6Sprite6heightEv>:
   0:	fc 01       	movw	r30, r24
   2:	81 81       	ldd	r24, Z+1	; 0x01
   4:	08 95       	ret

Disassembly of section .text._ZN6Sprite5writeEhhh:

00000000 <_ZN6Sprite5writeEhhh>:
   0:	fc 01       	movw	r30, r24
   2:	94 2f       	mov	r25, r20
   4:	46 81       	ldd	r20, Z+6	; 0x06
   6:	57 81       	ldd	r21, Z+7	; 0x07
   8:	41 15       	cp	r20, r1
   a:	51 05       	cpc	r21, r1
   c:	01 f0       	breq	.+0      	; 0xe <_ZN6Sprite5writeEhhh+0xe>
   e:	80 81       	ld	r24, Z
  10:	68 17       	cp	r22, r24
  12:	00 f4       	brcc	.+0      	; 0x14 <_ZN6Sprite5writeEhhh+0x14>
  14:	81 81       	ldd	r24, Z+1	; 0x01
  16:	98 17       	cp	r25, r24
  18:	00 f4       	brcc	.+0      	; 0x1a <_ZN6Sprite5writeEhhh+0x1a>
  1a:	fa 01       	movw	r30, r20
  1c:	e9 0f       	add	r30, r25
  1e:	f1 1d       	adc	r31, r1
  20:	30 e0       	ldi	r19, 0x00	; 0
  22:	21 70       	andi	r18, 0x01	; 1
  24:	30 70       	andi	r19, 0x00	; 0
  26:	06 2e       	mov	r0, r22
  28:	00 c0       	rjmp	.+0      	; 0x2a <_ZN6Sprite5writeEhhh+0x2a>
  2a:	22 0f       	add	r18, r18
  2c:	33 1f       	adc	r19, r19
  2e:	0a 94       	dec	r0
  30:	02 f4       	brpl	.+0      	; 0x32 <_ZN6Sprite5writeEhhh+0x32>
  32:	81 e0       	ldi	r24, 0x01	; 1
  34:	90 e0       	ldi	r25, 0x00	; 0
  36:	00 c0       	rjmp	.+0      	; 0x38 <_ZN6Sprite5writeEhhh+0x38>
  38:	88 0f       	add	r24, r24
  3a:	99 1f       	adc	r25, r25
  3c:	6a 95       	dec	r22
  3e:	02 f4       	brpl	.+0      	; 0x40 <_ZN6Sprite5writeEhhh+0x40>
  40:	80 95       	com	r24
  42:	40 81       	ld	r20, Z
  44:	84 23       	and	r24, r20
  46:	82 2b       	or	r24, r18
  48:	80 83       	st	Z, r24
  4a:	08 95       	ret

Disassembly of section .text._ZNK6Sprite4readEhh:

00000000 <_ZNK6Sprite4readEhh>:
   0:	dc 01       	movw	r26, r24
   2:	16 96       	adiw	r26, 0x06	; 6
   4:	ed 91       	ld	r30, X+
   6:	fc 91       	ld	r31, X
   8:	17 97       	sbiw	r26, 0x07	; 7
   a:	30 97       	sbiw	r30, 0x00	; 0
   c:	01 f0       	breq	.+0      	; 0xe <_ZNK6Sprite4readEhh+0xe>
   e:	8c 91       	ld	r24, X
  10:	68 17       	cp	r22, r24
  12:	00 f4       	brcc	.+0      	; 0x14 <_ZNK6Sprite4readEhh+0x14>
  14:	11 96       	adiw	r26, 0x01	; 1
  16:	8c 91       	ld	r24, X
  18:	48 17       	cp	r20, r24
  1a:	00 f4       	brcc	.+0      	; 0x1c <_ZNK6Sprite4readEhh+0x1c>
  1c:	e4 0f       	add	r30, r20
  1e:	f1 1d       	adc	r31, r1
  20:	80 81       	ld	r24, Z
  22:	90 e0       	ldi	r25, 0x00	; 0
  24:	00 c0       	rjmp	.+0      	; 0x26 <_ZNK6Sprite4readEhh+0x26>
  26:	95 95       	asr	r25
  28:	87 95       	ror	r24
  2a:	6a 95       	dec	r22
  2c:	02 f4       	brpl	.+0      	; 0x2e <_ZNK6Sprite4readEhh+0x2e>
  2e:	81 70       	andi	r24, 0x01	; 1
  30:	08 95       	ret
  32:	80 e0       	ldi	r24, 0x00	; 0
  34:	08 95       	ret

Disassembly of section .text._ZN6Sprite4initEhh:

00000000 <_ZN6Sprite4initEhh>:
   0:	cf 93       	push	r28
   2:	df 93       	push	r29
   4:	ec 01       	movw	r28, r24
   6:	69 30       	cpi	r22, 0x09	; 9
   8:	00 f0       	brcs	.+0      	; 0xa <_ZN6Sprite4initEhh+0xa>
   a:	68 e0       	ldi	r22, 0x08	; 8
   c:	68 83       	st	Y, r22
   e:	49 30       	cpi	r20, 0x09	; 9
  10:	00 f0       	brcs	.+0      	; 0x12 <_ZN6Sprite4initEhh+0x12>
  12:	48 e0       	ldi	r20, 0x08	; 8
  14:	49 83       	std	Y+1, r20	; 0x01
  16:	84 2f       	mov	r24, r20
  18:	90 e0       	ldi	r25, 0x00	; 0
  1a:	61 e0       	ldi	r22, 0x01	; 1
  1c:	70 e0       	ldi	r23, 0x00	; 0
  1e:	0e 94 00 00 	call	0	; 0x0 <_ZN6Sprite4initEhh>
  22:	8e 83       	std	Y+6, r24	; 0x06
  24:	9f 83       	std	Y+7, r25	; 0x07
  26:	df 91       	pop	r29
  28:	cf 91       	pop	r28
  2a:	08 95       	ret

Disassembly of section .text._ZN6SpriteC1Ehhhz:

00000000 <_ZN6SpriteC1Ehhhz>:
   0:	4f 92       	push	r4
   2:	5f 92       	push	r5
   4:	6f 92       	push	r6
   6:	7f 92       	push	r7
   8:	8f 92       	push	r8
   a:	9f 92       	push	r9
   c:	af 92       	push	r10
   e:	bf 92       	push	r11
  10:	cf 92       	push	r12
  12:	df 92       	push	r13
  14:	ef 92       	push	r14
  16:	ff 92       	push	r15
  18:	0f 93       	push	r16
  1a:	1f 93       	push	r17
  1c:	df 93       	push	r29
  1e:	cf 93       	push	r28
  20:	cd b7       	in	r28, 0x3d	; 61
  22:	de b7       	in	r29, 0x3e	; 62
  24:	4b 88       	ldd	r4, Y+19	; 0x13
  26:	5c 88       	ldd	r5, Y+20	; 0x14
  28:	1d 89       	ldd	r17, Y+21	; 0x15
  2a:	0e 89       	ldd	r16, Y+22	; 0x16
  2c:	9f 88       	ldd	r9, Y+23	; 0x17
  2e:	c2 01       	movw	r24, r4
  30:	61 2f       	mov	r22, r17
  32:	40 2f       	mov	r20, r16
  34:	0e 94 00 00 	call	0	; 0x0 <_ZN6SpriteC1Ehhhz>
  38:	f2 01       	movw	r30, r4
  3a:	86 81       	ldd	r24, Z+6	; 0x06
  3c:	97 81       	ldd	r25, Z+7	; 0x07
  3e:	89 2b       	or	r24, r25
  40:	01 f0       	breq	.+0      	; 0x42 <_ZN6SpriteC1Ehhhz+0x42>
  42:	ce 01       	movw	r24, r28
  44:	48 96       	adiw	r24, 0x18	; 24
  46:	5c 01       	movw	r10, r24
  48:	ee 24       	eor	r14, r14
  4a:	ff 24       	eor	r15, r15
  4c:	61 2e       	mov	r6, r17
  4e:	77 24       	eor	r7, r7
  50:	c0 2e       	mov	r12, r16
  52:	dd 24       	eor	r13, r13
  54:	08 94       	sec
  56:	c1 08       	sbc	r12, r1
  58:	d1 08       	sbc	r13, r1
  5a:	00 e0       	ldi	r16, 0x00	; 0
  5c:	10 e0       	ldi	r17, 0x00	; 0
  5e:	89 2c       	mov	r8, r9
  60:	99 24       	eor	r9, r9
  62:	00 c0       	rjmp	.+0      	; 0x64 <_ZN6SpriteC1Ehhhz+0x64>
  64:	60 2f       	mov	r22, r16
  66:	61 50       	subi	r22, 0x01	; 1
  68:	93 01       	movw	r18, r6
  6a:	20 1b       	sub	r18, r16
  6c:	31 0b       	sbc	r19, r17
  6e:	c4 01       	movw	r24, r8
  70:	00 c0       	rjmp	.+0      	; 0x72 <_ZN6SpriteC1Ehhhz+0x72>
  72:	95 95       	asr	r25
  74:	87 95       	ror	r24
  76:	2a 95       	dec	r18
  78:	02 f4       	brpl	.+0      	; 0x7a <_ZN6SpriteC1Ehhhz+0x7a>
  7a:	9c 01       	movw	r18, r24
  7c:	21 70       	andi	r18, 0x01	; 1
  7e:	c2 01       	movw	r24, r4
  80:	4e 2d       	mov	r20, r14
  82:	0e 94 00 00 	call	0	; 0x0 <_ZN6SpriteC1Ehhhz>
  86:	06 15       	cp	r16, r6
  88:	17 05       	cpc	r17, r7
  8a:	04 f4       	brge	.+0      	; 0x8c <_ZN6SpriteC1Ehhhz+0x8c>
  8c:	0f 5f       	subi	r16, 0xFF	; 255
  8e:	1f 4f       	sbci	r17, 0xFF	; 255
  90:	09 30       	cpi	r16, 0x09	; 9
  92:	11 05       	cpc	r17, r1
  94:	01 f4       	brne	.+0      	; 0x96 <_ZN6SpriteC1Ehhhz+0x96>
  96:	ec 14       	cp	r14, r12
  98:	fd 04       	cpc	r15, r13
  9a:	01 f0       	breq	.+0      	; 0x9c <_ZN6SpriteC1Ehhhz+0x9c>
  9c:	f5 01       	movw	r30, r10
  9e:	90 80       	ld	r9, Z
  a0:	08 94       	sec
  a2:	e1 1c       	adc	r14, r1
  a4:	f1 1c       	adc	r15, r1
  a6:	82 e0       	ldi	r24, 0x02	; 2
  a8:	90 e0       	ldi	r25, 0x00	; 0
  aa:	a8 0e       	add	r10, r24
  ac:	b9 1e       	adc	r11, r25
  ae:	00 c0       	rjmp	.+0      	; 0xb0 <_ZN6SpriteC1Ehhhz+0xb0>
  b0:	cf 91       	pop	r28
  b2:	df 91       	pop	r29
  b4:	1f 91       	pop	r17
  b6:	0f 91       	pop	r16
  b8:	ff 90       	pop	r15
  ba:	ef 90       	pop	r14
  bc:	df 90       	pop	r13
  be:	cf 90       	pop	r12
  c0:	bf 90       	pop	r11
  c2:	af 90       	pop	r10
  c4:	9f 90       	pop	r9
  c6:	8f 90       	pop	r8
  c8:	7f 90       	pop	r7
  ca:	6f 90       	pop	r6
  cc:	5f 90       	pop	r5
  ce:	4f 90       	pop	r4
  d0:	08 95       	ret

Disassembly of section .text._ZN6SpriteC2Ehhhz:

00000000 <_ZN6SpriteC2Ehhhz>:
   0:	4f 92       	push	r4
   2:	5f 92       	push	r5
   4:	6f 92       	push	r6
   6:	7f 92       	push	r7
   8:	8f 92       	push	r8
   a:	9f 92       	push	r9
   c:	af 92       	push	r10
   e:	bf 92       	push	r11
  10:	cf 92       	push	r12
  12:	df 92       	push	r13
  14:	ef 92       	push	r14
  16:	ff 92       	push	r15
  18:	0f 93       	push	r16
  1a:	1f 93       	push	r17
  1c:	df 93       	push	r29
  1e:	cf 93       	push	r28
  20:	cd b7       	in	r28, 0x3d	; 61
  22:	de b7       	in	r29, 0x3e	; 62
  24:	4b 88       	ldd	r4, Y+19	; 0x13
  26:	5c 88       	ldd	r5, Y+20	; 0x14
  28:	1d 89       	ldd	r17, Y+21	; 0x15
  2a:	0e 89       	ldd	r16, Y+22	; 0x16
  2c:	9f 88       	ldd	r9, Y+23	; 0x17
  2e:	c2 01       	movw	r24, r4
  30:	61 2f       	mov	r22, r17
  32:	40 2f       	mov	r20, r16
  34:	0e 94 00 00 	call	0	; 0x0 <_ZN6SpriteC2Ehhhz>
  38:	f2 01       	movw	r30, r4
  3a:	86 81       	ldd	r24, Z+6	; 0x06
  3c:	97 81       	ldd	r25, Z+7	; 0x07
  3e:	89 2b       	or	r24, r25
  40:	01 f0       	breq	.+0      	; 0x42 <_ZN6SpriteC2Ehhhz+0x42>
  42:	ce 01       	movw	r24, r28
  44:	48 96       	adiw	r24, 0x18	; 24
  46:	5c 01       	movw	r10, r24
  48:	ee 24       	eor	r14, r14
  4a:	ff 24       	eor	r15, r15
  4c:	61 2e       	mov	r6, r17
  4e:	77 24       	eor	r7, r7
  50:	c0 2e       	mov	r12, r16
  52:	dd 24       	eor	r13, r13
  54:	08 94       	sec
  56:	c1 08       	sbc	r12, r1
  58:	d1 08       	sbc	r13, r1
  5a:	00 e0       	ldi	r16, 0x00	; 0
  5c:	10 e0       	ldi	r17, 0x00	; 0
  5e:	89 2c       	mov	r8, r9
  60:	99 24       	eor	r9, r9
  62:	00 c0       	rjmp	.+0      	; 0x64 <_ZN6SpriteC2Ehhhz+0x64>
  64:	60 2f       	mov	r22, r16
  66:	61 50       	subi	r22, 0x01	; 1
  68:	93 01       	movw	r18, r6
  6a:	20 1b       	sub	r18, r16
  6c:	31 0b       	sbc	r19, r17
  6e:	c4 01       	movw	r24, r8
  70:	00 c0       	rjmp	.+0      	; 0x72 <_ZN6SpriteC2Ehhhz+0x72>
  72:	95 95       	asr	r25
  74:	87 95       	ror	r24
  76:	2a 95       	dec	r18
  78:	02 f4       	brpl	.+0      	; 0x7a <_ZN6SpriteC2Ehhhz+0x7a>
  7a:	9c 01       	movw	r18, r24
  7c:	21 70       	andi	r18, 0x01	; 1
  7e:	c2 01       	movw	r24, r4
  80:	4e 2d       	mov	r20, r14
  82:	0e 94 00 00 	call	0	; 0x0 <_ZN6SpriteC2Ehhhz>
  86:	06 15       	cp	r16, r6
  88:	17 05       	cpc	r17, r7
  8a:	04 f4       	brge	.+0      	; 0x8c <_ZN6SpriteC2Ehhhz+0x8c>
  8c:	0f 5f       	subi	r16, 0xFF	; 255
  8e:	1f 4f       	sbci	r17, 0xFF	; 255
  90:	09 30       	cpi	r16, 0x09	; 9
  92:	11 05       	cpc	r17, r1
  94:	01 f4       	brne	.+0      	; 0x96 <_ZN6SpriteC2Ehhhz+0x96>
  96:	ec 14       	cp	r14, r12
  98:	fd 04       	cpc	r15, r13
  9a:	01 f0       	breq	.+0      	; 0x9c <_ZN6SpriteC2Ehhhz+0x9c>
  9c:	f5 01       	movw	r30, r10
  9e:	90 80       	ld	r9, Z
  a0:	08 94       	sec
  a2:	e1 1c       	adc	r14, r1
  a4:	f1 1c       	adc	r15, r1
  a6:	82 e0       	ldi	r24, 0x02	; 2
  a8:	90 e0       	ldi	r25, 0x00	; 0
  aa:	a8 0e       	add	r10, r24
  ac:	b9 1e       	adc	r11, r25
  ae:	00 c0       	rjmp	.+0      	; 0xb0 <_ZN6SpriteC2Ehhhz+0xb0>
  b0:	cf 91       	pop	r28
  b2:	df 91       	pop	r29
  b4:	1f 91       	pop	r17
  b6:	0f 91       	pop	r16
  b8:	ff 90       	pop	r15
  ba:	ef 90       	pop	r14
  bc:	df 90       	pop	r13
  be:	cf 90       	pop	r12
  c0:	bf 90       	pop	r11
  c2:	af 90       	pop	r10
  c4:	9f 90       	pop	r9
  c6:	8f 90       	pop	r8
  c8:	7f 90       	pop	r7
  ca:	6f 90       	pop	r6
  cc:	5f 90       	pop	r5
  ce:	4f 90       	pop	r4
  d0:	08 95       	ret

Disassembly of section .text._ZN6SpriteC1Ehh:

00000000 <_ZN6SpriteC1Ehh>:
   0:	0e 94 00 00 	call	0	; 0x0 <_ZN6SpriteC1Ehh>
   4:	08 95       	ret

Disassembly of section .text._ZN6SpriteC2Ehh:

00000000 <_ZN6SpriteC2Ehh>:
   0:	0e 94 00 00 	call	0	; 0x0 <_ZN6SpriteC2Ehh>
   4:	08 95       	ret

SoftwareSerial.o:     file format elf32-avr

Sections:
Idx Name          Size      VMA       LMA       File off  Algn
  0 .text         00000000  00000000  00000000  00000034  2**0
                  CONTENTS, ALLOC, LOAD, READONLY, CODE
  1 .data         00000000  00000000  00000000  00000034  2**0
                  CONTENTS, ALLOC, LOAD, DATA
  2 .bss          00000000  00000000  00000000  00000034  2**0
                  ALLOC
  3 .text._ZN14SoftwareSerialC2Ehh 00000010  00000000  00000000  00000034  2**0
                  CONTENTS, ALLOC, LOAD, READONLY, CODE
  4 .text._ZN14SoftwareSerialC1Ehh 00000010  00000000  00000000  00000044  2**0
                  CONTENTS, ALLOC, LOAD, READONLY, CODE
  5 .text._ZN14SoftwareSerial5printEh 0000009a  00000000  00000000  00000054  2**0
                  CONTENTS, ALLOC, LOAD, RELOC, READONLY, CODE
  6 .text._ZN14SoftwareSerial5printEc 00000006  00000000  00000000  000000ee  2**0
                  CONTENTS, ALLOC, LOAD, RELOC, READONLY, CODE
  7 .text._ZN14SoftwareSerial11printNumberEmh 0000011c  00000000  00000000  000000f4  2**0
                  CONTENTS, ALLOC, LOAD, RELOC, READONLY, CODE
  8 .text._ZN14SoftwareSerial5printEm 00000008  00000000  00000000  00000210  2**0
                  CONTENTS, ALLOC, LOAD, RELOC, READONLY, CODE
  9 .text._ZN14SoftwareSerial5printEj 0000000c  00000000  00000000  00000218  2**0
                  CONTENTS, ALLOC, LOAD, RELOC, READONLY, CODE
 10 .text._ZN14SoftwareSerial7printlnEv 0000001a  00000000  00000000  00000224  2**0
                  CONTENTS, ALLOC, LOAD, RELOC, READONLY, CODE
 11 .text._ZN14SoftwareSerial7printlnEm 00000016  00000000  00000000  0000023e  2**0
                  CONTENTS, ALLOC, LOAD, RELOC, READONLY, CODE
 12 .text._ZN14SoftwareSerial7printlnEh 00000016  00000000  00000000  00000254  2**0
                  CONTENTS, ALLOC, LOAD, RELOC, READONLY, CODE
 13 .text._ZN14SoftwareSerial7printlnEc 00000016  00000000  00000000  0000026a  2**0
                  CONTENTS, ALLOC, LOAD, RELOC, READONLY, CODE
 14 .text._ZN14SoftwareSerial5printEl 00000046  00000000  00000000  00000280  2**0
                  CONTENTS, ALLOC, LOAD, RELOC, READONLY, CODE
 15 .text._ZN14SoftwareSerial7printlnEl 00000016  00000000  00000000  000002c6  2**0
                  CONTENTS, ALLOC, LOAD, RELOC, READONLY, CODE
 16 .text._ZN14SoftwareSerial5printEi 00000010  00000000  00000000  000002dc  2**0
                  CONTENTS, ALLOC, LOAD, RELOC, READONLY, CODE
 17 .text._ZN14SoftwareSerial7printlnEi 00000020  00000000  00000000  000002ec  2**0
                  CONTENTS, ALLOC, LOAD, RELOC, READONLY, CODE
 18 .text._ZN14SoftwareSerial5printEli 00000020  00000000  00000000  0000030c  2**0
                  CONTENTS, ALLOC, LOAD, RELOC, READONLY, CODE
 19 .text._ZN14SoftwareSerial7printlnEli 00000016  00000000  00000000  0000032c  2**0
                  CONTENTS, ALLOC, LOAD, RELOC, READONLY, CODE
 20 .text._ZN14SoftwareSerial5printEPKc 00000026  00000000  00000000  00000342  2**0
                  CONTENTS, ALLOC, LOAD, RELOC, READONLY, CODE
 21 .text._ZN14SoftwareSerial7printlnEPKc 00000016  00000000  00000000  00000368  2**0
                  CONTENTS, ALLOC, LOAD, RELOC, READONLY, CODE
 22 .text._ZN14SoftwareSerial5beginEl 0000003e  00000000  00000000  0000037e  2**0
                  CONTENTS, ALLOC, LOAD, RELOC, READONLY, CODE
 23 .text._ZN14SoftwareSerial4readEv 000000a0  00000000  00000000  000003bc  2**0
                  CONTENTS, ALLOC, LOAD, RELOC, READONLY, CODE

Disassembly of section .text._ZN14SoftwareSerialC2Ehh:

00000000 <_ZN14SoftwareSerialC2Ehh>:
   0:	fc 01       	movw	r30, r24
   2:	60 83       	st	Z, r22
   4:	41 83       	std	Z+1, r20	; 0x01
   6:	12 82       	std	Z+2, r1	; 0x02
   8:	13 82       	std	Z+3, r1	; 0x03
   a:	14 82       	std	Z+4, r1	; 0x04
   c:	15 82       	std	Z+5, r1	; 0x05
   e:	08 95       	ret

Disassembly of section .text._ZN14SoftwareSerialC1Ehh:

00000000 <_ZN14SoftwareSerialC1Ehh>:
   0:	fc 01       	movw	r30, r24
   2:	60 83       	st	Z, r22
   4:	41 83       	std	Z+1, r20	; 0x01
   6:	12 82       	std	Z+2, r1	; 0x02
   8:	13 82       	std	Z+3, r1	; 0x03
   a:	14 82       	std	Z+4, r1	; 0x04
   c:	15 82       	std	Z+5, r1	; 0x05
   e:	08 95       	ret

Disassembly of section .text._ZN14SoftwareSerial5printEh:

00000000 <_ZN14SoftwareSerial5printEh>:
   0:	af 92       	push	r10
   2:	bf 92       	push	r11
   4:	df 92       	push	r13
   6:	ef 92       	push	r14
   8:	ff 92       	push	r15
   a:	0f 93       	push	r16
   c:	1f 93       	push	r17
   e:	cf 93       	push	r28
  10:	df 93       	push	r29
  12:	ec 01       	movw	r28, r24
  14:	b6 2e       	mov	r11, r22
  16:	8a 81       	ldd	r24, Y+2	; 0x02
  18:	9b 81       	ldd	r25, Y+3	; 0x03
  1a:	ac 81       	ldd	r26, Y+4	; 0x04
  1c:	bd 81       	ldd	r27, Y+5	; 0x05
  1e:	00 97       	sbiw	r24, 0x00	; 0
  20:	a1 05       	cpc	r26, r1
  22:	b1 05       	cpc	r27, r1
  24:	01 f0       	breq	.+0      	; 0x26 <_ZN14SoftwareSerial5printEh+0x26>
  26:	ee 80       	ldd	r14, Y+6	; 0x06
  28:	ff 80       	ldd	r15, Y+7	; 0x07
  2a:	8d ef       	ldi	r24, 0xFD	; 253
  2c:	9f ef       	ldi	r25, 0xFF	; 255
  2e:	e8 0e       	add	r14, r24
  30:	f9 1e       	adc	r15, r25
  32:	89 81       	ldd	r24, Y+1	; 0x01
  34:	60 e0       	ldi	r22, 0x00	; 0
  36:	0e 94 00 00 	call	0	; 0x0 <_ZN14SoftwareSerial5printEh>
  3a:	c7 01       	movw	r24, r14
  3c:	0e 94 00 00 	call	0	; 0x0 <_ZN14SoftwareSerial5printEh>
  40:	dd 24       	eor	r13, r13
  42:	d3 94       	inc	r13
  44:	00 e0       	ldi	r16, 0x00	; 0
  46:	10 e0       	ldi	r17, 0x00	; 0
  48:	ab 2c       	mov	r10, r11
  4a:	bb 24       	eor	r11, r11
  4c:	8d 2d       	mov	r24, r13
  4e:	90 e0       	ldi	r25, 0x00	; 0
  50:	8a 21       	and	r24, r10
  52:	9b 21       	and	r25, r11
  54:	89 2b       	or	r24, r25
  56:	01 f0       	breq	.+0      	; 0x58 <_ZN14SoftwareSerial5printEh+0x58>
  58:	89 81       	ldd	r24, Y+1	; 0x01
  5a:	61 e0       	ldi	r22, 0x01	; 1
  5c:	00 c0       	rjmp	.+0      	; 0x5e <_ZN14SoftwareSerial5printEh+0x5e>
  5e:	89 81       	ldd	r24, Y+1	; 0x01
  60:	60 e0       	ldi	r22, 0x00	; 0
  62:	0e 94 00 00 	call	0	; 0x0 <_ZN14SoftwareSerial5printEh>
  66:	c7 01       	movw	r24, r14
  68:	0e 94 00 00 	call	0	; 0x0 <_ZN14SoftwareSerial5printEh>
  6c:	dd 0c       	add	r13, r13
  6e:	0f 5f       	subi	r16, 0xFF	; 255
  70:	1f 4f       	sbci	r17, 0xFF	; 255
  72:	08 30       	cpi	r16, 0x08	; 8
  74:	11 05       	cpc	r17, r1
  76:	01 f4       	brne	.+0      	; 0x78 <_ZN14SoftwareSerial5printEh+0x78>
  78:	89 81       	ldd	r24, Y+1	; 0x01
  7a:	61 e0       	ldi	r22, 0x01	; 1
  7c:	0e 94 00 00 	call	0	; 0x0 <_ZN14SoftwareSerial5printEh>
  80:	c7 01       	movw	r24, r14
  82:	0e 94 00 00 	call	0	; 0x0 <_ZN14SoftwareSerial5printEh>
  86:	df 91       	pop	r29
  88:	cf 91       	pop	r28
  8a:	1f 91       	pop	r17
  8c:	0f 91       	pop	r16
  8e:	ff 90       	pop	r15
  90:	ef 90       	pop	r14
  92:	df 90       	pop	r13
  94:	bf 90       	pop	r11
  96:	af 90       	pop	r10
  98:	08 95       	ret

Disassembly of section .text._ZN14SoftwareSerial5printEc:

00000000 <_ZN14SoftwareSerial5printEc>:
   0:	0e 94 00 00 	call	0	; 0x0 <_ZN14SoftwareSerial5printEc>
   4:	08 95       	ret

Disassembly of section .text._ZN14SoftwareSerial11printNumberEmh:

00000000 <_ZN14SoftwareSerial11printNumberEmh>:
   0:	2f 92       	push	r2
   2:	3f 92       	push	r3
   4:	4f 92       	push	r4
   6:	5f 92       	push	r5
   8:	6f 92       	push	r6
   a:	7f 92       	push	r7
   c:	8f 92       	push	r8
   e:	9f 92       	push	r9
  10:	af 92       	push	r10
  12:	bf 92       	push	r11
  14:	cf 92       	push	r12
  16:	df 92       	push	r13
  18:	ef 92       	push	r14
  1a:	ff 92       	push	r15
  1c:	0f 93       	push	r16
  1e:	1f 93       	push	r17
  20:	df 93       	push	r29
  22:	cf 93       	push	r28
  24:	cd b7       	in	r28, 0x3d	; 61
  26:	de b7       	in	r29, 0x3e	; 62
  28:	a0 97       	sbiw	r28, 0x20	; 32
  2a:	0f b6       	in	r0, 0x3f	; 63
  2c:	f8 94       	cli
  2e:	de bf       	out	0x3e, r29	; 62
  30:	0f be       	out	0x3f, r0	; 63
  32:	cd bf       	out	0x3d, r28	; 61
  34:	1c 01       	movw	r2, r24
  36:	6a 01       	movw	r12, r20
  38:	7b 01       	movw	r14, r22
  3a:	41 15       	cp	r20, r1
  3c:	51 05       	cpc	r21, r1
  3e:	61 05       	cpc	r22, r1
  40:	71 05       	cpc	r23, r1
  42:	01 f4       	brne	.+0      	; 0x44 <_ZN14SoftwareSerial11printNumberEmh+0x44>
  44:	60 e3       	ldi	r22, 0x30	; 48
  46:	0e 94 00 00 	call	0	; 0x0 <_ZN14SoftwareSerial11printNumberEmh>
  4a:	00 c0       	rjmp	.+0      	; 0x4c <_ZN14SoftwareSerial11printNumberEmh+0x4c>
  4c:	88 24       	eor	r8, r8
  4e:	99 24       	eor	r9, r9
  50:	54 01       	movw	r10, r8
  52:	42 2e       	mov	r4, r18
  54:	55 24       	eor	r5, r5
  56:	66 24       	eor	r6, r6
  58:	77 24       	eor	r7, r7
  5a:	01 e0       	ldi	r16, 0x01	; 1
  5c:	10 e0       	ldi	r17, 0x00	; 0
  5e:	0c 0f       	add	r16, r28
  60:	1d 1f       	adc	r17, r29
  62:	08 0d       	add	r16, r8
  64:	19 1d       	adc	r17, r9
  66:	c7 01       	movw	r24, r14
  68:	b6 01       	movw	r22, r12
  6a:	a3 01       	movw	r20, r6
  6c:	92 01       	movw	r18, r4
  6e:	0e 94 00 00 	call	0	; 0x0 <_ZN14SoftwareSerial11printNumberEmh>
  72:	f8 01       	movw	r30, r16
  74:	60 83       	st	Z, r22
  76:	08 94       	sec
  78:	81 1c       	adc	r8, r1
  7a:	91 1c       	adc	r9, r1
  7c:	a1 1c       	adc	r10, r1
  7e:	b1 1c       	adc	r11, r1
  80:	c7 01       	movw	r24, r14
  82:	b6 01       	movw	r22, r12
  84:	a3 01       	movw	r20, r6
  86:	92 01       	movw	r18, r4
  88:	0e 94 00 00 	call	0	; 0x0 <_ZN14SoftwareSerial11printNumberEmh>
  8c:	c9 01       	movw	r24, r18
  8e:	da 01       	movw	r26, r20
  90:	6c 01       	movw	r12, r24
  92:	7d 01       	movw	r14, r26
  94:	c1 14       	cp	r12, r1
  96:	d1 04       	cpc	r13, r1
  98:	e1 04       	cpc	r14, r1
  9a:	f1 04       	cpc	r15, r1
  9c:	01 f4       	brne	.+0      	; 0x9e <_ZN14SoftwareSerial11printNumberEmh+0x9e>
  9e:	81 e0       	ldi	r24, 0x01	; 1
  a0:	e8 2e       	mov	r14, r24
  a2:	f1 2c       	mov	r15, r1
  a4:	ec 0e       	add	r14, r28
  a6:	fd 1e       	adc	r15, r29
  a8:	e8 0c       	add	r14, r8
  aa:	f9 1c       	adc	r15, r9
  ac:	3e 01       	movw	r6, r28
  ae:	08 94       	sec
  b0:	61 1c       	adc	r6, r1
  b2:	71 1c       	adc	r7, r1
  b4:	d5 01       	movw	r26, r10
  b6:	c4 01       	movw	r24, r8
  b8:	01 97       	sbiw	r24, 0x01	; 1
  ba:	a1 09       	sbc	r26, r1
  bc:	b1 09       	sbc	r27, r1
  be:	6c 01       	movw	r12, r24
  c0:	c8 18       	sub	r12, r8
  c2:	d9 08       	sbc	r13, r9
  c4:	00 c0       	rjmp	.+0      	; 0xc6 <_ZN14SoftwareSerial11printNumberEmh+0xc6>
  c6:	f6 01       	movw	r30, r12
  c8:	ee 0d       	add	r30, r14
  ca:	ff 1d       	adc	r31, r15
  cc:	60 81       	ld	r22, Z
  ce:	6a 30       	cpi	r22, 0x0A	; 10
  d0:	00 f4       	brcc	.+0      	; 0xd2 <_ZN14SoftwareSerial11printNumberEmh+0xd2>
  d2:	60 5d       	subi	r22, 0xD0	; 208
  d4:	00 c0       	rjmp	.+0      	; 0xd6 <_ZN14SoftwareSerial11printNumberEmh+0xd6>
  d6:	69 5c       	subi	r22, 0xC9	; 201
  d8:	c1 01       	movw	r24, r2
  da:	0e 94 00 00 	call	0	; 0x0 <_ZN14SoftwareSerial11printNumberEmh>
  de:	08 94       	sec
  e0:	e1 08       	sbc	r14, r1
  e2:	f1 08       	sbc	r15, r1
  e4:	6e 14       	cp	r6, r14
  e6:	7f 04       	cpc	r7, r15
  e8:	01 f4       	brne	.+0      	; 0xea <_ZN14SoftwareSerial11printNumberEmh+0xea>
  ea:	a0 96       	adiw	r28, 0x20	; 32
  ec:	0f b6       	in	r0, 0x3f	; 63
  ee:	f8 94       	cli
  f0:	de bf       	out	0x3e, r29	; 62
  f2:	0f be       	out	0x3f, r0	; 63
  f4:	cd bf       	out	0x3d, r28	; 61
  f6:	cf 91       	pop	r28
  f8:	df 91       	pop	r29
  fa:	1f 91       	pop	r17
  fc:	0f 91       	pop	r16
  fe:	ff 90       	pop	r15
 100:	ef 90       	pop	r14
 102:	df 90       	pop	r13
 104:	cf 90       	pop	r12
 106:	bf 90       	pop	r11
 108:	af 90       	pop	r10
 10a:	9f 90       	pop	r9
 10c:	8f 90       	pop	r8
 10e:	7f 90       	pop	r7
 110:	6f 90       	pop	r6
 112:	5f 90       	pop	r5
 114:	4f 90       	pop	r4
 116:	3f 90       	pop	r3
 118:	2f 90       	pop	r2
 11a:	08 95       	ret

Disassembly of section .text._ZN14SoftwareSerial5printEm:

00000000 <_ZN14SoftwareSerial5printEm>:
   0:	2a e0       	ldi	r18, 0x0A	; 10
   2:	0e 94 00 00 	call	0	; 0x0 <_ZN14SoftwareSerial5printEm>
   6:	08 95       	ret

Disassembly of section .text._ZN14SoftwareSerial5printEj:

00000000 <_ZN14SoftwareSerial5printEj>:
   0:	ab 01       	movw	r20, r22
   2:	60 e0       	ldi	r22, 0x00	; 0
   4:	70 e0       	ldi	r23, 0x00	; 0
   6:	0e 94 00 00 	call	0	; 0x0 <_ZN14SoftwareSerial5printEj>
   a:	08 95       	ret

Disassembly of section .text._ZN14SoftwareSerial7printlnEv:

00000000 <_ZN14SoftwareSerial7printlnEv>:
   0:	0f 93       	push	r16
   2:	1f 93       	push	r17
   4:	8c 01       	movw	r16, r24
   6:	6d e0       	ldi	r22, 0x0D	; 13
   8:	0e 94 00 00 	call	0	; 0x0 <_ZN14SoftwareSerial7printlnEv>
   c:	c8 01       	movw	r24, r16
   e:	6a e0       	ldi	r22, 0x0A	; 10
  10:	0e 94 00 00 	call	0	; 0x0 <_ZN14SoftwareSerial7printlnEv>
  14:	1f 91       	pop	r17
  16:	0f 91       	pop	r16
  18:	08 95       	ret

Disassembly of section .text._ZN14SoftwareSerial7printlnEm:

00000000 <_ZN14SoftwareSerial7printlnEm>:
   0:	0f 93       	push	r16
   2:	1f 93       	push	r17
   4:	8c 01       	movw	r16, r24
   6:	0e 94 00 00 	call	0	; 0x0 <_ZN14SoftwareSerial7printlnEm>
   a:	c8 01       	movw	r24, r16
   c:	0e 94 00 00 	call	0	; 0x0 <_ZN14SoftwareSerial7printlnEm>
  10:	1f 91       	pop	r17
  12:	0f 91       	pop	r16
  14:	08 95       	ret

Disassembly of section .text._ZN14SoftwareSerial7printlnEh:

00000000 <_ZN14SoftwareSerial7printlnEh>:
   0:	0f 93       	push	r16
   2:	1f 93       	push	r17
   4:	8c 01       	movw	r16, r24
   6:	0e 94 00 00 	call	0	; 0x0 <_ZN14SoftwareSerial7printlnEh>
   a:	c8 01       	movw	r24, r16
   c:	0e 94 00 00 	call	0	; 0x0 <_ZN14SoftwareSerial7printlnEh>
  10:	1f 91       	pop	r17
  12:	0f 91       	pop	r16
  14:	08 95       	ret

Disassembly of section .text._ZN14SoftwareSerial7printlnEc:

00000000 <_ZN14SoftwareSerial7printlnEc>:
   0:	0f 93       	push	r16
   2:	1f 93       	push	r17
   4:	8c 01       	movw	r16, r24
   6:	0e 94 00 00 	call	0	; 0x0 <_ZN14SoftwareSerial7printlnEc>
   a:	c8 01       	movw	r24, r16
   c:	0e 94 00 00 	call	0	; 0x0 <_ZN14SoftwareSerial7printlnEc>
  10:	1f 91       	pop	r17
  12:	0f 91       	pop	r16
  14:	08 95       	ret

Disassembly of section .text._ZN14SoftwareSerial5printEl:

00000000 <_ZN14SoftwareSerial5printEl>:
   0:	ef 92       	push	r14
   2:	ff 92       	push	r15
   4:	0f 93       	push	r16
   6:	1f 93       	push	r17
   8:	cf 93       	push	r28
   a:	df 93       	push	r29
   c:	ec 01       	movw	r28, r24
   e:	7a 01       	movw	r14, r20
  10:	8b 01       	movw	r16, r22
  12:	77 ff       	sbrs	r23, 7
  14:	00 c0       	rjmp	.+0      	; 0x16 <_ZN14SoftwareSerial5printEl+0x16>
  16:	6d e2       	ldi	r22, 0x2D	; 45
  18:	0e 94 00 00 	call	0	; 0x0 <_ZN14SoftwareSerial5printEl>
  1c:	10 95       	com	r17
  1e:	00 95       	com	r16
  20:	f0 94       	com	r15
  22:	e0 94       	com	r14
  24:	e1 1c       	adc	r14, r1
  26:	f1 1c       	adc	r15, r1
  28:	01 1d       	adc	r16, r1
  2a:	11 1d       	adc	r17, r1
  2c:	ce 01       	movw	r24, r28
  2e:	b8 01       	movw	r22, r16
  30:	a7 01       	movw	r20, r14
  32:	2a e0       	ldi	r18, 0x0A	; 10
  34:	0e 94 00 00 	call	0	; 0x0 <_ZN14SoftwareSerial5printEl>
  38:	df 91       	pop	r29
  3a:	cf 91       	pop	r28
  3c:	1f 91       	pop	r17
  3e:	0f 91       	pop	r16
  40:	ff 90       	pop	r15
  42:	ef 90       	pop	r14
  44:	08 95       	ret

Disassembly of section .text._ZN14SoftwareSerial7printlnEl:

00000000 <_ZN14SoftwareSerial7printlnEl>:
   0:	0f 93       	push	r16
   2:	1f 93       	push	r17
   4:	8c 01       	movw	r16, r24
   6:	0e 94 00 00 	call	0	; 0x0 <_ZN14SoftwareSerial7printlnEl>
   a:	c8 01       	movw	r24, r16
   c:	0e 94 00 00 	call	0	; 0x0 <_ZN14SoftwareSerial7printlnEl>
  10:	1f 91       	pop	r17
  12:	0f 91       	pop	r16
  14:	08 95       	ret

Disassembly of section .text._ZN14SoftwareSerial5printEi:

00000000 <_ZN14SoftwareSerial5printEi>:
   0:	ab 01       	movw	r20, r22
   2:	66 27       	eor	r22, r22
   4:	57 fd       	sbrc	r21, 7
   6:	60 95       	com	r22
   8:	76 2f       	mov	r23, r22
   a:	0e 94 00 00 	call	0	; 0x0 <_ZN14SoftwareSerial5printEi>
   e:	08 95       	ret

Disassembly of section .text._ZN14SoftwareSerial7printlnEi:

00000000 <_ZN14SoftwareSerial7printlnEi>:
   0:	0f 93       	push	r16
   2:	1f 93       	push	r17
   4:	8c 01       	movw	r16, r24
   6:	ab 01       	movw	r20, r22
   8:	66 27       	eor	r22, r22
   a:	57 fd       	sbrc	r21, 7
   c:	60 95       	com	r22
   e:	76 2f       	mov	r23, r22
  10:	0e 94 00 00 	call	0	; 0x0 <_ZN14SoftwareSerial7printlnEi>
  14:	c8 01       	movw	r24, r16
  16:	0e 94 00 00 	call	0	; 0x0 <_ZN14SoftwareSerial7printlnEi>
  1a:	1f 91       	pop	r17
  1c:	0f 91       	pop	r16
  1e:	08 95       	ret

Disassembly of section .text._ZN14SoftwareSerial5printEli:

00000000 <_ZN14SoftwareSerial5printEli>:
   0:	21 15       	cp	r18, r1
   2:	31 05       	cpc	r19, r1
   4:	01 f4       	brne	.+0      	; 0x6 <_ZN14SoftwareSerial5printEli+0x6>
   6:	64 2f       	mov	r22, r20
   8:	0e 94 00 00 	call	0	; 0x0 <_ZN14SoftwareSerial5printEli>
   c:	08 95       	ret
   e:	2a 30       	cpi	r18, 0x0A	; 10
  10:	31 05       	cpc	r19, r1
  12:	01 f4       	brne	.+0      	; 0x14 <_ZN14SoftwareSerial5printEli+0x14>
  14:	0e 94 00 00 	call	0	; 0x0 <_ZN14SoftwareSerial5printEli>
  18:	08 95       	ret
  1a:	0e 94 00 00 	call	0	; 0x0 <_ZN14SoftwareSerial5printEli>
  1e:	08 95       	ret

Disassembly of section .text._ZN14SoftwareSerial7printlnEli:

00000000 <_ZN14SoftwareSerial7printlnEli>:
   0:	0f 93       	push	r16
   2:	1f 93       	push	r17
   4:	8c 01       	movw	r16, r24
   6:	0e 94 00 00 	call	0	; 0x0 <_ZN14SoftwareSerial7printlnEli>
   a:	c8 01       	movw	r24, r16
   c:	0e 94 00 00 	call	0	; 0x0 <_ZN14SoftwareSerial7printlnEli>
  10:	1f 91       	pop	r17
  12:	0f 91       	pop	r16
  14:	08 95       	ret

Disassembly of section .text._ZN14SoftwareSerial5printEPKc:

00000000 <_ZN14SoftwareSerial5printEPKc>:
   0:	0f 93       	push	r16
   2:	1f 93       	push	r17
   4:	cf 93       	push	r28
   6:	df 93       	push	r29
   8:	8c 01       	movw	r16, r24
   a:	eb 01       	movw	r28, r22
   c:	00 c0       	rjmp	.+0      	; 0xe <_ZN14SoftwareSerial5printEPKc+0xe>
   e:	21 96       	adiw	r28, 0x01	; 1
  10:	c8 01       	movw	r24, r16
  12:	0e 94 00 00 	call	0	; 0x0 <_ZN14SoftwareSerial5printEPKc>
  16:	68 81       	ld	r22, Y
  18:	66 23       	and	r22, r22
  1a:	01 f4       	brne	.+0      	; 0x1c <_ZN14SoftwareSerial5printEPKc+0x1c>
  1c:	df 91       	pop	r29
  1e:	cf 91       	pop	r28
  20:	1f 91       	pop	r17
  22:	0f 91       	pop	r16
  24:	08 95       	ret

Disassembly of section .text._ZN14SoftwareSerial7printlnEPKc:

00000000 <_ZN14SoftwareSerial7printlnEPKc>:
   0:	0f 93       	push	r16
   2:	1f 93       	push	r17
   4:	8c 01       	movw	r16, r24
   6:	0e 94 00 00 	call	0	; 0x0 <_ZN14SoftwareSerial7printlnEPKc>
   a:	c8 01       	movw	r24, r16
   c:	0e 94 00 00 	call	0	; 0x0 <_ZN14SoftwareSerial7printlnEPKc>
  10:	1f 91       	pop	r17
  12:	0f 91       	pop	r16
  14:	08 95       	ret

Disassembly of section .text._ZN14SoftwareSerial5beginEl:

00000000 <_ZN14SoftwareSerial5beginEl>:
   0:	0f 93       	push	r16
   2:	1f 93       	push	r17
   4:	8c 01       	movw	r16, r24
   6:	9a 01       	movw	r18, r20
   8:	ab 01       	movw	r20, r22
   a:	fc 01       	movw	r30, r24
   c:	22 83       	std	Z+2, r18	; 0x02
   e:	33 83       	std	Z+3, r19	; 0x03
  10:	44 83       	std	Z+4, r20	; 0x04
  12:	55 83       	std	Z+5, r21	; 0x05
  14:	60 e4       	ldi	r22, 0x40	; 64
  16:	72 e4       	ldi	r23, 0x42	; 66
  18:	8f e0       	ldi	r24, 0x0F	; 15
  1a:	90 e0       	ldi	r25, 0x00	; 0
  1c:	0e 94 00 00 	call	0	; 0x0 <_ZN14SoftwareSerial5beginEl>
  20:	f8 01       	movw	r30, r16
  22:	37 83       	std	Z+7, r19	; 0x07
  24:	26 83       	std	Z+6, r18	; 0x06
  26:	81 81       	ldd	r24, Z+1	; 0x01
  28:	61 e0       	ldi	r22, 0x01	; 1
  2a:	0e 94 00 00 	call	0	; 0x0 <_ZN14SoftwareSerial5beginEl>
  2e:	f8 01       	movw	r30, r16
  30:	86 81       	ldd	r24, Z+6	; 0x06
  32:	97 81       	ldd	r25, Z+7	; 0x07
  34:	0e 94 00 00 	call	0	; 0x0 <_ZN14SoftwareSerial5beginEl>
  38:	1f 91       	pop	r17
  3a:	0f 91       	pop	r16
  3c:	08 95       	ret

Disassembly of section .text._ZN14SoftwareSerial4readEv:

00000000 <_ZN14SoftwareSerial4readEv>:
   0:	cf 92       	push	r12
   2:	df 92       	push	r13
   4:	ef 92       	push	r14
   6:	ff 92       	push	r15
   8:	0f 93       	push	r16
   a:	1f 93       	push	r17
   c:	cf 93       	push	r28
   e:	df 93       	push	r29
  10:	7c 01       	movw	r14, r24
  12:	fc 01       	movw	r30, r24
  14:	c6 81       	ldd	r28, Z+6	; 0x06
  16:	d7 81       	ldd	r29, Z+7	; 0x07
  18:	f7 01       	movw	r30, r14
  1a:	80 81       	ld	r24, Z
  1c:	0e 94 00 00 	call	0	; 0x0 <_ZN14SoftwareSerial4readEv>
  20:	89 2b       	or	r24, r25
  22:	01 f4       	brne	.+0      	; 0x24 <_ZN14SoftwareSerial4readEv+0x24>
  24:	f7 01       	movw	r30, r14
  26:	80 81       	ld	r24, Z
  28:	0e 94 00 00 	call	0	; 0x0 <_ZN14SoftwareSerial4readEv>
  2c:	89 2b       	or	r24, r25
  2e:	01 f0       	breq	.+0      	; 0x30 <_ZN14SoftwareSerial4readEv+0x30>
  30:	0f ef       	ldi	r16, 0xFF	; 255
  32:	1f ef       	ldi	r17, 0xFF	; 255
  34:	00 c0       	rjmp	.+0      	; 0x36 <_ZN14SoftwareSerial4readEv+0x36>
  36:	9d ef       	ldi	r25, 0xFD	; 253
  38:	c9 2e       	mov	r12, r25
  3a:	9f ef       	ldi	r25, 0xFF	; 255
  3c:	d9 2e       	mov	r13, r25
  3e:	cc 0e       	add	r12, r28
  40:	dd 1e       	adc	r13, r29
  42:	c6 01       	movw	r24, r12
  44:	62 e0       	ldi	r22, 0x02	; 2
  46:	70 e0       	ldi	r23, 0x00	; 0
  48:	0e 94 00 00 	call	0	; 0x0 <_ZN14SoftwareSerial4readEv>
  4c:	cb 01       	movw	r24, r22
  4e:	03 97       	sbiw	r24, 0x03	; 3
  50:	0e 94 00 00 	call	0	; 0x0 <_ZN14SoftwareSerial4readEv>
  54:	00 e0       	ldi	r16, 0x00	; 0
  56:	10 e0       	ldi	r17, 0x00	; 0
  58:	c0 e0       	ldi	r28, 0x00	; 0
  5a:	d0 e0       	ldi	r29, 0x00	; 0
  5c:	c6 01       	movw	r24, r12
  5e:	0e 94 00 00 	call	0	; 0x0 <_ZN14SoftwareSerial4readEv>
  62:	f7 01       	movw	r30, r14
  64:	80 81       	ld	r24, Z
  66:	0e 94 00 00 	call	0	; 0x0 <_ZN14SoftwareSerial4readEv>
  6a:	0c 2e       	mov	r0, r28
  6c:	00 c0       	rjmp	.+0      	; 0x6e <_ZN14SoftwareSerial4readEv+0x6e>
  6e:	88 0f       	add	r24, r24
  70:	99 1f       	adc	r25, r25
  72:	0a 94       	dec	r0
  74:	02 f4       	brpl	.+0      	; 0x76 <_ZN14SoftwareSerial4readEv+0x76>
  76:	08 2b       	or	r16, r24
  78:	19 2b       	or	r17, r25
  7a:	21 96       	adiw	r28, 0x01	; 1
  7c:	c8 30       	cpi	r28, 0x08	; 8
  7e:	d1 05       	cpc	r29, r1
  80:	01 f4       	brne	.+0      	; 0x82 <_ZN14SoftwareSerial4readEv+0x82>
  82:	f7 01       	movw	r30, r14
  84:	86 81       	ldd	r24, Z+6	; 0x06
  86:	97 81       	ldd	r25, Z+7	; 0x07
  88:	0e 94 00 00 	call	0	; 0x0 <_ZN14SoftwareSerial4readEv>
  8c:	c8 01       	movw	r24, r16
  8e:	df 91       	pop	r29
  90:	cf 91       	pop	r28
  92:	1f 91       	pop	r17
  94:	0f 91       	pop	r16
  96:	ff 90       	pop	r15
  98:	ef 90       	pop	r14
  9a:	df 90       	pop	r13
  9c:	cf 90       	pop	r12
  9e:	08 95       	ret

Servo.o:     file format elf32-avr

Sections:
Idx Name          Size      VMA       LMA       File off  Algn
  0 .text         00000000  00000000  00000000  00000034  2**0
                  CONTENTS, ALLOC, LOAD, READONLY, CODE
  1 .data         00000000  00000000  00000000  00000034  2**0
                  CONTENTS, ALLOC, LOAD, DATA
  2 .bss          00000000  00000000  00000000  00000034  2**0
                  ALLOC
  3 .text._ZN5ServoC2Ev 00000034  00000000  00000000  00000034  2**0
                  CONTENTS, ALLOC, LOAD, RELOC, READONLY, CODE
  4 .text._ZN5ServoC1Ev 00000034  00000000  00000000  00000068  2**0
                  CONTENTS, ALLOC, LOAD, RELOC, READONLY, CODE
  5 .text._ZN5Servo6detachEv 00000054  00000000  00000000  0000009c  2**0
                  CONTENTS, ALLOC, LOAD, RELOC, READONLY, CODE
  6 .text._ZN5Servo17writeMicrosecondsEi 0000008e  00000000  00000000  000000f0  2**0
                  CONTENTS, ALLOC, LOAD, RELOC, READONLY, CODE
  7 .text._ZN5Servo16readMicrosecondsEv 0000003e  00000000  00000000  0000017e  2**0
                  CONTENTS, ALLOC, LOAD, RELOC, READONLY, CODE
  8 .text._ZN5Servo8attachedEv 00000024  00000000  00000000  000001bc  2**0
                  CONTENTS, ALLOC, LOAD, RELOC, READONLY, CODE
  9 .text._ZN5Servo4readEv 000000aa  00000000  00000000  000001e0  2**0
                  CONTENTS, ALLOC, LOAD, RELOC, READONLY, CODE
 10 .text._ZN5Servo5writeEi 000000d0  00000000  00000000  0000028a  2**0
                  CONTENTS, ALLOC, LOAD, RELOC, READONLY, CODE
 11 .text._ZN5Servo6attachEiii 000000fe  00000000  00000000  0000035a  2**0
                  CONTENTS, ALLOC, LOAD, RELOC, READONLY, CODE
 12 .text._ZN5Servo6attachEi 0000000e  00000000  00000000  00000458  2**0
                  CONTENTS, ALLOC, LOAD, RELOC, READONLY, CODE
 13 .text.__vector_11 0000017a  00000000  00000000  00000466  2**0
                  CONTENTS, ALLOC, LOAD, RELOC, READONLY, CODE
 14 .bss.ServoCount 00000001  00000000  00000000  000005e0  2**0
                  ALLOC
 15 .bss._ZL6servos 00000024  00000000  00000000  000005e0  2**0
                  ALLOC
 16 .bss._ZL7Channel 00000001  00000000  00000000  000005e0  2**0
                  ALLOC

Disassembly of section .text._ZN5ServoC2Ev:

00000000 <_ZN5ServoC2Ev>:
   0:	fc 01       	movw	r30, r24
   2:	80 91 00 00 	lds	r24, 0x0000
   6:	8c 30       	cpi	r24, 0x0C	; 12
   8:	00 f4       	brcc	.+0      	; 0xa <_ZN5ServoC2Ev+0xa>
   a:	80 83       	st	Z, r24
   c:	8f 5f       	subi	r24, 0xFF	; 255
   e:	80 93 00 00 	sts	0x0000, r24
  12:	81 50       	subi	r24, 0x01	; 1
  14:	90 e0       	ldi	r25, 0x00	; 0
  16:	fc 01       	movw	r30, r24
  18:	ee 0f       	add	r30, r30
  1a:	ff 1f       	adc	r31, r31
  1c:	e8 0f       	add	r30, r24
  1e:	f9 1f       	adc	r31, r25
  20:	e0 50       	subi	r30, 0x00	; 0
  22:	f0 40       	sbci	r31, 0x00	; 0
  24:	88 eb       	ldi	r24, 0xB8	; 184
  26:	9b e0       	ldi	r25, 0x0B	; 11
  28:	92 83       	std	Z+2, r25	; 0x02
  2a:	81 83       	std	Z+1, r24	; 0x01
  2c:	08 95       	ret
  2e:	8f ef       	ldi	r24, 0xFF	; 255
  30:	80 83       	st	Z, r24
  32:	08 95       	ret

Disassembly of section .text._ZN5ServoC1Ev:

00000000 <_ZN5ServoC1Ev>:
   0:	fc 01       	movw	r30, r24
   2:	80 91 00 00 	lds	r24, 0x0000
   6:	8c 30       	cpi	r24, 0x0C	; 12
   8:	00 f4       	brcc	.+0      	; 0xa <_ZN5ServoC1Ev+0xa>
   a:	80 83       	st	Z, r24
   c:	8f 5f       	subi	r24, 0xFF	; 255
   e:	80 93 00 00 	sts	0x0000, r24
  12:	81 50       	subi	r24, 0x01	; 1
  14:	90 e0       	ldi	r25, 0x00	; 0
  16:	fc 01       	movw	r30, r24
  18:	ee 0f       	add	r30, r30
  1a:	ff 1f       	adc	r31, r31
  1c:	e8 0f       	add	r30, r24
  1e:	f9 1f       	adc	r31, r25
  20:	e0 50       	subi	r30, 0x00	; 0
  22:	f0 40       	sbci	r31, 0x00	; 0
  24:	88 eb       	ldi	r24, 0xB8	; 184
  26:	9b e0       	ldi	r25, 0x0B	; 11
  28:	92 83       	std	Z+2, r25	; 0x02
  2a:	81 83       	std	Z+1, r24	; 0x01
  2c:	08 95       	ret
  2e:	8f ef       	ldi	r24, 0xFF	; 255
  30:	80 83       	st	Z, r24
  32:	08 95       	ret

Disassembly of section .text._ZN5Servo6detachEv:

00000000 <_ZN5Servo6detachEv>:
   0:	dc 01       	movw	r26, r24
   2:	8c 91       	ld	r24, X
   4:	90 e0       	ldi	r25, 0x00	; 0
   6:	fc 01       	movw	r30, r24
   8:	ee 0f       	add	r30, r30
   a:	ff 1f       	adc	r31, r31
   c:	e8 0f       	add	r30, r24
   e:	f9 1f       	adc	r31, r25
  10:	e0 50       	subi	r30, 0x00	; 0
  12:	f0 40       	sbci	r31, 0x00	; 0
  14:	80 81       	ld	r24, Z
  16:	8f 7b       	andi	r24, 0xBF	; 191
  18:	80 83       	st	Z, r24
  1a:	8c 91       	ld	r24, X
  1c:	6c e0       	ldi	r22, 0x0C	; 12
  1e:	0e 94 00 00 	call	0	; 0x0 <_ZN5Servo6detachEv>
  22:	9c e0       	ldi	r25, 0x0C	; 12
  24:	89 9f       	mul	r24, r25
  26:	a0 01       	movw	r20, r0
  28:	11 24       	eor	r1, r1
  2a:	20 e0       	ldi	r18, 0x00	; 0
  2c:	30 e0       	ldi	r19, 0x00	; 0
  2e:	c9 01       	movw	r24, r18
  30:	84 0f       	add	r24, r20
  32:	95 1f       	adc	r25, r21
  34:	fc 01       	movw	r30, r24
  36:	ee 0f       	add	r30, r30
  38:	ff 1f       	adc	r31, r31
  3a:	e8 0f       	add	r30, r24
  3c:	f9 1f       	adc	r31, r25
  3e:	e0 50       	subi	r30, 0x00	; 0
  40:	f0 40       	sbci	r31, 0x00	; 0
  42:	80 81       	ld	r24, Z
  44:	86 fd       	sbrc	r24, 6
  46:	00 c0       	rjmp	.+0      	; 0x48 <_ZN5Servo6detachEv+0x48>
  48:	2f 5f       	subi	r18, 0xFF	; 255
  4a:	3f 4f       	sbci	r19, 0xFF	; 255
  4c:	2c 30       	cpi	r18, 0x0C	; 12
  4e:	31 05       	cpc	r19, r1
  50:	01 f4       	brne	.+0      	; 0x52 <_ZN5Servo6detachEv+0x52>
  52:	08 95       	ret

Disassembly of section .text._ZN5Servo17writeMicrosecondsEi:

00000000 <_ZN5Servo17writeMicrosecondsEi>:
   0:	fc 01       	movw	r30, r24
   2:	20 81       	ld	r18, Z
   4:	2c 30       	cpi	r18, 0x0C	; 12
   6:	00 f0       	brcs	.+0      	; 0x8 <_ZN5Servo17writeMicrosecondsEi+0x8>
   8:	00 c0       	rjmp	.+0      	; 0xa <_ZN5Servo17writeMicrosecondsEi+0xa>
   a:	81 81       	ldd	r24, Z+1	; 0x01
   c:	99 27       	eor	r25, r25
   e:	87 fd       	sbrc	r24, 7
  10:	90 95       	com	r25
  12:	48 e8       	ldi	r20, 0x88	; 136
  14:	50 e0       	ldi	r21, 0x00	; 0
  16:	48 1b       	sub	r20, r24
  18:	59 0b       	sbc	r21, r25
  1a:	44 0f       	add	r20, r20
  1c:	55 1f       	adc	r21, r21
  1e:	44 0f       	add	r20, r20
  20:	55 1f       	adc	r21, r21
  22:	64 17       	cp	r22, r20
  24:	75 07       	cpc	r23, r21
  26:	04 f0       	brlt	.+0      	; 0x28 <_ZN5Servo17writeMicrosecondsEi+0x28>
  28:	82 81       	ldd	r24, Z+2	; 0x02
  2a:	99 27       	eor	r25, r25
  2c:	87 fd       	sbrc	r24, 7
  2e:	90 95       	com	r25
  30:	48 e5       	ldi	r20, 0x58	; 88
  32:	52 e0       	ldi	r21, 0x02	; 2
  34:	48 1b       	sub	r20, r24
  36:	59 0b       	sbc	r21, r25
  38:	44 0f       	add	r20, r20
  3a:	55 1f       	adc	r21, r21
  3c:	44 0f       	add	r20, r20
  3e:	55 1f       	adc	r21, r21
  40:	64 17       	cp	r22, r20
  42:	75 07       	cpc	r23, r21
  44:	04 f4       	brge	.+0      	; 0x46 <_ZN5Servo17writeMicrosecondsEi+0x46>
  46:	ab 01       	movw	r20, r22
  48:	42 50       	subi	r20, 0x02	; 2
  4a:	50 40       	sbci	r21, 0x00	; 0
  4c:	ca 01       	movw	r24, r20
  4e:	aa 27       	eor	r26, r26
  50:	97 fd       	sbrc	r25, 7
  52:	a0 95       	com	r26
  54:	ba 2f       	mov	r27, r26
  56:	44 e0       	ldi	r20, 0x04	; 4
  58:	88 0f       	add	r24, r24
  5a:	99 1f       	adc	r25, r25
  5c:	aa 1f       	adc	r26, r26
  5e:	bb 1f       	adc	r27, r27
  60:	4a 95       	dec	r20
  62:	01 f4       	brne	.+0      	; 0x64 <_ZN5Servo17writeMicrosecondsEi+0x64>
  64:	33 e0       	ldi	r19, 0x03	; 3
  66:	b6 95       	lsr	r27
  68:	a7 95       	ror	r26
  6a:	97 95       	ror	r25
  6c:	87 95       	ror	r24
  6e:	3a 95       	dec	r19
  70:	01 f4       	brne	.+0      	; 0x72 <_ZN5Servo17writeMicrosecondsEi+0x72>
  72:	4f b7       	in	r20, 0x3f	; 63
  74:	f8 94       	cli
  76:	30 e0       	ldi	r19, 0x00	; 0
  78:	f9 01       	movw	r30, r18
  7a:	ee 0f       	add	r30, r30
  7c:	ff 1f       	adc	r31, r31
  7e:	e2 0f       	add	r30, r18
  80:	f3 1f       	adc	r31, r19
  82:	e0 50       	subi	r30, 0x00	; 0
  84:	f0 40       	sbci	r31, 0x00	; 0
  86:	92 83       	std	Z+2, r25	; 0x02
  88:	81 83       	std	Z+1, r24	; 0x01
  8a:	4f bf       	out	0x3f, r20	; 63
  8c:	08 95       	ret

Disassembly of section .text._ZN5Servo16readMicrosecondsEv:

00000000 <_ZN5Servo16readMicrosecondsEv>:
   0:	fc 01       	movw	r30, r24
   2:	80 81       	ld	r24, Z
   4:	8f 3f       	cpi	r24, 0xFF	; 255
   6:	01 f4       	brne	.+0      	; 0x8 <_ZN5Servo16readMicrosecondsEv+0x8>
   8:	20 e0       	ldi	r18, 0x00	; 0
   a:	30 e0       	ldi	r19, 0x00	; 0
   c:	00 c0       	rjmp	.+0      	; 0xe <_ZN5Servo16readMicrosecondsEv+0xe>
   e:	90 e0       	ldi	r25, 0x00	; 0
  10:	fc 01       	movw	r30, r24
  12:	ee 0f       	add	r30, r30
  14:	ff 1f       	adc	r31, r31
  16:	e8 0f       	add	r30, r24
  18:	f9 1f       	adc	r31, r25
  1a:	e0 50       	subi	r30, 0x00	; 0
  1c:	f0 40       	sbci	r31, 0x00	; 0
  1e:	21 81       	ldd	r18, Z+1	; 0x01
  20:	32 81       	ldd	r19, Z+2	; 0x02
  22:	83 e0       	ldi	r24, 0x03	; 3
  24:	22 0f       	add	r18, r18
  26:	33 1f       	adc	r19, r19
  28:	8a 95       	dec	r24
  2a:	01 f4       	brne	.+0      	; 0x2c <_ZN5Servo16readMicrosecondsEv+0x2c>
  2c:	b4 e0       	ldi	r27, 0x04	; 4
  2e:	36 95       	lsr	r19
  30:	27 95       	ror	r18
  32:	ba 95       	dec	r27
  34:	01 f4       	brne	.+0      	; 0x36 <_ZN5Servo16readMicrosecondsEv+0x36>
  36:	2e 5f       	subi	r18, 0xFE	; 254
  38:	3f 4f       	sbci	r19, 0xFF	; 255
  3a:	c9 01       	movw	r24, r18
  3c:	08 95       	ret

Disassembly of section .text._ZN5Servo8attachedEv:

00000000 <_ZN5Servo8attachedEv>:
   0:	fc 01       	movw	r30, r24
   2:	80 81       	ld	r24, Z
   4:	90 e0       	ldi	r25, 0x00	; 0
   6:	fc 01       	movw	r30, r24
   8:	ee 0f       	add	r30, r30
   a:	ff 1f       	adc	r31, r31
   c:	e8 0f       	add	r30, r24
   e:	f9 1f       	adc	r31, r25
  10:	e0 50       	subi	r30, 0x00	; 0
  12:	f0 40       	sbci	r31, 0x00	; 0
  14:	80 81       	ld	r24, Z
  16:	82 95       	swap	r24
  18:	86 95       	lsr	r24
  1a:	86 95       	lsr	r24
  1c:	81 70       	andi	r24, 0x01	; 1
  1e:	01 f0       	breq	.+0      	; 0x20 <_ZN5Servo8attachedEv+0x20>
  20:	81 e0       	ldi	r24, 0x01	; 1
  22:	08 95       	ret

Disassembly of section .text._ZN5Servo4readEv:

00000000 <_ZN5Servo4readEv>:
   0:	af 92       	push	r10
   2:	bf 92       	push	r11
   4:	cf 92       	push	r12
   6:	df 92       	push	r13
   8:	ef 92       	push	r14
   a:	ff 92       	push	r15
   c:	0f 93       	push	r16
   e:	1f 93       	push	r17
  10:	8c 01       	movw	r16, r24
  12:	0e 94 00 00 	call	0	; 0x0 <_ZN5Servo4readEv>
  16:	00 d0       	rcall	.+0      	; 0x18 <_ZN5Servo4readEv+0x18>
  18:	00 d0       	rcall	.+0      	; 0x1a <_ZN5Servo4readEv+0x1a>
  1a:	01 96       	adiw	r24, 0x01	; 1
  1c:	aa 27       	eor	r26, r26
  1e:	97 fd       	sbrc	r25, 7
  20:	a0 95       	com	r26
  22:	ba 2f       	mov	r27, r26
  24:	f8 01       	movw	r30, r16
  26:	61 81       	ldd	r22, Z+1	; 0x01
  28:	77 27       	eor	r23, r23
  2a:	67 fd       	sbrc	r22, 7
  2c:	70 95       	com	r23
  2e:	28 e8       	ldi	r18, 0x88	; 136
  30:	30 e0       	ldi	r19, 0x00	; 0
  32:	26 1b       	sub	r18, r22
  34:	37 0b       	sbc	r19, r23
  36:	22 0f       	add	r18, r18
  38:	33 1f       	adc	r19, r19
  3a:	22 0f       	add	r18, r18
  3c:	33 1f       	adc	r19, r19
  3e:	44 27       	eor	r20, r20
  40:	37 fd       	sbrc	r19, 7
  42:	40 95       	com	r20
  44:	54 2f       	mov	r21, r20
  46:	62 81       	ldd	r22, Z+2	; 0x02
  48:	77 27       	eor	r23, r23
  4a:	67 fd       	sbrc	r22, 7
  4c:	70 95       	com	r23
  4e:	e8 e5       	ldi	r30, 0x58	; 88
  50:	ee 2e       	mov	r14, r30
  52:	e2 e0       	ldi	r30, 0x02	; 2
  54:	fe 2e       	mov	r15, r30
  56:	e6 1a       	sub	r14, r22
  58:	f7 0a       	sbc	r15, r23
  5a:	ee 0c       	add	r14, r14
  5c:	ff 1c       	adc	r15, r15
  5e:	ee 0c       	add	r14, r14
  60:	ff 1c       	adc	r15, r15
  62:	00 27       	eor	r16, r16
  64:	f7 fc       	sbrc	r15, 7
  66:	00 95       	com	r16
  68:	10 2f       	mov	r17, r16
  6a:	64 eb       	ldi	r22, 0xB4	; 180
  6c:	a6 2e       	mov	r10, r22
  6e:	b1 2c       	mov	r11, r1
  70:	c1 2c       	mov	r12, r1
  72:	d1 2c       	mov	r13, r1
  74:	ed b7       	in	r30, 0x3d	; 61
  76:	fe b7       	in	r31, 0x3e	; 62
  78:	a1 82       	std	Z+1, r10	; 0x01
  7a:	b2 82       	std	Z+2, r11	; 0x02
  7c:	c3 82       	std	Z+3, r12	; 0x03
  7e:	d4 82       	std	Z+4, r13	; 0x04
  80:	bc 01       	movw	r22, r24
  82:	cd 01       	movw	r24, r26
  84:	aa 24       	eor	r10, r10
  86:	bb 24       	eor	r11, r11
  88:	65 01       	movw	r12, r10
  8a:	0e 94 00 00 	call	0	; 0x0 <_ZN5Servo4readEv>
  8e:	0f 90       	pop	r0
  90:	0f 90       	pop	r0
  92:	0f 90       	pop	r0
  94:	0f 90       	pop	r0
  96:	cb 01       	movw	r24, r22
  98:	1f 91       	pop	r17
  9a:	0f 91       	pop	r16
  9c:	ff 90       	pop	r15
  9e:	ef 90       	pop	r14
  a0:	df 90       	pop	r13
  a2:	cf 90       	pop	r12
  a4:	bf 90       	pop	r11
  a6:	af 90       	pop	r10
  a8:	08 95       	ret

Disassembly of section .text._ZN5Servo5writeEi:

00000000 <_ZN5Servo5writeEi>:
   0:	af 92       	push	r10
   2:	bf 92       	push	r11
   4:	cf 92       	push	r12
   6:	df 92       	push	r13
   8:	ef 92       	push	r14
   a:	ff 92       	push	r15
   c:	0f 93       	push	r16
   e:	1f 93       	push	r17
  10:	cf 93       	push	r28
  12:	df 93       	push	r29
  14:	ec 01       	movw	r28, r24
  16:	9b 01       	movw	r18, r22
  18:	82 e0       	ldi	r24, 0x02	; 2
  1a:	60 32       	cpi	r22, 0x20	; 32
  1c:	78 07       	cpc	r23, r24
  1e:	04 f0       	brlt	.+0      	; 0x20 <_ZN5Servo5writeEi+0x20>
  20:	00 c0       	rjmp	.+0      	; 0x22 <_ZN5Servo5writeEi+0x22>
  22:	77 ff       	sbrs	r23, 7
  24:	00 c0       	rjmp	.+0      	; 0x26 <_ZN5Servo5writeEi+0x26>
  26:	20 e0       	ldi	r18, 0x00	; 0
  28:	30 e0       	ldi	r19, 0x00	; 0
  2a:	00 c0       	rjmp	.+0      	; 0x2c <_ZN5Servo5writeEi+0x2c>
  2c:	65 3b       	cpi	r22, 0xB5	; 181
  2e:	71 05       	cpc	r23, r1
  30:	04 f0       	brlt	.+0      	; 0x32 <_ZN5Servo5writeEi+0x32>
  32:	24 eb       	ldi	r18, 0xB4	; 180
  34:	30 e0       	ldi	r19, 0x00	; 0
  36:	00 d0       	rcall	.+0      	; 0x38 <_ZN5Servo5writeEi+0x38>
  38:	00 d0       	rcall	.+0      	; 0x3a <_ZN5Servo5writeEi+0x3a>
  3a:	b9 01       	movw	r22, r18
  3c:	88 27       	eor	r24, r24
  3e:	77 fd       	sbrc	r23, 7
  40:	80 95       	com	r24
  42:	98 2f       	mov	r25, r24
  44:	29 81       	ldd	r18, Y+1	; 0x01
  46:	33 27       	eor	r19, r19
  48:	27 fd       	sbrc	r18, 7
  4a:	30 95       	com	r19
  4c:	b8 e8       	ldi	r27, 0x88	; 136
  4e:	ab 2e       	mov	r10, r27
  50:	b1 2c       	mov	r11, r1
  52:	a2 1a       	sub	r10, r18
  54:	b3 0a       	sbc	r11, r19
  56:	aa 0c       	add	r10, r10
  58:	bb 1c       	adc	r11, r11
  5a:	aa 0c       	add	r10, r10
  5c:	bb 1c       	adc	r11, r11
  5e:	cc 24       	eor	r12, r12
  60:	b7 fc       	sbrc	r11, 7
  62:	c0 94       	com	r12
  64:	dc 2c       	mov	r13, r12
  66:	ea 81       	ldd	r30, Y+2	; 0x02
  68:	ff 27       	eor	r31, r31
  6a:	e7 fd       	sbrc	r30, 7
  6c:	f0 95       	com	r31
  6e:	28 e5       	ldi	r18, 0x58	; 88
  70:	32 e0       	ldi	r19, 0x02	; 2
  72:	2e 1b       	sub	r18, r30
  74:	3f 0b       	sbc	r19, r31
  76:	22 0f       	add	r18, r18
  78:	33 1f       	adc	r19, r19
  7a:	22 0f       	add	r18, r18
  7c:	33 1f       	adc	r19, r19
  7e:	44 27       	eor	r20, r20
  80:	37 fd       	sbrc	r19, 7
  82:	40 95       	com	r20
  84:	54 2f       	mov	r21, r20
  86:	ed b7       	in	r30, 0x3d	; 61
  88:	fe b7       	in	r31, 0x3e	; 62
  8a:	21 83       	std	Z+1, r18	; 0x01
  8c:	32 83       	std	Z+2, r19	; 0x02
  8e:	43 83       	std	Z+3, r20	; 0x03
  90:	54 83       	std	Z+4, r21	; 0x04
  92:	20 e0       	ldi	r18, 0x00	; 0
  94:	30 e0       	ldi	r19, 0x00	; 0
  96:	40 e0       	ldi	r20, 0x00	; 0
  98:	50 e0       	ldi	r21, 0x00	; 0
  9a:	e4 eb       	ldi	r30, 0xB4	; 180
  9c:	ee 2e       	mov	r14, r30
  9e:	f1 2c       	mov	r15, r1
  a0:	01 2d       	mov	r16, r1
  a2:	11 2d       	mov	r17, r1
  a4:	0e 94 00 00 	call	0	; 0x0 <_ZN5Servo5writeEi>
  a8:	9b 01       	movw	r18, r22
  aa:	0f 90       	pop	r0
  ac:	0f 90       	pop	r0
  ae:	0f 90       	pop	r0
  b0:	0f 90       	pop	r0
  b2:	ce 01       	movw	r24, r28
  b4:	b9 01       	movw	r22, r18
  b6:	0e 94 00 00 	call	0	; 0x0 <_ZN5Servo5writeEi>
  ba:	df 91       	pop	r29
  bc:	cf 91       	pop	r28
  be:	1f 91       	pop	r17
  c0:	0f 91       	pop	r16
  c2:	ff 90       	pop	r15
  c4:	ef 90       	pop	r14
  c6:	df 90       	pop	r13
  c8:	cf 90       	pop	r12
  ca:	bf 90       	pop	r11
  cc:	af 90       	pop	r10
  ce:	08 95       	ret

Disassembly of section .text._ZN5Servo6attachEiii:

00000000 <_ZN5Servo6attachEiii>:
   0:	cf 92       	push	r12
   2:	df 92       	push	r13
   4:	ef 92       	push	r14
   6:	ff 92       	push	r15
   8:	1f 93       	push	r17
   a:	cf 93       	push	r28
   c:	df 93       	push	r29
   e:	ec 01       	movw	r28, r24
  10:	16 2f       	mov	r17, r22
  12:	7a 01       	movw	r14, r20
  14:	69 01       	movw	r12, r18
  16:	88 81       	ld	r24, Y
  18:	8c 30       	cpi	r24, 0x0C	; 12
  1a:	00 f0       	brcs	.+0      	; 0x1c <_ZN5Servo6attachEiii+0x1c>
  1c:	00 c0       	rjmp	.+0      	; 0x1e <_ZN5Servo6attachEiii+0x1e>
  1e:	86 2f       	mov	r24, r22
  20:	61 e0       	ldi	r22, 0x01	; 1
  22:	0e 94 00 00 	call	0	; 0x0 <_ZN5Servo6attachEiii>
  26:	88 81       	ld	r24, Y
  28:	90 e0       	ldi	r25, 0x00	; 0
  2a:	fc 01       	movw	r30, r24
  2c:	ee 0f       	add	r30, r30
  2e:	ff 1f       	adc	r31, r31
  30:	e8 0f       	add	r30, r24
  32:	f9 1f       	adc	r31, r25
  34:	e0 50       	subi	r30, 0x00	; 0
  36:	f0 40       	sbci	r31, 0x00	; 0
  38:	1f 73       	andi	r17, 0x3F	; 63
  3a:	80 81       	ld	r24, Z
  3c:	80 7c       	andi	r24, 0xC0	; 192
  3e:	81 2b       	or	r24, r17
  40:	80 83       	st	Z, r24
  42:	80 e2       	ldi	r24, 0x20	; 32
  44:	92 e0       	ldi	r25, 0x02	; 2
  46:	8e 19       	sub	r24, r14
  48:	9f 09       	sbc	r25, r15
  4a:	64 e0       	ldi	r22, 0x04	; 4
  4c:	70 e0       	ldi	r23, 0x00	; 0
  4e:	0e 94 00 00 	call	0	; 0x0 <_ZN5Servo6attachEiii>
  52:	69 83       	std	Y+1, r22	; 0x01
  54:	80 e6       	ldi	r24, 0x60	; 96
  56:	99 e0       	ldi	r25, 0x09	; 9
  58:	8c 19       	sub	r24, r12
  5a:	9d 09       	sbc	r25, r13
  5c:	64 e0       	ldi	r22, 0x04	; 4
  5e:	70 e0       	ldi	r23, 0x00	; 0
  60:	0e 94 00 00 	call	0	; 0x0 <_ZN5Servo6attachEiii>
  64:	6a 83       	std	Y+2, r22	; 0x02
  66:	a8 81       	ld	r26, Y
  68:	8a 2f       	mov	r24, r26
  6a:	6c e0       	ldi	r22, 0x0C	; 12
  6c:	0e 94 00 00 	call	0	; 0x0 <_ZN5Servo6attachEiii>
  70:	68 2f       	mov	r22, r24
  72:	90 e0       	ldi	r25, 0x00	; 0
  74:	ac 01       	movw	r20, r24
  76:	44 0f       	add	r20, r20
  78:	55 1f       	adc	r21, r21
  7a:	48 0f       	add	r20, r24
  7c:	59 1f       	adc	r21, r25
  7e:	44 0f       	add	r20, r20
  80:	55 1f       	adc	r21, r21
  82:	44 0f       	add	r20, r20
  84:	55 1f       	adc	r21, r21
  86:	20 e0       	ldi	r18, 0x00	; 0
  88:	30 e0       	ldi	r19, 0x00	; 0
  8a:	c9 01       	movw	r24, r18
  8c:	84 0f       	add	r24, r20
  8e:	95 1f       	adc	r25, r21
  90:	fc 01       	movw	r30, r24
  92:	ee 0f       	add	r30, r30
  94:	ff 1f       	adc	r31, r31
  96:	e8 0f       	add	r30, r24
  98:	f9 1f       	adc	r31, r25
  9a:	e0 50       	subi	r30, 0x00	; 0
  9c:	f0 40       	sbci	r31, 0x00	; 0
  9e:	80 81       	ld	r24, Z
  a0:	86 fd       	sbrc	r24, 6
  a2:	00 c0       	rjmp	.+0      	; 0xa4 <_ZN5Servo6attachEiii+0xa4>
  a4:	2f 5f       	subi	r18, 0xFF	; 255
  a6:	3f 4f       	sbci	r19, 0xFF	; 255
  a8:	2c 30       	cpi	r18, 0x0C	; 12
  aa:	31 05       	cpc	r19, r1
  ac:	01 f4       	brne	.+0      	; 0xae <_ZN5Servo6attachEiii+0xae>
  ae:	00 c0       	rjmp	.+0      	; 0xb0 <_ZN5Servo6attachEiii+0xb0>
  b0:	10 92 80 00 	sts	0x0080, r1
  b4:	82 e0       	ldi	r24, 0x02	; 2
  b6:	80 93 81 00 	sts	0x0081, r24
  ba:	10 92 85 00 	sts	0x0085, r1
  be:	10 92 84 00 	sts	0x0084, r1
  c2:	b1 9a       	sbi	0x16, 1	; 22
  c4:	80 91 6f 00 	lds	r24, 0x006F
  c8:	82 60       	ori	r24, 0x02	; 2
  ca:	80 93 6f 00 	sts	0x006F, r24
  ce:	8a 2f       	mov	r24, r26
  d0:	90 e0       	ldi	r25, 0x00	; 0
  d2:	fc 01       	movw	r30, r24
  d4:	ee 0f       	add	r30, r30
  d6:	ff 1f       	adc	r31, r31
  d8:	e8 0f       	add	r30, r24
  da:	f9 1f       	adc	r31, r25
  dc:	e0 50       	subi	r30, 0x00	; 0
  de:	f0 40       	sbci	r31, 0x00	; 0
  e0:	80 81       	ld	r24, Z
  e2:	80 64       	ori	r24, 0x40	; 64
  e4:	80 83       	st	Z, r24
  e6:	88 81       	ld	r24, Y
  e8:	df 91       	pop	r29
  ea:	cf 91       	pop	r28
  ec:	1f 91       	pop	r17
  ee:	ff 90       	pop	r15
  f0:	ef 90       	pop	r14
  f2:	df 90       	pop	r13
  f4:	cf 90       	pop	r12
  f6:	08 95       	ret
  f8:	66 23       	and	r22, r22
  fa:	01 f0       	breq	.+0      	; 0xfc <_ZN5Servo6attachEiii+0xfc>
  fc:	00 c0       	rjmp	.+0      	; 0xfe <__SREG__+0xbf>

Disassembly of section .text._ZN5Servo6attachEi:

00000000 <_ZN5Servo6attachEi>:
   0:	40 e2       	ldi	r20, 0x20	; 32
   2:	52 e0       	ldi	r21, 0x02	; 2
   4:	20 e6       	ldi	r18, 0x60	; 96
   6:	39 e0       	ldi	r19, 0x09	; 9
   8:	0e 94 00 00 	call	0	; 0x0 <_ZN5Servo6attachEi>
   c:	08 95       	ret

Disassembly of section .text.__vector_11:

00000000 <__vector_11>:
   0:	1f 92       	push	r1
   2:	0f 92       	push	r0
   4:	0f b6       	in	r0, 0x3f	; 63
   6:	0f 92       	push	r0
   8:	11 24       	eor	r1, r1
   a:	2f 93       	push	r18
   c:	3f 93       	push	r19
   e:	4f 93       	push	r20
  10:	5f 93       	push	r21
  12:	6f 93       	push	r22
  14:	7f 93       	push	r23
  16:	8f 93       	push	r24
  18:	9f 93       	push	r25
  1a:	af 93       	push	r26
  1c:	bf 93       	push	r27
  1e:	ef 93       	push	r30
  20:	ff 93       	push	r31
  22:	80 91 00 00 	lds	r24, 0x0000
  26:	87 ff       	sbrs	r24, 7
  28:	00 c0       	rjmp	.+0      	; 0x2a <__vector_11+0x2a>
  2a:	10 92 85 00 	sts	0x0085, r1
  2e:	10 92 84 00 	sts	0x0084, r1
  32:	00 c0       	rjmp	.+0      	; 0x34 <__vector_11+0x34>
  34:	20 91 00 00 	lds	r18, 0x0000
  38:	33 27       	eor	r19, r19
  3a:	27 fd       	sbrc	r18, 7
  3c:	30 95       	com	r19
  3e:	80 91 00 00 	lds	r24, 0x0000
  42:	90 e0       	ldi	r25, 0x00	; 0
  44:	28 17       	cp	r18, r24
  46:	39 07       	cpc	r19, r25
  48:	04 f4       	brge	.+0      	; 0x4a <__vector_11+0x4a>
  4a:	80 91 00 00 	lds	r24, 0x0000
  4e:	99 27       	eor	r25, r25
  50:	87 fd       	sbrc	r24, 7
  52:	90 95       	com	r25
  54:	fc 01       	movw	r30, r24
  56:	ee 0f       	add	r30, r30
  58:	ff 1f       	adc	r31, r31
  5a:	e8 0f       	add	r30, r24
  5c:	f9 1f       	adc	r31, r25
  5e:	e0 50       	subi	r30, 0x00	; 0
  60:	f0 40       	sbci	r31, 0x00	; 0
  62:	80 81       	ld	r24, Z
  64:	86 ff       	sbrs	r24, 6
  66:	00 c0       	rjmp	.+0      	; 0x68 <__vector_11+0x68>
  68:	80 91 00 00 	lds	r24, 0x0000
  6c:	99 27       	eor	r25, r25
  6e:	87 fd       	sbrc	r24, 7
  70:	90 95       	com	r25
  72:	fc 01       	movw	r30, r24
  74:	ee 0f       	add	r30, r30
  76:	ff 1f       	adc	r31, r31
  78:	e8 0f       	add	r30, r24
  7a:	f9 1f       	adc	r31, r25
  7c:	e0 50       	subi	r30, 0x00	; 0
  7e:	f0 40       	sbci	r31, 0x00	; 0
  80:	80 81       	ld	r24, Z
  82:	8f 73       	andi	r24, 0x3F	; 63
  84:	60 e0       	ldi	r22, 0x00	; 0
  86:	0e 94 00 00 	call	0	; 0x0 <__vector_11>
  8a:	80 91 00 00 	lds	r24, 0x0000
  8e:	8f 5f       	subi	r24, 0xFF	; 255
  90:	80 93 00 00 	sts	0x0000, r24
  94:	20 91 00 00 	lds	r18, 0x0000
  98:	33 27       	eor	r19, r19
  9a:	27 fd       	sbrc	r18, 7
  9c:	30 95       	com	r19
  9e:	80 91 00 00 	lds	r24, 0x0000
  a2:	90 e0       	ldi	r25, 0x00	; 0
  a4:	28 17       	cp	r18, r24
  a6:	39 07       	cpc	r19, r25
  a8:	04 f0       	brlt	.+0      	; 0xaa <__vector_11+0xaa>
  aa:	00 c0       	rjmp	.+0      	; 0xac <__vector_11+0xac>
  ac:	80 91 00 00 	lds	r24, 0x0000
  b0:	8c 30       	cpi	r24, 0x0C	; 12
  b2:	04 f0       	brlt	.+0      	; 0xb4 <__vector_11+0xb4>
  b4:	00 c0       	rjmp	.+0      	; 0xb6 <__vector_11+0xb6>
  b6:	20 91 84 00 	lds	r18, 0x0084
  ba:	30 91 85 00 	lds	r19, 0x0085
  be:	80 91 00 00 	lds	r24, 0x0000
  c2:	99 27       	eor	r25, r25
  c4:	87 fd       	sbrc	r24, 7
  c6:	90 95       	com	r25
  c8:	fc 01       	movw	r30, r24
  ca:	ee 0f       	add	r30, r30
  cc:	ff 1f       	adc	r31, r31
  ce:	e8 0f       	add	r30, r24
  d0:	f9 1f       	adc	r31, r25
  d2:	e0 50       	subi	r30, 0x00	; 0
  d4:	f0 40       	sbci	r31, 0x00	; 0
  d6:	81 81       	ldd	r24, Z+1	; 0x01
  d8:	92 81       	ldd	r25, Z+2	; 0x02
  da:	28 0f       	add	r18, r24
  dc:	39 1f       	adc	r19, r25
  de:	30 93 89 00 	sts	0x0089, r19
  e2:	20 93 88 00 	sts	0x0088, r18
  e6:	80 91 00 00 	lds	r24, 0x0000
  ea:	99 27       	eor	r25, r25
  ec:	87 fd       	sbrc	r24, 7
  ee:	90 95       	com	r25
  f0:	fc 01       	movw	r30, r24
  f2:	ee 0f       	add	r30, r30
  f4:	ff 1f       	adc	r31, r31
  f6:	e8 0f       	add	r30, r24
  f8:	f9 1f       	adc	r31, r25
  fa:	e0 50       	subi	r30, 0x00	; 0
  fc:	f0 40       	sbci	r31, 0x00	; 0
  fe:	80 81       	ld	r24, Z
 100:	86 ff       	sbrs	r24, 6
 102:	00 c0       	rjmp	.+0      	; 0x104 <__vector_11+0x104>
 104:	80 91 00 00 	lds	r24, 0x0000
 108:	99 27       	eor	r25, r25
 10a:	87 fd       	sbrc	r24, 7
 10c:	90 95       	com	r25
 10e:	fc 01       	movw	r30, r24
 110:	ee 0f       	add	r30, r30
 112:	ff 1f       	adc	r31, r31
 114:	e8 0f       	add	r30, r24
 116:	f9 1f       	adc	r31, r25
 118:	e0 50       	subi	r30, 0x00	; 0
 11a:	f0 40       	sbci	r31, 0x00	; 0
 11c:	80 81       	ld	r24, Z
 11e:	8f 73       	andi	r24, 0x3F	; 63
 120:	61 e0       	ldi	r22, 0x01	; 1
 122:	0e 94 00 00 	call	0	; 0x0 <__vector_11>
 126:	00 c0       	rjmp	.+0      	; 0x128 <__vector_11+0x128>
 128:	80 e4       	ldi	r24, 0x40	; 64
 12a:	9c e9       	ldi	r25, 0x9C	; 156
 12c:	00 c0       	rjmp	.+0      	; 0x12e <__vector_11+0x12e>
 12e:	80 91 84 00 	lds	r24, 0x0084
 132:	90 91 85 00 	lds	r25, 0x0085
 136:	04 96       	adiw	r24, 0x04	; 4
 138:	90 93 89 00 	sts	0x0089, r25
 13c:	80 93 88 00 	sts	0x0088, r24
 140:	8f ef       	ldi	r24, 0xFF	; 255
 142:	80 93 00 00 	sts	0x0000, r24
 146:	00 c0       	rjmp	.+0      	; 0x148 <__vector_11+0x148>
 148:	80 91 84 00 	lds	r24, 0x0084
 14c:	90 91 85 00 	lds	r25, 0x0085
 150:	84 54       	subi	r24, 0x44	; 68
 152:	9c 49       	sbci	r25, 0x9C	; 156
 154:	00 f0       	brcs	.+0      	; 0x156 <__vector_11+0x156>
 156:	00 c0       	rjmp	.+0      	; 0x158 <__vector_11+0x158>
 158:	ff 91       	pop	r31
 15a:	ef 91       	pop	r30
 15c:	bf 91       	pop	r27
 15e:	af 91       	pop	r26
 160:	9f 91       	pop	r25
 162:	8f 91       	pop	r24
 164:	7f 91       	pop	r23
 166:	6f 91       	pop	r22
 168:	5f 91       	pop	r21
 16a:	4f 91       	pop	r20
 16c:	3f 91       	pop	r19
 16e:	2f 91       	pop	r18
 170:	0f 90       	pop	r0
 172:	0f be       	out	0x3f, r0	; 63
 174:	0f 90       	pop	r0
 176:	1f 90       	pop	r1
 178:	18 95       	reti

SPI.o:     file format elf32-avr

Sections:
Idx Name          Size      VMA       LMA       File off  Algn
  0 .text         00000000  00000000  00000000  00000034  2**0
                  CONTENTS, ALLOC, LOAD, READONLY, CODE
  1 .data         00000000  00000000  00000000  00000034  2**0
                  CONTENTS, ALLOC, LOAD, DATA
  2 .bss          00000000  00000000  00000000  00000034  2**0
                  ALLOC
  3 .text._ZN8SPIClass3endEv 00000008  00000000  00000000  00000034  2**0
                  CONTENTS, ALLOC, LOAD, READONLY, CODE
  4 .text._ZN8SPIClass11setBitOrderEh 00000012  00000000  00000000  0000003c  2**0
                  CONTENTS, ALLOC, LOAD, RELOC, READONLY, CODE
  5 .text._ZN8SPIClass11setDataModeEh 0000000a  00000000  00000000  0000004e  2**0
                  CONTENTS, ALLOC, LOAD, READONLY, CODE
  6 .text._ZN8SPIClass15setClockDividerEh 00000018  00000000  00000000  00000058  2**0
                  CONTENTS, ALLOC, LOAD, READONLY, CODE
  7 .text._ZN8SPIClass5beginEv 0000003e  00000000  00000000  00000070  2**0
                  CONTENTS, ALLOC, LOAD, RELOC, READONLY, CODE
  8 .bss.SPI      00000001  00000000  00000000  000000ae  2**0
                  ALLOC

Disassembly of section .text._ZN8SPIClass3endEv:

00000000 <_ZN8SPIClass3endEv>:
   0:	8c b5       	in	r24, 0x2c	; 44
   2:	8f 7b       	andi	r24, 0xBF	; 191
   4:	8c bd       	out	0x2c, r24	; 44
   6:	08 95       	ret

Disassembly of section .text._ZN8SPIClass11setBitOrderEh:

00000000 <_ZN8SPIClass11setBitOrderEh>:
   0:	88 23       	and	r24, r24
   2:	01 f4       	brne	.+0      	; 0x4 <_ZN8SPIClass11setBitOrderEh+0x4>
   4:	8c b5       	in	r24, 0x2c	; 44
   6:	80 62       	ori	r24, 0x20	; 32
   8:	00 c0       	rjmp	.+0      	; 0xa <_ZN8SPIClass11setBitOrderEh+0xa>
   a:	8c b5       	in	r24, 0x2c	; 44
   c:	8f 7d       	andi	r24, 0xDF	; 223
   e:	8c bd       	out	0x2c, r24	; 44
  10:	08 95       	ret

Disassembly of section .text._ZN8SPIClass11setDataModeEh:

00000000 <_ZN8SPIClass11setDataModeEh>:
   0:	9c b5       	in	r25, 0x2c	; 44
   2:	93 7f       	andi	r25, 0xF3	; 243
   4:	98 2b       	or	r25, r24
   6:	9c bd       	out	0x2c, r25	; 44
   8:	08 95       	ret

Disassembly of section .text._ZN8SPIClass15setClockDividerEh:

00000000 <_ZN8SPIClass15setClockDividerEh>:
   0:	9c b5       	in	r25, 0x2c	; 44
   2:	28 2f       	mov	r18, r24
   4:	23 70       	andi	r18, 0x03	; 3
   6:	9c 7f       	andi	r25, 0xFC	; 252
   8:	29 2b       	or	r18, r25
   a:	2c bd       	out	0x2c, r18	; 44
   c:	9d b5       	in	r25, 0x2d	; 45
   e:	81 70       	andi	r24, 0x01	; 1
  10:	9e 7f       	andi	r25, 0xFE	; 254
  12:	98 2b       	or	r25, r24
  14:	9d bd       	out	0x2d, r25	; 45
  16:	08 95       	ret

Disassembly of section .text._ZN8SPIClass5beginEv:

00000000 <_ZN8SPIClass5beginEv>:
   0:	8d e0       	ldi	r24, 0x0D	; 13
   2:	61 e0       	ldi	r22, 0x01	; 1
   4:	0e 94 00 00 	call	0	; 0x0 <_ZN8SPIClass5beginEv>
   8:	8b e0       	ldi	r24, 0x0B	; 11
   a:	61 e0       	ldi	r22, 0x01	; 1
   c:	0e 94 00 00 	call	0	; 0x0 <_ZN8SPIClass5beginEv>
  10:	8a e0       	ldi	r24, 0x0A	; 10
  12:	61 e0       	ldi	r22, 0x01	; 1
  14:	0e 94 00 00 	call	0	; 0x0 <_ZN8SPIClass5beginEv>
  18:	8d e0       	ldi	r24, 0x0D	; 13
  1a:	60 e0       	ldi	r22, 0x00	; 0
  1c:	0e 94 00 00 	call	0	; 0x0 <_ZN8SPIClass5beginEv>
  20:	8b e0       	ldi	r24, 0x0B	; 11
  22:	60 e0       	ldi	r22, 0x00	; 0
  24:	0e 94 00 00 	call	0	; 0x0 <_ZN8SPIClass5beginEv>
  28:	8a e0       	ldi	r24, 0x0A	; 10
  2a:	61 e0       	ldi	r22, 0x01	; 1
  2c:	0e 94 00 00 	call	0	; 0x0 <_ZN8SPIClass5beginEv>
  30:	8c b5       	in	r24, 0x2c	; 44
  32:	80 61       	ori	r24, 0x10	; 16
  34:	8c bd       	out	0x2c, r24	; 44
  36:	8c b5       	in	r24, 0x2c	; 44
  38:	80 64       	ori	r24, 0x40	; 64
  3a:	8c bd       	out	0x2c, r24	; 44
  3c:	08 95       	ret

LiquidCrystal.o:     file format elf32-avr

Sections:
Idx Name          Size      VMA       LMA       File off  Algn
  0 .text         00000000  00000000  00000000  00000034  2**0
                  CONTENTS, ALLOC, LOAD, READONLY, CODE
  1 .data         00000000  00000000  00000000  00000034  2**0
                  CONTENTS, ALLOC, LOAD, DATA
  2 .bss          00000000  00000000  00000000  00000034  2**0
                  ALLOC
  3 .text._ZN13LiquidCrystal11pulseEnableEv 00000042  00000000  00000000  00000034  2**0
                  CONTENTS, ALLOC, LOAD, RELOC, READONLY, CODE
  4 .text._ZN13LiquidCrystal10write8bitsEh 0000006c  00000000  00000000  00000076  2**0
                  CONTENTS, ALLOC, LOAD, RELOC, READONLY, CODE
  5 .text._ZN13LiquidCrystal10write4bitsEh 0000006c  00000000  00000000  000000e2  2**0
                  CONTENTS, ALLOC, LOAD, RELOC, READONLY, CODE
  6 .text._ZN13LiquidCrystal4sendEhh 00000052  00000000  00000000  0000014e  2**0
                  CONTENTS, ALLOC, LOAD, RELOC, READONLY, CODE
  7 .text._ZN13LiquidCrystal5writeEh 00000008  00000000  00000000  000001a0  2**0
                  CONTENTS, ALLOC, LOAD, RELOC, READONLY, CODE
  8 .text._ZN13LiquidCrystal7commandEh 00000008  00000000  00000000  000001a8  2**0
                  CONTENTS, ALLOC, LOAD, RELOC, READONLY, CODE
  9 .text._ZN13LiquidCrystal10createCharEhPh 00000050  00000000  00000000  000001b0  2**0
                  CONTENTS, ALLOC, LOAD, RELOC, READONLY, CODE
 10 .text._ZN13LiquidCrystal12noAutoscrollEv 00000010  00000000  00000000  00000200  2**0
                  CONTENTS, ALLOC, LOAD, RELOC, READONLY, CODE
 11 .text._ZN13LiquidCrystal10autoscrollEv 00000014  00000000  00000000  00000210  2**0
                  CONTENTS, ALLOC, LOAD, RELOC, READONLY, CODE
 12 .text._ZN13LiquidCrystal11rightToLeftEv 00000010  00000000  00000000  00000224  2**0
                  CONTENTS, ALLOC, LOAD, RELOC, READONLY, CODE
 13 .text._ZN13LiquidCrystal11leftToRightEv 00000014  00000000  00000000  00000234  2**0
                  CONTENTS, ALLOC, LOAD, RELOC, READONLY, CODE
 14 .text._ZN13LiquidCrystal18scrollDisplayRightEv 00000008  00000000  00000000  00000248  2**0
                  CONTENTS, ALLOC, LOAD, RELOC, READONLY, CODE
 15 .text._ZN13LiquidCrystal17scrollDisplayLeftEv 00000008  00000000  00000000  00000250  2**0
                  CONTENTS, ALLOC, LOAD, RELOC, READONLY, CODE
 16 .text._ZN13LiquidCrystal5blinkEv 00000014  00000000  00000000  00000258  2**0
                  CONTENTS, ALLOC, LOAD, RELOC, READONLY, CODE
 17 .text._ZN13LiquidCrystal7noBlinkEv 00000010  00000000  00000000  0000026c  2**0
                  CONTENTS, ALLOC, LOAD, RELOC, READONLY, CODE
 18 .text._ZN13LiquidCrystal6cursorEv 00000014  00000000  00000000  0000027c  2**0
                  CONTENTS, ALLOC, LOAD, RELOC, READONLY, CODE
 19 .text._ZN13LiquidCrystal8noCursorEv 00000010  00000000  00000000  00000290  2**0
                  CONTENTS, ALLOC, LOAD, RELOC, READONLY, CODE
 20 .text._ZN13LiquidCrystal7displayEv 00000014  00000000  00000000  000002a0  2**0
                  CONTENTS, ALLOC, LOAD, RELOC, READONLY, CODE
 21 .text._ZN13LiquidCrystal9noDisplayEv 00000010  00000000  00000000  000002b4  2**0
                  CONTENTS, ALLOC, LOAD, RELOC, READONLY, CODE
 22 .text._ZN13LiquidCrystal9setCursorEhh 0000005e  00000000  00000000  000002c4  2**0
                  CONTENTS, ALLOC, LOAD, RELOC, READONLY, CODE
 23 .text._ZN13LiquidCrystal4homeEv 00000010  00000000  00000000  00000322  2**0
                  CONTENTS, ALLOC, LOAD, RELOC, READONLY, CODE
 24 .text._ZN13LiquidCrystal5clearEv 00000010  00000000  00000000  00000332  2**0
                  CONTENTS, ALLOC, LOAD, RELOC, READONLY, CODE
 25 .text._ZN13LiquidCrystal5beginEhhh 000000de  00000000  00000000  00000342  2**0
                  CONTENTS, ALLOC, LOAD, RELOC, READONLY, CODE
 26 .text._ZN13LiquidCrystal4initEhhhhhhhhhhhh 0000008e  00000000  00000000  00000420  2**0
                  CONTENTS, ALLOC, LOAD, RELOC, READONLY, CODE
 27 .text._ZN13LiquidCrystalC1Ehhhhhh 0000006a  00000000  00000000  000004ae  2**0
                  CONTENTS, ALLOC, LOAD, RELOC, READONLY, CODE
 28 .text._ZN13LiquidCrystalC2Ehhhhhh 0000006a  00000000  00000000  00000518  2**0
                  CONTENTS, ALLOC, LOAD, RELOC, READONLY, CODE
 29 .text._ZN13LiquidCrystalC1Ehhhhhhh 00000076  00000000  00000000  00000582  2**0
                  CONTENTS, ALLOC, LOAD, RELOC, READONLY, CODE
 30 .text._ZN13LiquidCrystalC2Ehhhhhhh 00000076  00000000  00000000  000005f8  2**0
                  CONTENTS, ALLOC, LOAD, RELOC, READONLY, CODE
 31 .text._ZN13LiquidCrystalC1Ehhhhhhhhhh 00000088  00000000  00000000  0000066e  2**0
                  CONTENTS, ALLOC, LOAD, RELOC, READONLY, CODE
 32 .text._ZN13LiquidCrystalC2Ehhhhhhhhhh 00000088  00000000  00000000  000006f6  2**0
                  CONTENTS, ALLOC, LOAD, RELOC, READONLY, CODE
 33 .text._ZN13LiquidCrystalC1Ehhhhhhhhhhh 00000090  00000000  00000000  0000077e  2**0
                  CONTENTS, ALLOC, LOAD, RELOC, READONLY, CODE
 34 .text._ZN13LiquidCrystalC2Ehhhhhhhhhhh 00000090  00000000  00000000  0000080e  2**0
                  CONTENTS, ALLOC, LOAD, RELOC, READONLY, CODE
 35 .rodata._ZTV13LiquidCrystal 0000000a  00000000  00000000  0000089e  2**0
                  CONTENTS, ALLOC, LOAD, RELOC, READONLY, DATA
 36 .rodata._ZZN13LiquidCrystal9setCursorEhhE3C.0 00000008  00000000  00000000  000008a8  2**0
                  CONTENTS, ALLOC, LOAD, READONLY, DATA

Disassembly of section .text._ZN13LiquidCrystal11pulseEnableEv:

00000000 <_ZN13LiquidCrystal11pulseEnableEv>:
   0:	0f 93       	push	r16
   2:	1f 93       	push	r17
   4:	8c 01       	movw	r16, r24
   6:	fc 01       	movw	r30, r24
   8:	84 81       	ldd	r24, Z+4	; 0x04
   a:	60 e0       	ldi	r22, 0x00	; 0
   c:	0e 94 00 00 	call	0	; 0x0 <_ZN13LiquidCrystal11pulseEnableEv>
  10:	81 e0       	ldi	r24, 0x01	; 1
  12:	90 e0       	ldi	r25, 0x00	; 0
  14:	0e 94 00 00 	call	0	; 0x0 <_ZN13LiquidCrystal11pulseEnableEv>
  18:	f8 01       	movw	r30, r16
  1a:	84 81       	ldd	r24, Z+4	; 0x04
  1c:	61 e0       	ldi	r22, 0x01	; 1
  1e:	0e 94 00 00 	call	0	; 0x0 <_ZN13LiquidCrystal11pulseEnableEv>
  22:	81 e0       	ldi	r24, 0x01	; 1
  24:	90 e0       	ldi	r25, 0x00	; 0
  26:	0e 94 00 00 	call	0	; 0x0 <_ZN13LiquidCrystal11pulseEnableEv>
  2a:	f8 01       	movw	r30, r16
  2c:	84 81       	ldd	r24, Z+4	; 0x04
  2e:	60 e0       	ldi	r22, 0x00	; 0
  30:	0e 94 00 00 	call	0	; 0x0 <_ZN13LiquidCrystal11pulseEnableEv>
  34:	84 e6       	ldi	r24, 0x64	; 100
  36:	90 e0       	ldi	r25, 0x00	; 0
  38:	0e 94 00 00 	call	0	; 0x0 <_ZN13LiquidCrystal11pulseEnableEv>
  3c:	1f 91       	pop	r17
  3e:	0f 91       	pop	r16
  40:	08 95       	ret

Disassembly of section .text._ZN13LiquidCrystal10write8bitsEh:

00000000 <_ZN13LiquidCrystal10write8bitsEh>:
   0:	cf 92       	push	r12
   2:	df 92       	push	r13
   4:	ef 92       	push	r14
   6:	ff 92       	push	r15
   8:	0f 93       	push	r16
   a:	1f 93       	push	r17
   c:	cf 93       	push	r28
   e:	df 93       	push	r29
  10:	d8 2e       	mov	r13, r24
  12:	c9 2e       	mov	r12, r25
  14:	28 2f       	mov	r18, r24
  16:	39 2f       	mov	r19, r25
  18:	c9 01       	movw	r24, r18
  1a:	8c 01       	movw	r16, r24
  1c:	c0 e0       	ldi	r28, 0x00	; 0
  1e:	d0 e0       	ldi	r29, 0x00	; 0
  20:	e6 2e       	mov	r14, r22
  22:	ff 24       	eor	r15, r15
  24:	f8 01       	movw	r30, r16
  26:	85 81       	ldd	r24, Z+5	; 0x05
  28:	61 e0       	ldi	r22, 0x01	; 1
  2a:	0e 94 00 00 	call	0	; 0x0 <_ZN13LiquidCrystal10write8bitsEh>
  2e:	b7 01       	movw	r22, r14
  30:	0c 2e       	mov	r0, r28
  32:	00 c0       	rjmp	.+0      	; 0x34 <_ZN13LiquidCrystal10write8bitsEh+0x34>
  34:	75 95       	asr	r23
  36:	67 95       	ror	r22
  38:	0a 94       	dec	r0
  3a:	02 f4       	brpl	.+0      	; 0x3c <_ZN13LiquidCrystal10write8bitsEh+0x3c>
  3c:	61 70       	andi	r22, 0x01	; 1
  3e:	f8 01       	movw	r30, r16
  40:	85 81       	ldd	r24, Z+5	; 0x05
  42:	0e 94 00 00 	call	0	; 0x0 <_ZN13LiquidCrystal10write8bitsEh>
  46:	21 96       	adiw	r28, 0x01	; 1
  48:	0f 5f       	subi	r16, 0xFF	; 255
  4a:	1f 4f       	sbci	r17, 0xFF	; 255
  4c:	c8 30       	cpi	r28, 0x08	; 8
  4e:	d1 05       	cpc	r29, r1
  50:	01 f4       	brne	.+0      	; 0x52 <_ZN13LiquidCrystal10write8bitsEh+0x52>
  52:	8d 2d       	mov	r24, r13
  54:	9c 2d       	mov	r25, r12
  56:	0e 94 00 00 	call	0	; 0x0 <_ZN13LiquidCrystal10write8bitsEh>
  5a:	df 91       	pop	r29
  5c:	cf 91       	pop	r28
  5e:	1f 91       	pop	r17
  60:	0f 91       	pop	r16
  62:	ff 90       	pop	r15
  64:	ef 90       	pop	r14
  66:	df 90       	pop	r13
  68:	cf 90       	pop	r12
  6a:	08 95       	ret

Disassembly of section .text._ZN13LiquidCrystal10write4bitsEh:

00000000 <_ZN13LiquidCrystal10write4bitsEh>:
   0:	cf 92       	push	r12
   2:	df 92       	push	r13
   4:	ef 92       	push	r14
   6:	ff 92       	push	r15
   8:	0f 93       	push	r16
   a:	1f 93       	push	r17
   c:	cf 93       	push	r28
   e:	df 93       	push	r29
  10:	d8 2e       	mov	r13, r24
  12:	c9 2e       	mov	r12, r25
  14:	28 2f       	mov	r18, r24
  16:	39 2f       	mov	r19, r25
  18:	c9 01       	movw	r24, r18
  1a:	8c 01       	movw	r16, r24
  1c:	c0 e0       	ldi	r28, 0x00	; 0
  1e:	d0 e0       	ldi	r29, 0x00	; 0
  20:	e6 2e       	mov	r14, r22
  22:	ff 24       	eor	r15, r15
  24:	f8 01       	movw	r30, r16
  26:	85 81       	ldd	r24, Z+5	; 0x05
  28:	61 e0       	ldi	r22, 0x01	; 1
  2a:	0e 94 00 00 	call	0	; 0x0 <_ZN13LiquidCrystal10write4bitsEh>
  2e:	b7 01       	movw	r22, r14
  30:	0c 2e       	mov	r0, r28
  32:	00 c0       	rjmp	.+0      	; 0x34 <_ZN13LiquidCrystal10write4bitsEh+0x34>
  34:	75 95       	asr	r23
  36:	67 95       	ror	r22
  38:	0a 94       	dec	r0
  3a:	02 f4       	brpl	.+0      	; 0x3c <_ZN13LiquidCrystal10write4bitsEh+0x3c>
  3c:	61 70       	andi	r22, 0x01	; 1
  3e:	f8 01       	movw	r30, r16
  40:	85 81       	ldd	r24, Z+5	; 0x05
  42:	0e 94 00 00 	call	0	; 0x0 <_ZN13LiquidCrystal10write4bitsEh>
  46:	21 96       	adiw	r28, 0x01	; 1
  48:	0f 5f       	subi	r16, 0xFF	; 255
  4a:	1f 4f       	sbci	r17, 0xFF	; 255
  4c:	c4 30       	cpi	r28, 0x04	; 4
  4e:	d1 05       	cpc	r29, r1
  50:	01 f4       	brne	.+0      	; 0x52 <_ZN13LiquidCrystal10write4bitsEh+0x52>
  52:	8d 2d       	mov	r24, r13
  54:	9c 2d       	mov	r25, r12
  56:	0e 94 00 00 	call	0	; 0x0 <_ZN13LiquidCrystal10write4bitsEh>
  5a:	df 91       	pop	r29
  5c:	cf 91       	pop	r28
  5e:	1f 91       	pop	r17
  60:	0f 91       	pop	r16
  62:	ff 90       	pop	r15
  64:	ef 90       	pop	r14
  66:	df 90       	pop	r13
  68:	cf 90       	pop	r12
  6a:	08 95       	ret

Disassembly of section .text._ZN13LiquidCrystal4sendEhh:

00000000 <_ZN13LiquidCrystal4sendEhh>:
   0:	1f 93       	push	r17
   2:	cf 93       	push	r28
   4:	df 93       	push	r29
   6:	ec 01       	movw	r28, r24
   8:	16 2f       	mov	r17, r22
   a:	8a 81       	ldd	r24, Y+2	; 0x02
   c:	64 2f       	mov	r22, r20
   e:	0e 94 00 00 	call	0	; 0x0 <_ZN13LiquidCrystal4sendEhh>
  12:	8b 81       	ldd	r24, Y+3	; 0x03
  14:	8f 3f       	cpi	r24, 0xFF	; 255
  16:	01 f0       	breq	.+0      	; 0x18 <_ZN13LiquidCrystal4sendEhh+0x18>
  18:	60 e0       	ldi	r22, 0x00	; 0
  1a:	0e 94 00 00 	call	0	; 0x0 <_ZN13LiquidCrystal4sendEhh>
  1e:	8d 85       	ldd	r24, Y+13	; 0x0d
  20:	84 ff       	sbrs	r24, 4
  22:	00 c0       	rjmp	.+0      	; 0x24 <_ZN13LiquidCrystal4sendEhh+0x24>
  24:	ce 01       	movw	r24, r28
  26:	61 2f       	mov	r22, r17
  28:	0e 94 00 00 	call	0	; 0x0 <_ZN13LiquidCrystal4sendEhh>
  2c:	00 c0       	rjmp	.+0      	; 0x2e <_ZN13LiquidCrystal4sendEhh+0x2e>
  2e:	61 2f       	mov	r22, r17
  30:	70 e0       	ldi	r23, 0x00	; 0
  32:	84 e0       	ldi	r24, 0x04	; 4
  34:	75 95       	asr	r23
  36:	67 95       	ror	r22
  38:	8a 95       	dec	r24
  3a:	01 f4       	brne	.+0      	; 0x3c <_ZN13LiquidCrystal4sendEhh+0x3c>
  3c:	ce 01       	movw	r24, r28
  3e:	0e 94 00 00 	call	0	; 0x0 <_ZN13LiquidCrystal4sendEhh>
  42:	ce 01       	movw	r24, r28
  44:	61 2f       	mov	r22, r17
  46:	0e 94 00 00 	call	0	; 0x0 <_ZN13LiquidCrystal4sendEhh>
  4a:	df 91       	pop	r29
  4c:	cf 91       	pop	r28
  4e:	1f 91       	pop	r17
  50:	08 95       	ret

Disassembly of section .text._ZN13LiquidCrystal5writeEh:

00000000 <_ZN13LiquidCrystal5writeEh>:
   0:	41 e0       	ldi	r20, 0x01	; 1
   2:	0e 94 00 00 	call	0	; 0x0 <_ZN13LiquidCrystal5writeEh>
   6:	08 95       	ret

Disassembly of section .text._ZN13LiquidCrystal7commandEh:

00000000 <_ZN13LiquidCrystal7commandEh>:
   0:	40 e0       	ldi	r20, 0x00	; 0
   2:	0e 94 00 00 	call	0	; 0x0 <_ZN13LiquidCrystal7commandEh>
   6:	08 95       	ret

Disassembly of section .text._ZN13LiquidCrystal10createCharEhPh:

00000000 <_ZN13LiquidCrystal10createCharEhPh>:
   0:	ef 92       	push	r14
   2:	ff 92       	push	r15
   4:	0f 93       	push	r16
   6:	1f 93       	push	r17
   8:	cf 93       	push	r28
   a:	df 93       	push	r29
   c:	8c 01       	movw	r16, r24
   e:	7a 01       	movw	r14, r20
  10:	67 70       	andi	r22, 0x07	; 7
  12:	66 0f       	add	r22, r22
  14:	66 0f       	add	r22, r22
  16:	66 0f       	add	r22, r22
  18:	60 64       	ori	r22, 0x40	; 64
  1a:	0e 94 00 00 	call	0	; 0x0 <_ZN13LiquidCrystal10createCharEhPh>
  1e:	c0 e0       	ldi	r28, 0x00	; 0
  20:	d0 e0       	ldi	r29, 0x00	; 0
  22:	d8 01       	movw	r26, r16
  24:	ed 91       	ld	r30, X+
  26:	fc 91       	ld	r31, X
  28:	d7 01       	movw	r26, r14
  2a:	ac 0f       	add	r26, r28
  2c:	bd 1f       	adc	r27, r29
  2e:	01 90       	ld	r0, Z+
  30:	f0 81       	ld	r31, Z
  32:	e0 2d       	mov	r30, r0
  34:	c8 01       	movw	r24, r16
  36:	6c 91       	ld	r22, X
  38:	09 95       	icall
  3a:	21 96       	adiw	r28, 0x01	; 1
  3c:	c8 30       	cpi	r28, 0x08	; 8
  3e:	d1 05       	cpc	r29, r1
  40:	01 f4       	brne	.+0      	; 0x42 <_ZN13LiquidCrystal10createCharEhPh+0x42>
  42:	df 91       	pop	r29
  44:	cf 91       	pop	r28
  46:	1f 91       	pop	r17
  48:	0f 91       	pop	r16
  4a:	ff 90       	pop	r15
  4c:	ef 90       	pop	r14
  4e:	08 95       	ret

Disassembly of section .text._ZN13LiquidCrystal12noAutoscrollEv:

00000000 <_ZN13LiquidCrystal12noAutoscrollEv>:
   0:	fc 01       	movw	r30, r24
   2:	67 85       	ldd	r22, Z+15	; 0x0f
   4:	6e 7f       	andi	r22, 0xFE	; 254
   6:	67 87       	std	Z+15, r22	; 0x0f
   8:	64 60       	ori	r22, 0x04	; 4
   a:	0e 94 00 00 	call	0	; 0x0 <_ZN13LiquidCrystal12noAutoscrollEv>
   e:	08 95       	ret

Disassembly of section .text._ZN13LiquidCrystal10autoscrollEv:

00000000 <_ZN13LiquidCrystal10autoscrollEv>:
   0:	fc 01       	movw	r30, r24
   2:	67 85       	ldd	r22, Z+15	; 0x0f
   4:	86 2f       	mov	r24, r22
   6:	81 60       	ori	r24, 0x01	; 1
   8:	87 87       	std	Z+15, r24	; 0x0f
   a:	65 60       	ori	r22, 0x05	; 5
   c:	cf 01       	movw	r24, r30
   e:	0e 94 00 00 	call	0	; 0x0 <_ZN13LiquidCrystal10autoscrollEv>
  12:	08 95       	ret

Disassembly of section .text._ZN13LiquidCrystal11rightToLeftEv:

00000000 <_ZN13LiquidCrystal11rightToLeftEv>:
   0:	fc 01       	movw	r30, r24
   2:	67 85       	ldd	r22, Z+15	; 0x0f
   4:	6d 7f       	andi	r22, 0xFD	; 253
   6:	67 87       	std	Z+15, r22	; 0x0f
   8:	64 60       	ori	r22, 0x04	; 4
   a:	0e 94 00 00 	call	0	; 0x0 <_ZN13LiquidCrystal11rightToLeftEv>
   e:	08 95       	ret

Disassembly of section .text._ZN13LiquidCrystal11leftToRightEv:

00000000 <_ZN13LiquidCrystal11leftToRightEv>:
   0:	fc 01       	movw	r30, r24
   2:	67 85       	ldd	r22, Z+15	; 0x0f
   4:	86 2f       	mov	r24, r22
   6:	82 60       	ori	r24, 0x02	; 2
   8:	87 87       	std	Z+15, r24	; 0x0f
   a:	66 60       	ori	r22, 0x06	; 6
   c:	cf 01       	movw	r24, r30
   e:	0e 94 00 00 	call	0	; 0x0 <_ZN13LiquidCrystal11leftToRightEv>
  12:	08 95       	ret

Disassembly of section .text._ZN13LiquidCrystal18scrollDisplayRightEv:

00000000 <_ZN13LiquidCrystal18scrollDisplayRightEv>:
   0:	6c e1       	ldi	r22, 0x1C	; 28
   2:	0e 94 00 00 	call	0	; 0x0 <_ZN13LiquidCrystal18scrollDisplayRightEv>
   6:	08 95       	ret

Disassembly of section .text._ZN13LiquidCrystal17scrollDisplayLeftEv:

00000000 <_ZN13LiquidCrystal17scrollDisplayLeftEv>:
   0:	68 e1       	ldi	r22, 0x18	; 24
   2:	0e 94 00 00 	call	0	; 0x0 <_ZN13LiquidCrystal17scrollDisplayLeftEv>
   6:	08 95       	ret

Disassembly of section .text._ZN13LiquidCrystal5blinkEv:

00000000 <_ZN13LiquidCrystal5blinkEv>:
   0:	fc 01       	movw	r30, r24
   2:	66 85       	ldd	r22, Z+14	; 0x0e
   4:	86 2f       	mov	r24, r22
   6:	81 60       	ori	r24, 0x01	; 1
   8:	86 87       	std	Z+14, r24	; 0x0e
   a:	69 60       	ori	r22, 0x09	; 9
   c:	cf 01       	movw	r24, r30
   e:	0e 94 00 00 	call	0	; 0x0 <_ZN13LiquidCrystal5blinkEv>
  12:	08 95       	ret

Disassembly of section .text._ZN13LiquidCrystal7noBlinkEv:

00000000 <_ZN13LiquidCrystal7noBlinkEv>:
   0:	fc 01       	movw	r30, r24
   2:	66 85       	ldd	r22, Z+14	; 0x0e
   4:	6e 7f       	andi	r22, 0xFE	; 254
   6:	66 87       	std	Z+14, r22	; 0x0e
   8:	68 60       	ori	r22, 0x08	; 8
   a:	0e 94 00 00 	call	0	; 0x0 <_ZN13LiquidCrystal7noBlinkEv>
   e:	08 95       	ret

Disassembly of section .text._ZN13LiquidCrystal6cursorEv:

00000000 <_ZN13LiquidCrystal6cursorEv>:
   0:	fc 01       	movw	r30, r24
   2:	66 85       	ldd	r22, Z+14	; 0x0e
   4:	86 2f       	mov	r24, r22
   6:	82 60       	ori	r24, 0x02	; 2
   8:	86 87       	std	Z+14, r24	; 0x0e
   a:	6a 60       	ori	r22, 0x0A	; 10
   c:	cf 01       	movw	r24, r30
   e:	0e 94 00 00 	call	0	; 0x0 <_ZN13LiquidCrystal6cursorEv>
  12:	08 95       	ret

Disassembly of section .text._ZN13LiquidCrystal8noCursorEv:

00000000 <_ZN13LiquidCrystal8noCursorEv>:
   0:	fc 01       	movw	r30, r24
   2:	66 85       	ldd	r22, Z+14	; 0x0e
   4:	6d 7f       	andi	r22, 0xFD	; 253
   6:	66 87       	std	Z+14, r22	; 0x0e
   8:	68 60       	ori	r22, 0x08	; 8
   a:	0e 94 00 00 	call	0	; 0x0 <_ZN13LiquidCrystal8noCursorEv>
   e:	08 95       	ret

Disassembly of section .text._ZN13LiquidCrystal7displayEv:

00000000 <_ZN13LiquidCrystal7displayEv>:
   0:	fc 01       	movw	r30, r24
   2:	66 85       	ldd	r22, Z+14	; 0x0e
   4:	86 2f       	mov	r24, r22
   6:	84 60       	ori	r24, 0x04	; 4
   8:	86 87       	std	Z+14, r24	; 0x0e
   a:	6c 60       	ori	r22, 0x0C	; 12
   c:	cf 01       	movw	r24, r30
   e:	0e 94 00 00 	call	0	; 0x0 <_ZN13LiquidCrystal7displayEv>
  12:	08 95       	ret

Disassembly of section .text._ZN13LiquidCrystal9noDisplayEv:

00000000 <_ZN13LiquidCrystal9noDisplayEv>:
   0:	fc 01       	movw	r30, r24
   2:	66 85       	ldd	r22, Z+14	; 0x0e
   4:	6b 7f       	andi	r22, 0xFB	; 251
   6:	66 87       	std	Z+14, r22	; 0x0e
   8:	68 60       	ori	r22, 0x08	; 8
   a:	0e 94 00 00 	call	0	; 0x0 <_ZN13LiquidCrystal9noDisplayEv>
   e:	08 95       	ret

Disassembly of section .text._ZN13LiquidCrystal9setCursorEhh:

00000000 <_ZN13LiquidCrystal9setCursorEhh>:
   0:	df 93       	push	r29
   2:	cf 93       	push	r28
   4:	cd b7       	in	r28, 0x3d	; 61
   6:	de b7       	in	r29, 0x3e	; 62
   8:	28 97       	sbiw	r28, 0x08	; 8
   a:	0f b6       	in	r0, 0x3f	; 63
   c:	f8 94       	cli
   e:	de bf       	out	0x3e, r29	; 62
  10:	0f be       	out	0x3f, r0	; 63
  12:	cd bf       	out	0x3d, r28	; 61
  14:	9c 01       	movw	r18, r24
  16:	fe 01       	movw	r30, r28
  18:	31 96       	adiw	r30, 0x01	; 1
  1a:	a0 e0       	ldi	r26, 0x00	; 0
  1c:	b0 e0       	ldi	r27, 0x00	; 0
  1e:	88 e0       	ldi	r24, 0x08	; 8
  20:	0d 90       	ld	r0, X+
  22:	01 92       	st	Z+, r0
  24:	81 50       	subi	r24, 0x01	; 1
  26:	01 f4       	brne	.+0      	; 0x28 <_ZN13LiquidCrystal9setCursorEhh+0x28>
  28:	f9 01       	movw	r30, r18
  2a:	81 89       	ldd	r24, Z+17	; 0x11
  2c:	84 17       	cp	r24, r20
  2e:	00 f4       	brcc	.+0      	; 0x30 <_ZN13LiquidCrystal9setCursorEhh+0x30>
  30:	48 2f       	mov	r20, r24
  32:	41 50       	subi	r20, 0x01	; 1
  34:	e4 2f       	mov	r30, r20
  36:	f0 e0       	ldi	r31, 0x00	; 0
  38:	ee 0f       	add	r30, r30
  3a:	ff 1f       	adc	r31, r31
  3c:	ec 0f       	add	r30, r28
  3e:	fd 1f       	adc	r31, r29
  40:	81 81       	ldd	r24, Z+1	; 0x01
  42:	68 0f       	add	r22, r24
  44:	60 68       	ori	r22, 0x80	; 128
  46:	c9 01       	movw	r24, r18
  48:	0e 94 00 00 	call	0	; 0x0 <_ZN13LiquidCrystal9setCursorEhh>
  4c:	28 96       	adiw	r28, 0x08	; 8
  4e:	0f b6       	in	r0, 0x3f	; 63
  50:	f8 94       	cli
  52:	de bf       	out	0x3e, r29	; 62
  54:	0f be       	out	0x3f, r0	; 63
  56:	cd bf       	out	0x3d, r28	; 61
  58:	cf 91       	pop	r28
  5a:	df 91       	pop	r29
  5c:	08 95       	ret

Disassembly of section .text._ZN13LiquidCrystal4homeEv:

00000000 <_ZN13LiquidCrystal4homeEv>:
   0:	62 e0       	ldi	r22, 0x02	; 2
   2:	0e 94 00 00 	call	0	; 0x0 <_ZN13LiquidCrystal4homeEv>
   6:	80 ed       	ldi	r24, 0xD0	; 208
   8:	97 e0       	ldi	r25, 0x07	; 7
   a:	0e 94 00 00 	call	0	; 0x0 <_ZN13LiquidCrystal4homeEv>
   e:	08 95       	ret

Disassembly of section .text._ZN13LiquidCrystal5clearEv:

00000000 <_ZN13LiquidCrystal5clearEv>:
   0:	61 e0       	ldi	r22, 0x01	; 1
   2:	0e 94 00 00 	call	0	; 0x0 <_ZN13LiquidCrystal5clearEv>
   6:	80 ed       	ldi	r24, 0xD0	; 208
   8:	97 e0       	ldi	r25, 0x07	; 7
   a:	0e 94 00 00 	call	0	; 0x0 <_ZN13LiquidCrystal5clearEv>
   e:	08 95       	ret

Disassembly of section .text._ZN13LiquidCrystal5beginEhhh:

00000000 <_ZN13LiquidCrystal5beginEhhh>:
   0:	cf 93       	push	r28
   2:	df 93       	push	r29
   4:	ec 01       	movw	r28, r24
   6:	42 30       	cpi	r20, 0x02	; 2
   8:	00 f0       	brcs	.+0      	; 0xa <_ZN13LiquidCrystal5beginEhhh+0xa>
   a:	8d 85       	ldd	r24, Y+13	; 0x0d
   c:	88 60       	ori	r24, 0x08	; 8
   e:	8d 87       	std	Y+13, r24	; 0x0d
  10:	49 8b       	std	Y+17, r20	; 0x11
  12:	1a 8a       	std	Y+18, r1	; 0x12
  14:	22 23       	and	r18, r18
  16:	01 f0       	breq	.+0      	; 0x18 <_ZN13LiquidCrystal5beginEhhh+0x18>
  18:	41 30       	cpi	r20, 0x01	; 1
  1a:	01 f4       	brne	.+0      	; 0x1c <_ZN13LiquidCrystal5beginEhhh+0x1c>
  1c:	8d 85       	ldd	r24, Y+13	; 0x0d
  1e:	84 60       	ori	r24, 0x04	; 4
  20:	8d 87       	std	Y+13, r24	; 0x0d
  22:	80 e5       	ldi	r24, 0x50	; 80
  24:	93 ec       	ldi	r25, 0xC3	; 195
  26:	0e 94 00 00 	call	0	; 0x0 <_ZN13LiquidCrystal5beginEhhh>
  2a:	8a 81       	ldd	r24, Y+2	; 0x02
  2c:	60 e0       	ldi	r22, 0x00	; 0
  2e:	0e 94 00 00 	call	0	; 0x0 <_ZN13LiquidCrystal5beginEhhh>
  32:	8c 81       	ldd	r24, Y+4	; 0x04
  34:	60 e0       	ldi	r22, 0x00	; 0
  36:	0e 94 00 00 	call	0	; 0x0 <_ZN13LiquidCrystal5beginEhhh>
  3a:	8b 81       	ldd	r24, Y+3	; 0x03
  3c:	8f 3f       	cpi	r24, 0xFF	; 255
  3e:	01 f0       	breq	.+0      	; 0x40 <_ZN13LiquidCrystal5beginEhhh+0x40>
  40:	60 e0       	ldi	r22, 0x00	; 0
  42:	0e 94 00 00 	call	0	; 0x0 <_ZN13LiquidCrystal5beginEhhh>
  46:	6d 85       	ldd	r22, Y+13	; 0x0d
  48:	64 fd       	sbrc	r22, 4
  4a:	00 c0       	rjmp	.+0      	; 0x4c <_ZN13LiquidCrystal5beginEhhh+0x4c>
  4c:	ce 01       	movw	r24, r28
  4e:	63 e0       	ldi	r22, 0x03	; 3
  50:	0e 94 00 00 	call	0	; 0x0 <_ZN13LiquidCrystal5beginEhhh>
  54:	84 e9       	ldi	r24, 0x94	; 148
  56:	91 e1       	ldi	r25, 0x11	; 17
  58:	0e 94 00 00 	call	0	; 0x0 <_ZN13LiquidCrystal5beginEhhh>
  5c:	ce 01       	movw	r24, r28
  5e:	63 e0       	ldi	r22, 0x03	; 3
  60:	0e 94 00 00 	call	0	; 0x0 <_ZN13LiquidCrystal5beginEhhh>
  64:	84 e9       	ldi	r24, 0x94	; 148
  66:	91 e1       	ldi	r25, 0x11	; 17
  68:	0e 94 00 00 	call	0	; 0x0 <_ZN13LiquidCrystal5beginEhhh>
  6c:	ce 01       	movw	r24, r28
  6e:	63 e0       	ldi	r22, 0x03	; 3
  70:	0e 94 00 00 	call	0	; 0x0 <_ZN13LiquidCrystal5beginEhhh>
  74:	86 e9       	ldi	r24, 0x96	; 150
  76:	90 e0       	ldi	r25, 0x00	; 0
  78:	0e 94 00 00 	call	0	; 0x0 <_ZN13LiquidCrystal5beginEhhh>
  7c:	ce 01       	movw	r24, r28
  7e:	62 e0       	ldi	r22, 0x02	; 2
  80:	0e 94 00 00 	call	0	; 0x0 <_ZN13LiquidCrystal5beginEhhh>
  84:	00 c0       	rjmp	.+0      	; 0x86 <_ZN13LiquidCrystal5beginEhhh+0x86>
  86:	60 62       	ori	r22, 0x20	; 32
  88:	ce 01       	movw	r24, r28
  8a:	0e 94 00 00 	call	0	; 0x0 <_ZN13LiquidCrystal5beginEhhh>
  8e:	84 e9       	ldi	r24, 0x94	; 148
  90:	91 e1       	ldi	r25, 0x11	; 17
  92:	0e 94 00 00 	call	0	; 0x0 <_ZN13LiquidCrystal5beginEhhh>
  96:	6d 85       	ldd	r22, Y+13	; 0x0d
  98:	60 62       	ori	r22, 0x20	; 32
  9a:	ce 01       	movw	r24, r28
  9c:	0e 94 00 00 	call	0	; 0x0 <_ZN13LiquidCrystal5beginEhhh>
  a0:	86 e9       	ldi	r24, 0x96	; 150
  a2:	90 e0       	ldi	r25, 0x00	; 0
  a4:	0e 94 00 00 	call	0	; 0x0 <_ZN13LiquidCrystal5beginEhhh>
  a8:	6d 85       	ldd	r22, Y+13	; 0x0d
  aa:	60 62       	ori	r22, 0x20	; 32
  ac:	ce 01       	movw	r24, r28
  ae:	0e 94 00 00 	call	0	; 0x0 <_ZN13LiquidCrystal5beginEhhh>
  b2:	6d 85       	ldd	r22, Y+13	; 0x0d
  b4:	60 62       	ori	r22, 0x20	; 32
  b6:	ce 01       	movw	r24, r28
  b8:	0e 94 00 00 	call	0	; 0x0 <_ZN13LiquidCrystal5beginEhhh>
  bc:	84 e0       	ldi	r24, 0x04	; 4
  be:	8e 87       	std	Y+14, r24	; 0x0e
  c0:	ce 01       	movw	r24, r28
  c2:	0e 94 00 00 	call	0	; 0x0 <_ZN13LiquidCrystal5beginEhhh>
  c6:	ce 01       	movw	r24, r28
  c8:	0e 94 00 00 	call	0	; 0x0 <_ZN13LiquidCrystal5beginEhhh>
  cc:	82 e0       	ldi	r24, 0x02	; 2
  ce:	8f 87       	std	Y+15, r24	; 0x0f
  d0:	ce 01       	movw	r24, r28
  d2:	66 e0       	ldi	r22, 0x06	; 6
  d4:	0e 94 00 00 	call	0	; 0x0 <_ZN13LiquidCrystal5beginEhhh>
  d8:	df 91       	pop	r29
  da:	cf 91       	pop	r28
  dc:	08 95       	ret

Disassembly of section .text._ZN13LiquidCrystal4initEhhhhhhhhhhhh:

00000000 <_ZN13LiquidCrystal4initEhhhhhhhhhhhh>:
   0:	6f 92       	push	r6
   2:	7f 92       	push	r7
   4:	8f 92       	push	r8
   6:	af 92       	push	r10
   8:	cf 92       	push	r12
   a:	ef 92       	push	r14
   c:	0f 93       	push	r16
   e:	1f 93       	push	r17
  10:	df 93       	push	r29
  12:	cf 93       	push	r28
  14:	cd b7       	in	r28, 0x3d	; 61
  16:	de b7       	in	r29, 0x3e	; 62
  18:	3c 01       	movw	r6, r24
  1a:	16 2f       	mov	r17, r22
  1c:	84 2f       	mov	r24, r20
  1e:	f3 01       	movw	r30, r6
  20:	42 83       	std	Z+2, r20	; 0x02
  22:	23 83       	std	Z+3, r18	; 0x03
  24:	04 83       	std	Z+4, r16	; 0x04
  26:	e5 82       	std	Z+5, r14	; 0x05
  28:	c6 82       	std	Z+6, r12	; 0x06
  2a:	a7 82       	std	Z+7, r10	; 0x07
  2c:	80 86       	std	Z+8, r8	; 0x08
  2e:	9d 85       	ldd	r25, Y+13	; 0x0d
  30:	91 87       	std	Z+9, r25	; 0x09
  32:	9e 85       	ldd	r25, Y+14	; 0x0e
  34:	92 87       	std	Z+10, r25	; 0x0a
  36:	9f 85       	ldd	r25, Y+15	; 0x0f
  38:	93 87       	std	Z+11, r25	; 0x0b
  3a:	98 89       	ldd	r25, Y+16	; 0x10
  3c:	94 87       	std	Z+12, r25	; 0x0c
  3e:	61 e0       	ldi	r22, 0x01	; 1
  40:	0e 94 00 00 	call	0	; 0x0 <_ZN13LiquidCrystal4initEhhhhhhhhhhhh>
  44:	f3 01       	movw	r30, r6
  46:	83 81       	ldd	r24, Z+3	; 0x03
  48:	8f 3f       	cpi	r24, 0xFF	; 255
  4a:	01 f0       	breq	.+0      	; 0x4c <_ZN13LiquidCrystal4initEhhhhhhhhhhhh+0x4c>
  4c:	61 e0       	ldi	r22, 0x01	; 1
  4e:	0e 94 00 00 	call	0	; 0x0 <_ZN13LiquidCrystal4initEhhhhhhhhhhhh>
  52:	f3 01       	movw	r30, r6
  54:	84 81       	ldd	r24, Z+4	; 0x04
  56:	61 e0       	ldi	r22, 0x01	; 1
  58:	0e 94 00 00 	call	0	; 0x0 <_ZN13LiquidCrystal4initEhhhhhhhhhhhh>
  5c:	11 23       	and	r17, r17
  5e:	01 f0       	breq	.+0      	; 0x60 <_ZN13LiquidCrystal4initEhhhhhhhhhhhh+0x60>
  60:	f3 01       	movw	r30, r6
  62:	15 86       	std	Z+13, r1	; 0x0d
  64:	00 c0       	rjmp	.+0      	; 0x66 <_ZN13LiquidCrystal4initEhhhhhhhhhhhh+0x66>
  66:	80 e1       	ldi	r24, 0x10	; 16
  68:	f3 01       	movw	r30, r6
  6a:	85 87       	std	Z+13, r24	; 0x0d
  6c:	c3 01       	movw	r24, r6
  6e:	60 e1       	ldi	r22, 0x10	; 16
  70:	41 e0       	ldi	r20, 0x01	; 1
  72:	20 e0       	ldi	r18, 0x00	; 0
  74:	0e 94 00 00 	call	0	; 0x0 <_ZN13LiquidCrystal4initEhhhhhhhhhhhh>
  78:	cf 91       	pop	r28
  7a:	df 91       	pop	r29
  7c:	1f 91       	pop	r17
  7e:	0f 91       	pop	r16
  80:	ef 90       	pop	r14
  82:	cf 90       	pop	r12
  84:	af 90       	pop	r10
  86:	8f 90       	pop	r8
  88:	7f 90       	pop	r7
  8a:	6f 90       	pop	r6
  8c:	08 95       	ret

Disassembly of section .text._ZN13LiquidCrystalC1Ehhhhhh:

00000000 <_ZN13LiquidCrystalC1Ehhhhhh>:
   0:	8f 92       	push	r8
   2:	af 92       	push	r10
   4:	cf 92       	push	r12
   6:	ef 92       	push	r14
   8:	0f 93       	push	r16
   a:	1f 93       	push	r17
   c:	cf 93       	push	r28
   e:	df 93       	push	r29
  10:	dc 01       	movw	r26, r24
  12:	36 2f       	mov	r19, r22
  14:	54 2f       	mov	r21, r20
  16:	72 2f       	mov	r23, r18
  18:	10 2f       	mov	r17, r16
  1a:	ae 2c       	mov	r10, r14
  1c:	8c 2c       	mov	r8, r12
  1e:	80 e0       	ldi	r24, 0x00	; 0
  20:	90 e0       	ldi	r25, 0x00	; 0
  22:	11 96       	adiw	r26, 0x01	; 1
  24:	9c 93       	st	X, r25
  26:	8e 93       	st	-X, r24
  28:	00 d0       	rcall	.+0      	; 0x2a <_ZN13LiquidCrystalC1Ehhhhhh+0x2a>
  2a:	00 d0       	rcall	.+0      	; 0x2c <_ZN13LiquidCrystalC1Ehhhhhh+0x2c>
  2c:	ed b7       	in	r30, 0x3d	; 61
  2e:	fe b7       	in	r31, 0x3e	; 62
  30:	31 96       	adiw	r30, 0x01	; 1
  32:	cd b7       	in	r28, 0x3d	; 61
  34:	de b7       	in	r29, 0x3e	; 62
  36:	19 82       	std	Y+1, r1	; 0x01
  38:	11 82       	std	Z+1, r1	; 0x01
  3a:	12 82       	std	Z+2, r1	; 0x02
  3c:	13 82       	std	Z+3, r1	; 0x03
  3e:	cd 01       	movw	r24, r26
  40:	61 e0       	ldi	r22, 0x01	; 1
  42:	43 2f       	mov	r20, r19
  44:	2f ef       	ldi	r18, 0xFF	; 255
  46:	05 2f       	mov	r16, r21
  48:	e7 2e       	mov	r14, r23
  4a:	c1 2e       	mov	r12, r17
  4c:	0e 94 00 00 	call	0	; 0x0 <_ZN13LiquidCrystalC1Ehhhhhh>
  50:	0f 90       	pop	r0
  52:	0f 90       	pop	r0
  54:	0f 90       	pop	r0
  56:	0f 90       	pop	r0
  58:	df 91       	pop	r29
  5a:	cf 91       	pop	r28
  5c:	1f 91       	pop	r17
  5e:	0f 91       	pop	r16
  60:	ef 90       	pop	r14
  62:	cf 90       	pop	r12
  64:	af 90       	pop	r10
  66:	8f 90       	pop	r8
  68:	08 95       	ret

Disassembly of section .text._ZN13LiquidCrystalC2Ehhhhhh:

00000000 <_ZN13LiquidCrystalC2Ehhhhhh>:
   0:	8f 92       	push	r8
   2:	af 92       	push	r10
   4:	cf 92       	push	r12
   6:	ef 92       	push	r14
   8:	0f 93       	push	r16
   a:	1f 93       	push	r17
   c:	cf 93       	push	r28
   e:	df 93       	push	r29
  10:	dc 01       	movw	r26, r24
  12:	36 2f       	mov	r19, r22
  14:	54 2f       	mov	r21, r20
  16:	72 2f       	mov	r23, r18
  18:	10 2f       	mov	r17, r16
  1a:	ae 2c       	mov	r10, r14
  1c:	8c 2c       	mov	r8, r12
  1e:	80 e0       	ldi	r24, 0x00	; 0
  20:	90 e0       	ldi	r25, 0x00	; 0
  22:	11 96       	adiw	r26, 0x01	; 1
  24:	9c 93       	st	X, r25
  26:	8e 93       	st	-X, r24
  28:	00 d0       	rcall	.+0      	; 0x2a <_ZN13LiquidCrystalC2Ehhhhhh+0x2a>
  2a:	00 d0       	rcall	.+0      	; 0x2c <_ZN13LiquidCrystalC2Ehhhhhh+0x2c>
  2c:	ed b7       	in	r30, 0x3d	; 61
  2e:	fe b7       	in	r31, 0x3e	; 62
  30:	31 96       	adiw	r30, 0x01	; 1
  32:	cd b7       	in	r28, 0x3d	; 61
  34:	de b7       	in	r29, 0x3e	; 62
  36:	19 82       	std	Y+1, r1	; 0x01
  38:	11 82       	std	Z+1, r1	; 0x01
  3a:	12 82       	std	Z+2, r1	; 0x02
  3c:	13 82       	std	Z+3, r1	; 0x03
  3e:	cd 01       	movw	r24, r26
  40:	61 e0       	ldi	r22, 0x01	; 1
  42:	43 2f       	mov	r20, r19
  44:	2f ef       	ldi	r18, 0xFF	; 255
  46:	05 2f       	mov	r16, r21
  48:	e7 2e       	mov	r14, r23
  4a:	c1 2e       	mov	r12, r17
  4c:	0e 94 00 00 	call	0	; 0x0 <_ZN13LiquidCrystalC2Ehhhhhh>
  50:	0f 90       	pop	r0
  52:	0f 90       	pop	r0
  54:	0f 90       	pop	r0
  56:	0f 90       	pop	r0
  58:	df 91       	pop	r29
  5a:	cf 91       	pop	r28
  5c:	1f 91       	pop	r17
  5e:	0f 91       	pop	r16
  60:	ef 90       	pop	r14
  62:	cf 90       	pop	r12
  64:	af 90       	pop	r10
  66:	8f 90       	pop	r8
  68:	08 95       	ret

Disassembly of section .text._ZN13LiquidCrystalC1Ehhhhhhh:

00000000 <_ZN13LiquidCrystalC1Ehhhhhhh>:
   0:	8f 92       	push	r8
   2:	af 92       	push	r10
   4:	cf 92       	push	r12
   6:	df 92       	push	r13
   8:	ef 92       	push	r14
   a:	ff 92       	push	r15
   c:	0f 93       	push	r16
   e:	1f 93       	push	r17
  10:	cf 93       	push	r28
  12:	df 93       	push	r29
  14:	dc 01       	movw	r26, r24
  16:	36 2f       	mov	r19, r22
  18:	54 2f       	mov	r21, r20
  1a:	72 2f       	mov	r23, r18
  1c:	10 2f       	mov	r17, r16
  1e:	fe 2c       	mov	r15, r14
  20:	dc 2c       	mov	r13, r12
  22:	8a 2c       	mov	r8, r10
  24:	80 e0       	ldi	r24, 0x00	; 0
  26:	90 e0       	ldi	r25, 0x00	; 0
  28:	11 96       	adiw	r26, 0x01	; 1
  2a:	9c 93       	st	X, r25
  2c:	8e 93       	st	-X, r24
  2e:	00 d0       	rcall	.+0      	; 0x30 <_ZN13LiquidCrystalC1Ehhhhhhh+0x30>
  30:	00 d0       	rcall	.+0      	; 0x32 <_ZN13LiquidCrystalC1Ehhhhhhh+0x32>
  32:	ed b7       	in	r30, 0x3d	; 61
  34:	fe b7       	in	r31, 0x3e	; 62
  36:	31 96       	adiw	r30, 0x01	; 1
  38:	cd b7       	in	r28, 0x3d	; 61
  3a:	de b7       	in	r29, 0x3e	; 62
  3c:	19 82       	std	Y+1, r1	; 0x01
  3e:	11 82       	std	Z+1, r1	; 0x01
  40:	12 82       	std	Z+2, r1	; 0x02
  42:	13 82       	std	Z+3, r1	; 0x03
  44:	cd 01       	movw	r24, r26
  46:	61 e0       	ldi	r22, 0x01	; 1
  48:	43 2f       	mov	r20, r19
  4a:	25 2f       	mov	r18, r21
  4c:	07 2f       	mov	r16, r23
  4e:	e1 2e       	mov	r14, r17
  50:	cf 2c       	mov	r12, r15
  52:	ad 2c       	mov	r10, r13
  54:	0e 94 00 00 	call	0	; 0x0 <_ZN13LiquidCrystalC1Ehhhhhhh>
  58:	0f 90       	pop	r0
  5a:	0f 90       	pop	r0
  5c:	0f 90       	pop	r0
  5e:	0f 90       	pop	r0
  60:	df 91       	pop	r29
  62:	cf 91       	pop	r28
  64:	1f 91       	pop	r17
  66:	0f 91       	pop	r16
  68:	ff 90       	pop	r15
  6a:	ef 90       	pop	r14
  6c:	df 90       	pop	r13
  6e:	cf 90       	pop	r12
  70:	af 90       	pop	r10
  72:	8f 90       	pop	r8
  74:	08 95       	ret

Disassembly of section .text._ZN13LiquidCrystalC2Ehhhhhhh:

00000000 <_ZN13LiquidCrystalC2Ehhhhhhh>:
   0:	8f 92       	push	r8
   2:	af 92       	push	r10
   4:	cf 92       	push	r12
   6:	df 92       	push	r13
   8:	ef 92       	push	r14
   a:	ff 92       	push	r15
   c:	0f 93       	push	r16
   e:	1f 93       	push	r17
  10:	cf 93       	push	r28
  12:	df 93       	push	r29
  14:	dc 01       	movw	r26, r24
  16:	36 2f       	mov	r19, r22
  18:	54 2f       	mov	r21, r20
  1a:	72 2f       	mov	r23, r18
  1c:	10 2f       	mov	r17, r16
  1e:	fe 2c       	mov	r15, r14
  20:	dc 2c       	mov	r13, r12
  22:	8a 2c       	mov	r8, r10
  24:	80 e0       	ldi	r24, 0x00	; 0
  26:	90 e0       	ldi	r25, 0x00	; 0
  28:	11 96       	adiw	r26, 0x01	; 1
  2a:	9c 93       	st	X, r25
  2c:	8e 93       	st	-X, r24
  2e:	00 d0       	rcall	.+0      	; 0x30 <_ZN13LiquidCrystalC2Ehhhhhhh+0x30>
  30:	00 d0       	rcall	.+0      	; 0x32 <_ZN13LiquidCrystalC2Ehhhhhhh+0x32>
  32:	ed b7       	in	r30, 0x3d	; 61
  34:	fe b7       	in	r31, 0x3e	; 62
  36:	31 96       	adiw	r30, 0x01	; 1
  38:	cd b7       	in	r28, 0x3d	; 61
  3a:	de b7       	in	r29, 0x3e	; 62
  3c:	19 82       	std	Y+1, r1	; 0x01
  3e:	11 82       	std	Z+1, r1	; 0x01
  40:	12 82       	std	Z+2, r1	; 0x02
  42:	13 82       	std	Z+3, r1	; 0x03
  44:	cd 01       	movw	r24, r26
  46:	61 e0       	ldi	r22, 0x01	; 1
  48:	43 2f       	mov	r20, r19
  4a:	25 2f       	mov	r18, r21
  4c:	07 2f       	mov	r16, r23
  4e:	e1 2e       	mov	r14, r17
  50:	cf 2c       	mov	r12, r15
  52:	ad 2c       	mov	r10, r13
  54:	0e 94 00 00 	call	0	; 0x0 <_ZN13LiquidCrystalC2Ehhhhhhh>
  58:	0f 90       	pop	r0
  5a:	0f 90       	pop	r0
  5c:	0f 90       	pop	r0
  5e:	0f 90       	pop	r0
  60:	df 91       	pop	r29
  62:	cf 91       	pop	r28
  64:	1f 91       	pop	r17
  66:	0f 91       	pop	r16
  68:	ff 90       	pop	r15
  6a:	ef 90       	pop	r14
  6c:	df 90       	pop	r13
  6e:	cf 90       	pop	r12
  70:	af 90       	pop	r10
  72:	8f 90       	pop	r8
  74:	08 95       	ret

Disassembly of section .text._ZN13LiquidCrystalC1Ehhhhhhhhhh:

00000000 <_ZN13LiquidCrystalC1Ehhhhhhhhhh>:
   0:	6f 92       	push	r6
   2:	7f 92       	push	r7
   4:	8f 92       	push	r8
   6:	af 92       	push	r10
   8:	cf 92       	push	r12
   a:	df 92       	push	r13
   c:	ef 92       	push	r14
   e:	ff 92       	push	r15
  10:	0f 93       	push	r16
  12:	1f 93       	push	r17
  14:	df 93       	push	r29
  16:	cf 93       	push	r28
  18:	cd b7       	in	r28, 0x3d	; 61
  1a:	de b7       	in	r29, 0x3e	; 62
  1c:	3c 01       	movw	r6, r24
  1e:	36 2f       	mov	r19, r22
  20:	54 2f       	mov	r21, r20
  22:	72 2f       	mov	r23, r18
  24:	10 2f       	mov	r17, r16
  26:	fe 2c       	mov	r15, r14
  28:	dc 2c       	mov	r13, r12
  2a:	80 e0       	ldi	r24, 0x00	; 0
  2c:	90 e0       	ldi	r25, 0x00	; 0
  2e:	d3 01       	movw	r26, r6
  30:	8d 93       	st	X+, r24
  32:	9c 93       	st	X, r25
  34:	00 d0       	rcall	.+0      	; 0x36 <_ZN13LiquidCrystalC1Ehhhhhhhhhh+0x36>
  36:	00 d0       	rcall	.+0      	; 0x38 <_ZN13LiquidCrystalC1Ehhhhhhhhhh+0x38>
  38:	ed b7       	in	r30, 0x3d	; 61
  3a:	fe b7       	in	r31, 0x3e	; 62
  3c:	31 96       	adiw	r30, 0x01	; 1
  3e:	ad b7       	in	r26, 0x3d	; 61
  40:	be b7       	in	r27, 0x3e	; 62
  42:	11 96       	adiw	r26, 0x01	; 1
  44:	ac 92       	st	X, r10
  46:	81 82       	std	Z+1, r8	; 0x01
  48:	8f 85       	ldd	r24, Y+15	; 0x0f
  4a:	82 83       	std	Z+2, r24	; 0x02
  4c:	88 89       	ldd	r24, Y+16	; 0x10
  4e:	83 83       	std	Z+3, r24	; 0x03
  50:	c3 01       	movw	r24, r6
  52:	60 e0       	ldi	r22, 0x00	; 0
  54:	43 2f       	mov	r20, r19
  56:	2f ef       	ldi	r18, 0xFF	; 255
  58:	05 2f       	mov	r16, r21
  5a:	e7 2e       	mov	r14, r23
  5c:	c1 2e       	mov	r12, r17
  5e:	af 2c       	mov	r10, r15
  60:	8d 2c       	mov	r8, r13
  62:	0e 94 00 00 	call	0	; 0x0 <_ZN13LiquidCrystalC1Ehhhhhhhhhh>
  66:	0f 90       	pop	r0
  68:	0f 90       	pop	r0
  6a:	0f 90       	pop	r0
  6c:	0f 90       	pop	r0
  6e:	cf 91       	pop	r28
  70:	df 91       	pop	r29
  72:	1f 91       	pop	r17
  74:	0f 91       	pop	r16
  76:	ff 90       	pop	r15
  78:	ef 90       	pop	r14
  7a:	df 90       	pop	r13
  7c:	cf 90       	pop	r12
  7e:	af 90       	pop	r10
  80:	8f 90       	pop	r8
  82:	7f 90       	pop	r7
  84:	6f 90       	pop	r6
  86:	08 95       	ret

Disassembly of section .text._ZN13LiquidCrystalC2Ehhhhhhhhhh:

00000000 <_ZN13LiquidCrystalC2Ehhhhhhhhhh>:
   0:	6f 92       	push	r6
   2:	7f 92       	push	r7
   4:	8f 92       	push	r8
   6:	af 92       	push	r10
   8:	cf 92       	push	r12
   a:	df 92       	push	r13
   c:	ef 92       	push	r14
   e:	ff 92       	push	r15
  10:	0f 93       	push	r16
  12:	1f 93       	push	r17
  14:	df 93       	push	r29
  16:	cf 93       	push	r28
  18:	cd b7       	in	r28, 0x3d	; 61
  1a:	de b7       	in	r29, 0x3e	; 62
  1c:	3c 01       	movw	r6, r24
  1e:	36 2f       	mov	r19, r22
  20:	54 2f       	mov	r21, r20
  22:	72 2f       	mov	r23, r18
  24:	10 2f       	mov	r17, r16
  26:	fe 2c       	mov	r15, r14
  28:	dc 2c       	mov	r13, r12
  2a:	80 e0       	ldi	r24, 0x00	; 0
  2c:	90 e0       	ldi	r25, 0x00	; 0
  2e:	d3 01       	movw	r26, r6
  30:	8d 93       	st	X+, r24
  32:	9c 93       	st	X, r25
  34:	00 d0       	rcall	.+0      	; 0x36 <_ZN13LiquidCrystalC2Ehhhhhhhhhh+0x36>
  36:	00 d0       	rcall	.+0      	; 0x38 <_ZN13LiquidCrystalC2Ehhhhhhhhhh+0x38>
  38:	ed b7       	in	r30, 0x3d	; 61
  3a:	fe b7       	in	r31, 0x3e	; 62
  3c:	31 96       	adiw	r30, 0x01	; 1
  3e:	ad b7       	in	r26, 0x3d	; 61
  40:	be b7       	in	r27, 0x3e	; 62
  42:	11 96       	adiw	r26, 0x01	; 1
  44:	ac 92       	st	X, r10
  46:	81 82       	std	Z+1, r8	; 0x01
  48:	8f 85       	ldd	r24, Y+15	; 0x0f
  4a:	82 83       	std	Z+2, r24	; 0x02
  4c:	88 89       	ldd	r24, Y+16	; 0x10
  4e:	83 83       	std	Z+3, r24	; 0x03
  50:	c3 01       	movw	r24, r6
  52:	60 e0       	ldi	r22, 0x00	; 0
  54:	43 2f       	mov	r20, r19
  56:	2f ef       	ldi	r18, 0xFF	; 255
  58:	05 2f       	mov	r16, r21
  5a:	e7 2e       	mov	r14, r23
  5c:	c1 2e       	mov	r12, r17
  5e:	af 2c       	mov	r10, r15
  60:	8d 2c       	mov	r8, r13
  62:	0e 94 00 00 	call	0	; 0x0 <_ZN13LiquidCrystalC2Ehhhhhhhhhh>
  66:	0f 90       	pop	r0
  68:	0f 90       	pop	r0
  6a:	0f 90       	pop	r0
  6c:	0f 90       	pop	r0
  6e:	cf 91       	pop	r28
  70:	df 91       	pop	r29
  72:	1f 91       	pop	r17
  74:	0f 91       	pop	r16
  76:	ff 90       	pop	r15
  78:	ef 90       	pop	r14
  7a:	df 90       	pop	r13
  7c:	cf 90       	pop	r12
  7e:	af 90       	pop	r10
  80:	8f 90       	pop	r8
  82:	7f 90       	pop	r7
  84:	6f 90       	pop	r6
  86:	08 95       	ret

Disassembly of section .text._ZN13LiquidCrystalC1Ehhhhhhhhhhh:

00000000 <_ZN13LiquidCrystalC1Ehhhhhhhhhhh>:
   0:	6f 92       	push	r6
   2:	7f 92       	push	r7
   4:	8f 92       	push	r8
   6:	af 92       	push	r10
   8:	bf 92       	push	r11
   a:	cf 92       	push	r12
   c:	df 92       	push	r13
   e:	ef 92       	push	r14
  10:	ff 92       	push	r15
  12:	0f 93       	push	r16
  14:	1f 93       	push	r17
  16:	df 93       	push	r29
  18:	cf 93       	push	r28
  1a:	cd b7       	in	r28, 0x3d	; 61
  1c:	de b7       	in	r29, 0x3e	; 62
  1e:	3c 01       	movw	r6, r24
  20:	36 2f       	mov	r19, r22
  22:	54 2f       	mov	r21, r20
  24:	72 2f       	mov	r23, r18
  26:	10 2f       	mov	r17, r16
  28:	fe 2c       	mov	r15, r14
  2a:	dc 2c       	mov	r13, r12
  2c:	ba 2c       	mov	r11, r10
  2e:	80 e0       	ldi	r24, 0x00	; 0
  30:	90 e0       	ldi	r25, 0x00	; 0
  32:	d3 01       	movw	r26, r6
  34:	8d 93       	st	X+, r24
  36:	9c 93       	st	X, r25
  38:	00 d0       	rcall	.+0      	; 0x3a <_ZN13LiquidCrystalC1Ehhhhhhhhhhh+0x3a>
  3a:	00 d0       	rcall	.+0      	; 0x3c <_ZN13LiquidCrystalC1Ehhhhhhhhhhh+0x3c>
  3c:	ed b7       	in	r30, 0x3d	; 61
  3e:	fe b7       	in	r31, 0x3e	; 62
  40:	31 96       	adiw	r30, 0x01	; 1
  42:	ad b7       	in	r26, 0x3d	; 61
  44:	be b7       	in	r27, 0x3e	; 62
  46:	11 96       	adiw	r26, 0x01	; 1
  48:	8c 92       	st	X, r8
  4a:	88 89       	ldd	r24, Y+16	; 0x10
  4c:	81 83       	std	Z+1, r24	; 0x01
  4e:	89 89       	ldd	r24, Y+17	; 0x11
  50:	82 83       	std	Z+2, r24	; 0x02
  52:	8a 89       	ldd	r24, Y+18	; 0x12
  54:	83 83       	std	Z+3, r24	; 0x03
  56:	c3 01       	movw	r24, r6
  58:	60 e0       	ldi	r22, 0x00	; 0
  5a:	43 2f       	mov	r20, r19
  5c:	25 2f       	mov	r18, r21
  5e:	07 2f       	mov	r16, r23
  60:	e1 2e       	mov	r14, r17
  62:	cf 2c       	mov	r12, r15
  64:	ad 2c       	mov	r10, r13
  66:	8b 2c       	mov	r8, r11
  68:	0e 94 00 00 	call	0	; 0x0 <_ZN13LiquidCrystalC1Ehhhhhhhhhhh>
  6c:	0f 90       	pop	r0
  6e:	0f 90       	pop	r0
  70:	0f 90       	pop	r0
  72:	0f 90       	pop	r0
  74:	cf 91       	pop	r28
  76:	df 91       	pop	r29
  78:	1f 91       	pop	r17
  7a:	0f 91       	pop	r16
  7c:	ff 90       	pop	r15
  7e:	ef 90       	pop	r14
  80:	df 90       	pop	r13
  82:	cf 90       	pop	r12
  84:	bf 90       	pop	r11
  86:	af 90       	pop	r10
  88:	8f 90       	pop	r8
  8a:	7f 90       	pop	r7
  8c:	6f 90       	pop	r6
  8e:	08 95       	ret

Disassembly of section .text._ZN13LiquidCrystalC2Ehhhhhhhhhhh:

00000000 <_ZN13LiquidCrystalC2Ehhhhhhhhhhh>:
   0:	6f 92       	push	r6
   2:	7f 92       	push	r7
   4:	8f 92       	push	r8
   6:	af 92       	push	r10
   8:	bf 92       	push	r11
   a:	cf 92       	push	r12
   c:	df 92       	push	r13
   e:	ef 92       	push	r14
  10:	ff 92       	push	r15
  12:	0f 93       	push	r16
  14:	1f 93       	push	r17
  16:	df 93       	push	r29
  18:	cf 93       	push	r28
  1a:	cd b7       	in	r28, 0x3d	; 61
  1c:	de b7       	in	r29, 0x3e	; 62
  1e:	3c 01       	movw	r6, r24
  20:	36 2f       	mov	r19, r22
  22:	54 2f       	mov	r21, r20
  24:	72 2f       	mov	r23, r18
  26:	10 2f       	mov	r17, r16
  28:	fe 2c       	mov	r15, r14
  2a:	dc 2c       	mov	r13, r12
  2c:	ba 2c       	mov	r11, r10
  2e:	80 e0       	ldi	r24, 0x00	; 0
  30:	90 e0       	ldi	r25, 0x00	; 0
  32:	d3 01       	movw	r26, r6
  34:	8d 93       	st	X+, r24
  36:	9c 93       	st	X, r25
  38:	00 d0       	rcall	.+0      	; 0x3a <_ZN13LiquidCrystalC2Ehhhhhhhhhhh+0x3a>
  3a:	00 d0       	rcall	.+0      	; 0x3c <_ZN13LiquidCrystalC2Ehhhhhhhhhhh+0x3c>
  3c:	ed b7       	in	r30, 0x3d	; 61
  3e:	fe b7       	in	r31, 0x3e	; 62
  40:	31 96       	adiw	r30, 0x01	; 1
  42:	ad b7       	in	r26, 0x3d	; 61
  44:	be b7       	in	r27, 0x3e	; 62
  46:	11 96       	adiw	r26, 0x01	; 1
  48:	8c 92       	st	X, r8
  4a:	88 89       	ldd	r24, Y+16	; 0x10
  4c:	81 83       	std	Z+1, r24	; 0x01
  4e:	89 89       	ldd	r24, Y+17	; 0x11
  50:	82 83       	std	Z+2, r24	; 0x02
  52:	8a 89       	ldd	r24, Y+18	; 0x12
  54:	83 83       	std	Z+3, r24	; 0x03
  56:	c3 01       	movw	r24, r6
  58:	60 e0       	ldi	r22, 0x00	; 0
  5a:	43 2f       	mov	r20, r19
  5c:	25 2f       	mov	r18, r21
  5e:	07 2f       	mov	r16, r23
  60:	e1 2e       	mov	r14, r17
  62:	cf 2c       	mov	r12, r15
  64:	ad 2c       	mov	r10, r13
  66:	8b 2c       	mov	r8, r11
  68:	0e 94 00 00 	call	0	; 0x0 <_ZN13LiquidCrystalC2Ehhhhhhhhhhh>
  6c:	0f 90       	pop	r0
  6e:	0f 90       	pop	r0
  70:	0f 90       	pop	r0
  72:	0f 90       	pop	r0
  74:	cf 91       	pop	r28
  76:	df 91       	pop	r29
  78:	1f 91       	pop	r17
  7a:	0f 91       	pop	r16
  7c:	ff 90       	pop	r15
  7e:	ef 90       	pop	r14
  80:	df 90       	pop	r13
  82:	cf 90       	pop	r12
  84:	bf 90       	pop	r11
  86:	af 90       	pop	r10
  88:	8f 90       	pop	r8
  8a:	7f 90       	pop	r7
  8c:	6f 90       	pop	r6
  8e:	08 95       	ret

Firmata.o:     file format elf32-avr

Sections:
Idx Name          Size      VMA       LMA       File off  Algn
  0 .text         00000000  00000000  00000000  00000034  2**0
                  CONTENTS, ALLOC, LOAD, READONLY, CODE
  1 .data         00000005  00000000  00000000  00000034  2**0
                  CONTENTS, ALLOC, LOAD, DATA
  2 .bss          00000000  00000000  00000000  00000039  2**0
                  ALLOC
  3 .text._ZN12FirmataClass11sendDigitalEhi 00000002  00000000  00000000  00000039  2**0
                  CONTENTS, ALLOC, LOAD, READONLY, CODE
  4 .text._ZN12FirmataClass6attachEhPFvhiE 0000003c  00000000  00000000  0000003b  2**0
                  CONTENTS, ALLOC, LOAD, RELOC, READONLY, CODE
  5 .text._ZN12FirmataClass6attachEhPFvvE 0000000c  00000000  00000000  00000077  2**0
                  CONTENTS, ALLOC, LOAD, RELOC, READONLY, CODE
  6 .text._ZN12FirmataClass6attachEhPFvPcE 0000000c  00000000  00000000  00000083  2**0
                  CONTENTS, ALLOC, LOAD, RELOC, READONLY, CODE
  7 .text._ZN12FirmataClass6attachEhPFvhhPhE 00000008  00000000  00000000  0000008f  2**0
                  CONTENTS, ALLOC, LOAD, READONLY, CODE
  8 .text._ZN12FirmataClass6detachEh 0000002c  00000000  00000000  00000097  2**0
                  CONTENTS, ALLOC, LOAD, RELOC, READONLY, CODE
  9 .text._ZN12FirmataClass11systemResetEv 0000002e  00000000  00000000  000000c3  2**0
                  CONTENTS, ALLOC, LOAD, RELOC, READONLY, CODE
 10 .text._ZN12FirmataClassC1Ev 0000000a  00000000  00000000  000000f1  2**0
                  CONTENTS, ALLOC, LOAD, RELOC, READONLY, CODE
 11 .text._ZN12FirmataClassC2Ev 0000000a  00000000  00000000  000000fb  2**0
                  CONTENTS, ALLOC, LOAD, RELOC, READONLY, CODE
 12 .text._GLOBAL__I__Z23sendValueAsTwo7bitBytesi 0000000a  00000000  00000000  00000105  2**0
                  CONTENTS, ALLOC, LOAD, RELOC, READONLY, CODE
 13 .ctors        00000002  00000000  00000000  0000010f  2**0
                  CONTENTS, ALLOC, LOAD, RELOC, READONLY, DATA
 14 .text._ZN12FirmataClass11pin13strobeEiii 000000a0  00000000  00000000  00000111  2**0
                  CONTENTS, ALLOC, LOAD, RELOC, READONLY, CODE
 15 .text._ZN12FirmataClass12blinkVersionEv 00000062  00000000  00000000  000001b1  2**0
                  CONTENTS, ALLOC, LOAD, RELOC, READONLY, CODE
 16 .text._ZN12FirmataClass15sendDigitalPortEhi 00000054  00000000  00000000  00000213  2**0
                  CONTENTS, ALLOC, LOAD, RELOC, READONLY, CODE
 17 .text._ZN12FirmataClass12printVersionEv 00000038  00000000  00000000  00000267  2**0
                  CONTENTS, ALLOC, LOAD, RELOC, READONLY, CODE
 18 .text._Z8endSysexv 00000012  00000000  00000000  0000029f  2**0
                  CONTENTS, ALLOC, LOAD, RELOC, READONLY, CODE
 19 .text._Z10startSysexv 00000012  00000000  00000000  000002b1  2**0
                  CONTENTS, ALLOC, LOAD, RELOC, READONLY, CODE
 20 .text._Z23sendValueAsTwo7bitBytesi 00000044  00000000  00000000  000002c3  2**0
                  CONTENTS, ALLOC, LOAD, RELOC, READONLY, CODE
 21 .text._ZN12FirmataClass9sendSysexEhhPh 00000052  00000000  00000000  00000307  2**0
                  CONTENTS, ALLOC, LOAD, RELOC, READONLY, CODE
 22 .text._ZN12FirmataClass10sendStringEhPKc 00000018  00000000  00000000  00000359  2**0
                  CONTENTS, ALLOC, LOAD, RELOC, READONLY, CODE
 23 .text._ZN12FirmataClass10sendStringEPKc 0000000a  00000000  00000000  00000371  2**0
                  CONTENTS, ALLOC, LOAD, RELOC, READONLY, CODE
 24 .text._ZN12FirmataClass10sendAnalogEhi 00000026  00000000  00000000  0000037b  2**0
                  CONTENTS, ALLOC, LOAD, RELOC, READONLY, CODE
 25 .text._ZN12FirmataClass20printFirmwareVersionEv 0000006e  00000000  00000000  000003a1  2**0
                  CONTENTS, ALLOC, LOAD, RELOC, READONLY, CODE
 26 .text._ZN12FirmataClass19processSysexMessageEv 0000008e  00000000  00000000  0000040f  2**0
                  CONTENTS, ALLOC, LOAD, RELOC, READONLY, CODE
 27 .text._ZN12FirmataClass12processInputEv 00000152  00000000  00000000  0000049d  2**0
                  CONTENTS, ALLOC, LOAD, RELOC, READONLY, CODE
 28 .text._ZN12FirmataClass9availableEv 0000000a  00000000  00000000  000005ef  2**0
                  CONTENTS, ALLOC, LOAD, RELOC, READONLY, CODE
 29 .text._ZN12FirmataClass25setFirmwareNameAndVersionEPKchh 000000d4  00000000  00000000  000005f9  2**0
                  CONTENTS, ALLOC, LOAD, RELOC, READONLY, CODE
 30 .text._ZN12FirmataClass5beginEl 00000032  00000000  00000000  000006cd  2**0
                  CONTENTS, ALLOC, LOAD, RELOC, READONLY, CODE
 31 .text._ZN12FirmataClass5beginEv 0000000e  00000000  00000000  000006ff  2**0
                  CONTENTS, ALLOC, LOAD, RELOC, READONLY, CODE
 32 .bss.Firmata  00000039  00000000  00000000  0000070d  2**0
                  ALLOC

Disassembly of section .text._ZN12FirmataClass11sendDigitalEhi:

00000000 <_ZN12FirmataClass11sendDigitalEhi>:
   0:	08 95       	ret

Disassembly of section .text._ZN12FirmataClass6attachEhPFvhiE:

00000000 <_ZN12FirmataClass6attachEhPFvhiE>:
   0:	fc 01       	movw	r30, r24
   2:	60 3d       	cpi	r22, 0xD0	; 208
   4:	01 f0       	breq	.+0      	; 0x6 <_ZN12FirmataClass6attachEhPFvhiE+0x6>
   6:	61 3d       	cpi	r22, 0xD1	; 209
   8:	00 f4       	brcc	.+0      	; 0xa <_ZN12FirmataClass6attachEhPFvhiE+0xa>
   a:	60 39       	cpi	r22, 0x90	; 144
   c:	01 f0       	breq	.+0      	; 0xe <_ZN12FirmataClass6attachEhPFvhiE+0xe>
   e:	60 3c       	cpi	r22, 0xC0	; 192
  10:	01 f4       	brne	.+0      	; 0x12 <_ZN12FirmataClass6attachEhPFvhiE+0x12>
  12:	00 c0       	rjmp	.+0      	; 0x14 <_ZN12FirmataClass6attachEhPFvhiE+0x14>
  14:	60 3e       	cpi	r22, 0xE0	; 224
  16:	01 f0       	breq	.+0      	; 0x18 <_ZN12FirmataClass6attachEhPFvhiE+0x18>
  18:	64 3f       	cpi	r22, 0xF4	; 244
  1a:	01 f4       	brne	.+0      	; 0x1c <_ZN12FirmataClass6attachEhPFvhiE+0x1c>
  1c:	00 c0       	rjmp	.+0      	; 0x1e <_ZN12FirmataClass6attachEhPFvhiE+0x1e>
  1e:	52 a7       	std	Z+42, r21	; 0x2a
  20:	41 a7       	std	Z+41, r20	; 0x29
  22:	08 95       	ret
  24:	54 a7       	std	Z+44, r21	; 0x2c
  26:	43 a7       	std	Z+43, r20	; 0x2b
  28:	08 95       	ret
  2a:	56 a7       	std	Z+46, r21	; 0x2e
  2c:	45 a7       	std	Z+45, r20	; 0x2d
  2e:	08 95       	ret
  30:	50 ab       	std	Z+48, r21	; 0x30
  32:	47 a7       	std	Z+47, r20	; 0x2f
  34:	08 95       	ret
  36:	52 ab       	std	Z+50, r21	; 0x32
  38:	41 ab       	std	Z+49, r20	; 0x31
  3a:	08 95       	ret

Disassembly of section .text._ZN12FirmataClass6attachEhPFvvE:

00000000 <_ZN12FirmataClass6attachEhPFvvE>:
   0:	fc 01       	movw	r30, r24
   2:	6f 3f       	cpi	r22, 0xFF	; 255
   4:	01 f4       	brne	.+0      	; 0x6 <_ZN12FirmataClass6attachEhPFvvE+0x6>
   6:	54 ab       	std	Z+52, r21	; 0x34
   8:	43 ab       	std	Z+51, r20	; 0x33
   a:	08 95       	ret

Disassembly of section .text._ZN12FirmataClass6attachEhPFvPcE:

00000000 <_ZN12FirmataClass6attachEhPFvPcE>:
   0:	fc 01       	movw	r30, r24
   2:	61 37       	cpi	r22, 0x71	; 113
   4:	01 f4       	brne	.+0      	; 0x6 <_ZN12FirmataClass6attachEhPFvPcE+0x6>
   6:	56 ab       	std	Z+54, r21	; 0x36
   8:	45 ab       	std	Z+53, r20	; 0x35
   a:	08 95       	ret

Disassembly of section .text._ZN12FirmataClass6attachEhPFvhhPhE:

00000000 <_ZN12FirmataClass6attachEhPFvhhPhE>:
   0:	fc 01       	movw	r30, r24
   2:	50 af       	std	Z+56, r21	; 0x38
   4:	47 ab       	std	Z+55, r20	; 0x37
   6:	08 95       	ret

Disassembly of section .text._ZN12FirmataClass6detachEh:

00000000 <_ZN12FirmataClass6detachEh>:
   0:	fc 01       	movw	r30, r24
   2:	60 3f       	cpi	r22, 0xF0	; 240
   4:	01 f0       	breq	.+0      	; 0x6 <_ZN12FirmataClass6detachEh+0x6>
   6:	6f 3f       	cpi	r22, 0xFF	; 255
   8:	01 f0       	breq	.+0      	; 0xa <_ZN12FirmataClass6detachEh+0xa>
   a:	61 37       	cpi	r22, 0x71	; 113
   c:	01 f4       	brne	.+0      	; 0xe <_ZN12FirmataClass6detachEh+0xe>
   e:	00 c0       	rjmp	.+0      	; 0x10 <_ZN12FirmataClass6detachEh+0x10>
  10:	14 aa       	std	Z+52, r1	; 0x34
  12:	13 aa       	std	Z+51, r1	; 0x33
  14:	08 95       	ret
  16:	16 aa       	std	Z+54, r1	; 0x36
  18:	15 aa       	std	Z+53, r1	; 0x35
  1a:	08 95       	ret
  1c:	10 ae       	std	Z+56, r1	; 0x38
  1e:	17 aa       	std	Z+55, r1	; 0x37
  20:	08 95       	ret
  22:	40 e0       	ldi	r20, 0x00	; 0
  24:	50 e0       	ldi	r21, 0x00	; 0
  26:	0e 94 00 00 	call	0	; 0x0 <_ZN12FirmataClass6detachEh>
  2a:	08 95       	ret

Disassembly of section .text._ZN12FirmataClass11systemResetEv:

00000000 <_ZN12FirmataClass11systemResetEv>:
   0:	fc 01       	movw	r30, r24
   2:	13 82       	std	Z+3, r1	; 0x03
   4:	14 82       	std	Z+4, r1	; 0x04
   6:	15 82       	std	Z+5, r1	; 0x05
   8:	dc 01       	movw	r26, r24
   a:	80 e0       	ldi	r24, 0x00	; 0
   c:	16 96       	adiw	r26, 0x06	; 6
   e:	1c 92       	st	X, r1
  10:	16 97       	sbiw	r26, 0x06	; 6
  12:	8f 5f       	subi	r24, 0xFF	; 255
  14:	11 96       	adiw	r26, 0x01	; 1
  16:	80 32       	cpi	r24, 0x20	; 32
  18:	01 f4       	brne	.+0      	; 0x1a <_ZN12FirmataClass11systemResetEv+0x1a>
  1a:	16 a2       	std	Z+38, r1	; 0x26
  1c:	10 a6       	std	Z+40, r1	; 0x28
  1e:	17 a2       	std	Z+39, r1	; 0x27
  20:	03 a8       	ldd	r0, Z+51	; 0x33
  22:	f4 a9       	ldd	r31, Z+52	; 0x34
  24:	e0 2d       	mov	r30, r0
  26:	30 97       	sbiw	r30, 0x00	; 0
  28:	01 f0       	breq	.+0      	; 0x2a <_ZN12FirmataClass11systemResetEv+0x2a>
  2a:	09 95       	icall
  2c:	08 95       	ret

Disassembly of section .text._ZN12FirmataClassC1Ev:

00000000 <_ZN12FirmataClassC1Ev>:
   0:	fc 01       	movw	r30, r24
   2:	10 82       	st	Z, r1
   4:	0e 94 00 00 	call	0	; 0x0 <_ZN12FirmataClassC1Ev>
   8:	08 95       	ret

Disassembly of section .text._ZN12FirmataClassC2Ev:

00000000 <_ZN12FirmataClassC2Ev>:
   0:	fc 01       	movw	r30, r24
   2:	10 82       	st	Z, r1
   4:	0e 94 00 00 	call	0	; 0x0 <_ZN12FirmataClassC2Ev>
   8:	08 95       	ret

Disassembly of section .text._GLOBAL__I__Z23sendValueAsTwo7bitBytesi:

00000000 <_GLOBAL__I__Z23sendValueAsTwo7bitBytesi>:
   0:	80 e0       	ldi	r24, 0x00	; 0
   2:	90 e0       	ldi	r25, 0x00	; 0
   4:	0e 94 00 00 	call	0	; 0x0 <_GLOBAL__I__Z23sendValueAsTwo7bitBytesi>
   8:	08 95       	ret

Disassembly of section .text._ZN12FirmataClass11pin13strobeEiii:

00000000 <_ZN12FirmataClass11pin13strobeEiii>:
   0:	4f 92       	push	r4
   2:	5f 92       	push	r5
   4:	6f 92       	push	r6
   6:	7f 92       	push	r7
   8:	8f 92       	push	r8
   a:	9f 92       	push	r9
   c:	af 92       	push	r10
   e:	bf 92       	push	r11
  10:	cf 92       	push	r12
  12:	df 92       	push	r13
  14:	ef 92       	push	r14
  16:	ff 92       	push	r15
  18:	0f 93       	push	r16
  1a:	df 93       	push	r29
  1c:	cf 93       	push	r28
  1e:	00 d0       	rcall	.+0      	; 0x20 <_ZN12FirmataClass11pin13strobeEiii+0x20>
  20:	cd b7       	in	r28, 0x3d	; 61
  22:	de b7       	in	r29, 0x3e	; 62
  24:	2b 01       	movw	r4, r22
  26:	7a 01       	movw	r14, r20
  28:	3a 83       	std	Y+2, r19	; 0x02
  2a:	29 83       	std	Y+1, r18	; 0x01
  2c:	8d e0       	ldi	r24, 0x0D	; 13
  2e:	61 e0       	ldi	r22, 0x01	; 1
  30:	0e 94 00 00 	call	0	; 0x0 <_ZN12FirmataClass11pin13strobeEiii>
  34:	00 e0       	ldi	r16, 0x00	; 0
  36:	89 81       	ldd	r24, Y+1	; 0x01
  38:	9a 81       	ldd	r25, Y+2	; 0x02
  3a:	3c 01       	movw	r6, r24
  3c:	88 24       	eor	r8, r8
  3e:	77 fc       	sbrc	r7, 7
  40:	80 94       	com	r8
  42:	98 2c       	mov	r9, r8
  44:	57 01       	movw	r10, r14
  46:	cc 24       	eor	r12, r12
  48:	b7 fc       	sbrc	r11, 7
  4a:	c0 94       	com	r12
  4c:	dc 2c       	mov	r13, r12
  4e:	00 c0       	rjmp	.+0      	; 0x50 <_ZN12FirmataClass11pin13strobeEiii+0x50>
  50:	c4 01       	movw	r24, r8
  52:	b3 01       	movw	r22, r6
  54:	0e 94 00 00 	call	0	; 0x0 <_ZN12FirmataClass11pin13strobeEiii>
  58:	8d e0       	ldi	r24, 0x0D	; 13
  5a:	61 e0       	ldi	r22, 0x01	; 1
  5c:	0e 94 00 00 	call	0	; 0x0 <_ZN12FirmataClass11pin13strobeEiii>
  60:	c6 01       	movw	r24, r12
  62:	b5 01       	movw	r22, r10
  64:	0e 94 00 00 	call	0	; 0x0 <_ZN12FirmataClass11pin13strobeEiii>
  68:	8d e0       	ldi	r24, 0x0D	; 13
  6a:	60 e0       	ldi	r22, 0x00	; 0
  6c:	0e 94 00 00 	call	0	; 0x0 <_ZN12FirmataClass11pin13strobeEiii>
  70:	0f 5f       	subi	r16, 0xFF	; 255
  72:	80 2f       	mov	r24, r16
  74:	90 e0       	ldi	r25, 0x00	; 0
  76:	84 15       	cp	r24, r4
  78:	95 05       	cpc	r25, r5
  7a:	04 f0       	brlt	.+0      	; 0x7c <_ZN12FirmataClass11pin13strobeEiii+0x7c>
  7c:	0f 90       	pop	r0
  7e:	0f 90       	pop	r0
  80:	cf 91       	pop	r28
  82:	df 91       	pop	r29
  84:	0f 91       	pop	r16
  86:	ff 90       	pop	r15
  88:	ef 90       	pop	r14
  8a:	df 90       	pop	r13
  8c:	cf 90       	pop	r12
  8e:	bf 90       	pop	r11
  90:	af 90       	pop	r10
  92:	9f 90       	pop	r9
  94:	8f 90       	pop	r8
  96:	7f 90       	pop	r7
  98:	6f 90       	pop	r6
  9a:	5f 90       	pop	r5
  9c:	4f 90       	pop	r4
  9e:	08 95       	ret

Disassembly of section .text._ZN12FirmataClass12blinkVersionEv:

00000000 <_ZN12FirmataClass12blinkVersionEv>:
   0:	0f 93       	push	r16
   2:	1f 93       	push	r17
   4:	8c 01       	movw	r16, r24
   6:	8d e0       	ldi	r24, 0x0D	; 13
   8:	61 e0       	ldi	r22, 0x01	; 1
   a:	0e 94 00 00 	call	0	; 0x0 <_ZN12FirmataClass12blinkVersionEv>
   e:	c8 01       	movw	r24, r16
  10:	62 e0       	ldi	r22, 0x02	; 2
  12:	70 e0       	ldi	r23, 0x00	; 0
  14:	48 ec       	ldi	r20, 0xC8	; 200
  16:	50 e0       	ldi	r21, 0x00	; 0
  18:	20 e9       	ldi	r18, 0x90	; 144
  1a:	31 e0       	ldi	r19, 0x01	; 1
  1c:	0e 94 00 00 	call	0	; 0x0 <_ZN12FirmataClass12blinkVersionEv>
  20:	6c e2       	ldi	r22, 0x2C	; 44
  22:	71 e0       	ldi	r23, 0x01	; 1
  24:	80 e0       	ldi	r24, 0x00	; 0
  26:	90 e0       	ldi	r25, 0x00	; 0
  28:	0e 94 00 00 	call	0	; 0x0 <_ZN12FirmataClass12blinkVersionEv>
  2c:	c8 01       	movw	r24, r16
  2e:	62 e0       	ldi	r22, 0x02	; 2
  30:	70 e0       	ldi	r23, 0x00	; 0
  32:	41 e0       	ldi	r20, 0x01	; 1
  34:	50 e0       	ldi	r21, 0x00	; 0
  36:	24 e0       	ldi	r18, 0x04	; 4
  38:	30 e0       	ldi	r19, 0x00	; 0
  3a:	0e 94 00 00 	call	0	; 0x0 <_ZN12FirmataClass12blinkVersionEv>
  3e:	6c e2       	ldi	r22, 0x2C	; 44
  40:	71 e0       	ldi	r23, 0x01	; 1
  42:	80 e0       	ldi	r24, 0x00	; 0
  44:	90 e0       	ldi	r25, 0x00	; 0
  46:	0e 94 00 00 	call	0	; 0x0 <_ZN12FirmataClass12blinkVersionEv>
  4a:	c8 01       	movw	r24, r16
  4c:	62 e0       	ldi	r22, 0x02	; 2
  4e:	70 e0       	ldi	r23, 0x00	; 0
  50:	48 ec       	ldi	r20, 0xC8	; 200
  52:	50 e0       	ldi	r21, 0x00	; 0
  54:	20 e9       	ldi	r18, 0x90	; 144
  56:	31 e0       	ldi	r19, 0x01	; 1
  58:	0e 94 00 00 	call	0	; 0x0 <_ZN12FirmataClass12blinkVersionEv>
  5c:	1f 91       	pop	r17
  5e:	0f 91       	pop	r16
  60:	08 95       	ret

Disassembly of section .text._ZN12FirmataClass15sendDigitalPortEhi:

00000000 <_ZN12FirmataClass15sendDigitalPortEhi>:
   0:	ef 92       	push	r14
   2:	ff 92       	push	r15
   4:	0f 93       	push	r16
   6:	1f 93       	push	r17
   8:	8a 01       	movw	r16, r20
   a:	90 e0       	ldi	r25, 0x00	; 0
   c:	e9 2e       	mov	r14, r25
   e:	90 e0       	ldi	r25, 0x00	; 0
  10:	f9 2e       	mov	r15, r25
  12:	70 e0       	ldi	r23, 0x00	; 0
  14:	6f 70       	andi	r22, 0x0F	; 15
  16:	70 70       	andi	r23, 0x00	; 0
  18:	60 69       	ori	r22, 0x90	; 144
  1a:	c7 01       	movw	r24, r14
  1c:	40 e0       	ldi	r20, 0x00	; 0
  1e:	50 e0       	ldi	r21, 0x00	; 0
  20:	0e 94 00 00 	call	0	; 0x0 <_ZN12FirmataClass15sendDigitalPortEhi>
  24:	60 2f       	mov	r22, r16
  26:	70 e0       	ldi	r23, 0x00	; 0
  28:	6f 77       	andi	r22, 0x7F	; 127
  2a:	70 70       	andi	r23, 0x00	; 0
  2c:	c7 01       	movw	r24, r14
  2e:	40 e0       	ldi	r20, 0x00	; 0
  30:	50 e0       	ldi	r21, 0x00	; 0
  32:	0e 94 00 00 	call	0	; 0x0 <_ZN12FirmataClass15sendDigitalPortEhi>
  36:	00 0f       	add	r16, r16
  38:	01 2f       	mov	r16, r17
  3a:	00 1f       	adc	r16, r16
  3c:	11 0b       	sbc	r17, r17
  3e:	c7 01       	movw	r24, r14
  40:	b8 01       	movw	r22, r16
  42:	40 e0       	ldi	r20, 0x00	; 0
  44:	50 e0       	ldi	r21, 0x00	; 0
  46:	0e 94 00 00 	call	0	; 0x0 <_ZN12FirmataClass15sendDigitalPortEhi>
  4a:	1f 91       	pop	r17
  4c:	0f 91       	pop	r16
  4e:	ff 90       	pop	r15
  50:	ef 90       	pop	r14
  52:	08 95       	ret

Disassembly of section .text._ZN12FirmataClass12printVersionEv:

00000000 <_ZN12FirmataClass12printVersionEv>:
   0:	0f 93       	push	r16
   2:	1f 93       	push	r17
   4:	00 e0       	ldi	r16, 0x00	; 0
   6:	10 e0       	ldi	r17, 0x00	; 0
   8:	c8 01       	movw	r24, r16
   a:	69 ef       	ldi	r22, 0xF9	; 249
   c:	70 e0       	ldi	r23, 0x00	; 0
   e:	40 e0       	ldi	r20, 0x00	; 0
  10:	50 e0       	ldi	r21, 0x00	; 0
  12:	0e 94 00 00 	call	0	; 0x0 <_ZN12FirmataClass12printVersionEv>
  16:	c8 01       	movw	r24, r16
  18:	62 e0       	ldi	r22, 0x02	; 2
  1a:	70 e0       	ldi	r23, 0x00	; 0
  1c:	40 e0       	ldi	r20, 0x00	; 0
  1e:	50 e0       	ldi	r21, 0x00	; 0
  20:	0e 94 00 00 	call	0	; 0x0 <_ZN12FirmataClass12printVersionEv>
  24:	c8 01       	movw	r24, r16
  26:	62 e0       	ldi	r22, 0x02	; 2
  28:	70 e0       	ldi	r23, 0x00	; 0
  2a:	40 e0       	ldi	r20, 0x00	; 0
  2c:	50 e0       	ldi	r21, 0x00	; 0
  2e:	0e 94 00 00 	call	0	; 0x0 <_ZN12FirmataClass12printVersionEv>
  32:	1f 91       	pop	r17
  34:	0f 91       	pop	r16
  36:	08 95       	ret

Disassembly of section .text._Z8endSysexv:

00000000 <_Z8endSysexv>:
   0:	80 e0       	ldi	r24, 0x00	; 0
   2:	90 e0       	ldi	r25, 0x00	; 0
   4:	67 ef       	ldi	r22, 0xF7	; 247
   6:	70 e0       	ldi	r23, 0x00	; 0
   8:	40 e0       	ldi	r20, 0x00	; 0
   a:	50 e0       	ldi	r21, 0x00	; 0
   c:	0e 94 00 00 	call	0	; 0x0 <_Z8endSysexv>
  10:	08 95       	ret

Disassembly of section .text._Z10startSysexv:

00000000 <_Z10startSysexv>:
   0:	80 e0       	ldi	r24, 0x00	; 0
   2:	90 e0       	ldi	r25, 0x00	; 0
   4:	60 ef       	ldi	r22, 0xF0	; 240
   6:	70 e0       	ldi	r23, 0x00	; 0
   8:	40 e0       	ldi	r20, 0x00	; 0
   a:	50 e0       	ldi	r21, 0x00	; 0
   c:	0e 94 00 00 	call	0	; 0x0 <_Z10startSysexv>
  10:	08 95       	ret

Disassembly of section .text._Z23sendValueAsTwo7bitBytesi:

00000000 <_Z23sendValueAsTwo7bitBytesi>:
   0:	ef 92       	push	r14
   2:	ff 92       	push	r15
   4:	0f 93       	push	r16
   6:	1f 93       	push	r17
   8:	8c 01       	movw	r16, r24
   a:	30 e0       	ldi	r19, 0x00	; 0
   c:	e3 2e       	mov	r14, r19
   e:	30 e0       	ldi	r19, 0x00	; 0
  10:	f3 2e       	mov	r15, r19
  12:	bc 01       	movw	r22, r24
  14:	6f 77       	andi	r22, 0x7F	; 127
  16:	70 70       	andi	r23, 0x00	; 0
  18:	c7 01       	movw	r24, r14
  1a:	40 e0       	ldi	r20, 0x00	; 0
  1c:	50 e0       	ldi	r21, 0x00	; 0
  1e:	0e 94 00 00 	call	0	; 0x0 <_Z23sendValueAsTwo7bitBytesi>
  22:	00 0f       	add	r16, r16
  24:	01 2f       	mov	r16, r17
  26:	00 1f       	adc	r16, r16
  28:	11 0b       	sbc	r17, r17
  2a:	0f 77       	andi	r16, 0x7F	; 127
  2c:	10 70       	andi	r17, 0x00	; 0
  2e:	c7 01       	movw	r24, r14
  30:	b8 01       	movw	r22, r16
  32:	40 e0       	ldi	r20, 0x00	; 0
  34:	50 e0       	ldi	r21, 0x00	; 0
  36:	0e 94 00 00 	call	0	; 0x0 <_Z23sendValueAsTwo7bitBytesi>
  3a:	1f 91       	pop	r17
  3c:	0f 91       	pop	r16
  3e:	ff 90       	pop	r15
  40:	ef 90       	pop	r14
  42:	08 95       	ret

Disassembly of section .text._ZN12FirmataClass9sendSysexEhhPh:

00000000 <_ZN12FirmataClass9sendSysexEhhPh>:
   0:	ef 92       	push	r14
   2:	ff 92       	push	r15
   4:	0f 93       	push	r16
   6:	1f 93       	push	r17
   8:	cf 93       	push	r28
   a:	df 93       	push	r29
   c:	16 2f       	mov	r17, r22
   e:	e4 2e       	mov	r14, r20
  10:	02 2f       	mov	r16, r18
  12:	f3 2e       	mov	r15, r19
  14:	0e 94 00 00 	call	0	; 0x0 <_ZN12FirmataClass9sendSysexEhhPh>
  18:	80 e0       	ldi	r24, 0x00	; 0
  1a:	90 e0       	ldi	r25, 0x00	; 0
  1c:	61 2f       	mov	r22, r17
  1e:	40 e0       	ldi	r20, 0x00	; 0
  20:	50 e0       	ldi	r21, 0x00	; 0
  22:	0e 94 00 00 	call	0	; 0x0 <_ZN12FirmataClass9sendSysexEhhPh>
  26:	20 2f       	mov	r18, r16
  28:	3f 2d       	mov	r19, r15
  2a:	c9 01       	movw	r24, r18
  2c:	ec 01       	movw	r28, r24
  2e:	10 e0       	ldi	r17, 0x00	; 0
  30:	00 c0       	rjmp	.+0      	; 0x32 <_ZN12FirmataClass9sendSysexEhhPh+0x32>
  32:	89 91       	ld	r24, Y+
  34:	90 e0       	ldi	r25, 0x00	; 0
  36:	0e 94 00 00 	call	0	; 0x0 <_ZN12FirmataClass9sendSysexEhhPh>
  3a:	1f 5f       	subi	r17, 0xFF	; 255
  3c:	1e 15       	cp	r17, r14
  3e:	00 f0       	brcs	.+0      	; 0x40 <_ZN12FirmataClass9sendSysexEhhPh+0x40>
  40:	0e 94 00 00 	call	0	; 0x0 <_ZN12FirmataClass9sendSysexEhhPh>
  44:	df 91       	pop	r29
  46:	cf 91       	pop	r28
  48:	1f 91       	pop	r17
  4a:	0f 91       	pop	r16
  4c:	ff 90       	pop	r15
  4e:	ef 90       	pop	r14
  50:	08 95       	ret

Disassembly of section .text._ZN12FirmataClass10sendStringEhPKc:

00000000 <_ZN12FirmataClass10sendStringEhPKc>:
   0:	9a 01       	movw	r18, r20
   2:	fa 01       	movw	r30, r20
   4:	01 90       	ld	r0, Z+
   6:	00 20       	and	r0, r0
   8:	01 f4       	brne	.+0      	; 0xa <_ZN12FirmataClass10sendStringEhPKc+0xa>
   a:	31 97       	sbiw	r30, 0x01	; 1
   c:	e4 1b       	sub	r30, r20
   e:	f5 0b       	sbc	r31, r21
  10:	4e 2f       	mov	r20, r30
  12:	0e 94 00 00 	call	0	; 0x0 <_ZN12FirmataClass10sendStringEhPKc>
  16:	08 95       	ret

Disassembly of section .text._ZN12FirmataClass10sendStringEPKc:

00000000 <_ZN12FirmataClass10sendStringEPKc>:
   0:	ab 01       	movw	r20, r22
   2:	61 e7       	ldi	r22, 0x71	; 113
   4:	0e 94 00 00 	call	0	; 0x0 <_ZN12FirmataClass10sendStringEPKc>
   8:	08 95       	ret

Disassembly of section .text._ZN12FirmataClass10sendAnalogEhi:

00000000 <_ZN12FirmataClass10sendAnalogEhi>:
   0:	0f 93       	push	r16
   2:	1f 93       	push	r17
   4:	8a 01       	movw	r16, r20
   6:	70 e0       	ldi	r23, 0x00	; 0
   8:	6f 70       	andi	r22, 0x0F	; 15
   a:	70 70       	andi	r23, 0x00	; 0
   c:	60 6e       	ori	r22, 0xE0	; 224
   e:	80 e0       	ldi	r24, 0x00	; 0
  10:	90 e0       	ldi	r25, 0x00	; 0
  12:	40 e0       	ldi	r20, 0x00	; 0
  14:	50 e0       	ldi	r21, 0x00	; 0
  16:	0e 94 00 00 	call	0	; 0x0 <_ZN12FirmataClass10sendAnalogEhi>
  1a:	c8 01       	movw	r24, r16
  1c:	0e 94 00 00 	call	0	; 0x0 <_ZN12FirmataClass10sendAnalogEhi>
  20:	1f 91       	pop	r17
  22:	0f 91       	pop	r16
  24:	08 95       	ret

Disassembly of section .text._ZN12FirmataClass20printFirmwareVersionEv:

00000000 <_ZN12FirmataClass20printFirmwareVersionEv>:
   0:	1f 93       	push	r17
   2:	cf 93       	push	r28
   4:	df 93       	push	r29
   6:	ec 01       	movw	r28, r24
   8:	88 81       	ld	r24, Y
   a:	88 23       	and	r24, r24
   c:	01 f0       	breq	.+0      	; 0xe <_ZN12FirmataClass20printFirmwareVersionEv+0xe>
   e:	0e 94 00 00 	call	0	; 0x0 <_ZN12FirmataClass20printFirmwareVersionEv>
  12:	80 e0       	ldi	r24, 0x00	; 0
  14:	90 e0       	ldi	r25, 0x00	; 0
  16:	69 e7       	ldi	r22, 0x79	; 121
  18:	70 e0       	ldi	r23, 0x00	; 0
  1a:	40 e0       	ldi	r20, 0x00	; 0
  1c:	50 e0       	ldi	r21, 0x00	; 0
  1e:	0e 94 00 00 	call	0	; 0x0 <_ZN12FirmataClass20printFirmwareVersionEv>
  22:	e9 81       	ldd	r30, Y+1	; 0x01
  24:	fa 81       	ldd	r31, Y+2	; 0x02
  26:	80 e0       	ldi	r24, 0x00	; 0
  28:	90 e0       	ldi	r25, 0x00	; 0
  2a:	60 81       	ld	r22, Z
  2c:	40 e0       	ldi	r20, 0x00	; 0
  2e:	50 e0       	ldi	r21, 0x00	; 0
  30:	0e 94 00 00 	call	0	; 0x0 <_ZN12FirmataClass20printFirmwareVersionEv>
  34:	e9 81       	ldd	r30, Y+1	; 0x01
  36:	fa 81       	ldd	r31, Y+2	; 0x02
  38:	80 e0       	ldi	r24, 0x00	; 0
  3a:	90 e0       	ldi	r25, 0x00	; 0
  3c:	61 81       	ldd	r22, Z+1	; 0x01
  3e:	40 e0       	ldi	r20, 0x00	; 0
  40:	50 e0       	ldi	r21, 0x00	; 0
  42:	0e 94 00 00 	call	0	; 0x0 <_ZN12FirmataClass20printFirmwareVersionEv>
  46:	12 e0       	ldi	r17, 0x02	; 2
  48:	00 c0       	rjmp	.+0      	; 0x4a <_ZN12FirmataClass20printFirmwareVersionEv+0x4a>
  4a:	e9 81       	ldd	r30, Y+1	; 0x01
  4c:	fa 81       	ldd	r31, Y+2	; 0x02
  4e:	e1 0f       	add	r30, r17
  50:	f1 1d       	adc	r31, r1
  52:	80 81       	ld	r24, Z
  54:	90 e0       	ldi	r25, 0x00	; 0
  56:	0e 94 00 00 	call	0	; 0x0 <_ZN12FirmataClass20printFirmwareVersionEv>
  5a:	1f 5f       	subi	r17, 0xFF	; 255
  5c:	88 81       	ld	r24, Y
  5e:	18 17       	cp	r17, r24
  60:	00 f0       	brcs	.+0      	; 0x62 <_ZN12FirmataClass20printFirmwareVersionEv+0x62>
  62:	0e 94 00 00 	call	0	; 0x0 <_ZN12FirmataClass20printFirmwareVersionEv>
  66:	df 91       	pop	r29
  68:	cf 91       	pop	r28
  6a:	1f 91       	pop	r17
  6c:	08 95       	ret

Disassembly of section .text._ZN12FirmataClass19processSysexMessageEv:

00000000 <_ZN12FirmataClass19processSysexMessageEv>:
   0:	1f 93       	push	r17
   2:	cf 93       	push	r28
   4:	df 93       	push	r29
   6:	ec 01       	movw	r28, r24
   8:	8e 81       	ldd	r24, Y+6	; 0x06
   a:	81 37       	cpi	r24, 0x71	; 113
   c:	01 f0       	breq	.+0      	; 0xe <_ZN12FirmataClass19processSysexMessageEv+0xe>
   e:	89 37       	cpi	r24, 0x79	; 121
  10:	01 f4       	brne	.+0      	; 0x12 <_ZN12FirmataClass19processSysexMessageEv+0x12>
  12:	ce 01       	movw	r24, r28
  14:	0e 94 00 00 	call	0	; 0x0 <_ZN12FirmataClass19processSysexMessageEv>
  18:	00 c0       	rjmp	.+0      	; 0x1a <_ZN12FirmataClass19processSysexMessageEv+0x1a>
  1a:	8d a9       	ldd	r24, Y+53	; 0x35
  1c:	9e a9       	ldd	r25, Y+54	; 0x36
  1e:	89 2b       	or	r24, r25
  20:	01 f0       	breq	.+0      	; 0x22 <_ZN12FirmataClass19processSysexMessageEv+0x22>
  22:	8f a1       	ldd	r24, Y+39	; 0x27
  24:	98 a5       	ldd	r25, Y+40	; 0x28
  26:	01 97       	sbiw	r24, 0x01	; 1
  28:	62 e0       	ldi	r22, 0x02	; 2
  2a:	70 e0       	ldi	r23, 0x00	; 0
  2c:	0e 94 00 00 	call	0	; 0x0 <_ZN12FirmataClass19processSysexMessageEv>
  30:	16 2f       	mov	r17, r22
  32:	86 2f       	mov	r24, r22
  34:	90 e0       	ldi	r25, 0x00	; 0
  36:	0e 94 00 00 	call	0	; 0x0 <_ZN12FirmataClass19processSysexMessageEv>
  3a:	ac 01       	movw	r20, r24
  3c:	dc 01       	movw	r26, r24
  3e:	21 e0       	ldi	r18, 0x01	; 1
  40:	30 e0       	ldi	r19, 0x00	; 0
  42:	00 c0       	rjmp	.+0      	; 0x44 <_ZN12FirmataClass19processSysexMessageEv+0x44>
  44:	fe 01       	movw	r30, r28
  46:	e2 0f       	add	r30, r18
  48:	f1 1d       	adc	r31, r1
  4a:	96 81       	ldd	r25, Z+6	; 0x06
  4c:	9c 93       	st	X, r25
  4e:	2f 5f       	subi	r18, 0xFF	; 255
  50:	fe 01       	movw	r30, r28
  52:	e2 0f       	add	r30, r18
  54:	f1 1d       	adc	r31, r1
  56:	86 81       	ldd	r24, Z+6	; 0x06
  58:	87 95       	ror	r24
  5a:	88 27       	eor	r24, r24
  5c:	87 95       	ror	r24
  5e:	89 0f       	add	r24, r25
  60:	8d 93       	st	X+, r24
  62:	2f 5f       	subi	r18, 0xFF	; 255
  64:	3f 5f       	subi	r19, 0xFF	; 255
  66:	31 17       	cp	r19, r17
  68:	00 f0       	brcs	.+0      	; 0x6a <_ZN12FirmataClass19processSysexMessageEv+0x6a>
  6a:	ed a9       	ldd	r30, Y+53	; 0x35
  6c:	fe a9       	ldd	r31, Y+54	; 0x36
  6e:	ca 01       	movw	r24, r20
  70:	09 95       	icall
  72:	00 c0       	rjmp	.+0      	; 0x74 <_ZN12FirmataClass19processSysexMessageEv+0x74>
  74:	ef a9       	ldd	r30, Y+55	; 0x37
  76:	f8 ad       	ldd	r31, Y+56	; 0x38
  78:	30 97       	sbiw	r30, 0x00	; 0
  7a:	01 f0       	breq	.+0      	; 0x7c <_ZN12FirmataClass19processSysexMessageEv+0x7c>
  7c:	6f a1       	ldd	r22, Y+39	; 0x27
  7e:	61 50       	subi	r22, 0x01	; 1
  80:	27 96       	adiw	r28, 0x07	; 7
  82:	ae 01       	movw	r20, r28
  84:	09 95       	icall
  86:	df 91       	pop	r29
  88:	cf 91       	pop	r28
  8a:	1f 91       	pop	r17
  8c:	08 95       	ret

Disassembly of section .text._ZN12FirmataClass12processInputEv:

00000000 <_ZN12FirmataClass12processInputEv>:
   0:	cf 93       	push	r28
   2:	df 93       	push	r29
   4:	ec 01       	movw	r28, r24
   6:	80 e0       	ldi	r24, 0x00	; 0
   8:	90 e0       	ldi	r25, 0x00	; 0
   a:	0e 94 00 00 	call	0	; 0x0 <_ZN12FirmataClass12processInputEv>
   e:	ac 01       	movw	r20, r24
  10:	8e a1       	ldd	r24, Y+38	; 0x26
  12:	88 23       	and	r24, r24
  14:	01 f0       	breq	.+0      	; 0x16 <_ZN12FirmataClass12processInputEv+0x16>
  16:	47 3f       	cpi	r20, 0xF7	; 247
  18:	51 05       	cpc	r21, r1
  1a:	01 f4       	brne	.+0      	; 0x1c <_ZN12FirmataClass12processInputEv+0x1c>
  1c:	1e a2       	std	Y+38, r1	; 0x26
  1e:	ce 01       	movw	r24, r28
  20:	0e 94 00 00 	call	0	; 0x0 <_ZN12FirmataClass12processInputEv>
  24:	00 c0       	rjmp	.+0      	; 0x26 <_ZN12FirmataClass12processInputEv+0x26>
  26:	8f a1       	ldd	r24, Y+39	; 0x27
  28:	98 a5       	ldd	r25, Y+40	; 0x28
  2a:	fe 01       	movw	r30, r28
  2c:	e8 0f       	add	r30, r24
  2e:	f9 1f       	adc	r31, r25
  30:	46 83       	std	Z+6, r20	; 0x06
  32:	01 96       	adiw	r24, 0x01	; 1
  34:	98 a7       	std	Y+40, r25	; 0x28
  36:	8f a3       	std	Y+39, r24	; 0x27
  38:	00 c0       	rjmp	.+0      	; 0x3a <_ZN12FirmataClass12processInputEv+0x3a>
  3a:	8b 81       	ldd	r24, Y+3	; 0x03
  3c:	88 23       	and	r24, r24
  3e:	01 f4       	brne	.+0      	; 0x40 <_ZN12FirmataClass12processInputEv+0x40>
  40:	00 c0       	rjmp	.+0      	; 0x42 <_ZN12FirmataClass12processInputEv+0x42>
  42:	40 38       	cpi	r20, 0x80	; 128
  44:	51 05       	cpc	r21, r1
  46:	04 f0       	brlt	.+0      	; 0x48 <_ZN12FirmataClass12processInputEv+0x48>
  48:	00 c0       	rjmp	.+0      	; 0x4a <_ZN12FirmataClass12processInputEv+0x4a>
  4a:	81 50       	subi	r24, 0x01	; 1
  4c:	8b 83       	std	Y+3, r24	; 0x03
  4e:	fe 01       	movw	r30, r28
  50:	e8 0f       	add	r30, r24
  52:	f1 1d       	adc	r31, r1
  54:	46 83       	std	Z+6, r20	; 0x06
  56:	88 23       	and	r24, r24
  58:	01 f0       	breq	.+0      	; 0x5a <_ZN12FirmataClass12processInputEv+0x5a>
  5a:	00 c0       	rjmp	.+0      	; 0x5c <_ZN12FirmataClass12processInputEv+0x5c>
  5c:	8c 81       	ldd	r24, Y+4	; 0x04
  5e:	88 23       	and	r24, r24
  60:	01 f4       	brne	.+0      	; 0x62 <_ZN12FirmataClass12processInputEv+0x62>
  62:	00 c0       	rjmp	.+0      	; 0x64 <_ZN12FirmataClass12processInputEv+0x64>
  64:	80 3d       	cpi	r24, 0xD0	; 208
  66:	01 f0       	breq	.+0      	; 0x68 <_ZN12FirmataClass12processInputEv+0x68>
  68:	81 3d       	cpi	r24, 0xD1	; 209
  6a:	00 f4       	brcc	.+0      	; 0x6c <_ZN12FirmataClass12processInputEv+0x6c>
  6c:	80 39       	cpi	r24, 0x90	; 144
  6e:	01 f0       	breq	.+0      	; 0x70 <_ZN12FirmataClass12processInputEv+0x70>
  70:	80 3c       	cpi	r24, 0xC0	; 192
  72:	01 f4       	brne	.+0      	; 0x74 <_ZN12FirmataClass12processInputEv+0x74>
  74:	00 c0       	rjmp	.+0      	; 0x76 <_ZN12FirmataClass12processInputEv+0x76>
  76:	80 3e       	cpi	r24, 0xE0	; 224
  78:	01 f0       	breq	.+0      	; 0x7a <_ZN12FirmataClass12processInputEv+0x7a>
  7a:	84 3f       	cpi	r24, 0xF4	; 244
  7c:	01 f4       	brne	.+0      	; 0x7e <_ZN12FirmataClass12processInputEv+0x7e>
  7e:	00 c0       	rjmp	.+0      	; 0x80 <_ZN12FirmataClass12processInputEv+0x80>
  80:	e9 a5       	ldd	r30, Y+41	; 0x29
  82:	fa a5       	ldd	r31, Y+42	; 0x2a
  84:	00 c0       	rjmp	.+0      	; 0x86 <_ZN12FirmataClass12processInputEv+0x86>
  86:	eb a5       	ldd	r30, Y+43	; 0x2b
  88:	fc a5       	ldd	r31, Y+44	; 0x2c
  8a:	30 97       	sbiw	r30, 0x00	; 0
  8c:	01 f0       	breq	.+0      	; 0x8e <_ZN12FirmataClass12processInputEv+0x8e>
  8e:	6e 81       	ldd	r22, Y+6	; 0x06
  90:	70 e0       	ldi	r23, 0x00	; 0
  92:	76 95       	lsr	r23
  94:	76 2f       	mov	r23, r22
  96:	66 27       	eor	r22, r22
  98:	77 95       	ror	r23
  9a:	67 95       	ror	r22
  9c:	8f 81       	ldd	r24, Y+7	; 0x07
  9e:	68 0f       	add	r22, r24
  a0:	71 1d       	adc	r23, r1
  a2:	8d 81       	ldd	r24, Y+5	; 0x05
  a4:	00 c0       	rjmp	.+0      	; 0xa6 <_ZN12FirmataClass12processInputEv+0xa6>
  a6:	e9 a9       	ldd	r30, Y+49	; 0x31
  a8:	fa a9       	ldd	r31, Y+50	; 0x32
  aa:	30 97       	sbiw	r30, 0x00	; 0
  ac:	01 f0       	breq	.+0      	; 0xae <_ZN12FirmataClass12processInputEv+0xae>
  ae:	6e 81       	ldd	r22, Y+6	; 0x06
  b0:	8f 81       	ldd	r24, Y+7	; 0x07
  b2:	00 c0       	rjmp	.+0      	; 0xb4 <_ZN12FirmataClass12processInputEv+0xb4>
  b4:	ed a5       	ldd	r30, Y+45	; 0x2d
  b6:	fe a5       	ldd	r31, Y+46	; 0x2e
  b8:	00 c0       	rjmp	.+0      	; 0xba <_ZN12FirmataClass12processInputEv+0xba>
  ba:	ef a5       	ldd	r30, Y+47	; 0x2f
  bc:	f8 a9       	ldd	r31, Y+48	; 0x30
  be:	30 97       	sbiw	r30, 0x00	; 0
  c0:	01 f0       	breq	.+0      	; 0xc2 <_ZN12FirmataClass12processInputEv+0xc2>
  c2:	6e 81       	ldd	r22, Y+6	; 0x06
  c4:	8d 81       	ldd	r24, Y+5	; 0x05
  c6:	70 e0       	ldi	r23, 0x00	; 0
  c8:	09 95       	icall
  ca:	1c 82       	std	Y+4, r1	; 0x04
  cc:	00 c0       	rjmp	.+0      	; 0xce <_ZN12FirmataClass12processInputEv+0xce>
  ce:	40 3f       	cpi	r20, 0xF0	; 240
  d0:	51 05       	cpc	r21, r1
  d2:	04 f0       	brlt	.+0      	; 0xd4 <_ZN12FirmataClass12processInputEv+0xd4>
  d4:	9a 01       	movw	r18, r20
  d6:	00 c0       	rjmp	.+0      	; 0xd8 <_ZN12FirmataClass12processInputEv+0xd8>
  d8:	9a 01       	movw	r18, r20
  da:	20 7f       	andi	r18, 0xF0	; 240
  dc:	30 70       	andi	r19, 0x00	; 0
  de:	84 2f       	mov	r24, r20
  e0:	8f 70       	andi	r24, 0x0F	; 15
  e2:	8d 83       	std	Y+5, r24	; 0x05
  e4:	20 3e       	cpi	r18, 0xE0	; 224
  e6:	31 05       	cpc	r19, r1
  e8:	01 f0       	breq	.+0      	; 0xea <_ZN12FirmataClass12processInputEv+0xea>
  ea:	21 3e       	cpi	r18, 0xE1	; 225
  ec:	31 05       	cpc	r19, r1
  ee:	04 f4       	brge	.+0      	; 0xf0 <_ZN12FirmataClass12processInputEv+0xf0>
  f0:	20 3c       	cpi	r18, 0xC0	; 192
  f2:	31 05       	cpc	r19, r1
  f4:	01 f0       	breq	.+0      	; 0xf6 <_ZN12FirmataClass12processInputEv+0xf6>
  f6:	20 3d       	cpi	r18, 0xD0	; 208
  f8:	31 05       	cpc	r19, r1
  fa:	01 f0       	breq	.+0      	; 0xfc <_ZN12FirmataClass12processInputEv+0xfc>
  fc:	20 39       	cpi	r18, 0x90	; 144
  fe:	31 05       	cpc	r19, r1
 100:	01 f4       	brne	.+0      	; 0x102 <_ZN12FirmataClass12processInputEv+0x102>
 102:	00 c0       	rjmp	.+0      	; 0x104 <_ZN12FirmataClass12processInputEv+0x104>
 104:	24 3f       	cpi	r18, 0xF4	; 244
 106:	31 05       	cpc	r19, r1
 108:	01 f0       	breq	.+0      	; 0x10a <_ZN12FirmataClass12processInputEv+0x10a>
 10a:	25 3f       	cpi	r18, 0xF5	; 245
 10c:	31 05       	cpc	r19, r1
 10e:	04 f4       	brge	.+0      	; 0x110 <_ZN12FirmataClass12processInputEv+0x110>
 110:	20 3f       	cpi	r18, 0xF0	; 240
 112:	31 05       	cpc	r19, r1
 114:	01 f4       	brne	.+0      	; 0x116 <_ZN12FirmataClass12processInputEv+0x116>
 116:	00 c0       	rjmp	.+0      	; 0x118 <_ZN12FirmataClass12processInputEv+0x118>
 118:	29 3f       	cpi	r18, 0xF9	; 249
 11a:	31 05       	cpc	r19, r1
 11c:	01 f0       	breq	.+0      	; 0x11e <_ZN12FirmataClass12processInputEv+0x11e>
 11e:	2f 3f       	cpi	r18, 0xFF	; 255
 120:	31 05       	cpc	r19, r1
 122:	01 f4       	brne	.+0      	; 0x124 <_ZN12FirmataClass12processInputEv+0x124>
 124:	00 c0       	rjmp	.+0      	; 0x126 <_ZN12FirmataClass12processInputEv+0x126>
 126:	82 e0       	ldi	r24, 0x02	; 2
 128:	00 c0       	rjmp	.+0      	; 0x12a <_ZN12FirmataClass12processInputEv+0x12a>
 12a:	81 e0       	ldi	r24, 0x01	; 1
 12c:	8b 83       	std	Y+3, r24	; 0x03
 12e:	2c 83       	std	Y+4, r18	; 0x04
 130:	00 c0       	rjmp	.+0      	; 0x132 <_ZN12FirmataClass12processInputEv+0x132>
 132:	81 e0       	ldi	r24, 0x01	; 1
 134:	8e a3       	std	Y+38, r24	; 0x26
 136:	18 a6       	std	Y+40, r1	; 0x28
 138:	1f a2       	std	Y+39, r1	; 0x27
 13a:	00 c0       	rjmp	.+0      	; 0x13c <_ZN12FirmataClass12processInputEv+0x13c>
 13c:	ce 01       	movw	r24, r28
 13e:	0e 94 00 00 	call	0	; 0x0 <_ZN12FirmataClass12processInputEv>
 142:	00 c0       	rjmp	.+0      	; 0x144 <_ZN12FirmataClass12processInputEv+0x144>
 144:	80 e0       	ldi	r24, 0x00	; 0
 146:	90 e0       	ldi	r25, 0x00	; 0
 148:	0e 94 00 00 	call	0	; 0x0 <_ZN12FirmataClass12processInputEv>
 14c:	df 91       	pop	r29
 14e:	cf 91       	pop	r28
 150:	08 95       	ret

Disassembly of section .text._ZN12FirmataClass9availableEv:

00000000 <_ZN12FirmataClass9availableEv>:
   0:	80 e0       	ldi	r24, 0x00	; 0
   2:	90 e0       	ldi	r25, 0x00	; 0
   4:	0e 94 00 00 	call	0	; 0x0 <_ZN12FirmataClass9availableEv>
   8:	08 95       	ret

Disassembly of section .text._ZN12FirmataClass25setFirmwareNameAndVersionEPKchh:

00000000 <_ZN12FirmataClass25setFirmwareNameAndVersionEPKchh>:
   0:	af 92       	push	r10
   2:	bf 92       	push	r11
   4:	cf 92       	push	r12
   6:	df 92       	push	r13
   8:	ef 92       	push	r14
   a:	ff 92       	push	r15
   c:	0f 93       	push	r16
   e:	1f 93       	push	r17
  10:	cf 93       	push	r28
  12:	df 93       	push	r29
  14:	8c 01       	movw	r16, r24
  16:	d6 2e       	mov	r13, r22
  18:	c7 2e       	mov	r12, r23
  1a:	b4 2e       	mov	r11, r20
  1c:	a2 2e       	mov	r10, r18
  1e:	86 2f       	mov	r24, r22
  20:	97 2f       	mov	r25, r23
  22:	60 e0       	ldi	r22, 0x00	; 0
  24:	70 e0       	ldi	r23, 0x00	; 0
  26:	0e 94 00 00 	call	0	; 0x0 <_ZN12FirmataClass25setFirmwareNameAndVersionEPKchh>
  2a:	ec 01       	movw	r28, r24
  2c:	8d 2d       	mov	r24, r13
  2e:	9c 2d       	mov	r25, r12
  30:	6f e2       	ldi	r22, 0x2F	; 47
  32:	70 e0       	ldi	r23, 0x00	; 0
  34:	0e 94 00 00 	call	0	; 0x0 <_ZN12FirmataClass25setFirmwareNameAndVersionEPKchh>
  38:	20 97       	sbiw	r28, 0x00	; 0
  3a:	01 f0       	breq	.+0      	; 0x3c <_ZN12FirmataClass25setFirmwareNameAndVersionEPKchh+0x3c>
  3c:	7c 01       	movw	r14, r24
  3e:	08 94       	sec
  40:	e1 1c       	adc	r14, r1
  42:	f1 1c       	adc	r15, r1
  44:	e1 14       	cp	r14, r1
  46:	f1 04       	cpc	r15, r1
  48:	01 f0       	breq	.+0      	; 0x4a <_ZN12FirmataClass25setFirmwareNameAndVersionEPKchh+0x4a>
  4a:	9e 01       	movw	r18, r28
  4c:	2e 5f       	subi	r18, 0xFE	; 254
  4e:	82 2f       	mov	r24, r18
  50:	8e 19       	sub	r24, r14
  52:	d8 01       	movw	r26, r16
  54:	8c 93       	st	X, r24
  56:	00 c0       	rjmp	.+0      	; 0x58 <_ZN12FirmataClass25setFirmwareNameAndVersionEPKchh+0x58>
  58:	ad 2d       	mov	r26, r13
  5a:	bc 2d       	mov	r27, r12
  5c:	fd 01       	movw	r30, r26
  5e:	01 90       	ld	r0, Z+
  60:	00 20       	and	r0, r0
  62:	01 f4       	brne	.+0      	; 0x64 <_ZN12FirmataClass25setFirmwareNameAndVersionEPKchh+0x64>
  64:	ed 19       	sub	r30, r13
  66:	ef 5f       	subi	r30, 0xFF	; 255
  68:	d8 01       	movw	r26, r16
  6a:	ec 93       	st	X, r30
  6c:	2d 2d       	mov	r18, r13
  6e:	3c 2d       	mov	r19, r12
  70:	c9 01       	movw	r24, r18
  72:	7c 01       	movw	r14, r24
  74:	f8 01       	movw	r30, r16
  76:	80 81       	ld	r24, Z
  78:	90 e0       	ldi	r25, 0x00	; 0
  7a:	0e 94 00 00 	call	0	; 0x0 <_ZN12FirmataClass25setFirmwareNameAndVersionEPKchh>
  7e:	fc 01       	movw	r30, r24
  80:	d8 01       	movw	r26, r16
  82:	12 96       	adiw	r26, 0x02	; 2
  84:	9c 93       	st	X, r25
  86:	8e 93       	st	-X, r24
  88:	11 97       	sbiw	r26, 0x01	; 1
  8a:	8c 91       	ld	r24, X
  8c:	e8 0f       	add	r30, r24
  8e:	f1 1d       	adc	r31, r1
  90:	10 82       	st	Z, r1
  92:	11 96       	adiw	r26, 0x01	; 1
  94:	ed 91       	ld	r30, X+
  96:	fc 91       	ld	r31, X
  98:	12 97       	sbiw	r26, 0x02	; 2
  9a:	b0 82       	st	Z, r11
  9c:	11 96       	adiw	r26, 0x01	; 1
  9e:	ed 91       	ld	r30, X+
  a0:	fc 91       	ld	r31, X
  a2:	12 97       	sbiw	r26, 0x02	; 2
  a4:	a1 82       	std	Z+1, r10	; 0x01
  a6:	11 96       	adiw	r26, 0x01	; 1
  a8:	8d 91       	ld	r24, X+
  aa:	9c 91       	ld	r25, X
  ac:	12 97       	sbiw	r26, 0x02	; 2
  ae:	4c 91       	ld	r20, X
  b0:	50 e0       	ldi	r21, 0x00	; 0
  b2:	42 50       	subi	r20, 0x02	; 2
  b4:	50 40       	sbci	r21, 0x00	; 0
  b6:	02 96       	adiw	r24, 0x02	; 2
  b8:	b7 01       	movw	r22, r14
  ba:	0e 94 00 00 	call	0	; 0x0 <_ZN12FirmataClass25setFirmwareNameAndVersionEPKchh>
  be:	df 91       	pop	r29
  c0:	cf 91       	pop	r28
  c2:	1f 91       	pop	r17
  c4:	0f 91       	pop	r16
  c6:	ff 90       	pop	r15
  c8:	ef 90       	pop	r14
  ca:	df 90       	pop	r13
  cc:	cf 90       	pop	r12
  ce:	bf 90       	pop	r11
  d0:	af 90       	pop	r10
  d2:	08 95       	ret

Disassembly of section .text._ZN12FirmataClass5beginEl:

00000000 <_ZN12FirmataClass5beginEl>:
   0:	0f 93       	push	r16
   2:	1f 93       	push	r17
   4:	8c 01       	movw	r16, r24
   6:	80 e0       	ldi	r24, 0x00	; 0
   8:	90 e0       	ldi	r25, 0x00	; 0
   a:	0e 94 00 00 	call	0	; 0x0 <_ZN12FirmataClass5beginEl>
   e:	c8 01       	movw	r24, r16
  10:	0e 94 00 00 	call	0	; 0x0 <_ZN12FirmataClass5beginEl>
  14:	6c e2       	ldi	r22, 0x2C	; 44
  16:	71 e0       	ldi	r23, 0x01	; 1
  18:	80 e0       	ldi	r24, 0x00	; 0
  1a:	90 e0       	ldi	r25, 0x00	; 0
  1c:	0e 94 00 00 	call	0	; 0x0 <_ZN12FirmataClass5beginEl>
  20:	c8 01       	movw	r24, r16
  22:	0e 94 00 00 	call	0	; 0x0 <_ZN12FirmataClass5beginEl>
  26:	c8 01       	movw	r24, r16
  28:	0e 94 00 00 	call	0	; 0x0 <_ZN12FirmataClass5beginEl>
  2c:	1f 91       	pop	r17
  2e:	0f 91       	pop	r16
  30:	08 95       	ret

Disassembly of section .text._ZN12FirmataClass5beginEv:

00000000 <_ZN12FirmataClass5beginEv>:
   0:	40 e0       	ldi	r20, 0x00	; 0
   2:	51 ee       	ldi	r21, 0xE1	; 225
   4:	60 e0       	ldi	r22, 0x00	; 0
   6:	70 e0       	ldi	r23, 0x00	; 0
   8:	0e 94 00 00 	call	0	; 0x0 <_ZN12FirmataClass5beginEv>
   c:	08 95       	ret

socket.o:     file format elf32-avr

Sections:
Idx Name          Size      VMA       LMA       File off  Algn
  0 .text         00000000  00000000  00000000  00000034  2**0
                  CONTENTS, ALLOC, LOAD, READONLY, CODE
  1 .data         00000000  00000000  00000000  00000034  2**0
                  CONTENTS, ALLOC, LOAD, DATA
  2 .bss          00000000  00000000  00000000  00000034  2**0
                  ALLOC
  3 .text._Z10disconnecth 0000000e  00000000  00000000  00000034  2**0
                  CONTENTS, ALLOC, LOAD, RELOC, READONLY, CODE
  4 .text._ZN10W5100Class6readSnEhj 00000012  00000000  00000000  00000042  2**0
                  CONTENTS, ALLOC, LOAD, RELOC, READONLY, CODE
  5 .text._Z6listenh 00000026  00000000  00000000  00000054  2**0
                  CONTENTS, ALLOC, LOAD, RELOC, READONLY, CODE
  6 .text._ZN10W5100Class7writeSnEhjh 00000014  00000000  00000000  0000007a  2**0
                  CONTENTS, ALLOC, LOAD, RELOC, READONLY, CODE
  7 .text._Z5closeh 00000020  00000000  00000000  0000008e  2**0
                  CONTENTS, ALLOC, LOAD, RELOC, READONLY, CODE
  8 .text._Z8igmpsendhPKhj 00000084  00000000  00000000  000000ae  2**0
                  CONTENTS, ALLOC, LOAD, RELOC, READONLY, CODE
  9 .text._ZN10W5100Class12writeSnRX_RDEhj 00000024  00000000  00000000  00000132  2**0
                  CONTENTS, ALLOC, LOAD, RELOC, READONLY, CODE
 10 .text._ZN10W5100Class12writeSnDPORTEhj 00000024  00000000  00000000  00000156  2**0
                  CONTENTS, ALLOC, LOAD, RELOC, READONLY, CODE
 11 .text._ZN10W5100Class11writeSnPORTEhj 00000024  00000000  00000000  0000017a  2**0
                  CONTENTS, ALLOC, LOAD, RELOC, READONLY, CODE
 12 .text._Z6sockethhjh 00000070  00000000  00000000  0000019e  2**0
                  CONTENTS, ALLOC, LOAD, RELOC, READONLY, CODE
 13 .text._Z8recvfromhPhjS_Pj 00000182  00000000  00000000  0000020e  2**0
                  CONTENTS, ALLOC, LOAD, RELOC, READONLY, CODE
 14 .text._Z6sendtohPKhjPhj 000000d0  00000000  00000000  00000390  2**0
                  CONTENTS, ALLOC, LOAD, RELOC, READONLY, CODE
 15 .text._Z7connecthPhj 00000074  00000000  00000000  00000460  2**0
                  CONTENTS, ALLOC, LOAD, RELOC, READONLY, CODE
 16 .text._Z4peekhPh 0000001e  00000000  00000000  000004d4  2**0
                  CONTENTS, ALLOC, LOAD, RELOC, READONLY, CODE
 17 .text._Z4recvhPhj 00000044  00000000  00000000  000004f2  2**0
                  CONTENTS, ALLOC, LOAD, RELOC, READONLY, CODE
 18 .text._Z4sendhPKhj 000000ac  00000000  00000000  00000536  2**0
                  CONTENTS, ALLOC, LOAD, RELOC, READONLY, CODE
 19 .bss._ZL10local_port 00000002  00000000  00000000  000005e2  2**0
                  ALLOC

Disassembly of section .text._Z10disconnecth:

00000000 <_Z10disconnecth>:
   0:	68 2f       	mov	r22, r24
   2:	80 e0       	ldi	r24, 0x00	; 0
   4:	90 e0       	ldi	r25, 0x00	; 0
   6:	48 e0       	ldi	r20, 0x08	; 8
   8:	0e 94 00 00 	call	0	; 0x0 <_Z10disconnecth>
   c:	08 95       	ret

Disassembly of section .text._ZN10W5100Class6readSnEhj:

00000000 <_ZN10W5100Class6readSnEhj>:
   0:	90 e0       	ldi	r25, 0x00	; 0
   2:	04 96       	adiw	r24, 0x04	; 4
   4:	98 2f       	mov	r25, r24
   6:	88 27       	eor	r24, r24
   8:	86 0f       	add	r24, r22
   a:	97 1f       	adc	r25, r23
   c:	0e 94 00 00 	call	0	; 0x0 <_ZN10W5100Class6readSnEhj>
  10:	08 95       	ret

Disassembly of section .text._Z6listenh:

00000000 <_Z6listenh>:
   0:	1f 93       	push	r17
   2:	18 2f       	mov	r17, r24
   4:	63 e0       	ldi	r22, 0x03	; 3
   6:	70 e0       	ldi	r23, 0x00	; 0
   8:	0e 94 00 00 	call	0	; 0x0 <_Z6listenh>
   c:	83 31       	cpi	r24, 0x13	; 19
   e:	01 f0       	breq	.+0      	; 0x10 <_Z6listenh+0x10>
  10:	80 e0       	ldi	r24, 0x00	; 0
  12:	00 c0       	rjmp	.+0      	; 0x14 <_Z6listenh+0x14>
  14:	80 e0       	ldi	r24, 0x00	; 0
  16:	90 e0       	ldi	r25, 0x00	; 0
  18:	61 2f       	mov	r22, r17
  1a:	42 e0       	ldi	r20, 0x02	; 2
  1c:	0e 94 00 00 	call	0	; 0x0 <_Z6listenh>
  20:	81 e0       	ldi	r24, 0x01	; 1
  22:	1f 91       	pop	r17
  24:	08 95       	ret

Disassembly of section .text._ZN10W5100Class7writeSnEhjh:

00000000 <_ZN10W5100Class7writeSnEhjh>:
   0:	90 e0       	ldi	r25, 0x00	; 0
   2:	04 96       	adiw	r24, 0x04	; 4
   4:	98 2f       	mov	r25, r24
   6:	88 27       	eor	r24, r24
   8:	86 0f       	add	r24, r22
   a:	97 1f       	adc	r25, r23
   c:	64 2f       	mov	r22, r20
   e:	0e 94 00 00 	call	0	; 0x0 <_ZN10W5100Class7writeSnEhjh>
  12:	08 95       	ret

Disassembly of section .text._Z5closeh:

00000000 <_Z5closeh>:
   0:	1f 93       	push	r17
   2:	18 2f       	mov	r17, r24
   4:	80 e0       	ldi	r24, 0x00	; 0
   6:	90 e0       	ldi	r25, 0x00	; 0
   8:	61 2f       	mov	r22, r17
   a:	40 e1       	ldi	r20, 0x10	; 16
   c:	0e 94 00 00 	call	0	; 0x0 <_Z5closeh>
  10:	81 2f       	mov	r24, r17
  12:	62 e0       	ldi	r22, 0x02	; 2
  14:	70 e0       	ldi	r23, 0x00	; 0
  16:	4f ef       	ldi	r20, 0xFF	; 255
  18:	0e 94 00 00 	call	0	; 0x0 <_Z5closeh>
  1c:	1f 91       	pop	r17
  1e:	08 95       	ret

Disassembly of section .text._Z8igmpsendhPKhj:

00000000 <_Z8igmpsendhPKhj>:
   0:	1f 93       	push	r17
   2:	cf 93       	push	r28
   4:	df 93       	push	r29
   6:	18 2f       	mov	r17, r24
   8:	fb 01       	movw	r30, r22
   a:	88 e0       	ldi	r24, 0x08	; 8
   c:	41 30       	cpi	r20, 0x01	; 1
   e:	58 07       	cpc	r21, r24
  10:	00 f0       	brcs	.+0      	; 0x12 <_Z8igmpsendhPKhj+0x12>
  12:	c0 e0       	ldi	r28, 0x00	; 0
  14:	d8 e0       	ldi	r29, 0x08	; 8
  16:	00 c0       	rjmp	.+0      	; 0x18 <_Z8igmpsendhPKhj+0x18>
  18:	41 15       	cp	r20, r1
  1a:	51 05       	cpc	r21, r1
  1c:	01 f0       	breq	.+0      	; 0x1e <_Z8igmpsendhPKhj+0x1e>
  1e:	ea 01       	movw	r28, r20
  20:	80 e0       	ldi	r24, 0x00	; 0
  22:	90 e0       	ldi	r25, 0x00	; 0
  24:	61 2f       	mov	r22, r17
  26:	af 01       	movw	r20, r30
  28:	9e 01       	movw	r18, r28
  2a:	0e 94 00 00 	call	0	; 0x0 <_Z8igmpsendhPKhj>
  2e:	80 e0       	ldi	r24, 0x00	; 0
  30:	90 e0       	ldi	r25, 0x00	; 0
  32:	61 2f       	mov	r22, r17
  34:	40 e2       	ldi	r20, 0x20	; 32
  36:	0e 94 00 00 	call	0	; 0x0 <_Z8igmpsendhPKhj>
  3a:	00 c0       	rjmp	.+0      	; 0x3c <_Z8igmpsendhPKhj+0x3c>
  3c:	81 2f       	mov	r24, r17
  3e:	63 e0       	ldi	r22, 0x03	; 3
  40:	70 e0       	ldi	r23, 0x00	; 0
  42:	0e 94 00 00 	call	0	; 0x0 <_Z8igmpsendhPKhj>
  46:	81 2f       	mov	r24, r17
  48:	62 e0       	ldi	r22, 0x02	; 2
  4a:	70 e0       	ldi	r23, 0x00	; 0
  4c:	0e 94 00 00 	call	0	; 0x0 <_Z8igmpsendhPKhj>
  50:	83 ff       	sbrs	r24, 3
  52:	00 c0       	rjmp	.+0      	; 0x54 <_Z8igmpsendhPKhj+0x54>
  54:	81 2f       	mov	r24, r17
  56:	0e 94 00 00 	call	0	; 0x0 <_Z8igmpsendhPKhj>
  5a:	c0 e0       	ldi	r28, 0x00	; 0
  5c:	d0 e0       	ldi	r29, 0x00	; 0
  5e:	00 c0       	rjmp	.+0      	; 0x60 <_Z8igmpsendhPKhj+0x60>
  60:	81 2f       	mov	r24, r17
  62:	62 e0       	ldi	r22, 0x02	; 2
  64:	70 e0       	ldi	r23, 0x00	; 0
  66:	0e 94 00 00 	call	0	; 0x0 <_Z8igmpsendhPKhj>
  6a:	84 ff       	sbrs	r24, 4
  6c:	00 c0       	rjmp	.+0      	; 0x6e <_Z8igmpsendhPKhj+0x6e>
  6e:	81 2f       	mov	r24, r17
  70:	62 e0       	ldi	r22, 0x02	; 2
  72:	70 e0       	ldi	r23, 0x00	; 0
  74:	40 e1       	ldi	r20, 0x10	; 16
  76:	0e 94 00 00 	call	0	; 0x0 <_Z8igmpsendhPKhj>
  7a:	ce 01       	movw	r24, r28
  7c:	df 91       	pop	r29
  7e:	cf 91       	pop	r28
  80:	1f 91       	pop	r17
  82:	08 95       	ret

Disassembly of section .text._ZN10W5100Class12writeSnRX_RDEhj:

00000000 <_ZN10W5100Class12writeSnRX_RDEhj>:
   0:	0f 93       	push	r16
   2:	1f 93       	push	r17
   4:	18 2f       	mov	r17, r24
   6:	06 2f       	mov	r16, r22
   8:	47 2f       	mov	r20, r23
   a:	68 e2       	ldi	r22, 0x28	; 40
   c:	70 e0       	ldi	r23, 0x00	; 0
   e:	0e 94 00 00 	call	0	; 0x0 <_ZN10W5100Class12writeSnRX_RDEhj>
  12:	81 2f       	mov	r24, r17
  14:	69 e2       	ldi	r22, 0x29	; 41
  16:	70 e0       	ldi	r23, 0x00	; 0
  18:	40 2f       	mov	r20, r16
  1a:	0e 94 00 00 	call	0	; 0x0 <_ZN10W5100Class12writeSnRX_RDEhj>
  1e:	1f 91       	pop	r17
  20:	0f 91       	pop	r16
  22:	08 95       	ret

Disassembly of section .text._ZN10W5100Class12writeSnDPORTEhj:

00000000 <_ZN10W5100Class12writeSnDPORTEhj>:
   0:	0f 93       	push	r16
   2:	1f 93       	push	r17
   4:	18 2f       	mov	r17, r24
   6:	06 2f       	mov	r16, r22
   8:	47 2f       	mov	r20, r23
   a:	60 e1       	ldi	r22, 0x10	; 16
   c:	70 e0       	ldi	r23, 0x00	; 0
   e:	0e 94 00 00 	call	0	; 0x0 <_ZN10W5100Class12writeSnDPORTEhj>
  12:	81 2f       	mov	r24, r17
  14:	61 e1       	ldi	r22, 0x11	; 17
  16:	70 e0       	ldi	r23, 0x00	; 0
  18:	40 2f       	mov	r20, r16
  1a:	0e 94 00 00 	call	0	; 0x0 <_ZN10W5100Class12writeSnDPORTEhj>
  1e:	1f 91       	pop	r17
  20:	0f 91       	pop	r16
  22:	08 95       	ret

Disassembly of section .text._ZN10W5100Class11writeSnPORTEhj:

00000000 <_ZN10W5100Class11writeSnPORTEhj>:
   0:	0f 93       	push	r16
   2:	1f 93       	push	r17
   4:	18 2f       	mov	r17, r24
   6:	06 2f       	mov	r16, r22
   8:	47 2f       	mov	r20, r23
   a:	64 e0       	ldi	r22, 0x04	; 4
   c:	70 e0       	ldi	r23, 0x00	; 0
   e:	0e 94 00 00 	call	0	; 0x0 <_ZN10W5100Class11writeSnPORTEhj>
  12:	81 2f       	mov	r24, r17
  14:	65 e0       	ldi	r22, 0x05	; 5
  16:	70 e0       	ldi	r23, 0x00	; 0
  18:	40 2f       	mov	r20, r16
  1a:	0e 94 00 00 	call	0	; 0x0 <_ZN10W5100Class11writeSnPORTEhj>
  1e:	1f 91       	pop	r17
  20:	0f 91       	pop	r16
  22:	08 95       	ret

Disassembly of section .text._Z6sockethhjh:

00000000 <_Z6sockethhjh>:
   0:	ff 92       	push	r15
   2:	0f 93       	push	r16
   4:	1f 93       	push	r17
   6:	cf 93       	push	r28
   8:	df 93       	push	r29
   a:	08 2f       	mov	r16, r24
   c:	f6 2e       	mov	r15, r22
   e:	ea 01       	movw	r28, r20
  10:	12 2f       	mov	r17, r18
  12:	86 2f       	mov	r24, r22
  14:	81 50       	subi	r24, 0x01	; 1
  16:	85 30       	cpi	r24, 0x05	; 5
  18:	00 f0       	brcs	.+0      	; 0x1a <_Z6sockethhjh+0x1a>
  1a:	80 e0       	ldi	r24, 0x00	; 0
  1c:	00 c0       	rjmp	.+0      	; 0x1e <_Z6sockethhjh+0x1e>
  1e:	80 2f       	mov	r24, r16
  20:	0e 94 00 00 	call	0	; 0x0 <_Z6sockethhjh>
  24:	1f 29       	or	r17, r15
  26:	80 2f       	mov	r24, r16
  28:	60 e0       	ldi	r22, 0x00	; 0
  2a:	70 e0       	ldi	r23, 0x00	; 0
  2c:	41 2f       	mov	r20, r17
  2e:	0e 94 00 00 	call	0	; 0x0 <_Z6sockethhjh>
  32:	20 97       	sbiw	r28, 0x00	; 0
  34:	01 f0       	breq	.+0      	; 0x36 <_Z6sockethhjh+0x36>
  36:	80 2f       	mov	r24, r16
  38:	be 01       	movw	r22, r28
  3a:	00 c0       	rjmp	.+0      	; 0x3c <_Z6sockethhjh+0x3c>
  3c:	60 91 00 00 	lds	r22, 0x0000
  40:	70 91 00 00 	lds	r23, 0x0000
  44:	6f 5f       	subi	r22, 0xFF	; 255
  46:	7f 4f       	sbci	r23, 0xFF	; 255
  48:	70 93 00 00 	sts	0x0000, r23
  4c:	60 93 00 00 	sts	0x0000, r22
  50:	80 2f       	mov	r24, r16
  52:	0e 94 00 00 	call	0	; 0x0 <_Z6sockethhjh>
  56:	80 e0       	ldi	r24, 0x00	; 0
  58:	90 e0       	ldi	r25, 0x00	; 0
  5a:	60 2f       	mov	r22, r16
  5c:	41 e0       	ldi	r20, 0x01	; 1
  5e:	0e 94 00 00 	call	0	; 0x0 <_Z6sockethhjh>
  62:	81 e0       	ldi	r24, 0x01	; 1
  64:	df 91       	pop	r29
  66:	cf 91       	pop	r28
  68:	1f 91       	pop	r17
  6a:	0f 91       	pop	r16
  6c:	ff 90       	pop	r15
  6e:	08 95       	ret

Disassembly of section .text._Z8recvfromhPhjS_Pj:

00000000 <_Z8recvfromhPhjS_Pj>:
   0:	6f 92       	push	r6
   2:	7f 92       	push	r7
   4:	8f 92       	push	r8
   6:	9f 92       	push	r9
   8:	bf 92       	push	r11
   a:	cf 92       	push	r12
   c:	df 92       	push	r13
   e:	ef 92       	push	r14
  10:	ff 92       	push	r15
  12:	0f 93       	push	r16
  14:	1f 93       	push	r17
  16:	df 93       	push	r29
  18:	cf 93       	push	r28
  1a:	cd b7       	in	r28, 0x3d	; 61
  1c:	de b7       	in	r29, 0x3e	; 62
  1e:	28 97       	sbiw	r28, 0x08	; 8
  20:	0f b6       	in	r0, 0x3f	; 63
  22:	f8 94       	cli
  24:	de bf       	out	0x3e, r29	; 62
  26:	0f be       	out	0x3f, r0	; 63
  28:	cd bf       	out	0x3d, r28	; 61
  2a:	b8 2e       	mov	r11, r24
  2c:	4b 01       	movw	r8, r22
  2e:	69 01       	movw	r12, r18
  30:	38 01       	movw	r6, r16
  32:	45 2b       	or	r20, r21
  34:	01 f4       	brne	.+0      	; 0x36 <_Z8recvfromhPhjS_Pj+0x36>
  36:	cc 24       	eor	r12, r12
  38:	dd 24       	eor	r13, r13
  3a:	00 c0       	rjmp	.+0      	; 0x3c <_Z8recvfromhPhjS_Pj+0x3c>
  3c:	68 e2       	ldi	r22, 0x28	; 40
  3e:	70 e0       	ldi	r23, 0x00	; 0
  40:	0e 94 00 00 	call	0	; 0x0 <_Z8recvfromhPhjS_Pj>
  44:	18 2f       	mov	r17, r24
  46:	8b 2d       	mov	r24, r11
  48:	69 e2       	ldi	r22, 0x29	; 41
  4a:	70 e0       	ldi	r23, 0x00	; 0
  4c:	0e 94 00 00 	call	0	; 0x0 <_Z8recvfromhPhjS_Pj>
  50:	31 2f       	mov	r19, r17
  52:	20 e0       	ldi	r18, 0x00	; 0
  54:	79 01       	movw	r14, r18
  56:	e8 0e       	add	r14, r24
  58:	f1 1c       	adc	r15, r1
  5a:	8b 2d       	mov	r24, r11
  5c:	60 e0       	ldi	r22, 0x00	; 0
  5e:	70 e0       	ldi	r23, 0x00	; 0
  60:	0e 94 00 00 	call	0	; 0x0 <_Z8recvfromhPhjS_Pj>
  64:	90 e0       	ldi	r25, 0x00	; 0
  66:	87 70       	andi	r24, 0x07	; 7
  68:	90 70       	andi	r25, 0x00	; 0
  6a:	83 30       	cpi	r24, 0x03	; 3
  6c:	91 05       	cpc	r25, r1
  6e:	01 f0       	breq	.+0      	; 0x70 <_Z8recvfromhPhjS_Pj+0x70>
  70:	84 30       	cpi	r24, 0x04	; 4
  72:	91 05       	cpc	r25, r1
  74:	01 f4       	brne	.+0      	; 0x76 <_Z8recvfromhPhjS_Pj+0x76>
  76:	00 c0       	rjmp	.+0      	; 0x78 <_Z8recvfromhPhjS_Pj+0x78>
  78:	02 97       	sbiw	r24, 0x02	; 2
  7a:	01 f0       	breq	.+0      	; 0x7c <_Z8recvfromhPhjS_Pj+0x7c>
  7c:	cc 24       	eor	r12, r12
  7e:	dd 24       	eor	r13, r13
  80:	00 c0       	rjmp	.+0      	; 0x82 <_Z8recvfromhPhjS_Pj+0x82>
  82:	80 e0       	ldi	r24, 0x00	; 0
  84:	90 e0       	ldi	r25, 0x00	; 0
  86:	6b 2d       	mov	r22, r11
  88:	a7 01       	movw	r20, r14
  8a:	9e 01       	movw	r18, r28
  8c:	2f 5f       	subi	r18, 0xFF	; 255
  8e:	3f 4f       	sbci	r19, 0xFF	; 255
  90:	08 e0       	ldi	r16, 0x08	; 8
  92:	10 e0       	ldi	r17, 0x00	; 0
  94:	0e 94 00 00 	call	0	; 0x0 <_Z8recvfromhPhjS_Pj>
  98:	e0 0e       	add	r14, r16
  9a:	f1 1e       	adc	r15, r17
  9c:	89 81       	ldd	r24, Y+1	; 0x01
  9e:	f6 01       	movw	r30, r12
  a0:	80 83       	st	Z, r24
  a2:	8a 81       	ldd	r24, Y+2	; 0x02
  a4:	81 83       	std	Z+1, r24	; 0x01
  a6:	8b 81       	ldd	r24, Y+3	; 0x03
  a8:	82 83       	std	Z+2, r24	; 0x02
  aa:	8c 81       	ldd	r24, Y+4	; 0x04
  ac:	83 83       	std	Z+3, r24	; 0x03
  ae:	9d 81       	ldd	r25, Y+5	; 0x05
  b0:	80 e0       	ldi	r24, 0x00	; 0
  b2:	2e 81       	ldd	r18, Y+6	; 0x06
  b4:	82 0f       	add	r24, r18
  b6:	91 1d       	adc	r25, r1
  b8:	f3 01       	movw	r30, r6
  ba:	91 83       	std	Z+1, r25	; 0x01
  bc:	80 83       	st	Z, r24
  be:	9f 81       	ldd	r25, Y+7	; 0x07
  c0:	80 e0       	ldi	r24, 0x00	; 0
  c2:	28 85       	ldd	r18, Y+8	; 0x08
  c4:	00 c0       	rjmp	.+0      	; 0xc6 <_Z8recvfromhPhjS_Pj+0xc6>
  c6:	80 e0       	ldi	r24, 0x00	; 0
  c8:	90 e0       	ldi	r25, 0x00	; 0
  ca:	6b 2d       	mov	r22, r11
  cc:	a7 01       	movw	r20, r14
  ce:	9e 01       	movw	r18, r28
  d0:	2f 5f       	subi	r18, 0xFF	; 255
  d2:	3f 4f       	sbci	r19, 0xFF	; 255
  d4:	06 e0       	ldi	r16, 0x06	; 6
  d6:	10 e0       	ldi	r17, 0x00	; 0
  d8:	0e 94 00 00 	call	0	; 0x0 <_Z8recvfromhPhjS_Pj>
  dc:	e0 0e       	add	r14, r16
  de:	f1 1e       	adc	r15, r17
  e0:	89 81       	ldd	r24, Y+1	; 0x01
  e2:	f6 01       	movw	r30, r12
  e4:	80 83       	st	Z, r24
  e6:	8a 81       	ldd	r24, Y+2	; 0x02
  e8:	81 83       	std	Z+1, r24	; 0x01
  ea:	8b 81       	ldd	r24, Y+3	; 0x03
  ec:	82 83       	std	Z+2, r24	; 0x02
  ee:	8c 81       	ldd	r24, Y+4	; 0x04
  f0:	83 83       	std	Z+3, r24	; 0x03
  f2:	9d 81       	ldd	r25, Y+5	; 0x05
  f4:	80 e0       	ldi	r24, 0x00	; 0
  f6:	2e 81       	ldd	r18, Y+6	; 0x06
  f8:	6c 01       	movw	r12, r24
  fa:	c2 0e       	add	r12, r18
  fc:	d1 1c       	adc	r13, r1
  fe:	00 c0       	rjmp	.+0      	; 0x100 <_Z8recvfromhPhjS_Pj+0x100>
 100:	80 e0       	ldi	r24, 0x00	; 0
 102:	90 e0       	ldi	r25, 0x00	; 0
 104:	6b 2d       	mov	r22, r11
 106:	a7 01       	movw	r20, r14
 108:	9e 01       	movw	r18, r28
 10a:	2f 5f       	subi	r18, 0xFF	; 255
 10c:	3f 4f       	sbci	r19, 0xFF	; 255
 10e:	02 e0       	ldi	r16, 0x02	; 2
 110:	10 e0       	ldi	r17, 0x00	; 0
 112:	0e 94 00 00 	call	0	; 0x0 <_Z8recvfromhPhjS_Pj>
 116:	e0 0e       	add	r14, r16
 118:	f1 1e       	adc	r15, r17
 11a:	99 81       	ldd	r25, Y+1	; 0x01
 11c:	80 e0       	ldi	r24, 0x00	; 0
 11e:	2a 81       	ldd	r18, Y+2	; 0x02
 120:	c2 2e       	mov	r12, r18
 122:	dd 24       	eor	r13, r13
 124:	2e ef       	ldi	r18, 0xFE	; 254
 126:	3f ef       	ldi	r19, 0xFF	; 255
 128:	c2 0e       	add	r12, r18
 12a:	d3 1e       	adc	r13, r19
 12c:	c8 0e       	add	r12, r24
 12e:	d9 1e       	adc	r13, r25
 130:	80 e0       	ldi	r24, 0x00	; 0
 132:	90 e0       	ldi	r25, 0x00	; 0
 134:	6b 2d       	mov	r22, r11
 136:	a7 01       	movw	r20, r14
 138:	94 01       	movw	r18, r8
 13a:	86 01       	movw	r16, r12
 13c:	0e 94 00 00 	call	0	; 0x0 <_Z8recvfromhPhjS_Pj>
 140:	ec 0c       	add	r14, r12
 142:	fd 1c       	adc	r15, r13
 144:	8b 2d       	mov	r24, r11
 146:	b7 01       	movw	r22, r14
 148:	0e 94 00 00 	call	0	; 0x0 <_Z8recvfromhPhjS_Pj>
 14c:	80 e0       	ldi	r24, 0x00	; 0
 14e:	90 e0       	ldi	r25, 0x00	; 0
 150:	6b 2d       	mov	r22, r11
 152:	40 e4       	ldi	r20, 0x40	; 64
 154:	0e 94 00 00 	call	0	; 0x0 <_Z8recvfromhPhjS_Pj>
 158:	c6 01       	movw	r24, r12
 15a:	28 96       	adiw	r28, 0x08	; 8
 15c:	0f b6       	in	r0, 0x3f	; 63
 15e:	f8 94       	cli
 160:	de bf       	out	0x3e, r29	; 62
 162:	0f be       	out	0x3f, r0	; 63
 164:	cd bf       	out	0x3d, r28	; 61
 166:	cf 91       	pop	r28
 168:	df 91       	pop	r29
 16a:	1f 91       	pop	r17
 16c:	0f 91       	pop	r16
 16e:	ff 90       	pop	r15
 170:	ef 90       	pop	r14
 172:	df 90       	pop	r13
 174:	cf 90       	pop	r12
 176:	bf 90       	pop	r11
 178:	9f 90       	pop	r9
 17a:	8f 90       	pop	r8
 17c:	7f 90       	pop	r7
 17e:	6f 90       	pop	r6
 180:	08 95       	ret

Disassembly of section .text._Z6sendtohPKhjPhj:

00000000 <_Z6sendtohPKhjPhj>:
   0:	cf 92       	push	r12
   2:	df 92       	push	r13
   4:	ff 92       	push	r15
   6:	0f 93       	push	r16
   8:	1f 93       	push	r17
   a:	cf 93       	push	r28
   c:	df 93       	push	r29
   e:	f8 2e       	mov	r15, r24
  10:	6b 01       	movw	r12, r22
  12:	f9 01       	movw	r30, r18
  14:	80 81       	ld	r24, Z
  16:	88 23       	and	r24, r24
  18:	01 f4       	brne	.+0      	; 0x1a <_Z6sendtohPKhjPhj+0x1a>
  1a:	81 81       	ldd	r24, Z+1	; 0x01
  1c:	88 23       	and	r24, r24
  1e:	01 f4       	brne	.+0      	; 0x20 <_Z6sendtohPKhjPhj+0x20>
  20:	82 81       	ldd	r24, Z+2	; 0x02
  22:	88 23       	and	r24, r24
  24:	01 f4       	brne	.+0      	; 0x26 <_Z6sendtohPKhjPhj+0x26>
  26:	83 81       	ldd	r24, Z+3	; 0x03
  28:	88 23       	and	r24, r24
  2a:	01 f4       	brne	.+0      	; 0x2c <_Z6sendtohPKhjPhj+0x2c>
  2c:	00 c0       	rjmp	.+0      	; 0x2e <_Z6sendtohPKhjPhj+0x2e>
  2e:	01 15       	cp	r16, r1
  30:	11 05       	cpc	r17, r1
  32:	01 f4       	brne	.+0      	; 0x34 <_Z6sendtohPKhjPhj+0x34>
  34:	00 c0       	rjmp	.+0      	; 0x36 <_Z6sendtohPKhjPhj+0x36>
  36:	ea 01       	movw	r28, r20
  38:	88 e0       	ldi	r24, 0x08	; 8
  3a:	41 30       	cpi	r20, 0x01	; 1
  3c:	58 07       	cpc	r21, r24
  3e:	00 f0       	brcs	.+0      	; 0x40 <_Z6sendtohPKhjPhj+0x40>
  40:	c0 e0       	ldi	r28, 0x00	; 0
  42:	d8 e0       	ldi	r29, 0x08	; 8
  44:	00 c0       	rjmp	.+0      	; 0x46 <_Z6sendtohPKhjPhj+0x46>
  46:	41 15       	cp	r20, r1
  48:	51 05       	cpc	r21, r1
  4a:	01 f0       	breq	.+0      	; 0x4c <_Z6sendtohPKhjPhj+0x4c>
  4c:	9f 2d       	mov	r25, r15
  4e:	80 e0       	ldi	r24, 0x00	; 0
  50:	84 5f       	subi	r24, 0xF4	; 244
  52:	9b 4f       	sbci	r25, 0xFB	; 251
  54:	bf 01       	movw	r22, r30
  56:	44 e0       	ldi	r20, 0x04	; 4
  58:	50 e0       	ldi	r21, 0x00	; 0
  5a:	0e 94 00 00 	call	0	; 0x0 <_Z6sendtohPKhjPhj>
  5e:	8f 2d       	mov	r24, r15
  60:	b8 01       	movw	r22, r16
  62:	0e 94 00 00 	call	0	; 0x0 <_Z6sendtohPKhjPhj>
  66:	80 e0       	ldi	r24, 0x00	; 0
  68:	90 e0       	ldi	r25, 0x00	; 0
  6a:	6f 2d       	mov	r22, r15
  6c:	a6 01       	movw	r20, r12
  6e:	9e 01       	movw	r18, r28
  70:	0e 94 00 00 	call	0	; 0x0 <_Z6sendtohPKhjPhj>
  74:	80 e0       	ldi	r24, 0x00	; 0
  76:	90 e0       	ldi	r25, 0x00	; 0
  78:	6f 2d       	mov	r22, r15
  7a:	40 e2       	ldi	r20, 0x20	; 32
  7c:	0e 94 00 00 	call	0	; 0x0 <_Z6sendtohPKhjPhj>
  80:	00 c0       	rjmp	.+0      	; 0x82 <_Z6sendtohPKhjPhj+0x82>
  82:	8f 2d       	mov	r24, r15
  84:	62 e0       	ldi	r22, 0x02	; 2
  86:	70 e0       	ldi	r23, 0x00	; 0
  88:	0e 94 00 00 	call	0	; 0x0 <_Z6sendtohPKhjPhj>
  8c:	83 ff       	sbrs	r24, 3
  8e:	00 c0       	rjmp	.+0      	; 0x90 <_Z6sendtohPKhjPhj+0x90>
  90:	8f 2d       	mov	r24, r15
  92:	62 e0       	ldi	r22, 0x02	; 2
  94:	70 e0       	ldi	r23, 0x00	; 0
  96:	48 e1       	ldi	r20, 0x18	; 24
  98:	0e 94 00 00 	call	0	; 0x0 <_Z6sendtohPKhjPhj>
  9c:	00 c0       	rjmp	.+0      	; 0x9e <_Z6sendtohPKhjPhj+0x9e>
  9e:	8f 2d       	mov	r24, r15
  a0:	62 e0       	ldi	r22, 0x02	; 2
  a2:	70 e0       	ldi	r23, 0x00	; 0
  a4:	0e 94 00 00 	call	0	; 0x0 <_Z6sendtohPKhjPhj>
  a8:	84 ff       	sbrs	r24, 4
  aa:	00 c0       	rjmp	.+0      	; 0xac <_Z6sendtohPKhjPhj+0xac>
  ac:	8f 2d       	mov	r24, r15
  ae:	62 e0       	ldi	r22, 0x02	; 2
  b0:	70 e0       	ldi	r23, 0x00	; 0
  b2:	40 e1       	ldi	r20, 0x10	; 16
  b4:	0e 94 00 00 	call	0	; 0x0 <_Z6sendtohPKhjPhj>
  b8:	00 c0       	rjmp	.+0      	; 0xba <_Z6sendtohPKhjPhj+0xba>
  ba:	c0 e0       	ldi	r28, 0x00	; 0
  bc:	d0 e0       	ldi	r29, 0x00	; 0
  be:	ce 01       	movw	r24, r28
  c0:	df 91       	pop	r29
  c2:	cf 91       	pop	r28
  c4:	1f 91       	pop	r17
  c6:	0f 91       	pop	r16
  c8:	ff 90       	pop	r15
  ca:	df 90       	pop	r13
  cc:	cf 90       	pop	r12
  ce:	08 95       	ret

Disassembly of section .text._Z7connecthPhj:

00000000 <_Z7connecthPhj>:
   0:	1f 93       	push	r17
   2:	cf 93       	push	r28
   4:	df 93       	push	r29
   6:	18 2f       	mov	r17, r24
   8:	fb 01       	movw	r30, r22
   a:	ea 01       	movw	r28, r20
   c:	80 81       	ld	r24, Z
   e:	8f 3f       	cpi	r24, 0xFF	; 255
  10:	01 f4       	brne	.+0      	; 0x12 <_Z7connecthPhj+0x12>
  12:	81 81       	ldd	r24, Z+1	; 0x01
  14:	8f 3f       	cpi	r24, 0xFF	; 255
  16:	01 f4       	brne	.+0      	; 0x18 <_Z7connecthPhj+0x18>
  18:	82 81       	ldd	r24, Z+2	; 0x02
  1a:	8f 3f       	cpi	r24, 0xFF	; 255
  1c:	01 f4       	brne	.+0      	; 0x1e <_Z7connecthPhj+0x1e>
  1e:	83 81       	ldd	r24, Z+3	; 0x03
  20:	8f 3f       	cpi	r24, 0xFF	; 255
  22:	01 f4       	brne	.+0      	; 0x24 <_Z7connecthPhj+0x24>
  24:	00 c0       	rjmp	.+0      	; 0x26 <_Z7connecthPhj+0x26>
  26:	88 23       	and	r24, r24
  28:	01 f4       	brne	.+0      	; 0x2a <_Z7connecthPhj+0x2a>
  2a:	81 81       	ldd	r24, Z+1	; 0x01
  2c:	88 23       	and	r24, r24
  2e:	01 f4       	brne	.+0      	; 0x30 <_Z7connecthPhj+0x30>
  30:	82 81       	ldd	r24, Z+2	; 0x02
  32:	88 23       	and	r24, r24
  34:	01 f4       	brne	.+0      	; 0x36 <_Z7connecthPhj+0x36>
  36:	83 81       	ldd	r24, Z+3	; 0x03
  38:	88 23       	and	r24, r24
  3a:	01 f0       	breq	.+0      	; 0x3c <_Z7connecthPhj+0x3c>
  3c:	20 97       	sbiw	r28, 0x00	; 0
  3e:	01 f0       	breq	.+0      	; 0x40 <_Z7connecthPhj+0x40>
  40:	91 2f       	mov	r25, r17
  42:	80 e0       	ldi	r24, 0x00	; 0
  44:	84 5f       	subi	r24, 0xF4	; 244
  46:	9b 4f       	sbci	r25, 0xFB	; 251
  48:	bf 01       	movw	r22, r30
  4a:	44 e0       	ldi	r20, 0x04	; 4
  4c:	50 e0       	ldi	r21, 0x00	; 0
  4e:	0e 94 00 00 	call	0	; 0x0 <_Z7connecthPhj>
  52:	81 2f       	mov	r24, r17
  54:	be 01       	movw	r22, r28
  56:	0e 94 00 00 	call	0	; 0x0 <_Z7connecthPhj>
  5a:	80 e0       	ldi	r24, 0x00	; 0
  5c:	90 e0       	ldi	r25, 0x00	; 0
  5e:	61 2f       	mov	r22, r17
  60:	44 e0       	ldi	r20, 0x04	; 4
  62:	0e 94 00 00 	call	0	; 0x0 <_Z7connecthPhj>
  66:	81 e0       	ldi	r24, 0x01	; 1
  68:	00 c0       	rjmp	.+0      	; 0x6a <_Z7connecthPhj+0x6a>
  6a:	80 e0       	ldi	r24, 0x00	; 0
  6c:	df 91       	pop	r29
  6e:	cf 91       	pop	r28
  70:	1f 91       	pop	r17
  72:	08 95       	ret

Disassembly of section .text._Z4peekhPh:

00000000 <_Z4peekhPh>:
   0:	0f 93       	push	r16
   2:	28 2f       	mov	r18, r24
   4:	ab 01       	movw	r20, r22
   6:	80 e0       	ldi	r24, 0x00	; 0
   8:	90 e0       	ldi	r25, 0x00	; 0
   a:	62 2f       	mov	r22, r18
   c:	21 e0       	ldi	r18, 0x01	; 1
   e:	30 e0       	ldi	r19, 0x00	; 0
  10:	01 e0       	ldi	r16, 0x01	; 1
  12:	0e 94 00 00 	call	0	; 0x0 <_Z4peekhPh>
  16:	81 e0       	ldi	r24, 0x01	; 1
  18:	90 e0       	ldi	r25, 0x00	; 0
  1a:	0f 91       	pop	r16
  1c:	08 95       	ret

Disassembly of section .text._Z4recvhPhj:

00000000 <_Z4recvhPhj>:
   0:	0f 93       	push	r16
   2:	1f 93       	push	r17
   4:	cf 93       	push	r28
   6:	df 93       	push	r29
   8:	18 2f       	mov	r17, r24
   a:	9b 01       	movw	r18, r22
   c:	ea 01       	movw	r28, r20
   e:	41 15       	cp	r20, r1
  10:	51 05       	cpc	r21, r1
  12:	01 f4       	brne	.+0      	; 0x14 <_Z4recvhPhj+0x14>
  14:	20 e0       	ldi	r18, 0x00	; 0
  16:	30 e0       	ldi	r19, 0x00	; 0
  18:	00 c0       	rjmp	.+0      	; 0x1a <_Z4recvhPhj+0x1a>
  1a:	80 e0       	ldi	r24, 0x00	; 0
  1c:	90 e0       	ldi	r25, 0x00	; 0
  1e:	61 2f       	mov	r22, r17
  20:	a9 01       	movw	r20, r18
  22:	9e 01       	movw	r18, r28
  24:	00 e0       	ldi	r16, 0x00	; 0
  26:	0e 94 00 00 	call	0	; 0x0 <_Z4recvhPhj>
  2a:	80 e0       	ldi	r24, 0x00	; 0
  2c:	90 e0       	ldi	r25, 0x00	; 0
  2e:	61 2f       	mov	r22, r17
  30:	40 e4       	ldi	r20, 0x40	; 64
  32:	0e 94 00 00 	call	0	; 0x0 <_Z4recvhPhj>
  36:	9e 01       	movw	r18, r28
  38:	c9 01       	movw	r24, r18
  3a:	df 91       	pop	r29
  3c:	cf 91       	pop	r28
  3e:	1f 91       	pop	r17
  40:	0f 91       	pop	r16
  42:	08 95       	ret

Disassembly of section .text._Z4sendhPKhj:

00000000 <_Z4sendhPKhj>:
   0:	cf 92       	push	r12
   2:	df 92       	push	r13
   4:	ef 92       	push	r14
   6:	ff 92       	push	r15
   8:	1f 93       	push	r17
   a:	cf 93       	push	r28
   c:	df 93       	push	r29
   e:	18 2f       	mov	r17, r24
  10:	6b 01       	movw	r12, r22
  12:	ea 01       	movw	r28, r20
  14:	88 e0       	ldi	r24, 0x08	; 8
  16:	41 30       	cpi	r20, 0x01	; 1
  18:	58 07       	cpc	r21, r24
  1a:	00 f0       	brcs	.+0      	; 0x1c <_Z4sendhPKhj+0x1c>
  1c:	c0 e0       	ldi	r28, 0x00	; 0
  1e:	d8 e0       	ldi	r29, 0x08	; 8
  20:	80 e0       	ldi	r24, 0x00	; 0
  22:	90 e0       	ldi	r25, 0x00	; 0
  24:	61 2f       	mov	r22, r17
  26:	0e 94 00 00 	call	0	; 0x0 <_Z4sendhPKhj>
  2a:	7c 01       	movw	r14, r24
  2c:	81 2f       	mov	r24, r17
  2e:	63 e0       	ldi	r22, 0x03	; 3
  30:	70 e0       	ldi	r23, 0x00	; 0
  32:	0e 94 00 00 	call	0	; 0x0 <_Z4sendhPKhj>
  36:	87 31       	cpi	r24, 0x17	; 23
  38:	01 f0       	breq	.+0      	; 0x3a <_Z4sendhPKhj+0x3a>
  3a:	8c 31       	cpi	r24, 0x1C	; 28
  3c:	01 f0       	breq	.+0      	; 0x3e <_Z4sendhPKhj+0x3e>
  3e:	c0 e0       	ldi	r28, 0x00	; 0
  40:	d0 e0       	ldi	r29, 0x00	; 0
  42:	00 c0       	rjmp	.+0      	; 0x44 <_Z4sendhPKhj+0x44>
  44:	ec 16       	cp	r14, r28
  46:	fd 06       	cpc	r15, r29
  48:	00 f0       	brcs	.+0      	; 0x4a <_Z4sendhPKhj+0x4a>
  4a:	80 e0       	ldi	r24, 0x00	; 0
  4c:	90 e0       	ldi	r25, 0x00	; 0
  4e:	61 2f       	mov	r22, r17
  50:	a6 01       	movw	r20, r12
  52:	9e 01       	movw	r18, r28
  54:	0e 94 00 00 	call	0	; 0x0 <_Z4sendhPKhj>
  58:	80 e0       	ldi	r24, 0x00	; 0
  5a:	90 e0       	ldi	r25, 0x00	; 0
  5c:	61 2f       	mov	r22, r17
  5e:	40 e2       	ldi	r20, 0x20	; 32
  60:	0e 94 00 00 	call	0	; 0x0 <_Z4sendhPKhj>
  64:	00 c0       	rjmp	.+0      	; 0x66 <_Z4sendhPKhj+0x66>
  66:	81 2f       	mov	r24, r17
  68:	63 e0       	ldi	r22, 0x03	; 3
  6a:	70 e0       	ldi	r23, 0x00	; 0
  6c:	0e 94 00 00 	call	0	; 0x0 <_Z4sendhPKhj>
  70:	88 23       	and	r24, r24
  72:	01 f4       	brne	.+0      	; 0x74 <_Z4sendhPKhj+0x74>
  74:	81 2f       	mov	r24, r17
  76:	0e 94 00 00 	call	0	; 0x0 <_Z4sendhPKhj>
  7a:	c0 e0       	ldi	r28, 0x00	; 0
  7c:	d0 e0       	ldi	r29, 0x00	; 0
  7e:	00 c0       	rjmp	.+0      	; 0x80 <_Z4sendhPKhj+0x80>
  80:	81 2f       	mov	r24, r17
  82:	62 e0       	ldi	r22, 0x02	; 2
  84:	70 e0       	ldi	r23, 0x00	; 0
  86:	0e 94 00 00 	call	0	; 0x0 <_Z4sendhPKhj>
  8a:	84 ff       	sbrs	r24, 4
  8c:	00 c0       	rjmp	.+0      	; 0x8e <_Z4sendhPKhj+0x8e>
  8e:	81 2f       	mov	r24, r17
  90:	62 e0       	ldi	r22, 0x02	; 2
  92:	70 e0       	ldi	r23, 0x00	; 0
  94:	40 e1       	ldi	r20, 0x10	; 16
  96:	0e 94 00 00 	call	0	; 0x0 <_Z4sendhPKhj>
  9a:	ce 01       	movw	r24, r28
  9c:	df 91       	pop	r29
  9e:	cf 91       	pop	r28
  a0:	1f 91       	pop	r17
  a2:	ff 90       	pop	r15
  a4:	ef 90       	pop	r14
  a6:	df 90       	pop	r13
  a8:	cf 90       	pop	r12
  aa:	08 95       	ret

w5100.o:     file format elf32-avr

Sections:
Idx Name          Size      VMA       LMA       File off  Algn
  0 .text         00000000  00000000  00000000  00000034  2**0
                  CONTENTS, ALLOC, LOAD, READONLY, CODE
  1 .data         00000000  00000000  00000000  00000034  2**0
                  CONTENTS, ALLOC, LOAD, DATA
  2 .bss          00000000  00000000  00000000  00000034  2**0
                  ALLOC
  3 .text._ZN10W5100Class5writeEjh 00000034  00000000  00000000  00000034  2**0
                  CONTENTS, ALLOC, LOAD, RELOC, READONLY, CODE
  4 .text._ZN10W5100Class5writeEjPhj 0000004e  00000000  00000000  00000068  2**0
                  CONTENTS, ALLOC, LOAD, RELOC, READONLY, CODE
  5 .text._ZN10W5100Class4readEj 00000032  00000000  00000000  000000b6  2**0
                  CONTENTS, ALLOC, LOAD, RELOC, READONLY, CODE
  6 .text._ZN10W5100Class6readSnEhj 00000012  00000000  00000000  000000e8  2**0
                  CONTENTS, ALLOC, LOAD, RELOC, READONLY, CODE
  7 .text._ZN10W5100Class20send_data_processingEhPhj 000000cc  00000000  00000000  000000fa  2**0
                  CONTENTS, ALLOC, LOAD, RELOC, READONLY, CODE
  8 .text._ZN10W5100Class12readSnRX_RSREh 0000002c  00000000  00000000  000001c6  2**0
                  CONTENTS, ALLOC, LOAD, RELOC, READONLY, CODE
  9 .text._ZN10W5100Class17getRXReceivedSizeEh 00000038  00000000  00000000  000001f2  2**0
                  CONTENTS, ALLOC, LOAD, RELOC, READONLY, CODE
 10 .text._ZN10W5100Class12readSnTX_FSREh 0000002c  00000000  00000000  0000022a  2**0
                  CONTENTS, ALLOC, LOAD, RELOC, READONLY, CODE
 11 .text._ZN10W5100Class13getTXFreeSizeEh 00000038  00000000  00000000  00000256  2**0
                  CONTENTS, ALLOC, LOAD, RELOC, READONLY, CODE
 12 .text._ZN10W5100Class4readEjPhj 0000004e  00000000  00000000  0000028e  2**0
                  CONTENTS, ALLOC, LOAD, RELOC, READONLY, CODE
 13 .text._ZN10W5100Class9read_dataEhPVhS1_j 00000076  00000000  00000000  000002dc  2**0
                  CONTENTS, ALLOC, LOAD, RELOC, READONLY, CODE
 14 .text._ZN10W5100Class20recv_data_processingEhPhjh 00000094  00000000  00000000  00000352  2**0
                  CONTENTS, ALLOC, LOAD, RELOC, READONLY, CODE
 15 .text._ZN10W5100Class9execCmdSnEh7SockCMD 00000024  00000000  00000000  000003e6  2**0
                  CONTENTS, ALLOC, LOAD, RELOC, READONLY, CODE
 16 .text._ZN10W5100Class4initEv 00000064  00000000  00000000  0000040a  2**0
                  CONTENTS, ALLOC, LOAD, RELOC, READONLY, CODE
 17 .bss.W5100    00000010  00000000  00000000  0000046e  2**0
                  ALLOC

Disassembly of section .text._ZN10W5100Class5writeEjh:

00000000 <_ZN10W5100Class5writeEjh>:
   0:	28 2f       	mov	r18, r24
   2:	2a 98       	cbi	0x05, 2	; 5
   4:	80 ef       	ldi	r24, 0xF0	; 240
   6:	8e bd       	out	0x2e, r24	; 46
   8:	0d b4       	in	r0, 0x2d	; 45
   a:	07 fe       	sbrs	r0, 7
   c:	00 c0       	rjmp	.+0      	; 0xe <_ZN10W5100Class5writeEjh+0xe>
   e:	8e b5       	in	r24, 0x2e	; 46
  10:	9e bd       	out	0x2e, r25	; 46
  12:	0d b4       	in	r0, 0x2d	; 45
  14:	07 fe       	sbrs	r0, 7
  16:	00 c0       	rjmp	.+0      	; 0x18 <_ZN10W5100Class5writeEjh+0x18>
  18:	8e b5       	in	r24, 0x2e	; 46
  1a:	2e bd       	out	0x2e, r18	; 46
  1c:	0d b4       	in	r0, 0x2d	; 45
  1e:	07 fe       	sbrs	r0, 7
  20:	00 c0       	rjmp	.+0      	; 0x22 <_ZN10W5100Class5writeEjh+0x22>
  22:	8e b5       	in	r24, 0x2e	; 46
  24:	6e bd       	out	0x2e, r22	; 46
  26:	0d b4       	in	r0, 0x2d	; 45
  28:	07 fe       	sbrs	r0, 7
  2a:	00 c0       	rjmp	.+0      	; 0x2c <_ZN10W5100Class5writeEjh+0x2c>
  2c:	8e b5       	in	r24, 0x2e	; 46
  2e:	2a 9a       	sbi	0x05, 2	; 5
  30:	81 e0       	ldi	r24, 0x01	; 1
  32:	08 95       	ret

Disassembly of section .text._ZN10W5100Class5writeEjPhj:

00000000 <_ZN10W5100Class5writeEjPhj>:
   0:	dc 01       	movw	r26, r24
   2:	20 e0       	ldi	r18, 0x00	; 0
   4:	30 e0       	ldi	r19, 0x00	; 0
   6:	90 ef       	ldi	r25, 0xF0	; 240
   8:	00 c0       	rjmp	.+0      	; 0xa <_ZN10W5100Class5writeEjPhj+0xa>
   a:	2a 98       	cbi	0x05, 2	; 5
   c:	9e bd       	out	0x2e, r25	; 46
   e:	0d b4       	in	r0, 0x2d	; 45
  10:	07 fe       	sbrs	r0, 7
  12:	00 c0       	rjmp	.+0      	; 0x14 <_ZN10W5100Class5writeEjPhj+0x14>
  14:	8e b5       	in	r24, 0x2e	; 46
  16:	be bd       	out	0x2e, r27	; 46
  18:	0d b4       	in	r0, 0x2d	; 45
  1a:	07 fe       	sbrs	r0, 7
  1c:	00 c0       	rjmp	.+0      	; 0x1e <_ZN10W5100Class5writeEjPhj+0x1e>
  1e:	8e b5       	in	r24, 0x2e	; 46
  20:	ae bd       	out	0x2e, r26	; 46
  22:	0d b4       	in	r0, 0x2d	; 45
  24:	07 fe       	sbrs	r0, 7
  26:	00 c0       	rjmp	.+0      	; 0x28 <_ZN10W5100Class5writeEjPhj+0x28>
  28:	8e b5       	in	r24, 0x2e	; 46
  2a:	fb 01       	movw	r30, r22
  2c:	e2 0f       	add	r30, r18
  2e:	f3 1f       	adc	r31, r19
  30:	80 81       	ld	r24, Z
  32:	8e bd       	out	0x2e, r24	; 46
  34:	0d b4       	in	r0, 0x2d	; 45
  36:	07 fe       	sbrs	r0, 7
  38:	00 c0       	rjmp	.+0      	; 0x3a <_ZN10W5100Class5writeEjPhj+0x3a>
  3a:	11 96       	adiw	r26, 0x01	; 1
  3c:	8e b5       	in	r24, 0x2e	; 46
  3e:	2a 9a       	sbi	0x05, 2	; 5
  40:	2f 5f       	subi	r18, 0xFF	; 255
  42:	3f 4f       	sbci	r19, 0xFF	; 255
  44:	24 17       	cp	r18, r20
  46:	35 07       	cpc	r19, r21
  48:	00 f0       	brcs	.+0      	; 0x4a <_ZN10W5100Class5writeEjPhj+0x4a>
  4a:	ca 01       	movw	r24, r20
  4c:	08 95       	ret

Disassembly of section .text._ZN10W5100Class4readEj:

00000000 <_ZN10W5100Class4readEj>:
   0:	28 2f       	mov	r18, r24
   2:	2a 98       	cbi	0x05, 2	; 5
   4:	8f e0       	ldi	r24, 0x0F	; 15
   6:	8e bd       	out	0x2e, r24	; 46
   8:	0d b4       	in	r0, 0x2d	; 45
   a:	07 fe       	sbrs	r0, 7
   c:	00 c0       	rjmp	.+0      	; 0xe <_ZN10W5100Class4readEj+0xe>
   e:	8e b5       	in	r24, 0x2e	; 46
  10:	9e bd       	out	0x2e, r25	; 46
  12:	0d b4       	in	r0, 0x2d	; 45
  14:	07 fe       	sbrs	r0, 7
  16:	00 c0       	rjmp	.+0      	; 0x18 <_ZN10W5100Class4readEj+0x18>
  18:	8e b5       	in	r24, 0x2e	; 46
  1a:	2e bd       	out	0x2e, r18	; 46
  1c:	0d b4       	in	r0, 0x2d	; 45
  1e:	07 fe       	sbrs	r0, 7
  20:	00 c0       	rjmp	.+0      	; 0x22 <_ZN10W5100Class4readEj+0x22>
  22:	8e b5       	in	r24, 0x2e	; 46
  24:	1e bc       	out	0x2e, r1	; 46
  26:	0d b4       	in	r0, 0x2d	; 45
  28:	07 fe       	sbrs	r0, 7
  2a:	00 c0       	rjmp	.+0      	; 0x2c <_ZN10W5100Class4readEj+0x2c>
  2c:	8e b5       	in	r24, 0x2e	; 46
  2e:	2a 9a       	sbi	0x05, 2	; 5
  30:	08 95       	ret

Disassembly of section .text._ZN10W5100Class6readSnEhj:

00000000 <_ZN10W5100Class6readSnEhj>:
   0:	90 e0       	ldi	r25, 0x00	; 0
   2:	04 96       	adiw	r24, 0x04	; 4
   4:	98 2f       	mov	r25, r24
   6:	88 27       	eor	r24, r24
   8:	86 0f       	add	r24, r22
   a:	97 1f       	adc	r25, r23
   c:	0e 94 00 00 	call	0	; 0x0 <_ZN10W5100Class6readSnEhj>
  10:	08 95       	ret

Disassembly of section .text._ZN10W5100Class20send_data_processingEhPhj:

00000000 <_ZN10W5100Class20send_data_processingEhPhj>:
   0:	8f 92       	push	r8
   2:	9f 92       	push	r9
   4:	bf 92       	push	r11
   6:	cf 92       	push	r12
   8:	df 92       	push	r13
   a:	ef 92       	push	r14
   c:	ff 92       	push	r15
   e:	0f 93       	push	r16
  10:	1f 93       	push	r17
  12:	cf 93       	push	r28
  14:	df 93       	push	r29
  16:	ec 01       	movw	r28, r24
  18:	b6 2e       	mov	r11, r22
  1a:	6a 01       	movw	r12, r20
  1c:	79 01       	movw	r14, r18
  1e:	86 2f       	mov	r24, r22
  20:	64 e2       	ldi	r22, 0x24	; 36
  22:	70 e0       	ldi	r23, 0x00	; 0
  24:	0e 94 00 00 	call	0	; 0x0 <_ZN10W5100Class20send_data_processingEhPhj>
  28:	18 2f       	mov	r17, r24
  2a:	8b 2d       	mov	r24, r11
  2c:	65 e2       	ldi	r22, 0x25	; 37
  2e:	70 e0       	ldi	r23, 0x00	; 0
  30:	0e 94 00 00 	call	0	; 0x0 <_ZN10W5100Class20send_data_processingEhPhj>
  34:	31 2f       	mov	r19, r17
  36:	20 e0       	ldi	r18, 0x00	; 0
  38:	49 01       	movw	r8, r18
  3a:	88 0e       	add	r8, r24
  3c:	91 1c       	adc	r9, r1
  3e:	a4 01       	movw	r20, r8
  40:	57 70       	andi	r21, 0x07	; 7
  42:	8b 2d       	mov	r24, r11
  44:	90 e0       	ldi	r25, 0x00	; 0
  46:	88 0f       	add	r24, r24
  48:	99 1f       	adc	r25, r25
  4a:	c8 0f       	add	r28, r24
  4c:	d9 1f       	adc	r29, r25
  4e:	28 81       	ld	r18, Y
  50:	39 81       	ldd	r19, Y+1	; 0x01
  52:	24 0f       	add	r18, r20
  54:	35 1f       	adc	r19, r21
  56:	ca 01       	movw	r24, r20
  58:	8e 0d       	add	r24, r14
  5a:	9f 1d       	adc	r25, r15
  5c:	81 50       	subi	r24, 0x01	; 1
  5e:	98 40       	sbci	r25, 0x08	; 8
  60:	00 f0       	brcs	.+0      	; 0x62 <_ZN10W5100Class20send_data_processingEhPhj+0x62>
  62:	00 e0       	ldi	r16, 0x00	; 0
  64:	18 e0       	ldi	r17, 0x08	; 8
  66:	04 1b       	sub	r16, r20
  68:	15 0b       	sbc	r17, r21
  6a:	c9 01       	movw	r24, r18
  6c:	b6 01       	movw	r22, r12
  6e:	a8 01       	movw	r20, r16
  70:	0e 94 00 00 	call	0	; 0x0 <_ZN10W5100Class20send_data_processingEhPhj>
  74:	a7 01       	movw	r20, r14
  76:	40 1b       	sub	r20, r16
  78:	51 0b       	sbc	r21, r17
  7a:	88 81       	ld	r24, Y
  7c:	99 81       	ldd	r25, Y+1	; 0x01
  7e:	0c 0d       	add	r16, r12
  80:	1d 1d       	adc	r17, r13
  82:	b8 01       	movw	r22, r16
  84:	00 c0       	rjmp	.+0      	; 0x86 <_ZN10W5100Class20send_data_processingEhPhj+0x86>
  86:	c9 01       	movw	r24, r18
  88:	b6 01       	movw	r22, r12
  8a:	a7 01       	movw	r20, r14
  8c:	0e 94 00 00 	call	0	; 0x0 <_ZN10W5100Class20send_data_processingEhPhj>
  90:	e8 0c       	add	r14, r8
  92:	f9 1c       	adc	r15, r9
  94:	0b 2d       	mov	r16, r11
  96:	10 e0       	ldi	r17, 0x00	; 0
  98:	0c 5f       	subi	r16, 0xFC	; 252
  9a:	1f 4f       	sbci	r17, 0xFF	; 255
  9c:	10 2f       	mov	r17, r16
  9e:	00 27       	eor	r16, r16
  a0:	c8 01       	movw	r24, r16
  a2:	84 96       	adiw	r24, 0x24	; 36
  a4:	6f 2d       	mov	r22, r15
  a6:	0e 94 00 00 	call	0	; 0x0 <_ZN10W5100Class20send_data_processingEhPhj>
  aa:	c8 01       	movw	r24, r16
  ac:	85 96       	adiw	r24, 0x25	; 37
  ae:	6e 2d       	mov	r22, r14
  b0:	0e 94 00 00 	call	0	; 0x0 <_ZN10W5100Class20send_data_processingEhPhj>
  b4:	df 91       	pop	r29
  b6:	cf 91       	pop	r28
  b8:	1f 91       	pop	r17
  ba:	0f 91       	pop	r16
  bc:	ff 90       	pop	r15
  be:	ef 90       	pop	r14
  c0:	df 90       	pop	r13
  c2:	cf 90       	pop	r12
  c4:	bf 90       	pop	r11
  c6:	9f 90       	pop	r9
  c8:	8f 90       	pop	r8
  ca:	08 95       	ret

Disassembly of section .text._ZN10W5100Class12readSnRX_RSREh:

00000000 <_ZN10W5100Class12readSnRX_RSREh>:
   0:	ff 92       	push	r15
   2:	0f 93       	push	r16
   4:	1f 93       	push	r17
   6:	f8 2e       	mov	r15, r24
   8:	66 e2       	ldi	r22, 0x26	; 38
   a:	70 e0       	ldi	r23, 0x00	; 0
   c:	0e 94 00 00 	call	0	; 0x0 <_ZN10W5100Class12readSnRX_RSREh>
  10:	18 2f       	mov	r17, r24
  12:	00 e0       	ldi	r16, 0x00	; 0
  14:	8f 2d       	mov	r24, r15
  16:	67 e2       	ldi	r22, 0x27	; 39
  18:	70 e0       	ldi	r23, 0x00	; 0
  1a:	0e 94 00 00 	call	0	; 0x0 <_ZN10W5100Class12readSnRX_RSREh>
  1e:	08 0f       	add	r16, r24
  20:	11 1d       	adc	r17, r1
  22:	c8 01       	movw	r24, r16
  24:	1f 91       	pop	r17
  26:	0f 91       	pop	r16
  28:	ff 90       	pop	r15
  2a:	08 95       	ret

Disassembly of section .text._ZN10W5100Class17getRXReceivedSizeEh:

00000000 <_ZN10W5100Class17getRXReceivedSizeEh>:
   0:	ff 92       	push	r15
   2:	0f 93       	push	r16
   4:	1f 93       	push	r17
   6:	cf 93       	push	r28
   8:	df 93       	push	r29
   a:	f6 2e       	mov	r15, r22
   c:	c0 e0       	ldi	r28, 0x00	; 0
   e:	d0 e0       	ldi	r29, 0x00	; 0
  10:	8f 2d       	mov	r24, r15
  12:	0e 94 00 00 	call	0	; 0x0 <_ZN10W5100Class17getRXReceivedSizeEh>
  16:	8c 01       	movw	r16, r24
  18:	00 97       	sbiw	r24, 0x00	; 0
  1a:	01 f0       	breq	.+0      	; 0x1c <_ZN10W5100Class17getRXReceivedSizeEh+0x1c>
  1c:	8f 2d       	mov	r24, r15
  1e:	0e 94 00 00 	call	0	; 0x0 <_ZN10W5100Class17getRXReceivedSizeEh>
  22:	ec 01       	movw	r28, r24
  24:	c0 17       	cp	r28, r16
  26:	d1 07       	cpc	r29, r17
  28:	01 f4       	brne	.+0      	; 0x2a <_ZN10W5100Class17getRXReceivedSizeEh+0x2a>
  2a:	ce 01       	movw	r24, r28
  2c:	df 91       	pop	r29
  2e:	cf 91       	pop	r28
  30:	1f 91       	pop	r17
  32:	0f 91       	pop	r16
  34:	ff 90       	pop	r15
  36:	08 95       	ret

Disassembly of section .text._ZN10W5100Class12readSnTX_FSREh:

00000000 <_ZN10W5100Class12readSnTX_FSREh>:
   0:	ff 92       	push	r15
   2:	0f 93       	push	r16
   4:	1f 93       	push	r17
   6:	f8 2e       	mov	r15, r24
   8:	60 e2       	ldi	r22, 0x20	; 32
   a:	70 e0       	ldi	r23, 0x00	; 0
   c:	0e 94 00 00 	call	0	; 0x0 <_ZN10W5100Class12readSnTX_FSREh>
  10:	18 2f       	mov	r17, r24
  12:	00 e0       	ldi	r16, 0x00	; 0
  14:	8f 2d       	mov	r24, r15
  16:	61 e2       	ldi	r22, 0x21	; 33
  18:	70 e0       	ldi	r23, 0x00	; 0
  1a:	0e 94 00 00 	call	0	; 0x0 <_ZN10W5100Class12readSnTX_FSREh>
  1e:	08 0f       	add	r16, r24
  20:	11 1d       	adc	r17, r1
  22:	c8 01       	movw	r24, r16
  24:	1f 91       	pop	r17
  26:	0f 91       	pop	r16
  28:	ff 90       	pop	r15
  2a:	08 95       	ret

Disassembly of section .text._ZN10W5100Class13getTXFreeSizeEh:

00000000 <_ZN10W5100Class13getTXFreeSizeEh>:
   0:	ff 92       	push	r15
   2:	0f 93       	push	r16
   4:	1f 93       	push	r17
   6:	cf 93       	push	r28
   8:	df 93       	push	r29
   a:	f6 2e       	mov	r15, r22
   c:	c0 e0       	ldi	r28, 0x00	; 0
   e:	d0 e0       	ldi	r29, 0x00	; 0
  10:	8f 2d       	mov	r24, r15
  12:	0e 94 00 00 	call	0	; 0x0 <_ZN10W5100Class13getTXFreeSizeEh>
  16:	8c 01       	movw	r16, r24
  18:	00 97       	sbiw	r24, 0x00	; 0
  1a:	01 f0       	breq	.+0      	; 0x1c <_ZN10W5100Class13getTXFreeSizeEh+0x1c>
  1c:	8f 2d       	mov	r24, r15
  1e:	0e 94 00 00 	call	0	; 0x0 <_ZN10W5100Class13getTXFreeSizeEh>
  22:	ec 01       	movw	r28, r24
  24:	c0 17       	cp	r28, r16
  26:	d1 07       	cpc	r29, r17
  28:	01 f4       	brne	.+0      	; 0x2a <_ZN10W5100Class13getTXFreeSizeEh+0x2a>
  2a:	ce 01       	movw	r24, r28
  2c:	df 91       	pop	r29
  2e:	cf 91       	pop	r28
  30:	1f 91       	pop	r17
  32:	0f 91       	pop	r16
  34:	ff 90       	pop	r15
  36:	08 95       	ret

Disassembly of section .text._ZN10W5100Class4readEjPhj:

00000000 <_ZN10W5100Class4readEjPhj>:
   0:	dc 01       	movw	r26, r24
   2:	20 e0       	ldi	r18, 0x00	; 0
   4:	30 e0       	ldi	r19, 0x00	; 0
   6:	9f e0       	ldi	r25, 0x0F	; 15
   8:	00 c0       	rjmp	.+0      	; 0xa <_ZN10W5100Class4readEjPhj+0xa>
   a:	2a 98       	cbi	0x05, 2	; 5
   c:	9e bd       	out	0x2e, r25	; 46
   e:	0d b4       	in	r0, 0x2d	; 45
  10:	07 fe       	sbrs	r0, 7
  12:	00 c0       	rjmp	.+0      	; 0x14 <_ZN10W5100Class4readEjPhj+0x14>
  14:	8e b5       	in	r24, 0x2e	; 46
  16:	be bd       	out	0x2e, r27	; 46
  18:	0d b4       	in	r0, 0x2d	; 45
  1a:	07 fe       	sbrs	r0, 7
  1c:	00 c0       	rjmp	.+0      	; 0x1e <_ZN10W5100Class4readEjPhj+0x1e>
  1e:	8e b5       	in	r24, 0x2e	; 46
  20:	ae bd       	out	0x2e, r26	; 46
  22:	0d b4       	in	r0, 0x2d	; 45
  24:	07 fe       	sbrs	r0, 7
  26:	00 c0       	rjmp	.+0      	; 0x28 <_ZN10W5100Class4readEjPhj+0x28>
  28:	8e b5       	in	r24, 0x2e	; 46
  2a:	1e bc       	out	0x2e, r1	; 46
  2c:	0d b4       	in	r0, 0x2d	; 45
  2e:	07 fe       	sbrs	r0, 7
  30:	00 c0       	rjmp	.+0      	; 0x32 <_ZN10W5100Class4readEjPhj+0x32>
  32:	11 96       	adiw	r26, 0x01	; 1
  34:	8e b5       	in	r24, 0x2e	; 46
  36:	fb 01       	movw	r30, r22
  38:	e2 0f       	add	r30, r18
  3a:	f3 1f       	adc	r31, r19
  3c:	80 83       	st	Z, r24
  3e:	2a 9a       	sbi	0x05, 2	; 5
  40:	2f 5f       	subi	r18, 0xFF	; 255
  42:	3f 4f       	sbci	r19, 0xFF	; 255
  44:	24 17       	cp	r18, r20
  46:	35 07       	cpc	r19, r21
  48:	00 f0       	brcs	.+0      	; 0x4a <_ZN10W5100Class4readEjPhj+0x4a>
  4a:	ca 01       	movw	r24, r20
  4c:	08 95       	ret

Disassembly of section .text._ZN10W5100Class9read_dataEhPVhS1_j:

00000000 <_ZN10W5100Class9read_dataEhPVhS1_j>:
   0:	cf 92       	push	r12
   2:	df 92       	push	r13
   4:	ef 92       	push	r14
   6:	ff 92       	push	r15
   8:	0f 93       	push	r16
   a:	1f 93       	push	r17
   c:	cf 93       	push	r28
   e:	df 93       	push	r29
  10:	69 01       	movw	r12, r18
  12:	78 01       	movw	r14, r16
  14:	57 70       	andi	r21, 0x07	; 7
  16:	c6 2f       	mov	r28, r22
  18:	d0 e0       	ldi	r29, 0x00	; 0
  1a:	24 96       	adiw	r28, 0x04	; 4
  1c:	cc 0f       	add	r28, r28
  1e:	dd 1f       	adc	r29, r29
  20:	c8 0f       	add	r28, r24
  22:	d9 1f       	adc	r29, r25
  24:	28 81       	ld	r18, Y
  26:	39 81       	ldd	r19, Y+1	; 0x01
  28:	24 0f       	add	r18, r20
  2a:	35 1f       	adc	r19, r21
  2c:	c8 01       	movw	r24, r16
  2e:	84 0f       	add	r24, r20
  30:	95 1f       	adc	r25, r21
  32:	81 50       	subi	r24, 0x01	; 1
  34:	98 40       	sbci	r25, 0x08	; 8
  36:	00 f0       	brcs	.+0      	; 0x38 <_ZN10W5100Class9read_dataEhPVhS1_j+0x38>
  38:	00 e0       	ldi	r16, 0x00	; 0
  3a:	18 e0       	ldi	r17, 0x08	; 8
  3c:	04 1b       	sub	r16, r20
  3e:	15 0b       	sbc	r17, r21
  40:	c9 01       	movw	r24, r18
  42:	b6 01       	movw	r22, r12
  44:	a8 01       	movw	r20, r16
  46:	0e 94 00 00 	call	0	; 0x0 <_ZN10W5100Class9read_dataEhPVhS1_j>
  4a:	e0 1a       	sub	r14, r16
  4c:	f1 0a       	sbc	r15, r17
  4e:	88 81       	ld	r24, Y
  50:	99 81       	ldd	r25, Y+1	; 0x01
  52:	0c 0d       	add	r16, r12
  54:	1d 1d       	adc	r17, r13
  56:	b8 01       	movw	r22, r16
  58:	00 c0       	rjmp	.+0      	; 0x5a <_ZN10W5100Class9read_dataEhPVhS1_j+0x5a>
  5a:	c9 01       	movw	r24, r18
  5c:	b6 01       	movw	r22, r12
  5e:	a7 01       	movw	r20, r14
  60:	0e 94 00 00 	call	0	; 0x0 <_ZN10W5100Class9read_dataEhPVhS1_j>
  64:	df 91       	pop	r29
  66:	cf 91       	pop	r28
  68:	1f 91       	pop	r17
  6a:	0f 91       	pop	r16
  6c:	ff 90       	pop	r15
  6e:	ef 90       	pop	r14
  70:	df 90       	pop	r13
  72:	cf 90       	pop	r12
  74:	08 95       	ret

Disassembly of section .text._ZN10W5100Class20recv_data_processingEhPhjh:

00000000 <_ZN10W5100Class20recv_data_processingEhPhjh>:
   0:	8f 92       	push	r8
   2:	9f 92       	push	r9
   4:	af 92       	push	r10
   6:	bf 92       	push	r11
   8:	cf 92       	push	r12
   a:	df 92       	push	r13
   c:	ef 92       	push	r14
   e:	ff 92       	push	r15
  10:	0f 93       	push	r16
  12:	1f 93       	push	r17
  14:	cf 93       	push	r28
  16:	df 93       	push	r29
  18:	7c 01       	movw	r14, r24
  1a:	a6 2e       	mov	r10, r22
  1c:	6a 01       	movw	r12, r20
  1e:	49 01       	movw	r8, r18
  20:	b0 2e       	mov	r11, r16
  22:	86 2f       	mov	r24, r22
  24:	68 e2       	ldi	r22, 0x28	; 40
  26:	70 e0       	ldi	r23, 0x00	; 0
  28:	0e 94 00 00 	call	0	; 0x0 <_ZN10W5100Class20recv_data_processingEhPhjh>
  2c:	18 2f       	mov	r17, r24
  2e:	8a 2d       	mov	r24, r10
  30:	69 e2       	ldi	r22, 0x29	; 41
  32:	70 e0       	ldi	r23, 0x00	; 0
  34:	0e 94 00 00 	call	0	; 0x0 <_ZN10W5100Class20recv_data_processingEhPhjh>
  38:	31 2f       	mov	r19, r17
  3a:	20 e0       	ldi	r18, 0x00	; 0
  3c:	e9 01       	movw	r28, r18
  3e:	c8 0f       	add	r28, r24
  40:	d1 1d       	adc	r29, r1
  42:	c7 01       	movw	r24, r14
  44:	6a 2d       	mov	r22, r10
  46:	ae 01       	movw	r20, r28
  48:	96 01       	movw	r18, r12
  4a:	84 01       	movw	r16, r8
  4c:	0e 94 00 00 	call	0	; 0x0 <_ZN10W5100Class20recv_data_processingEhPhjh>
  50:	bb 20       	and	r11, r11
  52:	01 f4       	brne	.+0      	; 0x54 <_ZN10W5100Class20recv_data_processingEhPhjh+0x54>
  54:	7e 01       	movw	r14, r28
  56:	e8 0c       	add	r14, r8
  58:	f9 1c       	adc	r15, r9
  5a:	0a 2d       	mov	r16, r10
  5c:	10 e0       	ldi	r17, 0x00	; 0
  5e:	0c 5f       	subi	r16, 0xFC	; 252
  60:	1f 4f       	sbci	r17, 0xFF	; 255
  62:	10 2f       	mov	r17, r16
  64:	00 27       	eor	r16, r16
  66:	c8 01       	movw	r24, r16
  68:	88 96       	adiw	r24, 0x28	; 40
  6a:	6f 2d       	mov	r22, r15
  6c:	0e 94 00 00 	call	0	; 0x0 <_ZN10W5100Class20recv_data_processingEhPhjh>
  70:	c8 01       	movw	r24, r16
  72:	89 96       	adiw	r24, 0x29	; 41
  74:	6e 2d       	mov	r22, r14
  76:	0e 94 00 00 	call	0	; 0x0 <_ZN10W5100Class20recv_data_processingEhPhjh>
  7a:	df 91       	pop	r29
  7c:	cf 91       	pop	r28
  7e:	1f 91       	pop	r17
  80:	0f 91       	pop	r16
  82:	ff 90       	pop	r15
  84:	ef 90       	pop	r14
  86:	df 90       	pop	r13
  88:	cf 90       	pop	r12
  8a:	bf 90       	pop	r11
  8c:	af 90       	pop	r10
  8e:	9f 90       	pop	r9
  90:	8f 90       	pop	r8
  92:	08 95       	ret

Disassembly of section .text._ZN10W5100Class9execCmdSnEh7SockCMD:

00000000 <_ZN10W5100Class9execCmdSnEh7SockCMD>:
   0:	1f 93       	push	r17
   2:	16 2f       	mov	r17, r22
   4:	96 2f       	mov	r25, r22
   6:	80 e0       	ldi	r24, 0x00	; 0
   8:	8f 5f       	subi	r24, 0xFF	; 255
   a:	9b 4f       	sbci	r25, 0xFB	; 251
   c:	64 2f       	mov	r22, r20
   e:	0e 94 00 00 	call	0	; 0x0 <_ZN10W5100Class9execCmdSnEh7SockCMD>
  12:	81 2f       	mov	r24, r17
  14:	61 e0       	ldi	r22, 0x01	; 1
  16:	70 e0       	ldi	r23, 0x00	; 0
  18:	0e 94 00 00 	call	0	; 0x0 <_ZN10W5100Class9execCmdSnEh7SockCMD>
  1c:	88 23       	and	r24, r24
  1e:	01 f4       	brne	.+0      	; 0x20 <_ZN10W5100Class9execCmdSnEh7SockCMD+0x20>
  20:	1f 91       	pop	r17
  22:	08 95       	ret

Disassembly of section .text._ZN10W5100Class4initEv:

00000000 <_ZN10W5100Class4initEv>:
   0:	0f 93       	push	r16
   2:	1f 93       	push	r17
   4:	18 2f       	mov	r17, r24
   6:	09 2f       	mov	r16, r25
   8:	6c e2       	ldi	r22, 0x2C	; 44
   a:	71 e0       	ldi	r23, 0x01	; 1
   c:	80 e0       	ldi	r24, 0x00	; 0
   e:	90 e0       	ldi	r25, 0x00	; 0
  10:	0e 94 00 00 	call	0	; 0x0 <_ZN10W5100Class4initEv>
  14:	0e 94 00 00 	call	0	; 0x0 <_ZN10W5100Class4initEv>
  18:	22 9a       	sbi	0x04, 2	; 4
  1a:	80 e0       	ldi	r24, 0x00	; 0
  1c:	90 e0       	ldi	r25, 0x00	; 0
  1e:	60 e8       	ldi	r22, 0x80	; 128
  20:	0e 94 00 00 	call	0	; 0x0 <_ZN10W5100Class4initEv>
  24:	8b e1       	ldi	r24, 0x1B	; 27
  26:	90 e0       	ldi	r25, 0x00	; 0
  28:	65 e5       	ldi	r22, 0x55	; 85
  2a:	0e 94 00 00 	call	0	; 0x0 <_ZN10W5100Class4initEv>
  2e:	8a e1       	ldi	r24, 0x1A	; 26
  30:	90 e0       	ldi	r25, 0x00	; 0
  32:	65 e5       	ldi	r22, 0x55	; 85
  34:	0e 94 00 00 	call	0	; 0x0 <_ZN10W5100Class4initEv>
  38:	21 2f       	mov	r18, r17
  3a:	30 2f       	mov	r19, r16
  3c:	c9 01       	movw	r24, r18
  3e:	fc 01       	movw	r30, r24
  40:	80 e0       	ldi	r24, 0x00	; 0
  42:	90 e4       	ldi	r25, 0x40	; 64
  44:	91 83       	std	Z+1, r25	; 0x01
  46:	80 83       	st	Z, r24
  48:	80 50       	subi	r24, 0x00	; 0
  4a:	90 4e       	sbci	r25, 0xE0	; 224
  4c:	91 87       	std	Z+9, r25	; 0x09
  4e:	80 87       	std	Z+8, r24	; 0x08
  50:	80 50       	subi	r24, 0x00	; 0
  52:	98 41       	sbci	r25, 0x18	; 24
  54:	32 96       	adiw	r30, 0x02	; 2
  56:	20 e6       	ldi	r18, 0x60	; 96
  58:	80 30       	cpi	r24, 0x00	; 0
  5a:	92 07       	cpc	r25, r18
  5c:	01 f4       	brne	.+0      	; 0x5e <_ZN10W5100Class4initEv+0x5e>
  5e:	1f 91       	pop	r17
  60:	0f 91       	pop	r16
  62:	08 95       	ret

Client.o:     file format elf32-avr

Sections:
Idx Name          Size      VMA       LMA       File off  Algn
  0 .text         00000000  00000000  00000000  00000034  2**0
                  CONTENTS, ALLOC, LOAD, READONLY, CODE
  1 .data         00000000  00000000  00000000  00000034  2**0
                  CONTENTS, ALLOC, LOAD, DATA
  2 .bss          00000000  00000000  00000000  00000034  2**0
                  ALLOC
  3 .text._ZN6ClientC2Eh 0000000e  00000000  00000000  00000034  2**0
                  CONTENTS, ALLOC, LOAD, RELOC, READONLY, CODE
  4 .text._ZN6ClientC1Eh 0000000e  00000000  00000000  00000042  2**0
                  CONTENTS, ALLOC, LOAD, RELOC, READONLY, CODE
  5 .text._ZN6ClientC2EPhj 00000018  00000000  00000000  00000050  2**0
                  CONTENTS, ALLOC, LOAD, RELOC, READONLY, CODE
  6 .text._ZN6ClientC1EPhj 00000018  00000000  00000000  00000068  2**0
                  CONTENTS, ALLOC, LOAD, RELOC, READONLY, CODE
  7 .text._ZN6Client5flushEv 0000002e  00000000  00000000  00000080  2**0
                  CONTENTS, ALLOC, LOAD, RELOC, READONLY, CODE
  8 .text._ZN6ClienteqEi 00000010  00000000  00000000  000000ae  2**0
                  CONTENTS, ALLOC, LOAD, RELOC, READONLY, CODE
  9 .text._ZN6ClientneEi 00000010  00000000  00000000  000000be  2**0
                  CONTENTS, ALLOC, LOAD, RELOC, READONLY, CODE
 10 .text._ZN6ClientcvbEv 00000010  00000000  00000000  000000ce  2**0
                  CONTENTS, ALLOC, LOAD, RELOC, READONLY, CODE
 11 .text._ZN6Client6statusEv 0000001a  00000000  00000000  000000de  2**0
                  CONTENTS, ALLOC, LOAD, RELOC, READONLY, CODE
 12 .text._ZN6Client9connectedEv 00000048  00000000  00000000  000000f8  2**0
                  CONTENTS, ALLOC, LOAD, RELOC, READONLY, CODE
 13 .text._ZN6Client4stopEv 00000084  00000000  00000000  00000140  2**0
                  CONTENTS, ALLOC, LOAD, RELOC, READONLY, CODE
 14 .text._ZN6Client4peekEv 0000004a  00000000  00000000  000001c4  2**0
                  CONTENTS, ALLOC, LOAD, RELOC, READONLY, CODE
 15 .text._ZN6Client4readEv 0000004e  00000000  00000000  0000020e  2**0
                  CONTENTS, ALLOC, LOAD, RELOC, READONLY, CODE
 16 .text._ZN6Client9availableEv 0000001c  00000000  00000000  0000025c  2**0
                  CONTENTS, ALLOC, LOAD, RELOC, READONLY, CODE
 17 .text._ZN6Client5writeEPKhj 0000000e  00000000  00000000  00000278  2**0
                  CONTENTS, ALLOC, LOAD, RELOC, READONLY, CODE
 18 .text._ZN6Client5writeEh 0000002a  00000000  00000000  00000286  2**0
                  CONTENTS, ALLOC, LOAD, RELOC, READONLY, CODE
 19 .text._ZN6Client5writeEPKc 0000001e  00000000  00000000  000002b0  2**0
                  CONTENTS, ALLOC, LOAD, RELOC, READONLY, CODE
 20 .text._ZN6Client7connectEv 000000ca  00000000  00000000  000002ce  2**0
                  CONTENTS, ALLOC, LOAD, RELOC, READONLY, CODE
 21 .data._ZN6Client8_srcportE 00000002  00000000  00000000  00000398  2**0
                  CONTENTS, ALLOC, LOAD, DATA
 22 .rodata._ZTV6Client 00000012  00000000  00000000  0000039a  2**0
                  CONTENTS, ALLOC, LOAD, RELOC, READONLY, DATA
 23 .rodata._ZTV6Stream 00000010  00000000  00000000  000003ac  2**0
                  CONTENTS, ALLOC, LOAD, RELOC, READONLY, DATA

Disassembly of section .text._ZN6ClientC2Eh:

00000000 <_ZN6ClientC2Eh>:
   0:	fc 01       	movw	r30, r24
   2:	80 e0       	ldi	r24, 0x00	; 0
   4:	90 e0       	ldi	r25, 0x00	; 0
   6:	91 83       	std	Z+1, r25	; 0x01
   8:	80 83       	st	Z, r24
   a:	62 83       	std	Z+2, r22	; 0x02
   c:	08 95       	ret

Disassembly of section .text._ZN6ClientC1Eh:

00000000 <_ZN6ClientC1Eh>:
   0:	fc 01       	movw	r30, r24
   2:	80 e0       	ldi	r24, 0x00	; 0
   4:	90 e0       	ldi	r25, 0x00	; 0
   6:	91 83       	std	Z+1, r25	; 0x01
   8:	80 83       	st	Z, r24
   a:	62 83       	std	Z+2, r22	; 0x02
   c:	08 95       	ret

Disassembly of section .text._ZN6ClientC2EPhj:

00000000 <_ZN6ClientC2EPhj>:
   0:	fc 01       	movw	r30, r24
   2:	80 e0       	ldi	r24, 0x00	; 0
   4:	90 e0       	ldi	r25, 0x00	; 0
   6:	91 83       	std	Z+1, r25	; 0x01
   8:	80 83       	st	Z, r24
   a:	84 e0       	ldi	r24, 0x04	; 4
   c:	82 83       	std	Z+2, r24	; 0x02
   e:	74 83       	std	Z+4, r23	; 0x04
  10:	63 83       	std	Z+3, r22	; 0x03
  12:	56 83       	std	Z+6, r21	; 0x06
  14:	45 83       	std	Z+5, r20	; 0x05
  16:	08 95       	ret

Disassembly of section .text._ZN6ClientC1EPhj:

00000000 <_ZN6ClientC1EPhj>:
   0:	fc 01       	movw	r30, r24
   2:	80 e0       	ldi	r24, 0x00	; 0
   4:	90 e0       	ldi	r25, 0x00	; 0
   6:	91 83       	std	Z+1, r25	; 0x01
   8:	80 83       	st	Z, r24
   a:	84 e0       	ldi	r24, 0x04	; 4
   c:	82 83       	std	Z+2, r24	; 0x02
   e:	74 83       	std	Z+4, r23	; 0x04
  10:	63 83       	std	Z+3, r22	; 0x03
  12:	56 83       	std	Z+6, r21	; 0x06
  14:	45 83       	std	Z+5, r20	; 0x05
  16:	08 95       	ret

Disassembly of section .text._ZN6Client5flushEv:

00000000 <_ZN6Client5flushEv>:
   0:	cf 93       	push	r28
   2:	df 93       	push	r29
   4:	ec 01       	movw	r28, r24
   6:	00 c0       	rjmp	.+0      	; 0x8 <_ZN6Client5flushEv+0x8>
   8:	e8 81       	ld	r30, Y
   a:	f9 81       	ldd	r31, Y+1	; 0x01
   c:	00 84       	ldd	r0, Z+8	; 0x08
   e:	f1 85       	ldd	r31, Z+9	; 0x09
  10:	e0 2d       	mov	r30, r0
  12:	ce 01       	movw	r24, r28
  14:	09 95       	icall
  16:	e8 81       	ld	r30, Y
  18:	f9 81       	ldd	r31, Y+1	; 0x01
  1a:	06 80       	ldd	r0, Z+6	; 0x06
  1c:	f7 81       	ldd	r31, Z+7	; 0x07
  1e:	e0 2d       	mov	r30, r0
  20:	ce 01       	movw	r24, r28
  22:	09 95       	icall
  24:	89 2b       	or	r24, r25
  26:	01 f4       	brne	.+0      	; 0x28 <_ZN6Client5flushEv+0x28>
  28:	df 91       	pop	r29
  2a:	cf 91       	pop	r28
  2c:	08 95       	ret

Disassembly of section .text._ZN6ClienteqEi:

00000000 <_ZN6ClienteqEi>:
   0:	20 e0       	ldi	r18, 0x00	; 0
   2:	fc 01       	movw	r30, r24
   4:	82 81       	ldd	r24, Z+2	; 0x02
   6:	84 30       	cpi	r24, 0x04	; 4
   8:	01 f4       	brne	.+0      	; 0xa <_ZN6ClienteqEi+0xa>
   a:	21 e0       	ldi	r18, 0x01	; 1
   c:	82 2f       	mov	r24, r18
   e:	08 95       	ret

Disassembly of section .text._ZN6ClientneEi:

00000000 <_ZN6ClientneEi>:
   0:	20 e0       	ldi	r18, 0x00	; 0
   2:	fc 01       	movw	r30, r24
   4:	82 81       	ldd	r24, Z+2	; 0x02
   6:	84 30       	cpi	r24, 0x04	; 4
   8:	01 f0       	breq	.+0      	; 0xa <_ZN6ClientneEi+0xa>
   a:	21 e0       	ldi	r18, 0x01	; 1
   c:	82 2f       	mov	r24, r18
   e:	08 95       	ret

Disassembly of section .text._ZN6ClientcvbEv:

00000000 <_ZN6ClientcvbEv>:
   0:	20 e0       	ldi	r18, 0x00	; 0
   2:	fc 01       	movw	r30, r24
   4:	82 81       	ldd	r24, Z+2	; 0x02
   6:	84 30       	cpi	r24, 0x04	; 4
   8:	01 f0       	breq	.+0      	; 0xa <_ZN6ClientcvbEv+0xa>
   a:	21 e0       	ldi	r18, 0x01	; 1
   c:	82 2f       	mov	r24, r18
   e:	08 95       	ret

Disassembly of section .text._ZN6Client6statusEv:

00000000 <_ZN6Client6statusEv>:
   0:	fc 01       	movw	r30, r24
   2:	82 81       	ldd	r24, Z+2	; 0x02
   4:	84 30       	cpi	r24, 0x04	; 4
   6:	01 f4       	brne	.+0      	; 0x8 <_ZN6Client6statusEv+0x8>
   8:	80 e0       	ldi	r24, 0x00	; 0
   a:	08 95       	ret
   c:	98 2f       	mov	r25, r24
   e:	80 e0       	ldi	r24, 0x00	; 0
  10:	8d 5f       	subi	r24, 0xFD	; 253
  12:	9b 4f       	sbci	r25, 0xFB	; 251
  14:	0e 94 00 00 	call	0	; 0x0 <_ZN6Client6statusEv>
  18:	08 95       	ret

Disassembly of section .text._ZN6Client9connectedEv:

00000000 <_ZN6Client9connectedEv>:
   0:	cf 93       	push	r28
   2:	df 93       	push	r29
   4:	ec 01       	movw	r28, r24
   6:	8a 81       	ldd	r24, Y+2	; 0x02
   8:	84 30       	cpi	r24, 0x04	; 4
   a:	01 f4       	brne	.+0      	; 0xc <_ZN6Client9connectedEv+0xc>
   c:	80 e0       	ldi	r24, 0x00	; 0
   e:	00 c0       	rjmp	.+0      	; 0x10 <_ZN6Client9connectedEv+0x10>
  10:	ce 01       	movw	r24, r28
  12:	0e 94 00 00 	call	0	; 0x0 <_ZN6Client9connectedEv>
  16:	84 31       	cpi	r24, 0x14	; 20
  18:	01 f0       	breq	.+0      	; 0x1a <_ZN6Client9connectedEv+0x1a>
  1a:	88 23       	and	r24, r24
  1c:	01 f0       	breq	.+0      	; 0x1e <_ZN6Client9connectedEv+0x1e>
  1e:	88 31       	cpi	r24, 0x18	; 24
  20:	01 f0       	breq	.+0      	; 0x22 <_ZN6Client9connectedEv+0x22>
  22:	8c 31       	cpi	r24, 0x1C	; 28
  24:	01 f4       	brne	.+0      	; 0x26 <_ZN6Client9connectedEv+0x26>
  26:	e8 81       	ld	r30, Y
  28:	f9 81       	ldd	r31, Y+1	; 0x01
  2a:	06 80       	ldd	r0, Z+6	; 0x06
  2c:	f7 81       	ldd	r31, Z+7	; 0x07
  2e:	e0 2d       	mov	r30, r0
  30:	ce 01       	movw	r24, r28
  32:	09 95       	icall
  34:	20 e0       	ldi	r18, 0x00	; 0
  36:	89 2b       	or	r24, r25
  38:	01 f0       	breq	.+0      	; 0x3a <_ZN6Client9connectedEv+0x3a>
  3a:	21 e0       	ldi	r18, 0x01	; 1
  3c:	00 c0       	rjmp	.+0      	; 0x3e <_ZN6Client9connectedEv+0x3e>
  3e:	20 e0       	ldi	r18, 0x00	; 0
  40:	82 2f       	mov	r24, r18
  42:	df 91       	pop	r29
  44:	cf 91       	pop	r28
  46:	08 95       	ret

Disassembly of section .text._ZN6Client4stopEv:

00000000 <_ZN6Client4stopEv>:
   0:	ef 92       	push	r14
   2:	ff 92       	push	r15
   4:	0f 93       	push	r16
   6:	1f 93       	push	r17
   8:	cf 93       	push	r28
   a:	df 93       	push	r29
   c:	ec 01       	movw	r28, r24
   e:	8a 81       	ldd	r24, Y+2	; 0x02
  10:	84 30       	cpi	r24, 0x04	; 4
  12:	01 f0       	breq	.+0      	; 0x14 <_ZN6Client4stopEv+0x14>
  14:	0e 94 00 00 	call	0	; 0x0 <_ZN6Client4stopEv>
  18:	0e 94 00 00 	call	0	; 0x0 <_ZN6Client4stopEv>
  1c:	7b 01       	movw	r14, r22
  1e:	8c 01       	movw	r16, r24
  20:	ce 01       	movw	r24, r28
  22:	0e 94 00 00 	call	0	; 0x0 <_ZN6Client4stopEv>
  26:	88 23       	and	r24, r24
  28:	01 f0       	breq	.+0      	; 0x2a <_ZN6Client4stopEv+0x2a>
  2a:	0e 94 00 00 	call	0	; 0x0 <_ZN6Client4stopEv>
  2e:	6e 19       	sub	r22, r14
  30:	7f 09       	sbc	r23, r15
  32:	80 0b       	sbc	r24, r16
  34:	91 0b       	sbc	r25, r17
  36:	68 5e       	subi	r22, 0xE8	; 232
  38:	73 40       	sbci	r23, 0x03	; 3
  3a:	80 40       	sbci	r24, 0x00	; 0
  3c:	90 40       	sbci	r25, 0x00	; 0
  3e:	00 f4       	brcc	.+0      	; 0x40 <_ZN6Client4stopEv+0x40>
  40:	61 e0       	ldi	r22, 0x01	; 1
  42:	70 e0       	ldi	r23, 0x00	; 0
  44:	80 e0       	ldi	r24, 0x00	; 0
  46:	90 e0       	ldi	r25, 0x00	; 0
  48:	0e 94 00 00 	call	0	; 0x0 <_ZN6Client4stopEv>
  4c:	00 c0       	rjmp	.+0      	; 0x4e <_ZN6Client4stopEv+0x4e>
  4e:	8a 81       	ldd	r24, Y+2	; 0x02
  50:	0e 94 00 00 	call	0	; 0x0 <_ZN6Client4stopEv>
  54:	ea 81       	ldd	r30, Y+2	; 0x02
  56:	f0 e0       	ldi	r31, 0x00	; 0
  58:	ee 0f       	add	r30, r30
  5a:	ff 1f       	adc	r31, r31
  5c:	e0 50       	subi	r30, 0x00	; 0
  5e:	f0 40       	sbci	r31, 0x00	; 0
  60:	11 82       	std	Z+1, r1	; 0x01
  62:	10 82       	st	Z, r1
  64:	84 e0       	ldi	r24, 0x04	; 4
  66:	8a 83       	std	Y+2, r24	; 0x02
  68:	00 c0       	rjmp	.+0      	; 0x6a <_ZN6Client4stopEv+0x6a>
  6a:	ce 01       	movw	r24, r28
  6c:	0e 94 00 00 	call	0	; 0x0 <_ZN6Client4stopEv>
  70:	88 23       	and	r24, r24
  72:	01 f0       	breq	.+0      	; 0x74 <_ZN6Client4stopEv+0x74>
  74:	00 c0       	rjmp	.+0      	; 0x76 <_ZN6Client4stopEv+0x76>
  76:	df 91       	pop	r29
  78:	cf 91       	pop	r28
  7a:	1f 91       	pop	r17
  7c:	0f 91       	pop	r16
  7e:	ff 90       	pop	r15
  80:	ef 90       	pop	r14
  82:	08 95       	ret

Disassembly of section .text._ZN6Client4peekEv:

00000000 <_ZN6Client4peekEv>:
   0:	0f 93       	push	r16
   2:	1f 93       	push	r17
   4:	df 93       	push	r29
   6:	cf 93       	push	r28
   8:	0f 92       	push	r0
   a:	cd b7       	in	r28, 0x3d	; 61
   c:	de b7       	in	r29, 0x3e	; 62
   e:	8c 01       	movw	r16, r24
  10:	dc 01       	movw	r26, r24
  12:	ed 91       	ld	r30, X+
  14:	fc 91       	ld	r31, X
  16:	06 80       	ldd	r0, Z+6	; 0x06
  18:	f7 81       	ldd	r31, Z+7	; 0x07
  1a:	e0 2d       	mov	r30, r0
  1c:	09 95       	icall
  1e:	89 2b       	or	r24, r25
  20:	01 f4       	brne	.+0      	; 0x22 <_ZN6Client4peekEv+0x22>
  22:	2f ef       	ldi	r18, 0xFF	; 255
  24:	3f ef       	ldi	r19, 0xFF	; 255
  26:	00 c0       	rjmp	.+0      	; 0x28 <_ZN6Client4peekEv+0x28>
  28:	f8 01       	movw	r30, r16
  2a:	82 81       	ldd	r24, Z+2	; 0x02
  2c:	be 01       	movw	r22, r28
  2e:	6f 5f       	subi	r22, 0xFF	; 255
  30:	7f 4f       	sbci	r23, 0xFF	; 255
  32:	0e 94 00 00 	call	0	; 0x0 <_ZN6Client4peekEv>
  36:	89 81       	ldd	r24, Y+1	; 0x01
  38:	28 2f       	mov	r18, r24
  3a:	30 e0       	ldi	r19, 0x00	; 0
  3c:	c9 01       	movw	r24, r18
  3e:	0f 90       	pop	r0
  40:	cf 91       	pop	r28
  42:	df 91       	pop	r29
  44:	1f 91       	pop	r17
  46:	0f 91       	pop	r16
  48:	08 95       	ret

Disassembly of section .text._ZN6Client4readEv:

00000000 <_ZN6Client4readEv>:
   0:	0f 93       	push	r16
   2:	1f 93       	push	r17
   4:	df 93       	push	r29
   6:	cf 93       	push	r28
   8:	0f 92       	push	r0
   a:	cd b7       	in	r28, 0x3d	; 61
   c:	de b7       	in	r29, 0x3e	; 62
   e:	8c 01       	movw	r16, r24
  10:	dc 01       	movw	r26, r24
  12:	ed 91       	ld	r30, X+
  14:	fc 91       	ld	r31, X
  16:	06 80       	ldd	r0, Z+6	; 0x06
  18:	f7 81       	ldd	r31, Z+7	; 0x07
  1a:	e0 2d       	mov	r30, r0
  1c:	09 95       	icall
  1e:	89 2b       	or	r24, r25
  20:	01 f4       	brne	.+0      	; 0x22 <_ZN6Client4readEv+0x22>
  22:	2f ef       	ldi	r18, 0xFF	; 255
  24:	3f ef       	ldi	r19, 0xFF	; 255
  26:	00 c0       	rjmp	.+0      	; 0x28 <_ZN6Client4readEv+0x28>
  28:	f8 01       	movw	r30, r16
  2a:	82 81       	ldd	r24, Z+2	; 0x02
  2c:	be 01       	movw	r22, r28
  2e:	6f 5f       	subi	r22, 0xFF	; 255
  30:	7f 4f       	sbci	r23, 0xFF	; 255
  32:	41 e0       	ldi	r20, 0x01	; 1
  34:	50 e0       	ldi	r21, 0x00	; 0
  36:	0e 94 00 00 	call	0	; 0x0 <_ZN6Client4readEv>
  3a:	89 81       	ldd	r24, Y+1	; 0x01
  3c:	28 2f       	mov	r18, r24
  3e:	30 e0       	ldi	r19, 0x00	; 0
  40:	c9 01       	movw	r24, r18
  42:	0f 90       	pop	r0
  44:	cf 91       	pop	r28
  46:	df 91       	pop	r29
  48:	1f 91       	pop	r17
  4a:	0f 91       	pop	r16
  4c:	08 95       	ret

Disassembly of section .text._ZN6Client9availableEv:

00000000 <_ZN6Client9availableEv>:
   0:	fc 01       	movw	r30, r24
   2:	62 81       	ldd	r22, Z+2	; 0x02
   4:	64 30       	cpi	r22, 0x04	; 4
   6:	01 f4       	brne	.+0      	; 0x8 <_ZN6Client9availableEv+0x8>
   8:	20 e0       	ldi	r18, 0x00	; 0
   a:	30 e0       	ldi	r19, 0x00	; 0
   c:	00 c0       	rjmp	.+0      	; 0xe <_ZN6Client9availableEv+0xe>
   e:	80 e0       	ldi	r24, 0x00	; 0
  10:	90 e0       	ldi	r25, 0x00	; 0
  12:	0e 94 00 00 	call	0	; 0x0 <_ZN6Client9availableEv>
  16:	9c 01       	movw	r18, r24
  18:	c9 01       	movw	r24, r18
  1a:	08 95       	ret

Disassembly of section .text._ZN6Client5writeEPKhj:

00000000 <_ZN6Client5writeEPKhj>:
   0:	fc 01       	movw	r30, r24
   2:	82 81       	ldd	r24, Z+2	; 0x02
   4:	84 30       	cpi	r24, 0x04	; 4
   6:	01 f0       	breq	.+0      	; 0x8 <_ZN6Client5writeEPKhj+0x8>
   8:	0e 94 00 00 	call	0	; 0x0 <_ZN6Client5writeEPKhj>
   c:	08 95       	ret

Disassembly of section .text._ZN6Client5writeEh:

00000000 <_ZN6Client5writeEh>:
   0:	df 93       	push	r29
   2:	cf 93       	push	r28
   4:	0f 92       	push	r0
   6:	cd b7       	in	r28, 0x3d	; 61
   8:	de b7       	in	r29, 0x3e	; 62
   a:	69 83       	std	Y+1, r22	; 0x01
   c:	fc 01       	movw	r30, r24
   e:	82 81       	ldd	r24, Z+2	; 0x02
  10:	84 30       	cpi	r24, 0x04	; 4
  12:	01 f0       	breq	.+0      	; 0x14 <_ZN6Client5writeEh+0x14>
  14:	be 01       	movw	r22, r28
  16:	6f 5f       	subi	r22, 0xFF	; 255
  18:	7f 4f       	sbci	r23, 0xFF	; 255
  1a:	41 e0       	ldi	r20, 0x01	; 1
  1c:	50 e0       	ldi	r21, 0x00	; 0
  1e:	0e 94 00 00 	call	0	; 0x0 <_ZN6Client5writeEh>
  22:	0f 90       	pop	r0
  24:	cf 91       	pop	r28
  26:	df 91       	pop	r29
  28:	08 95       	ret

Disassembly of section .text._ZN6Client5writeEPKc:

00000000 <_ZN6Client5writeEPKc>:
   0:	fc 01       	movw	r30, r24
   2:	82 81       	ldd	r24, Z+2	; 0x02
   4:	84 30       	cpi	r24, 0x04	; 4
   6:	01 f0       	breq	.+0      	; 0x8 <_ZN6Client5writeEPKc+0x8>
   8:	db 01       	movw	r26, r22
   a:	0d 90       	ld	r0, X+
   c:	00 20       	and	r0, r0
   e:	01 f4       	brne	.+0      	; 0x10 <_ZN6Client5writeEPKc+0x10>
  10:	11 97       	sbiw	r26, 0x01	; 1
  12:	a6 1b       	sub	r26, r22
  14:	b7 0b       	sbc	r27, r23
  16:	ad 01       	movw	r20, r26
  18:	0e 94 00 00 	call	0	; 0x0 <_ZN6Client5writeEPKc>
  1c:	08 95       	ret

Disassembly of section .text._ZN6Client7connectEv:

00000000 <_ZN6Client7connectEv>:
   0:	ef 92       	push	r14
   2:	ff 92       	push	r15
   4:	0f 93       	push	r16
   6:	1f 93       	push	r17
   8:	cf 93       	push	r28
   a:	df 93       	push	r29
   c:	7c 01       	movw	r14, r24
   e:	fc 01       	movw	r30, r24
  10:	82 81       	ldd	r24, Z+2	; 0x02
  12:	84 30       	cpi	r24, 0x04	; 4
  14:	01 f0       	breq	.+0      	; 0x16 <_ZN6Client7connectEv+0x16>
  16:	00 c0       	rjmp	.+0      	; 0x18 <_ZN6Client7connectEv+0x18>
  18:	c0 e0       	ldi	r28, 0x00	; 0
  1a:	d0 e0       	ldi	r29, 0x00	; 0
  1c:	03 e0       	ldi	r16, 0x03	; 3
  1e:	14 e0       	ldi	r17, 0x04	; 4
  20:	c8 01       	movw	r24, r16
  22:	0e 94 00 00 	call	0	; 0x0 <_ZN6Client7connectEv>
  26:	88 23       	and	r24, r24
  28:	01 f0       	breq	.+0      	; 0x2a <_ZN6Client7connectEv+0x2a>
  2a:	88 31       	cpi	r24, 0x18	; 24
  2c:	01 f4       	brne	.+0      	; 0x2e <_ZN6Client7connectEv+0x2e>
  2e:	f7 01       	movw	r30, r14
  30:	c2 83       	std	Z+2, r28	; 0x02
  32:	00 c0       	rjmp	.+0      	; 0x34 <_ZN6Client7connectEv+0x34>
  34:	21 96       	adiw	r28, 0x01	; 1
  36:	00 50       	subi	r16, 0x00	; 0
  38:	1f 4f       	sbci	r17, 0xFF	; 255
  3a:	c4 30       	cpi	r28, 0x04	; 4
  3c:	d1 05       	cpc	r29, r1
  3e:	01 f4       	brne	.+0      	; 0x40 <_ZN6Client7connectEv+0x40>
  40:	f7 01       	movw	r30, r14
  42:	22 81       	ldd	r18, Z+2	; 0x02
  44:	24 30       	cpi	r18, 0x04	; 4
  46:	01 f0       	breq	.+0      	; 0x48 <_ZN6Client7connectEv+0x48>
  48:	80 91 00 00 	lds	r24, 0x0000
  4c:	90 91 00 00 	lds	r25, 0x0000
  50:	01 96       	adiw	r24, 0x01	; 1
  52:	90 93 00 00 	sts	0x0000, r25
  56:	80 93 00 00 	sts	0x0000, r24
  5a:	89 2b       	or	r24, r25
  5c:	01 f4       	brne	.+0      	; 0x5e <_ZN6Client7connectEv+0x5e>
  5e:	80 e0       	ldi	r24, 0x00	; 0
  60:	94 e0       	ldi	r25, 0x04	; 4
  62:	90 93 00 00 	sts	0x0000, r25
  66:	80 93 00 00 	sts	0x0000, r24
  6a:	40 91 00 00 	lds	r20, 0x0000
  6e:	50 91 00 00 	lds	r21, 0x0000
  72:	82 2f       	mov	r24, r18
  74:	61 e0       	ldi	r22, 0x01	; 1
  76:	20 e0       	ldi	r18, 0x00	; 0
  78:	0e 94 00 00 	call	0	; 0x0 <_ZN6Client7connectEv>
  7c:	f7 01       	movw	r30, r14
  7e:	63 81       	ldd	r22, Z+3	; 0x03
  80:	74 81       	ldd	r23, Z+4	; 0x04
  82:	45 81       	ldd	r20, Z+5	; 0x05
  84:	56 81       	ldd	r21, Z+6	; 0x06
  86:	82 81       	ldd	r24, Z+2	; 0x02
  88:	0e 94 00 00 	call	0	; 0x0 <_ZN6Client7connectEv>
  8c:	00 c0       	rjmp	.+0      	; 0x8e <_ZN6Client7connectEv+0x8e>
  8e:	61 e0       	ldi	r22, 0x01	; 1
  90:	70 e0       	ldi	r23, 0x00	; 0
  92:	80 e0       	ldi	r24, 0x00	; 0
  94:	90 e0       	ldi	r25, 0x00	; 0
  96:	0e 94 00 00 	call	0	; 0x0 <_ZN6Client7connectEv>
  9a:	c7 01       	movw	r24, r14
  9c:	0e 94 00 00 	call	0	; 0x0 <_ZN6Client7connectEv>
  a0:	88 23       	and	r24, r24
  a2:	01 f4       	brne	.+0      	; 0xa4 <_ZN6Client7connectEv+0xa4>
  a4:	84 e0       	ldi	r24, 0x04	; 4
  a6:	f7 01       	movw	r30, r14
  a8:	82 83       	std	Z+2, r24	; 0x02
  aa:	00 c0       	rjmp	.+0      	; 0xac <_ZN6Client7connectEv+0xac>
  ac:	c7 01       	movw	r24, r14
  ae:	0e 94 00 00 	call	0	; 0x0 <_ZN6Client7connectEv>
  b2:	87 31       	cpi	r24, 0x17	; 23
  b4:	01 f4       	brne	.+0      	; 0xb6 <_ZN6Client7connectEv+0xb6>
  b6:	81 e0       	ldi	r24, 0x01	; 1
  b8:	00 c0       	rjmp	.+0      	; 0xba <_ZN6Client7connectEv+0xba>
  ba:	80 e0       	ldi	r24, 0x00	; 0
  bc:	df 91       	pop	r29
  be:	cf 91       	pop	r28
  c0:	1f 91       	pop	r17
  c2:	0f 91       	pop	r16
  c4:	ff 90       	pop	r15
  c6:	ef 90       	pop	r14
  c8:	08 95       	ret

Ethernet.o:     file format elf32-avr

Sections:
Idx Name          Size      VMA       LMA       File off  Algn
  0 .text         00000000  00000000  00000000  00000034  2**0
                  CONTENTS, ALLOC, LOAD, READONLY, CODE
  1 .data         00000000  00000000  00000000  00000034  2**0
                  CONTENTS, ALLOC, LOAD, DATA
  2 .bss          00000000  00000000  00000000  00000034  2**0
                  ALLOC
  3 .text._ZN13EthernetClass5beginEPhS0_S0_S0_ 00000068  00000000  00000000  00000034  2**0
                  CONTENTS, ALLOC, LOAD, RELOC, READONLY, CODE
  4 .text._ZN13EthernetClass5beginEPhS0_S0_ 00000036  00000000  00000000  0000009c  2**0
                  CONTENTS, ALLOC, LOAD, RELOC, READONLY, CODE
  5 .text._ZN13EthernetClass5beginEPhS0_ 00000036  00000000  00000000  000000d2  2**0
                  CONTENTS, ALLOC, LOAD, RELOC, READONLY, CODE
  6 .bss._ZN13EthernetClass6_stateE 00000004  00000000  00000000  00000108  2**0
                  ALLOC
  7 .bss._ZN13EthernetClass12_server_portE 00000008  00000000  00000000  00000108  2**0
                  ALLOC
  8 .bss.Ethernet 00000001  00000000  00000000  00000108  2**0
                  ALLOC

Disassembly of section .text._ZN13EthernetClass5beginEPhS0_S0_S0_:

00000000 <_ZN13EthernetClass5beginEPhS0_S0_S0_>:
   0:	af 92       	push	r10
   2:	bf 92       	push	r11
   4:	cf 92       	push	r12
   6:	df 92       	push	r13
   8:	ef 92       	push	r14
   a:	ff 92       	push	r15
   c:	0f 93       	push	r16
   e:	1f 93       	push	r17
  10:	7b 01       	movw	r14, r22
  12:	6a 01       	movw	r12, r20
  14:	59 01       	movw	r10, r18
  16:	80 e0       	ldi	r24, 0x00	; 0
  18:	90 e0       	ldi	r25, 0x00	; 0
  1a:	0e 94 00 00 	call	0	; 0x0 <_ZN13EthernetClass5beginEPhS0_S0_S0_>
  1e:	89 e0       	ldi	r24, 0x09	; 9
  20:	90 e0       	ldi	r25, 0x00	; 0
  22:	b7 01       	movw	r22, r14
  24:	46 e0       	ldi	r20, 0x06	; 6
  26:	50 e0       	ldi	r21, 0x00	; 0
  28:	0e 94 00 00 	call	0	; 0x0 <_ZN13EthernetClass5beginEPhS0_S0_S0_>
  2c:	8f e0       	ldi	r24, 0x0F	; 15
  2e:	90 e0       	ldi	r25, 0x00	; 0
  30:	b6 01       	movw	r22, r12
  32:	44 e0       	ldi	r20, 0x04	; 4
  34:	50 e0       	ldi	r21, 0x00	; 0
  36:	0e 94 00 00 	call	0	; 0x0 <_ZN13EthernetClass5beginEPhS0_S0_S0_>
  3a:	81 e0       	ldi	r24, 0x01	; 1
  3c:	90 e0       	ldi	r25, 0x00	; 0
  3e:	b5 01       	movw	r22, r10
  40:	44 e0       	ldi	r20, 0x04	; 4
  42:	50 e0       	ldi	r21, 0x00	; 0
  44:	0e 94 00 00 	call	0	; 0x0 <_ZN13EthernetClass5beginEPhS0_S0_S0_>
  48:	85 e0       	ldi	r24, 0x05	; 5
  4a:	90 e0       	ldi	r25, 0x00	; 0
  4c:	b8 01       	movw	r22, r16
  4e:	44 e0       	ldi	r20, 0x04	; 4
  50:	50 e0       	ldi	r21, 0x00	; 0
  52:	0e 94 00 00 	call	0	; 0x0 <_ZN13EthernetClass5beginEPhS0_S0_S0_>
  56:	1f 91       	pop	r17
  58:	0f 91       	pop	r16
  5a:	ff 90       	pop	r15
  5c:	ef 90       	pop	r14
  5e:	df 90       	pop	r13
  60:	cf 90       	pop	r12
  62:	bf 90       	pop	r11
  64:	af 90       	pop	r10
  66:	08 95       	ret

Disassembly of section .text._ZN13EthernetClass5beginEPhS0_S0_:

00000000 <_ZN13EthernetClass5beginEPhS0_S0_>:
   0:	0f 93       	push	r16
   2:	1f 93       	push	r17
   4:	df 93       	push	r29
   6:	cf 93       	push	r28
   8:	00 d0       	rcall	.+0      	; 0xa <_ZN13EthernetClass5beginEPhS0_S0_+0xa>
   a:	00 d0       	rcall	.+0      	; 0xc <_ZN13EthernetClass5beginEPhS0_S0_+0xc>
   c:	cd b7       	in	r28, 0x3d	; 61
   e:	de b7       	in	r29, 0x3e	; 62
  10:	ef ef       	ldi	r30, 0xFF	; 255
  12:	e9 83       	std	Y+1, r30	; 0x01
  14:	ea 83       	std	Y+2, r30	; 0x02
  16:	eb 83       	std	Y+3, r30	; 0x03
  18:	1c 82       	std	Y+4, r1	; 0x04
  1a:	8e 01       	movw	r16, r28
  1c:	0f 5f       	subi	r16, 0xFF	; 255
  1e:	1f 4f       	sbci	r17, 0xFF	; 255
  20:	0e 94 00 00 	call	0	; 0x0 <_ZN13EthernetClass5beginEPhS0_S0_>
  24:	0f 90       	pop	r0
  26:	0f 90       	pop	r0
  28:	0f 90       	pop	r0
  2a:	0f 90       	pop	r0
  2c:	cf 91       	pop	r28
  2e:	df 91       	pop	r29
  30:	1f 91       	pop	r17
  32:	0f 91       	pop	r16
  34:	08 95       	ret

Disassembly of section .text._ZN13EthernetClass5beginEPhS0_:

00000000 <_ZN13EthernetClass5beginEPhS0_>:
   0:	df 93       	push	r29
   2:	cf 93       	push	r28
   4:	00 d0       	rcall	.+0      	; 0x6 <_ZN13EthernetClass5beginEPhS0_+0x6>
   6:	00 d0       	rcall	.+0      	; 0x8 <_ZN13EthernetClass5beginEPhS0_+0x8>
   8:	cd b7       	in	r28, 0x3d	; 61
   a:	de b7       	in	r29, 0x3e	; 62
   c:	fa 01       	movw	r30, r20
   e:	20 81       	ld	r18, Z
  10:	29 83       	std	Y+1, r18	; 0x01
  12:	21 81       	ldd	r18, Z+1	; 0x01
  14:	2a 83       	std	Y+2, r18	; 0x02
  16:	22 81       	ldd	r18, Z+2	; 0x02
  18:	2b 83       	std	Y+3, r18	; 0x03
  1a:	21 e0       	ldi	r18, 0x01	; 1
  1c:	2c 83       	std	Y+4, r18	; 0x04
  1e:	9e 01       	movw	r18, r28
  20:	2f 5f       	subi	r18, 0xFF	; 255
  22:	3f 4f       	sbci	r19, 0xFF	; 255
  24:	0e 94 00 00 	call	0	; 0x0 <_ZN13EthernetClass5beginEPhS0_>
  28:	0f 90       	pop	r0
  2a:	0f 90       	pop	r0
  2c:	0f 90       	pop	r0
  2e:	0f 90       	pop	r0
  30:	cf 91       	pop	r28
  32:	df 91       	pop	r29
  34:	08 95       	ret

Server.o:     file format elf32-avr

Sections:
Idx Name          Size      VMA       LMA       File off  Algn
  0 .text         00000000  00000000  00000000  00000034  2**0
                  CONTENTS, ALLOC, LOAD, READONLY, CODE
  1 .data         00000000  00000000  00000000  00000034  2**0
                  CONTENTS, ALLOC, LOAD, DATA
  2 .bss          00000000  00000000  00000000  00000034  2**0
                  ALLOC
  3 .text._ZN6ServerC2Ej 00000010  00000000  00000000  00000034  2**0
                  CONTENTS, ALLOC, LOAD, RELOC, READONLY, CODE
  4 .text._ZN6ServerC1Ej 00000010  00000000  00000000  00000044  2**0
                  CONTENTS, ALLOC, LOAD, RELOC, READONLY, CODE
  5 .text._ZN6Server5writeEh 00000030  00000000  00000000  00000054  2**0
                  CONTENTS, ALLOC, LOAD, READONLY, CODE
  6 .text._ZN6Server5writeEPKc 00000028  00000000  00000000  00000084  2**0
                  CONTENTS, ALLOC, LOAD, RELOC, READONLY, CODE
  7 .text._ZN6Server5beginEv 00000094  00000000  00000000  000000ac  2**0
                  CONTENTS, ALLOC, LOAD, RELOC, READONLY, CODE
  8 .text._ZN6Server6acceptEv 000000ba  00000000  00000000  00000140  2**0
                  CONTENTS, ALLOC, LOAD, RELOC, READONLY, CODE
  9 .text._ZN6Server5writeEPKhj 000000a4  00000000  00000000  000001fa  2**0
                  CONTENTS, ALLOC, LOAD, RELOC, READONLY, CODE
 10 .text._ZN6Server9availableEv 000000d8  00000000  00000000  0000029e  2**0
                  CONTENTS, ALLOC, LOAD, RELOC, READONLY, CODE
 11 .rodata._ZTV6Server 0000000a  00000000  00000000  00000376  2**0
                  CONTENTS, ALLOC, LOAD, RELOC, READONLY, DATA
 12 .rodata._ZTV6Stream 00000010  00000000  00000000  00000380  2**0
                  CONTENTS, ALLOC, LOAD, RELOC, READONLY, DATA

Disassembly of section .text._ZN6ServerC2Ej:

00000000 <_ZN6ServerC2Ej>:
   0:	fc 01       	movw	r30, r24
   2:	80 e0       	ldi	r24, 0x00	; 0
   4:	90 e0       	ldi	r25, 0x00	; 0
   6:	91 83       	std	Z+1, r25	; 0x01
   8:	80 83       	st	Z, r24
   a:	73 83       	std	Z+3, r23	; 0x03
   c:	62 83       	std	Z+2, r22	; 0x02
   e:	08 95       	ret

Disassembly of section .text._ZN6ServerC1Ej:

00000000 <_ZN6ServerC1Ej>:
   0:	fc 01       	movw	r30, r24
   2:	80 e0       	ldi	r24, 0x00	; 0
   4:	90 e0       	ldi	r25, 0x00	; 0
   6:	91 83       	std	Z+1, r25	; 0x01
   8:	80 83       	st	Z, r24
   a:	73 83       	std	Z+3, r23	; 0x03
   c:	62 83       	std	Z+2, r22	; 0x02
   e:	08 95       	ret

Disassembly of section .text._ZN6Server5writeEh:

00000000 <_ZN6Server5writeEh>:
   0:	df 93       	push	r29
   2:	cf 93       	push	r28
   4:	0f 92       	push	r0
   6:	cd b7       	in	r28, 0x3d	; 61
   8:	de b7       	in	r29, 0x3e	; 62
   a:	fc 01       	movw	r30, r24
   c:	69 83       	std	Y+1, r22	; 0x01
   e:	a0 81       	ld	r26, Z
  10:	b1 81       	ldd	r27, Z+1	; 0x01
  12:	14 96       	adiw	r26, 0x04	; 4
  14:	2d 91       	ld	r18, X+
  16:	3c 91       	ld	r19, X
  18:	15 97       	sbiw	r26, 0x05	; 5
  1a:	be 01       	movw	r22, r28
  1c:	6f 5f       	subi	r22, 0xFF	; 255
  1e:	7f 4f       	sbci	r23, 0xFF	; 255
  20:	41 e0       	ldi	r20, 0x01	; 1
  22:	50 e0       	ldi	r21, 0x00	; 0
  24:	f9 01       	movw	r30, r18
  26:	09 95       	icall
  28:	0f 90       	pop	r0
  2a:	cf 91       	pop	r28
  2c:	df 91       	pop	r29
  2e:	08 95       	ret

Disassembly of section .text._ZN6Server5writeEPKc:

00000000 <_ZN6Server5writeEPKc>:
   0:	cf 93       	push	r28
   2:	df 93       	push	r29
   4:	db 01       	movw	r26, r22
   6:	0d 90       	ld	r0, X+
   8:	00 20       	and	r0, r0
   a:	01 f4       	brne	.+0      	; 0xc <_ZN6Server5writeEPKc+0xc>
   c:	11 97       	sbiw	r26, 0x01	; 1
   e:	a6 1b       	sub	r26, r22
  10:	b7 0b       	sbc	r27, r23
  12:	ec 01       	movw	r28, r24
  14:	e8 81       	ld	r30, Y
  16:	f9 81       	ldd	r31, Y+1	; 0x01
  18:	04 80       	ldd	r0, Z+4	; 0x04
  1a:	f5 81       	ldd	r31, Z+5	; 0x05
  1c:	e0 2d       	mov	r30, r0
  1e:	ad 01       	movw	r20, r26
  20:	09 95       	icall
  22:	df 91       	pop	r29
  24:	cf 91       	pop	r28
  26:	08 95       	ret

Disassembly of section .text._ZN6Server5beginEv:

00000000 <_ZN6Server5beginEv>:
   0:	cf 92       	push	r12
   2:	df 92       	push	r13
   4:	ef 92       	push	r14
   6:	ff 92       	push	r15
   8:	0f 93       	push	r16
   a:	1f 93       	push	r17
   c:	df 93       	push	r29
   e:	cf 93       	push	r28
  10:	cd b7       	in	r28, 0x3d	; 61
  12:	de b7       	in	r29, 0x3e	; 62
  14:	27 97       	sbiw	r28, 0x07	; 7
  16:	0f b6       	in	r0, 0x3f	; 63
  18:	f8 94       	cli
  1a:	de bf       	out	0x3e, r29	; 62
  1c:	0f be       	out	0x3f, r0	; 63
  1e:	cd bf       	out	0x3d, r28	; 61
  20:	6c 01       	movw	r12, r24
  22:	00 e0       	ldi	r16, 0x00	; 0
  24:	10 e0       	ldi	r17, 0x00	; 0
  26:	7e 01       	movw	r14, r28
  28:	08 94       	sec
  2a:	e1 1c       	adc	r14, r1
  2c:	f1 1c       	adc	r15, r1
  2e:	c7 01       	movw	r24, r14
  30:	60 2f       	mov	r22, r16
  32:	0e 94 00 00 	call	0	; 0x0 <_ZN6Server5beginEv>
  36:	c7 01       	movw	r24, r14
  38:	0e 94 00 00 	call	0	; 0x0 <_ZN6Server5beginEv>
  3c:	88 23       	and	r24, r24
  3e:	01 f4       	brne	.+0      	; 0x40 <_ZN6Server5beginEv+0x40>
  40:	f6 01       	movw	r30, r12
  42:	42 81       	ldd	r20, Z+2	; 0x02
  44:	53 81       	ldd	r21, Z+3	; 0x03
  46:	80 2f       	mov	r24, r16
  48:	61 e0       	ldi	r22, 0x01	; 1
  4a:	20 e0       	ldi	r18, 0x00	; 0
  4c:	0e 94 00 00 	call	0	; 0x0 <_ZN6Server5beginEv>
  50:	80 2f       	mov	r24, r16
  52:	0e 94 00 00 	call	0	; 0x0 <_ZN6Server5beginEv>
  56:	00 0f       	add	r16, r16
  58:	11 1f       	adc	r17, r17
  5a:	00 50       	subi	r16, 0x00	; 0
  5c:	10 40       	sbci	r17, 0x00	; 0
  5e:	f6 01       	movw	r30, r12
  60:	82 81       	ldd	r24, Z+2	; 0x02
  62:	93 81       	ldd	r25, Z+3	; 0x03
  64:	f8 01       	movw	r30, r16
  66:	91 83       	std	Z+1, r25	; 0x01
  68:	80 83       	st	Z, r24
  6a:	00 c0       	rjmp	.+0      	; 0x6c <_ZN6Server5beginEv+0x6c>
  6c:	0f 5f       	subi	r16, 0xFF	; 255
  6e:	1f 4f       	sbci	r17, 0xFF	; 255
  70:	04 30       	cpi	r16, 0x04	; 4
  72:	11 05       	cpc	r17, r1
  74:	01 f4       	brne	.+0      	; 0x76 <_ZN6Server5beginEv+0x76>
  76:	27 96       	adiw	r28, 0x07	; 7
  78:	0f b6       	in	r0, 0x3f	; 63
  7a:	f8 94       	cli
  7c:	de bf       	out	0x3e, r29	; 62
  7e:	0f be       	out	0x3f, r0	; 63
  80:	cd bf       	out	0x3d, r28	; 61
  82:	cf 91       	pop	r28
  84:	df 91       	pop	r29
  86:	1f 91       	pop	r17
  88:	0f 91       	pop	r16
  8a:	ff 90       	pop	r15
  8c:	ef 90       	pop	r14
  8e:	df 90       	pop	r13
  90:	cf 90       	pop	r12
  92:	08 95       	ret

Disassembly of section .text._ZN6Server6acceptEv:

00000000 <_ZN6Server6acceptEv>:
   0:	8f 92       	push	r8
   2:	9f 92       	push	r9
   4:	af 92       	push	r10
   6:	bf 92       	push	r11
   8:	df 92       	push	r13
   a:	ef 92       	push	r14
   c:	ff 92       	push	r15
   e:	0f 93       	push	r16
  10:	1f 93       	push	r17
  12:	df 93       	push	r29
  14:	cf 93       	push	r28
  16:	cd b7       	in	r28, 0x3d	; 61
  18:	de b7       	in	r29, 0x3e	; 62
  1a:	27 97       	sbiw	r28, 0x07	; 7
  1c:	0f b6       	in	r0, 0x3f	; 63
  1e:	f8 94       	cli
  20:	de bf       	out	0x3e, r29	; 62
  22:	0f be       	out	0x3f, r0	; 63
  24:	cd bf       	out	0x3d, r28	; 61
  26:	4c 01       	movw	r8, r24
  28:	00 e0       	ldi	r16, 0x00	; 0
  2a:	10 e0       	ldi	r17, 0x00	; 0
  2c:	aa 24       	eor	r10, r10
  2e:	bb 24       	eor	r11, r11
  30:	dd 24       	eor	r13, r13
  32:	7e 01       	movw	r14, r28
  34:	08 94       	sec
  36:	e1 1c       	adc	r14, r1
  38:	f1 1c       	adc	r15, r1
  3a:	c7 01       	movw	r24, r14
  3c:	6d 2d       	mov	r22, r13
  3e:	0e 94 00 00 	call	0	; 0x0 <_ZN6Server6acceptEv>
  42:	f8 01       	movw	r30, r16
  44:	20 81       	ld	r18, Z
  46:	31 81       	ldd	r19, Z+1	; 0x01
  48:	f4 01       	movw	r30, r8
  4a:	82 81       	ldd	r24, Z+2	; 0x02
  4c:	93 81       	ldd	r25, Z+3	; 0x03
  4e:	28 17       	cp	r18, r24
  50:	39 07       	cpc	r19, r25
  52:	01 f4       	brne	.+0      	; 0x54 <_ZN6Server6acceptEv+0x54>
  54:	c7 01       	movw	r24, r14
  56:	0e 94 00 00 	call	0	; 0x0 <_ZN6Server6acceptEv>
  5a:	84 31       	cpi	r24, 0x14	; 20
  5c:	01 f4       	brne	.+0      	; 0x5e <_ZN6Server6acceptEv+0x5e>
  5e:	91 e0       	ldi	r25, 0x01	; 1
  60:	a9 2e       	mov	r10, r25
  62:	b1 2c       	mov	r11, r1
  64:	00 c0       	rjmp	.+0      	; 0x66 <_ZN6Server6acceptEv+0x66>
  66:	c7 01       	movw	r24, r14
  68:	0e 94 00 00 	call	0	; 0x0 <_ZN6Server6acceptEv>
  6c:	8c 31       	cpi	r24, 0x1C	; 28
  6e:	01 f4       	brne	.+0      	; 0x70 <_ZN6Server6acceptEv+0x70>
  70:	c7 01       	movw	r24, r14
  72:	0e 94 00 00 	call	0	; 0x0 <_ZN6Server6acceptEv>
  76:	89 2b       	or	r24, r25
  78:	01 f4       	brne	.+0      	; 0x7a <_ZN6Server6acceptEv+0x7a>
  7a:	c7 01       	movw	r24, r14
  7c:	0e 94 00 00 	call	0	; 0x0 <_ZN6Server6acceptEv>
  80:	d3 94       	inc	r13
  82:	0e 5f       	subi	r16, 0xFE	; 254
  84:	1f 4f       	sbci	r17, 0xFF	; 255
  86:	f4 e0       	ldi	r31, 0x04	; 4
  88:	df 16       	cp	r13, r31
  8a:	01 f4       	brne	.+0      	; 0x8c <_ZN6Server6acceptEv+0x8c>
  8c:	ab 28       	or	r10, r11
  8e:	01 f4       	brne	.+0      	; 0x90 <_ZN6Server6acceptEv+0x90>
  90:	c4 01       	movw	r24, r8
  92:	0e 94 00 00 	call	0	; 0x0 <_ZN6Server6acceptEv>
  96:	27 96       	adiw	r28, 0x07	; 7
  98:	0f b6       	in	r0, 0x3f	; 63
  9a:	f8 94       	cli
  9c:	de bf       	out	0x3e, r29	; 62
  9e:	0f be       	out	0x3f, r0	; 63
  a0:	cd bf       	out	0x3d, r28	; 61
  a2:	cf 91       	pop	r28
  a4:	df 91       	pop	r29
  a6:	1f 91       	pop	r17
  a8:	0f 91       	pop	r16
  aa:	ff 90       	pop	r15
  ac:	ef 90       	pop	r14
  ae:	df 90       	pop	r13
  b0:	bf 90       	pop	r11
  b2:	af 90       	pop	r10
  b4:	9f 90       	pop	r9
  b6:	8f 90       	pop	r8
  b8:	08 95       	ret

Disassembly of section .text._ZN6Server5writeEPKhj:

00000000 <_ZN6Server5writeEPKhj>:
   0:	6f 92       	push	r6
   2:	7f 92       	push	r7
   4:	8f 92       	push	r8
   6:	9f 92       	push	r9
   8:	af 92       	push	r10
   a:	bf 92       	push	r11
   c:	cf 92       	push	r12
   e:	df 92       	push	r13
  10:	ff 92       	push	r15
  12:	0f 93       	push	r16
  14:	1f 93       	push	r17
  16:	df 93       	push	r29
  18:	cf 93       	push	r28
  1a:	cd b7       	in	r28, 0x3d	; 61
  1c:	de b7       	in	r29, 0x3e	; 62
  1e:	27 97       	sbiw	r28, 0x07	; 7
  20:	0f b6       	in	r0, 0x3f	; 63
  22:	f8 94       	cli
  24:	de bf       	out	0x3e, r29	; 62
  26:	0f be       	out	0x3f, r0	; 63
  28:	cd bf       	out	0x3d, r28	; 61
  2a:	5c 01       	movw	r10, r24
  2c:	3b 01       	movw	r6, r22
  2e:	4a 01       	movw	r8, r20
  30:	0e 94 00 00 	call	0	; 0x0 <_ZN6Server5writeEPKhj>
  34:	00 e0       	ldi	r16, 0x00	; 0
  36:	10 e0       	ldi	r17, 0x00	; 0
  38:	ff 24       	eor	r15, r15
  3a:	6e 01       	movw	r12, r28
  3c:	08 94       	sec
  3e:	c1 1c       	adc	r12, r1
  40:	d1 1c       	adc	r13, r1
  42:	c6 01       	movw	r24, r12
  44:	6f 2d       	mov	r22, r15
  46:	0e 94 00 00 	call	0	; 0x0 <_ZN6Server5writeEPKhj>
  4a:	f8 01       	movw	r30, r16
  4c:	20 81       	ld	r18, Z
  4e:	31 81       	ldd	r19, Z+1	; 0x01
  50:	f5 01       	movw	r30, r10
  52:	82 81       	ldd	r24, Z+2	; 0x02
  54:	93 81       	ldd	r25, Z+3	; 0x03
  56:	28 17       	cp	r18, r24
  58:	39 07       	cpc	r19, r25
  5a:	01 f4       	brne	.+0      	; 0x5c <_ZN6Server5writeEPKhj+0x5c>
  5c:	c6 01       	movw	r24, r12
  5e:	0e 94 00 00 	call	0	; 0x0 <_ZN6Server5writeEPKhj>
  62:	87 31       	cpi	r24, 0x17	; 23
  64:	01 f4       	brne	.+0      	; 0x66 <_ZN6Server5writeEPKhj+0x66>
  66:	c6 01       	movw	r24, r12
  68:	b3 01       	movw	r22, r6
  6a:	a4 01       	movw	r20, r8
  6c:	0e 94 00 00 	call	0	; 0x0 <_ZN6Server5writeEPKhj>
  70:	f3 94       	inc	r15
  72:	0e 5f       	subi	r16, 0xFE	; 254
  74:	1f 4f       	sbci	r17, 0xFF	; 255
  76:	f4 e0       	ldi	r31, 0x04	; 4
  78:	ff 16       	cp	r15, r31
  7a:	01 f4       	brne	.+0      	; 0x7c <_ZN6Server5writeEPKhj+0x7c>
  7c:	27 96       	adiw	r28, 0x07	; 7
  7e:	0f b6       	in	r0, 0x3f	; 63
  80:	f8 94       	cli
  82:	de bf       	out	0x3e, r29	; 62
  84:	0f be       	out	0x3f, r0	; 63
  86:	cd bf       	out	0x3d, r28	; 61
  88:	cf 91       	pop	r28
  8a:	df 91       	pop	r29
  8c:	1f 91       	pop	r17
  8e:	0f 91       	pop	r16
  90:	ff 90       	pop	r15
  92:	df 90       	pop	r13
  94:	cf 90       	pop	r12
  96:	bf 90       	pop	r11
  98:	af 90       	pop	r10
  9a:	9f 90       	pop	r9
  9c:	8f 90       	pop	r8
  9e:	7f 90       	pop	r7
  a0:	6f 90       	pop	r6
  a2:	08 95       	ret

Disassembly of section .text._ZN6Server9availableEv:

00000000 <_ZN6Server9availableEv>:
   0:	9f 92       	push	r9
   2:	af 92       	push	r10
   4:	bf 92       	push	r11
   6:	cf 92       	push	r12
   8:	df 92       	push	r13
   a:	ef 92       	push	r14
   c:	ff 92       	push	r15
   e:	0f 93       	push	r16
  10:	1f 93       	push	r17
  12:	df 93       	push	r29
  14:	cf 93       	push	r28
  16:	cd b7       	in	r28, 0x3d	; 61
  18:	de b7       	in	r29, 0x3e	; 62
  1a:	27 97       	sbiw	r28, 0x07	; 7
  1c:	0f b6       	in	r0, 0x3f	; 63
  1e:	f8 94       	cli
  20:	de bf       	out	0x3e, r29	; 62
  22:	0f be       	out	0x3f, r0	; 63
  24:	cd bf       	out	0x3d, r28	; 61
  26:	c8 2e       	mov	r12, r24
  28:	99 2e       	mov	r9, r25
  2a:	5b 01       	movw	r10, r22
  2c:	cb 01       	movw	r24, r22
  2e:	0e 94 00 00 	call	0	; 0x0 <_ZN6Server9availableEv>
  32:	00 e0       	ldi	r16, 0x00	; 0
  34:	10 e0       	ldi	r17, 0x00	; 0
  36:	dd 24       	eor	r13, r13
  38:	7e 01       	movw	r14, r28
  3a:	08 94       	sec
  3c:	e1 1c       	adc	r14, r1
  3e:	f1 1c       	adc	r15, r1
  40:	c7 01       	movw	r24, r14
  42:	6d 2d       	mov	r22, r13
  44:	0e 94 00 00 	call	0	; 0x0 <_ZN6Server9availableEv>
  48:	f8 01       	movw	r30, r16
  4a:	20 81       	ld	r18, Z
  4c:	31 81       	ldd	r19, Z+1	; 0x01
  4e:	f5 01       	movw	r30, r10
  50:	82 81       	ldd	r24, Z+2	; 0x02
  52:	93 81       	ldd	r25, Z+3	; 0x03
  54:	28 17       	cp	r18, r24
  56:	39 07       	cpc	r19, r25
  58:	01 f4       	brne	.+0      	; 0x5a <_ZN6Server9availableEv+0x5a>
  5a:	c7 01       	movw	r24, r14
  5c:	0e 94 00 00 	call	0	; 0x0 <_ZN6Server9availableEv>
  60:	87 31       	cpi	r24, 0x17	; 23
  62:	01 f0       	breq	.+0      	; 0x64 <_ZN6Server9availableEv+0x64>
  64:	c7 01       	movw	r24, r14
  66:	0e 94 00 00 	call	0	; 0x0 <_ZN6Server9availableEv>
  6a:	8c 31       	cpi	r24, 0x1C	; 28
  6c:	01 f4       	brne	.+0      	; 0x6e <_ZN6Server9availableEv+0x6e>
  6e:	c7 01       	movw	r24, r14
  70:	0e 94 00 00 	call	0	; 0x0 <_ZN6Server9availableEv>
  74:	89 2b       	or	r24, r25
  76:	01 f0       	breq	.+0      	; 0x78 <_ZN6Server9availableEv+0x78>
  78:	ec 2d       	mov	r30, r12
  7a:	f9 2d       	mov	r31, r9
  7c:	80 e0       	ldi	r24, 0x00	; 0
  7e:	90 e0       	ldi	r25, 0x00	; 0
  80:	91 83       	std	Z+1, r25	; 0x01
  82:	80 83       	st	Z, r24
  84:	8b 81       	ldd	r24, Y+3	; 0x03
  86:	82 83       	std	Z+2, r24	; 0x02
  88:	8c 81       	ldd	r24, Y+4	; 0x04
  8a:	9d 81       	ldd	r25, Y+5	; 0x05
  8c:	94 83       	std	Z+4, r25	; 0x04
  8e:	83 83       	std	Z+3, r24	; 0x03
  90:	8e 81       	ldd	r24, Y+6	; 0x06
  92:	9f 81       	ldd	r25, Y+7	; 0x07
  94:	96 83       	std	Z+6, r25	; 0x06
  96:	85 83       	std	Z+5, r24	; 0x05
  98:	00 c0       	rjmp	.+0      	; 0x9a <_ZN6Server9availableEv+0x9a>
  9a:	d3 94       	inc	r13
  9c:	0e 5f       	subi	r16, 0xFE	; 254
  9e:	1f 4f       	sbci	r17, 0xFF	; 255
  a0:	f4 e0       	ldi	r31, 0x04	; 4
  a2:	df 16       	cp	r13, r31
  a4:	01 f4       	brne	.+0      	; 0xa6 <_ZN6Server9availableEv+0xa6>
  a6:	8c 2d       	mov	r24, r12
  a8:	99 2d       	mov	r25, r9
  aa:	64 e0       	ldi	r22, 0x04	; 4
  ac:	0e 94 00 00 	call	0	; 0x0 <_ZN6Server9availableEv>
  b0:	8c 2d       	mov	r24, r12
  b2:	99 2d       	mov	r25, r9
  b4:	27 96       	adiw	r28, 0x07	; 7
  b6:	0f b6       	in	r0, 0x3f	; 63
  b8:	f8 94       	cli
  ba:	de bf       	out	0x3e, r29	; 62
  bc:	0f be       	out	0x3f, r0	; 63
  be:	cd bf       	out	0x3d, r28	; 61
  c0:	cf 91       	pop	r28
  c2:	df 91       	pop	r29
  c4:	1f 91       	pop	r17
  c6:	0f 91       	pop	r16
  c8:	ff 90       	pop	r15
  ca:	ef 90       	pop	r14
  cc:	df 90       	pop	r13
  ce:	cf 90       	pop	r12
  d0:	bf 90       	pop	r11
  d2:	af 90       	pop	r10
  d4:	9f 90       	pop	r9
  d6:	08 95       	ret

Udp.o:     file format elf32-avr

Sections:
Idx Name          Size      VMA       LMA       File off  Algn
  0 .text         00000000  00000000  00000000  00000034  2**0
                  CONTENTS, ALLOC, LOAD, READONLY, CODE
  1 .data         00000000  00000000  00000000  00000034  2**0
                  CONTENTS, ALLOC, LOAD, DATA
  2 .bss          00000000  00000000  00000000  00000034  2**0
                  ALLOC
  3 .text._ZN8UdpClass10readPacketEPhj 0000003c  00000000  00000000  00000034  2**0
                  CONTENTS, ALLOC, LOAD, RELOC, READONLY, CODE
  4 .text._ZN8UdpClass9availableEv 0000000e  00000000  00000000  00000070  2**0
                  CONTENTS, ALLOC, LOAD, RELOC, READONLY, CODE
  5 .text._ZN8UdpClass10readPacketEPhjS0_Pj 0000013e  00000000  00000000  0000007e  2**0
                  CONTENTS, ALLOC, LOAD, RELOC, READONLY, CODE
  6 .text._ZN8UdpClass10readPacketEPcjPhRj 0000003a  00000000  00000000  000001bc  2**0
                  CONTENTS, ALLOC, LOAD, RELOC, READONLY, CODE
  7 .text._ZN8UdpClass10sendPacketEPKcPhj 00000032  00000000  00000000  000001f6  2**0
                  CONTENTS, ALLOC, LOAD, RELOC, READONLY, CODE
  8 .text._ZN8UdpClass10sendPacketEPhjS0_j 00000012  00000000  00000000  00000228  2**0
                  CONTENTS, ALLOC, LOAD, RELOC, READONLY, CODE
  9 .text._ZN8UdpClass5beginEj 00000016  00000000  00000000  0000023a  2**0
                  CONTENTS, ALLOC, LOAD, RELOC, READONLY, CODE
 10 .bss.Udp      00000003  00000000  00000000  00000250  2**0
                  ALLOC

Disassembly of section .text._ZN8UdpClass10readPacketEPhj:

00000000 <_ZN8UdpClass10readPacketEPhj>:
   0:	0f 93       	push	r16
   2:	1f 93       	push	r17
   4:	df 93       	push	r29
   6:	cf 93       	push	r28
   8:	00 d0       	rcall	.+0      	; 0xa <_ZN8UdpClass10readPacketEPhj+0xa>
   a:	00 d0       	rcall	.+0      	; 0xc <_ZN8UdpClass10readPacketEPhj+0xc>
   c:	00 d0       	rcall	.+0      	; 0xe <_ZN8UdpClass10readPacketEPhj+0xe>
   e:	cd b7       	in	r28, 0x3d	; 61
  10:	de b7       	in	r29, 0x3e	; 62
  12:	fc 01       	movw	r30, r24
  14:	80 81       	ld	r24, Z
  16:	9e 01       	movw	r18, r28
  18:	2d 5f       	subi	r18, 0xFD	; 253
  1a:	3f 4f       	sbci	r19, 0xFF	; 255
  1c:	8e 01       	movw	r16, r28
  1e:	0f 5f       	subi	r16, 0xFF	; 255
  20:	1f 4f       	sbci	r17, 0xFF	; 255
  22:	0e 94 00 00 	call	0	; 0x0 <_ZN8UdpClass10readPacketEPhj>
  26:	26 96       	adiw	r28, 0x06	; 6
  28:	0f b6       	in	r0, 0x3f	; 63
  2a:	f8 94       	cli
  2c:	de bf       	out	0x3e, r29	; 62
  2e:	0f be       	out	0x3f, r0	; 63
  30:	cd bf       	out	0x3d, r28	; 61
  32:	cf 91       	pop	r28
  34:	df 91       	pop	r29
  36:	1f 91       	pop	r17
  38:	0f 91       	pop	r16
  3a:	08 95       	ret

Disassembly of section .text._ZN8UdpClass9availableEv:

00000000 <_ZN8UdpClass9availableEv>:
   0:	fc 01       	movw	r30, r24
   2:	80 e0       	ldi	r24, 0x00	; 0
   4:	90 e0       	ldi	r25, 0x00	; 0
   6:	60 81       	ld	r22, Z
   8:	0e 94 00 00 	call	0	; 0x0 <_ZN8UdpClass9availableEv>
   c:	08 95       	ret

Disassembly of section .text._ZN8UdpClass10readPacketEPhjS0_Pj:

00000000 <_ZN8UdpClass10readPacketEPhjS0_Pj>:
   0:	2f 92       	push	r2
   2:	3f 92       	push	r3
   4:	4f 92       	push	r4
   6:	5f 92       	push	r5
   8:	6f 92       	push	r6
   a:	7f 92       	push	r7
   c:	8f 92       	push	r8
   e:	9f 92       	push	r9
  10:	af 92       	push	r10
  12:	bf 92       	push	r11
  14:	cf 92       	push	r12
  16:	df 92       	push	r13
  18:	ef 92       	push	r14
  1a:	ff 92       	push	r15
  1c:	0f 93       	push	r16
  1e:	1f 93       	push	r17
  20:	df 93       	push	r29
  22:	cf 93       	push	r28
  24:	cd b7       	in	r28, 0x3d	; 61
  26:	de b7       	in	r29, 0x3e	; 62
  28:	28 97       	sbiw	r28, 0x08	; 8
  2a:	0f b6       	in	r0, 0x3f	; 63
  2c:	f8 94       	cli
  2e:	de bf       	out	0x3e, r29	; 62
  30:	0f be       	out	0x3f, r0	; 63
  32:	cd bf       	out	0x3d, r28	; 61
  34:	5c 01       	movw	r10, r24
  36:	1b 01       	movw	r2, r22
  38:	74 2e       	mov	r7, r20
  3a:	65 2e       	mov	r6, r21
  3c:	79 01       	movw	r14, r18
  3e:	28 01       	movw	r4, r16
  40:	0e 94 00 00 	call	0	; 0x0 <_ZN8UdpClass10readPacketEPhjS0_Pj>
  44:	28 ef       	ldi	r18, 0xF8	; 248
  46:	82 2e       	mov	r8, r18
  48:	2f ef       	ldi	r18, 0xFF	; 255
  4a:	92 2e       	mov	r9, r18
  4c:	88 0e       	add	r8, r24
  4e:	99 1e       	adc	r9, r25
  50:	97 fe       	sbrs	r9, 7
  52:	00 c0       	rjmp	.+0      	; 0x54 <_ZN8UdpClass10readPacketEPhjS0_Pj+0x54>
  54:	20 e0       	ldi	r18, 0x00	; 0
  56:	30 e0       	ldi	r19, 0x00	; 0
  58:	00 c0       	rjmp	.+0      	; 0x5a <_ZN8UdpClass10readPacketEPhjS0_Pj+0x5a>
  5a:	c7 2c       	mov	r12, r7
  5c:	d6 2c       	mov	r13, r6
  5e:	c8 14       	cp	r12, r8
  60:	d9 04       	cpc	r13, r9
  62:	04 f0       	brlt	.+0      	; 0x64 <_ZN8UdpClass10readPacketEPhjS0_Pj+0x64>
  64:	00 c0       	rjmp	.+0      	; 0x66 <_ZN8UdpClass10readPacketEPhjS0_Pj+0x66>
  66:	f5 01       	movw	r30, r10
  68:	80 81       	ld	r24, Z
  6a:	8e 01       	movw	r16, r28
  6c:	0f 5f       	subi	r16, 0xFF	; 255
  6e:	1f 4f       	sbci	r17, 0xFF	; 255
  70:	b8 01       	movw	r22, r16
  72:	48 e0       	ldi	r20, 0x08	; 8
  74:	50 e0       	ldi	r21, 0x00	; 0
  76:	0e 94 00 00 	call	0	; 0x0 <_ZN8UdpClass10readPacketEPhjS0_Pj>
  7a:	89 81       	ldd	r24, Y+1	; 0x01
  7c:	f7 01       	movw	r30, r14
  7e:	80 83       	st	Z, r24
  80:	8a 81       	ldd	r24, Y+2	; 0x02
  82:	81 83       	std	Z+1, r24	; 0x01
  84:	8b 81       	ldd	r24, Y+3	; 0x03
  86:	82 83       	std	Z+2, r24	; 0x02
  88:	8c 81       	ldd	r24, Y+4	; 0x04
  8a:	83 83       	std	Z+3, r24	; 0x03
  8c:	9d 81       	ldd	r25, Y+5	; 0x05
  8e:	80 e0       	ldi	r24, 0x00	; 0
  90:	2e 81       	ldd	r18, Y+6	; 0x06
  92:	82 0f       	add	r24, r18
  94:	91 1d       	adc	r25, r1
  96:	f2 01       	movw	r30, r4
  98:	91 83       	std	Z+1, r25	; 0x01
  9a:	80 83       	st	Z, r24
  9c:	ee 24       	eor	r14, r14
  9e:	ff 24       	eor	r15, r15
  a0:	70 2e       	mov	r7, r16
  a2:	01 2f       	mov	r16, r17
  a4:	00 c0       	rjmp	.+0      	; 0xa6 <_ZN8UdpClass10readPacketEPhjS0_Pj+0xa6>
  a6:	f5 01       	movw	r30, r10
  a8:	80 81       	ld	r24, Z
  aa:	67 2d       	mov	r22, r7
  ac:	70 2f       	mov	r23, r16
  ae:	41 e0       	ldi	r20, 0x01	; 1
  b0:	50 e0       	ldi	r21, 0x00	; 0
  b2:	0e 94 00 00 	call	0	; 0x0 <_ZN8UdpClass10readPacketEPhjS0_Pj>
  b6:	f1 01       	movw	r30, r2
  b8:	ee 0d       	add	r30, r14
  ba:	ff 1d       	adc	r31, r15
  bc:	89 81       	ldd	r24, Y+1	; 0x01
  be:	80 83       	st	Z, r24
  c0:	08 94       	sec
  c2:	e1 1c       	adc	r14, r1
  c4:	f1 1c       	adc	r15, r1
  c6:	ec 14       	cp	r14, r12
  c8:	fd 04       	cpc	r15, r13
  ca:	04 f0       	brlt	.+0      	; 0xcc <_ZN8UdpClass10readPacketEPhjS0_Pj+0xcc>
  cc:	00 c0       	rjmp	.+0      	; 0xce <_ZN8UdpClass10readPacketEPhjS0_Pj+0xce>
  ce:	f5 01       	movw	r30, r10
  d0:	80 81       	ld	r24, Z
  d2:	b8 01       	movw	r22, r16
  d4:	41 e0       	ldi	r20, 0x01	; 1
  d6:	50 e0       	ldi	r21, 0x00	; 0
  d8:	0e 94 00 00 	call	0	; 0x0 <_ZN8UdpClass10readPacketEPhjS0_Pj>
  dc:	00 c0       	rjmp	.+0      	; 0xde <_ZN8UdpClass10readPacketEPhjS0_Pj+0xde>
  de:	8e 01       	movw	r16, r28
  e0:	0f 5f       	subi	r16, 0xFF	; 255
  e2:	1f 4f       	sbci	r17, 0xFF	; 255
  e4:	c5 01       	movw	r24, r10
  e6:	0e 94 00 00 	call	0	; 0x0 <_ZN8UdpClass10readPacketEPhjS0_Pj>
  ea:	89 2b       	or	r24, r25
  ec:	01 f4       	brne	.+0      	; 0xee <_ZN8UdpClass10readPacketEPhjS0_Pj+0xee>
  ee:	22 27       	eor	r18, r18
  f0:	33 27       	eor	r19, r19
  f2:	28 19       	sub	r18, r8
  f4:	39 09       	sbc	r19, r9
  f6:	00 c0       	rjmp	.+0      	; 0xf8 <_ZN8UdpClass10readPacketEPhjS0_Pj+0xf8>
  f8:	f5 01       	movw	r30, r10
  fa:	80 81       	ld	r24, Z
  fc:	b1 01       	movw	r22, r2
  fe:	47 2d       	mov	r20, r7
 100:	56 2d       	mov	r21, r6
 102:	97 01       	movw	r18, r14
 104:	0e 94 00 00 	call	0	; 0x0 <_ZN8UdpClass10readPacketEPhjS0_Pj>
 108:	9c 01       	movw	r18, r24
 10a:	c9 01       	movw	r24, r18
 10c:	28 96       	adiw	r28, 0x08	; 8
 10e:	0f b6       	in	r0, 0x3f	; 63
 110:	f8 94       	cli
 112:	de bf       	out	0x3e, r29	; 62
 114:	0f be       	out	0x3f, r0	; 63
 116:	cd bf       	out	0x3d, r28	; 61
 118:	cf 91       	pop	r28
 11a:	df 91       	pop	r29
 11c:	1f 91       	pop	r17
 11e:	0f 91       	pop	r16
 120:	ff 90       	pop	r15
 122:	ef 90       	pop	r14
 124:	df 90       	pop	r13
 126:	cf 90       	pop	r12
 128:	bf 90       	pop	r11
 12a:	af 90       	pop	r10
 12c:	9f 90       	pop	r9
 12e:	8f 90       	pop	r8
 130:	7f 90       	pop	r7
 132:	6f 90       	pop	r6
 134:	5f 90       	pop	r5
 136:	4f 90       	pop	r4
 138:	3f 90       	pop	r3
 13a:	2f 90       	pop	r2
 13c:	08 95       	ret

Disassembly of section .text._ZN8UdpClass10readPacketEPcjPhRj:

00000000 <_ZN8UdpClass10readPacketEPcjPhRj>:
   0:	ef 92       	push	r14
   2:	ff 92       	push	r15
   4:	0f 93       	push	r16
   6:	1f 93       	push	r17
   8:	df 93       	push	r29
   a:	cf 93       	push	r28
   c:	00 d0       	rcall	.+0      	; 0xe <_ZN8UdpClass10readPacketEPcjPhRj+0xe>
   e:	cd b7       	in	r28, 0x3d	; 61
  10:	de b7       	in	r29, 0x3e	; 62
  12:	78 01       	movw	r14, r16
  14:	8e 01       	movw	r16, r28
  16:	0f 5f       	subi	r16, 0xFF	; 255
  18:	1f 4f       	sbci	r17, 0xFF	; 255
  1a:	0e 94 00 00 	call	0	; 0x0 <_ZN8UdpClass10readPacketEPcjPhRj>
  1e:	29 81       	ldd	r18, Y+1	; 0x01
  20:	3a 81       	ldd	r19, Y+2	; 0x02
  22:	f7 01       	movw	r30, r14
  24:	31 83       	std	Z+1, r19	; 0x01
  26:	20 83       	st	Z, r18
  28:	0f 90       	pop	r0
  2a:	0f 90       	pop	r0
  2c:	cf 91       	pop	r28
  2e:	df 91       	pop	r29
  30:	1f 91       	pop	r17
  32:	0f 91       	pop	r16
  34:	ff 90       	pop	r15
  36:	ef 90       	pop	r14
  38:	08 95       	ret

Disassembly of section .text._ZN8UdpClass10sendPacketEPKcPhj:

00000000 <_ZN8UdpClass10sendPacketEPKcPhj>:
   0:	0f 93       	push	r16
   2:	1f 93       	push	r17
   4:	cf 93       	push	r28
   6:	df 93       	push	r29
   8:	dc 01       	movw	r26, r24
   a:	ea 01       	movw	r28, r20
   c:	89 01       	movw	r16, r18
   e:	fb 01       	movw	r30, r22
  10:	00 c0       	rjmp	.+0      	; 0x12 <_ZN8UdpClass10sendPacketEPKcPhj+0x12>
  12:	31 96       	adiw	r30, 0x01	; 1
  14:	80 81       	ld	r24, Z
  16:	88 23       	and	r24, r24
  18:	01 f4       	brne	.+0      	; 0x1a <_ZN8UdpClass10sendPacketEPKcPhj+0x1a>
  1a:	e6 1b       	sub	r30, r22
  1c:	f7 0b       	sbc	r31, r23
  1e:	8c 91       	ld	r24, X
  20:	af 01       	movw	r20, r30
  22:	9e 01       	movw	r18, r28
  24:	0e 94 00 00 	call	0	; 0x0 <_ZN8UdpClass10sendPacketEPKcPhj>
  28:	df 91       	pop	r29
  2a:	cf 91       	pop	r28
  2c:	1f 91       	pop	r17
  2e:	0f 91       	pop	r16
  30:	08 95       	ret

Disassembly of section .text._ZN8UdpClass10sendPacketEPhjS0_j:

00000000 <_ZN8UdpClass10sendPacketEPhjS0_j>:
   0:	0f 93       	push	r16
   2:	1f 93       	push	r17
   4:	fc 01       	movw	r30, r24
   6:	80 81       	ld	r24, Z
   8:	0e 94 00 00 	call	0	; 0x0 <_ZN8UdpClass10sendPacketEPhjS0_j>
   c:	1f 91       	pop	r17
   e:	0f 91       	pop	r16
  10:	08 95       	ret

Disassembly of section .text._ZN8UdpClass5beginEj:

00000000 <_ZN8UdpClass5beginEj>:
   0:	fc 01       	movw	r30, r24
   2:	ab 01       	movw	r20, r22
   4:	72 83       	std	Z+2, r23	; 0x02
   6:	61 83       	std	Z+1, r22	; 0x01
   8:	10 82       	st	Z, r1
   a:	80 e0       	ldi	r24, 0x00	; 0
   c:	62 e0       	ldi	r22, 0x02	; 2
   e:	20 e0       	ldi	r18, 0x00	; 0
  10:	0e 94 00 00 	call	0	; 0x0 <_ZN8UdpClass5beginEj>
  14:	08 95       	ret

EEPROM.o:     file format elf32-avr

Sections:
Idx Name          Size      VMA       LMA       File off  Algn
  0 .text         00000000  00000000  00000000  00000034  2**0
                  CONTENTS, ALLOC, LOAD, READONLY, CODE
  1 .data         00000000  00000000  00000000  00000034  2**0
                  CONTENTS, ALLOC, LOAD, DATA
  2 .bss          00000000  00000000  00000000  00000034  2**0
                  ALLOC
  3 .text._ZN11EEPROMClass5writeEih 0000000a  00000000  00000000  00000034  2**0
                  CONTENTS, ALLOC, LOAD, RELOC, READONLY, CODE
  4 .text._ZN11EEPROMClass4readEi 00000008  00000000  00000000  0000003e  2**0
                  CONTENTS, ALLOC, LOAD, RELOC, READONLY, CODE
  5 .bss.EEPROM   00000001  00000000  00000000  00000046  2**0
                  ALLOC

Disassembly of section .text._ZN11EEPROMClass5writeEih:

00000000 <_ZN11EEPROMClass5writeEih>:
   0:	cb 01       	movw	r24, r22
   2:	64 2f       	mov	r22, r20
   4:	0e 94 00 00 	call	0	; 0x0 <_ZN11EEPROMClass5writeEih>
   8:	08 95       	ret

Disassembly of section .text._ZN11EEPROMClass4readEi:

00000000 <_ZN11EEPROMClass4readEi>:
   0:	cb 01       	movw	r24, r22
   2:	0e 94 00 00 	call	0	; 0x0 <_ZN11EEPROMClass4readEi>
   6:	08 95       	ret
