In archive libArduino.a:

HardwareSerial.o:     file format elf32-avr

Sections:
Idx Name          Size      VMA       LMA       File off  Algn
  0 .text         00000000  00000000  00000000  00000034  2**0
                  CONTENTS, ALLOC, LOAD, READONLY, CODE
  1 .data         00000000  00000000  00000000  00000034  2**0
                  CONTENTS, ALLOC, LOAD, DATA
  2 .bss          00000000  00000000  00000000  00000034  2**0
                  ALLOC
  3 .text._ZN14HardwareSerial9availableEv 0000002c  00000000  00000000  00000034  2**0
                  CONTENTS, ALLOC, LOAD, RELOC, READONLY, CODE
  4 .text._ZN14HardwareSerial4peekEv 00000034  00000000  00000000  00000060  2**0
                  CONTENTS, ALLOC, LOAD, RELOC, READONLY, CODE
  5 .text._ZN14HardwareSerial4readEv 00000048  00000000  00000000  00000094  2**0
                  CONTENTS, ALLOC, LOAD, RELOC, READONLY, CODE
  6 .text._ZN14HardwareSerial5flushEv 00000022  00000000  00000000  000000dc  2**0
                  CONTENTS, ALLOC, LOAD, READONLY, CODE
  7 .text._ZN14HardwareSerial5writeEh 00000026  00000000  00000000  000000fe  2**0
                  CONTENTS, ALLOC, LOAD, RELOC, READONLY, CODE
  8 .text._Z10store_charhP11ring_buffer 00000046  00000000  00000000  00000124  2**0
                  CONTENTS, ALLOC, LOAD, RELOC, READONLY, CODE
  9 .text.__vector_25 00000058  00000000  00000000  0000016a  2**0
                  CONTENTS, ALLOC, LOAD, RELOC, READONLY, CODE
 10 .text.__vector_36 00000058  00000000  00000000  000001c2  2**0
                  CONTENTS, ALLOC, LOAD, RELOC, READONLY, CODE
 11 .text.__vector_51 00000058  00000000  00000000  0000021a  2**0
                  CONTENTS, ALLOC, LOAD, RELOC, READONLY, CODE
 12 .text.__vector_54 00000058  00000000  00000000  00000272  2**0
                  CONTENTS, ALLOC, LOAD, RELOC, READONLY, CODE
 13 .text._ZN14HardwareSerialC2EP11ring_bufferPVhS3_S3_S3_S3_hhhhh 00000060  00000000  00000000  000002ca  2**0
                  CONTENTS, ALLOC, LOAD, RELOC, READONLY, CODE
 14 .text._ZN14HardwareSerial5beginEl 000001ce  00000000  00000000  0000032a  2**0
                  CONTENTS, ALLOC, LOAD, RELOC, READONLY, CODE
 15 .text._ZN14HardwareSerial3endEv 00000054  00000000  00000000  000004f8  2**0
                  CONTENTS, ALLOC, LOAD, RELOC, READONLY, CODE
 16 .text._GLOBAL__I_rx_buffer 000001a0  00000000  00000000  0000054c  2**0
                  CONTENTS, ALLOC, LOAD, RELOC, READONLY, CODE
 17 .ctors        00000002  00000000  00000000  000006ec  2**0
                  CONTENTS, ALLOC, LOAD, RELOC, READONLY, DATA
 18 .bss.rx_buffer 00000084  00000000  00000000  000006ee  2**0
                  ALLOC
 19 .bss.rx_buffer1 00000084  00000000  00000000  000006ee  2**0
                  ALLOC
 20 .bss.rx_buffer2 00000084  00000000  00000000  000006ee  2**0
                  ALLOC
 21 .bss.rx_buffer3 00000084  00000000  00000000  000006ee  2**0
                  ALLOC
 22 .bss.Serial   00000013  00000000  00000000  000006ee  2**0
                  ALLOC
 23 .bss.Serial1  00000013  00000000  00000000  000006ee  2**0
                  ALLOC
 24 .bss.Serial2  00000013  00000000  00000000  000006ee  2**0
                  ALLOC
 25 .bss.Serial3  00000013  00000000  00000000  000006ee  2**0
                  ALLOC
 26 .rodata._ZTV14HardwareSerial 00000012  00000000  00000000  000006ee  2**0
                  CONTENTS, ALLOC, LOAD, RELOC, READONLY, DATA
 27 .rodata._ZTV6Stream 00000010  00000000  00000000  00000700  2**0
                  CONTENTS, ALLOC, LOAD, RELOC, READONLY, DATA

Disassembly of section .text._ZN14HardwareSerial9availableEv:

00000000 <_ZN14HardwareSerial9availableEv>:
   0:	fc 01       	movw	r30, r24
   2:	22 81       	ldd	r18, Z+2	; 0x02
   4:	33 81       	ldd	r19, Z+3	; 0x03
   6:	f9 01       	movw	r30, r18
   8:	e0 58       	subi	r30, 0x80	; 128
   a:	ff 4f       	sbci	r31, 0xFF	; 255
   c:	80 81       	ld	r24, Z
   e:	91 81       	ldd	r25, Z+1	; 0x01
  10:	80 58       	subi	r24, 0x80	; 128
  12:	9f 4f       	sbci	r25, 0xFF	; 255
  14:	2e 57       	subi	r18, 0x7E	; 126
  16:	3f 4f       	sbci	r19, 0xFF	; 255
  18:	f9 01       	movw	r30, r18
  1a:	20 81       	ld	r18, Z
  1c:	31 81       	ldd	r19, Z+1	; 0x01
  1e:	82 1b       	sub	r24, r18
  20:	93 0b       	sbc	r25, r19
  22:	60 e8       	ldi	r22, 0x80	; 128
  24:	70 e0       	ldi	r23, 0x00	; 0
  26:	0e 94 00 00 	call	0	; 0x0 <_ZN14HardwareSerial9availableEv>
  2a:	08 95       	ret

Disassembly of section .text._ZN14HardwareSerial4peekEv:

00000000 <_ZN14HardwareSerial4peekEv>:
   0:	fc 01       	movw	r30, r24
   2:	82 81       	ldd	r24, Z+2	; 0x02
   4:	93 81       	ldd	r25, Z+3	; 0x03
   6:	fc 01       	movw	r30, r24
   8:	ee 57       	subi	r30, 0x7E	; 126
   a:	ff 4f       	sbci	r31, 0xFF	; 255
   c:	20 81       	ld	r18, Z
   e:	31 81       	ldd	r19, Z+1	; 0x01
  10:	fc 01       	movw	r30, r24
  12:	e0 58       	subi	r30, 0x80	; 128
  14:	ff 4f       	sbci	r31, 0xFF	; 255
  16:	40 81       	ld	r20, Z
  18:	51 81       	ldd	r21, Z+1	; 0x01
  1a:	42 17       	cp	r20, r18
  1c:	53 07       	cpc	r21, r19
  1e:	01 f0       	breq	.+0      	; 0x20 <_ZN14HardwareSerial4peekEv+0x20>
  20:	82 0f       	add	r24, r18
  22:	93 1f       	adc	r25, r19
  24:	fc 01       	movw	r30, r24
  26:	20 81       	ld	r18, Z
  28:	30 e0       	ldi	r19, 0x00	; 0
  2a:	00 c0       	rjmp	.+0      	; 0x2c <_ZN14HardwareSerial4peekEv+0x2c>
  2c:	2f ef       	ldi	r18, 0xFF	; 255
  2e:	3f ef       	ldi	r19, 0xFF	; 255
  30:	c9 01       	movw	r24, r18
  32:	08 95       	ret

Disassembly of section .text._ZN14HardwareSerial4readEv:

00000000 <_ZN14HardwareSerial4readEv>:
   0:	dc 01       	movw	r26, r24
   2:	12 96       	adiw	r26, 0x02	; 2
   4:	2d 91       	ld	r18, X+
   6:	3c 91       	ld	r19, X
   8:	13 97       	sbiw	r26, 0x03	; 3
   a:	f9 01       	movw	r30, r18
   c:	ee 57       	subi	r30, 0x7E	; 126
   e:	ff 4f       	sbci	r31, 0xFF	; 255
  10:	80 81       	ld	r24, Z
  12:	91 81       	ldd	r25, Z+1	; 0x01
  14:	d9 01       	movw	r26, r18
  16:	a0 58       	subi	r26, 0x80	; 128
  18:	bf 4f       	sbci	r27, 0xFF	; 255
  1a:	4d 91       	ld	r20, X+
  1c:	5c 91       	ld	r21, X
  1e:	11 97       	sbiw	r26, 0x01	; 1
  20:	48 17       	cp	r20, r24
  22:	59 07       	cpc	r21, r25
  24:	01 f0       	breq	.+0      	; 0x26 <_ZN14HardwareSerial4readEv+0x26>
  26:	28 0f       	add	r18, r24
  28:	39 1f       	adc	r19, r25
  2a:	d9 01       	movw	r26, r18
  2c:	2c 91       	ld	r18, X
  2e:	01 96       	adiw	r24, 0x01	; 1
  30:	60 e8       	ldi	r22, 0x80	; 128
  32:	70 e0       	ldi	r23, 0x00	; 0
  34:	0e 94 00 00 	call	0	; 0x0 <_ZN14HardwareSerial4readEv>
  38:	91 83       	std	Z+1, r25	; 0x01
  3a:	80 83       	st	Z, r24
  3c:	30 e0       	ldi	r19, 0x00	; 0
  3e:	00 c0       	rjmp	.+0      	; 0x40 <_ZN14HardwareSerial4readEv+0x40>
  40:	2f ef       	ldi	r18, 0xFF	; 255
  42:	3f ef       	ldi	r19, 0xFF	; 255
  44:	c9 01       	movw	r24, r18
  46:	08 95       	ret

Disassembly of section .text._ZN14HardwareSerial5flushEv:

00000000 <_ZN14HardwareSerial5flushEv>:
   0:	dc 01       	movw	r26, r24
   2:	12 96       	adiw	r26, 0x02	; 2
   4:	8d 91       	ld	r24, X+
   6:	9c 91       	ld	r25, X
   8:	13 97       	sbiw	r26, 0x03	; 3
   a:	fc 01       	movw	r30, r24
   c:	e0 58       	subi	r30, 0x80	; 128
   e:	ff 4f       	sbci	r31, 0xFF	; 255
  10:	8e 57       	subi	r24, 0x7E	; 126
  12:	9f 4f       	sbci	r25, 0xFF	; 255
  14:	dc 01       	movw	r26, r24
  16:	8d 91       	ld	r24, X+
  18:	9c 91       	ld	r25, X
  1a:	11 97       	sbiw	r26, 0x01	; 1
  1c:	91 83       	std	Z+1, r25	; 0x01
  1e:	80 83       	st	Z, r24
  20:	08 95       	ret

Disassembly of section .text._ZN14HardwareSerial5writeEh:

00000000 <_ZN14HardwareSerial5writeEh>:
   0:	fc 01       	movw	r30, r24
   2:	a0 85       	ldd	r26, Z+8	; 0x08
   4:	b1 85       	ldd	r27, Z+9	; 0x09
   6:	21 89       	ldd	r18, Z+17	; 0x11
   8:	8c 91       	ld	r24, X
   a:	90 e0       	ldi	r25, 0x00	; 0
   c:	02 2e       	mov	r0, r18
   e:	00 c0       	rjmp	.+0      	; 0x10 <_ZN14HardwareSerial5writeEh+0x10>
  10:	95 95       	asr	r25
  12:	87 95       	ror	r24
  14:	0a 94       	dec	r0
  16:	02 f4       	brpl	.+0      	; 0x18 <_ZN14HardwareSerial5writeEh+0x18>
  18:	80 ff       	sbrs	r24, 0
  1a:	00 c0       	rjmp	.+0      	; 0x1c <_ZN14HardwareSerial5writeEh+0x1c>
  1c:	04 84       	ldd	r0, Z+12	; 0x0c
  1e:	f5 85       	ldd	r31, Z+13	; 0x0d
  20:	e0 2d       	mov	r30, r0
  22:	60 83       	st	Z, r22
  24:	08 95       	ret

Disassembly of section .text._Z10store_charhP11ring_buffer:

00000000 <_Z10store_charhP11ring_buffer>:
   0:	1f 93       	push	r17
   2:	cf 93       	push	r28
   4:	df 93       	push	r29
   6:	18 2f       	mov	r17, r24
   8:	9b 01       	movw	r18, r22
   a:	eb 01       	movw	r28, r22
   c:	c0 58       	subi	r28, 0x80	; 128
   e:	df 4f       	sbci	r29, 0xFF	; 255
  10:	e8 81       	ld	r30, Y
  12:	f9 81       	ldd	r31, Y+1	; 0x01
  14:	cf 01       	movw	r24, r30
  16:	01 96       	adiw	r24, 0x01	; 1
  18:	60 e8       	ldi	r22, 0x80	; 128
  1a:	70 e0       	ldi	r23, 0x00	; 0
  1c:	0e 94 00 00 	call	0	; 0x0 <_Z10store_charhP11ring_buffer>
  20:	ac 01       	movw	r20, r24
  22:	d9 01       	movw	r26, r18
  24:	ae 57       	subi	r26, 0x7E	; 126
  26:	bf 4f       	sbci	r27, 0xFF	; 255
  28:	8d 91       	ld	r24, X+
  2a:	9c 91       	ld	r25, X
  2c:	11 97       	sbiw	r26, 0x01	; 1
  2e:	48 17       	cp	r20, r24
  30:	59 07       	cpc	r21, r25
  32:	01 f0       	breq	.+0      	; 0x34 <_Z10store_charhP11ring_buffer+0x34>
  34:	e2 0f       	add	r30, r18
  36:	f3 1f       	adc	r31, r19
  38:	10 83       	st	Z, r17
  3a:	59 83       	std	Y+1, r21	; 0x01
  3c:	48 83       	st	Y, r20
  3e:	df 91       	pop	r29
  40:	cf 91       	pop	r28
  42:	1f 91       	pop	r17
  44:	08 95       	ret

Disassembly of section .text.__vector_25:

00000000 <__vector_25>:
   0:	1f 92       	push	r1
   2:	0f 92       	push	r0
   4:	0f b6       	in	r0, 0x3f	; 63
   6:	0f 92       	push	r0
   8:	0b b6       	in	r0, 0x3b	; 59
   a:	0f 92       	push	r0
   c:	11 24       	eor	r1, r1
   e:	2f 93       	push	r18
  10:	3f 93       	push	r19
  12:	4f 93       	push	r20
  14:	5f 93       	push	r21
  16:	6f 93       	push	r22
  18:	7f 93       	push	r23
  1a:	8f 93       	push	r24
  1c:	9f 93       	push	r25
  1e:	af 93       	push	r26
  20:	bf 93       	push	r27
  22:	ef 93       	push	r30
  24:	ff 93       	push	r31
  26:	80 91 c6 00 	lds	r24, 0x00C6
  2a:	60 e0       	ldi	r22, 0x00	; 0
  2c:	70 e0       	ldi	r23, 0x00	; 0
  2e:	0e 94 00 00 	call	0	; 0x0 <__vector_25>
  32:	ff 91       	pop	r31
  34:	ef 91       	pop	r30
  36:	bf 91       	pop	r27
  38:	af 91       	pop	r26
  3a:	9f 91       	pop	r25
  3c:	8f 91       	pop	r24
  3e:	7f 91       	pop	r23
  40:	6f 91       	pop	r22
  42:	5f 91       	pop	r21
  44:	4f 91       	pop	r20
  46:	3f 91       	pop	r19
  48:	2f 91       	pop	r18
  4a:	0f 90       	pop	r0
  4c:	0b be       	out	0x3b, r0	; 59
  4e:	0f 90       	pop	r0
  50:	0f be       	out	0x3f, r0	; 63
  52:	0f 90       	pop	r0
  54:	1f 90       	pop	r1
  56:	18 95       	reti

Disassembly of section .text.__vector_36:

00000000 <__vector_36>:
   0:	1f 92       	push	r1
   2:	0f 92       	push	r0
   4:	0f b6       	in	r0, 0x3f	; 63
   6:	0f 92       	push	r0
   8:	0b b6       	in	r0, 0x3b	; 59
   a:	0f 92       	push	r0
   c:	11 24       	eor	r1, r1
   e:	2f 93       	push	r18
  10:	3f 93       	push	r19
  12:	4f 93       	push	r20
  14:	5f 93       	push	r21
  16:	6f 93       	push	r22
  18:	7f 93       	push	r23
  1a:	8f 93       	push	r24
  1c:	9f 93       	push	r25
  1e:	af 93       	push	r26
  20:	bf 93       	push	r27
  22:	ef 93       	push	r30
  24:	ff 93       	push	r31
  26:	80 91 ce 00 	lds	r24, 0x00CE
  2a:	60 e0       	ldi	r22, 0x00	; 0
  2c:	70 e0       	ldi	r23, 0x00	; 0
  2e:	0e 94 00 00 	call	0	; 0x0 <__vector_36>
  32:	ff 91       	pop	r31
  34:	ef 91       	pop	r30
  36:	bf 91       	pop	r27
  38:	af 91       	pop	r26
  3a:	9f 91       	pop	r25
  3c:	8f 91       	pop	r24
  3e:	7f 91       	pop	r23
  40:	6f 91       	pop	r22
  42:	5f 91       	pop	r21
  44:	4f 91       	pop	r20
  46:	3f 91       	pop	r19
  48:	2f 91       	pop	r18
  4a:	0f 90       	pop	r0
  4c:	0b be       	out	0x3b, r0	; 59
  4e:	0f 90       	pop	r0
  50:	0f be       	out	0x3f, r0	; 63
  52:	0f 90       	pop	r0
  54:	1f 90       	pop	r1
  56:	18 95       	reti

Disassembly of section .text.__vector_51:

00000000 <__vector_51>:
   0:	1f 92       	push	r1
   2:	0f 92       	push	r0
   4:	0f b6       	in	r0, 0x3f	; 63
   6:	0f 92       	push	r0
   8:	0b b6       	in	r0, 0x3b	; 59
   a:	0f 92       	push	r0
   c:	11 24       	eor	r1, r1
   e:	2f 93       	push	r18
  10:	3f 93       	push	r19
  12:	4f 93       	push	r20
  14:	5f 93       	push	r21
  16:	6f 93       	push	r22
  18:	7f 93       	push	r23
  1a:	8f 93       	push	r24
  1c:	9f 93       	push	r25
  1e:	af 93       	push	r26
  20:	bf 93       	push	r27
  22:	ef 93       	push	r30
  24:	ff 93       	push	r31
  26:	80 91 d6 00 	lds	r24, 0x00D6
  2a:	60 e0       	ldi	r22, 0x00	; 0
  2c:	70 e0       	ldi	r23, 0x00	; 0
  2e:	0e 94 00 00 	call	0	; 0x0 <__vector_51>
  32:	ff 91       	pop	r31
  34:	ef 91       	pop	r30
  36:	bf 91       	pop	r27
  38:	af 91       	pop	r26
  3a:	9f 91       	pop	r25
  3c:	8f 91       	pop	r24
  3e:	7f 91       	pop	r23
  40:	6f 91       	pop	r22
  42:	5f 91       	pop	r21
  44:	4f 91       	pop	r20
  46:	3f 91       	pop	r19
  48:	2f 91       	pop	r18
  4a:	0f 90       	pop	r0
  4c:	0b be       	out	0x3b, r0	; 59
  4e:	0f 90       	pop	r0
  50:	0f be       	out	0x3f, r0	; 63
  52:	0f 90       	pop	r0
  54:	1f 90       	pop	r1
  56:	18 95       	reti

Disassembly of section .text.__vector_54:

00000000 <__vector_54>:
   0:	1f 92       	push	r1
   2:	0f 92       	push	r0
   4:	0f b6       	in	r0, 0x3f	; 63
   6:	0f 92       	push	r0
   8:	0b b6       	in	r0, 0x3b	; 59
   a:	0f 92       	push	r0
   c:	11 24       	eor	r1, r1
   e:	2f 93       	push	r18
  10:	3f 93       	push	r19
  12:	4f 93       	push	r20
  14:	5f 93       	push	r21
  16:	6f 93       	push	r22
  18:	7f 93       	push	r23
  1a:	8f 93       	push	r24
  1c:	9f 93       	push	r25
  1e:	af 93       	push	r26
  20:	bf 93       	push	r27
  22:	ef 93       	push	r30
  24:	ff 93       	push	r31
  26:	80 91 36 01 	lds	r24, 0x0136
  2a:	60 e0       	ldi	r22, 0x00	; 0
  2c:	70 e0       	ldi	r23, 0x00	; 0
  2e:	0e 94 00 00 	call	0	; 0x0 <__vector_54>
  32:	ff 91       	pop	r31
  34:	ef 91       	pop	r30
  36:	bf 91       	pop	r27
  38:	af 91       	pop	r26
  3a:	9f 91       	pop	r25
  3c:	8f 91       	pop	r24
  3e:	7f 91       	pop	r23
  40:	6f 91       	pop	r22
  42:	5f 91       	pop	r21
  44:	4f 91       	pop	r20
  46:	3f 91       	pop	r19
  48:	2f 91       	pop	r18
  4a:	0f 90       	pop	r0
  4c:	0b be       	out	0x3b, r0	; 59
  4e:	0f 90       	pop	r0
  50:	0f be       	out	0x3f, r0	; 63
  52:	0f 90       	pop	r0
  54:	1f 90       	pop	r1
  56:	18 95       	reti

Disassembly of section .text._ZN14HardwareSerialC2EP11ring_bufferPVhS3_S3_S3_S3_hhhhh:

00000000 <_ZN14HardwareSerialC1EP11ring_bufferPVhS3_S3_S3_S3_hhhhh>:
   0:	8f 92       	push	r8
   2:	af 92       	push	r10
   4:	cf 92       	push	r12
   6:	df 92       	push	r13
   8:	ef 92       	push	r14
   a:	ff 92       	push	r15
   c:	0f 93       	push	r16
   e:	1f 93       	push	r17
  10:	df 93       	push	r29
  12:	cf 93       	push	r28
  14:	cd b7       	in	r28, 0x3d	; 61
  16:	de b7       	in	r29, 0x3e	; 62
  18:	fc 01       	movw	r30, r24
  1a:	80 e0       	ldi	r24, 0x00	; 0
  1c:	90 e0       	ldi	r25, 0x00	; 0
  1e:	91 83       	std	Z+1, r25	; 0x01
  20:	80 83       	st	Z, r24
  22:	73 83       	std	Z+3, r23	; 0x03
  24:	62 83       	std	Z+2, r22	; 0x02
  26:	55 83       	std	Z+5, r21	; 0x05
  28:	44 83       	std	Z+4, r20	; 0x04
  2a:	37 83       	std	Z+7, r19	; 0x07
  2c:	26 83       	std	Z+6, r18	; 0x06
  2e:	11 87       	std	Z+9, r17	; 0x09
  30:	00 87       	std	Z+8, r16	; 0x08
  32:	f3 86       	std	Z+11, r15	; 0x0b
  34:	e2 86       	std	Z+10, r14	; 0x0a
  36:	d5 86       	std	Z+13, r13	; 0x0d
  38:	c4 86       	std	Z+12, r12	; 0x0c
  3a:	a6 86       	std	Z+14, r10	; 0x0e
  3c:	87 86       	std	Z+15, r8	; 0x0f
  3e:	8e 85       	ldd	r24, Y+14	; 0x0e
  40:	80 8b       	std	Z+16, r24	; 0x10
  42:	8f 85       	ldd	r24, Y+15	; 0x0f
  44:	81 8b       	std	Z+17, r24	; 0x11
  46:	88 89       	ldd	r24, Y+16	; 0x10
  48:	82 8b       	std	Z+18, r24	; 0x12
  4a:	cf 91       	pop	r28
  4c:	df 91       	pop	r29
  4e:	1f 91       	pop	r17
  50:	0f 91       	pop	r16
  52:	ff 90       	pop	r15
  54:	ef 90       	pop	r14
  56:	df 90       	pop	r13
  58:	cf 90       	pop	r12
  5a:	af 90       	pop	r10
  5c:	8f 90       	pop	r8
  5e:	08 95       	ret

Disassembly of section .text._ZN14HardwareSerial5beginEl:

00000000 <_ZN14HardwareSerial5beginEl>:
   0:	9f 92       	push	r9
   2:	af 92       	push	r10
   4:	bf 92       	push	r11
   6:	cf 92       	push	r12
   8:	df 92       	push	r13
   a:	ef 92       	push	r14
   c:	ff 92       	push	r15
   e:	0f 93       	push	r16
  10:	1f 93       	push	r17
  12:	cf 93       	push	r28
  14:	df 93       	push	r29
  16:	ec 01       	movw	r28, r24
  18:	7a 01       	movw	r14, r20
  1a:	8b 01       	movw	r16, r22
  1c:	81 e4       	ldi	r24, 0x41	; 65
  1e:	e8 16       	cp	r14, r24
  20:	82 e4       	ldi	r24, 0x42	; 66
  22:	f8 06       	cpc	r15, r24
  24:	8f e0       	ldi	r24, 0x0F	; 15
  26:	08 07       	cpc	r16, r24
  28:	80 e0       	ldi	r24, 0x00	; 0
  2a:	18 07       	cpc	r17, r24
  2c:	00 f0       	brcs	.+0      	; 0x2e <_ZN14HardwareSerial5beginEl+0x2e>
  2e:	00 c0       	rjmp	.+0      	; 0x30 <_ZN14HardwareSerial5beginEl+0x30>
  30:	60 e8       	ldi	r22, 0x80	; 128
  32:	74 e8       	ldi	r23, 0x84	; 132
  34:	8e e1       	ldi	r24, 0x1E	; 30
  36:	90 e0       	ldi	r25, 0x00	; 0
  38:	a8 01       	movw	r20, r16
  3a:	97 01       	movw	r18, r14
  3c:	0e 94 00 00 	call	0	; 0x0 <_ZN14HardwareSerial5beginEl>
  40:	59 01       	movw	r10, r18
  42:	6a 01       	movw	r12, r20
  44:	08 94       	sec
  46:	a1 08       	sbc	r10, r1
  48:	b1 08       	sbc	r11, r1
  4a:	c1 08       	sbc	r12, r1
  4c:	d1 08       	sbc	r13, r1
  4e:	d6 94       	lsr	r13
  50:	c7 94       	ror	r12
  52:	b7 94       	ror	r11
  54:	a7 94       	ror	r10
  56:	a6 01       	movw	r20, r12
  58:	95 01       	movw	r18, r10
  5a:	2f 5f       	subi	r18, 0xFF	; 255
  5c:	3f 4f       	sbci	r19, 0xFF	; 255
  5e:	4f 4f       	sbci	r20, 0xFF	; 255
  60:	5f 4f       	sbci	r21, 0xFF	; 255
  62:	74 e0       	ldi	r23, 0x04	; 4
  64:	22 0f       	add	r18, r18
  66:	33 1f       	adc	r19, r19
  68:	44 1f       	adc	r20, r20
  6a:	55 1f       	adc	r21, r21
  6c:	7a 95       	dec	r23
  6e:	01 f4       	brne	.+0      	; 0x70 <_ZN14HardwareSerial5beginEl+0x70>
  70:	60 e0       	ldi	r22, 0x00	; 0
  72:	74 e2       	ldi	r23, 0x24	; 36
  74:	84 ef       	ldi	r24, 0xF4	; 244
  76:	90 e0       	ldi	r25, 0x00	; 0
  78:	0e 94 00 00 	call	0	; 0x0 <_ZN14HardwareSerial5beginEl>
  7c:	ca 01       	movw	r24, r20
  7e:	b9 01       	movw	r22, r18
  80:	2f ef       	ldi	r18, 0xFF	; 255
  82:	30 e0       	ldi	r19, 0x00	; 0
  84:	40 e0       	ldi	r20, 0x00	; 0
  86:	50 e0       	ldi	r21, 0x00	; 0
  88:	0e 94 00 00 	call	0	; 0x0 <_ZN14HardwareSerial5beginEl>
  8c:	a8 01       	movw	r20, r16
  8e:	97 01       	movw	r18, r14
  90:	0e 94 00 00 	call	0	; 0x0 <_ZN14HardwareSerial5beginEl>
  94:	8f ef       	ldi	r24, 0xFF	; 255
  96:	90 e0       	ldi	r25, 0x00	; 0
  98:	82 1b       	sub	r24, r18
  9a:	93 0b       	sbc	r25, r19
  9c:	18 16       	cp	r1, r24
  9e:	19 06       	cpc	r1, r25
  a0:	04 f4       	brge	.+0      	; 0xa2 <_ZN14HardwareSerial5beginEl+0xa2>
  a2:	92 2e       	mov	r9, r18
  a4:	90 94       	com	r9
  a6:	00 c0       	rjmp	.+0      	; 0xa8 <_ZN14HardwareSerial5beginEl+0xa8>
  a8:	92 2e       	mov	r9, r18
  aa:	93 94       	inc	r9
  ac:	60 e0       	ldi	r22, 0x00	; 0
  ae:	79 e0       	ldi	r23, 0x09	; 9
  b0:	8d e3       	ldi	r24, 0x3D	; 61
  b2:	90 e0       	ldi	r25, 0x00	; 0
  b4:	a8 01       	movw	r20, r16
  b6:	97 01       	movw	r18, r14
  b8:	0e 94 00 00 	call	0	; 0x0 <_ZN14HardwareSerial5beginEl>
  bc:	21 50       	subi	r18, 0x01	; 1
  be:	30 40       	sbci	r19, 0x00	; 0
  c0:	40 40       	sbci	r20, 0x00	; 0
  c2:	50 40       	sbci	r21, 0x00	; 0
  c4:	56 95       	lsr	r21
  c6:	47 95       	ror	r20
  c8:	37 95       	ror	r19
  ca:	27 95       	ror	r18
  cc:	2f 5f       	subi	r18, 0xFF	; 255
  ce:	3f 4f       	sbci	r19, 0xFF	; 255
  d0:	4f 4f       	sbci	r20, 0xFF	; 255
  d2:	5f 4f       	sbci	r21, 0xFF	; 255
  d4:	93 e0       	ldi	r25, 0x03	; 3
  d6:	22 0f       	add	r18, r18
  d8:	33 1f       	adc	r19, r19
  da:	44 1f       	adc	r20, r20
  dc:	55 1f       	adc	r21, r21
  de:	9a 95       	dec	r25
  e0:	01 f4       	brne	.+0      	; 0xe2 <_ZN14HardwareSerial5beginEl+0xe2>
  e2:	60 e0       	ldi	r22, 0x00	; 0
  e4:	74 e2       	ldi	r23, 0x24	; 36
  e6:	84 ef       	ldi	r24, 0xF4	; 244
  e8:	90 e0       	ldi	r25, 0x00	; 0
  ea:	0e 94 00 00 	call	0	; 0x0 <_ZN14HardwareSerial5beginEl>
  ee:	ca 01       	movw	r24, r20
  f0:	b9 01       	movw	r22, r18
  f2:	2f ef       	ldi	r18, 0xFF	; 255
  f4:	30 e0       	ldi	r19, 0x00	; 0
  f6:	40 e0       	ldi	r20, 0x00	; 0
  f8:	50 e0       	ldi	r21, 0x00	; 0
  fa:	0e 94 00 00 	call	0	; 0x0 <_ZN14HardwareSerial5beginEl>
  fe:	a8 01       	movw	r20, r16
 100:	97 01       	movw	r18, r14
 102:	0e 94 00 00 	call	0	; 0x0 <_ZN14HardwareSerial5beginEl>
 106:	8f ef       	ldi	r24, 0xFF	; 255
 108:	90 e0       	ldi	r25, 0x00	; 0
 10a:	82 1b       	sub	r24, r18
 10c:	93 0b       	sbc	r25, r19
 10e:	18 16       	cp	r1, r24
 110:	19 06       	cpc	r1, r25
 112:	04 f4       	brge	.+0      	; 0x114 <_ZN14HardwareSerial5beginEl+0x114>
 114:	20 95       	com	r18
 116:	00 c0       	rjmp	.+0      	; 0x118 <_ZN14HardwareSerial5beginEl+0x118>
 118:	2f 5f       	subi	r18, 0xFF	; 255
 11a:	29 15       	cp	r18, r9
 11c:	00 f4       	brcc	.+0      	; 0x11e <_ZN14HardwareSerial5beginEl+0x11e>
 11e:	e8 85       	ldd	r30, Y+8	; 0x08
 120:	f9 85       	ldd	r31, Y+9	; 0x09
 122:	81 e0       	ldi	r24, 0x01	; 1
 124:	90 e0       	ldi	r25, 0x00	; 0
 126:	0a 88       	ldd	r0, Y+18	; 0x12
 128:	00 c0       	rjmp	.+0      	; 0x12a <_ZN14HardwareSerial5beginEl+0x12a>
 12a:	88 0f       	add	r24, r24
 12c:	99 1f       	adc	r25, r25
 12e:	0a 94       	dec	r0
 130:	02 f4       	brpl	.+0      	; 0x132 <_ZN14HardwareSerial5beginEl+0x132>
 132:	80 83       	st	Z, r24
 134:	60 e0       	ldi	r22, 0x00	; 0
 136:	79 e0       	ldi	r23, 0x09	; 9
 138:	8d e3       	ldi	r24, 0x3D	; 61
 13a:	90 e0       	ldi	r25, 0x00	; 0
 13c:	a8 01       	movw	r20, r16
 13e:	97 01       	movw	r18, r14
 140:	0e 94 00 00 	call	0	; 0x0 <_ZN14HardwareSerial5beginEl>
 144:	21 50       	subi	r18, 0x01	; 1
 146:	30 40       	sbci	r19, 0x00	; 0
 148:	40 40       	sbci	r20, 0x00	; 0
 14a:	50 40       	sbci	r21, 0x00	; 0
 14c:	56 95       	lsr	r21
 14e:	47 95       	ror	r20
 150:	37 95       	ror	r19
 152:	27 95       	ror	r18
 154:	c9 01       	movw	r24, r18
 156:	00 c0       	rjmp	.+0      	; 0x158 <_ZN14HardwareSerial5beginEl+0x158>
 158:	e8 85       	ldd	r30, Y+8	; 0x08
 15a:	f9 85       	ldd	r31, Y+9	; 0x09
 15c:	10 82       	st	Z, r1
 15e:	c5 01       	movw	r24, r10
 160:	ec 81       	ldd	r30, Y+4	; 0x04
 162:	fd 81       	ldd	r31, Y+5	; 0x05
 164:	90 83       	st	Z, r25
 166:	ee 81       	ldd	r30, Y+6	; 0x06
 168:	ff 81       	ldd	r31, Y+7	; 0x07
 16a:	80 83       	st	Z, r24
 16c:	ea 85       	ldd	r30, Y+10	; 0x0a
 16e:	fb 85       	ldd	r31, Y+11	; 0x0b
 170:	40 81       	ld	r20, Z
 172:	81 e0       	ldi	r24, 0x01	; 1
 174:	90 e0       	ldi	r25, 0x00	; 0
 176:	9c 01       	movw	r18, r24
 178:	0e 84       	ldd	r0, Y+14	; 0x0e
 17a:	00 c0       	rjmp	.+0      	; 0x17c <_ZN14HardwareSerial5beginEl+0x17c>
 17c:	22 0f       	add	r18, r18
 17e:	33 1f       	adc	r19, r19
 180:	0a 94       	dec	r0
 182:	02 f4       	brpl	.+0      	; 0x184 <_ZN14HardwareSerial5beginEl+0x184>
 184:	42 2b       	or	r20, r18
 186:	40 83       	st	Z, r20
 188:	ea 85       	ldd	r30, Y+10	; 0x0a
 18a:	fb 85       	ldd	r31, Y+11	; 0x0b
 18c:	40 81       	ld	r20, Z
 18e:	9c 01       	movw	r18, r24
 190:	0f 84       	ldd	r0, Y+15	; 0x0f
 192:	00 c0       	rjmp	.+0      	; 0x194 <_ZN14HardwareSerial5beginEl+0x194>
 194:	22 0f       	add	r18, r18
 196:	33 1f       	adc	r19, r19
 198:	0a 94       	dec	r0
 19a:	02 f4       	brpl	.+0      	; 0x19c <_ZN14HardwareSerial5beginEl+0x19c>
 19c:	42 2b       	or	r20, r18
 19e:	40 83       	st	Z, r20
 1a0:	ea 85       	ldd	r30, Y+10	; 0x0a
 1a2:	fb 85       	ldd	r31, Y+11	; 0x0b
 1a4:	20 81       	ld	r18, Z
 1a6:	08 88       	ldd	r0, Y+16	; 0x10
 1a8:	00 c0       	rjmp	.+0      	; 0x1aa <_ZN14HardwareSerial5beginEl+0x1aa>
 1aa:	88 0f       	add	r24, r24
 1ac:	99 1f       	adc	r25, r25
 1ae:	0a 94       	dec	r0
 1b0:	02 f4       	brpl	.+0      	; 0x1b2 <_ZN14HardwareSerial5beginEl+0x1b2>
 1b2:	28 2b       	or	r18, r24
 1b4:	20 83       	st	Z, r18
 1b6:	df 91       	pop	r29
 1b8:	cf 91       	pop	r28
 1ba:	1f 91       	pop	r17
 1bc:	0f 91       	pop	r16
 1be:	ff 90       	pop	r15
 1c0:	ef 90       	pop	r14
 1c2:	df 90       	pop	r13
 1c4:	cf 90       	pop	r12
 1c6:	bf 90       	pop	r11
 1c8:	af 90       	pop	r10
 1ca:	9f 90       	pop	r9
 1cc:	08 95       	ret

Disassembly of section .text._ZN14HardwareSerial3endEv:

00000000 <_ZN14HardwareSerial3endEv>:
   0:	fc 01       	movw	r30, r24
   2:	a2 85       	ldd	r26, Z+10	; 0x0a
   4:	b3 85       	ldd	r27, Z+11	; 0x0b
   6:	4c 91       	ld	r20, X
   8:	81 e0       	ldi	r24, 0x01	; 1
   a:	90 e0       	ldi	r25, 0x00	; 0
   c:	9c 01       	movw	r18, r24
   e:	06 84       	ldd	r0, Z+14	; 0x0e
  10:	00 c0       	rjmp	.+0      	; 0x12 <_ZN14HardwareSerial3endEv+0x12>
  12:	22 0f       	add	r18, r18
  14:	33 1f       	adc	r19, r19
  16:	0a 94       	dec	r0
  18:	02 f4       	brpl	.+0      	; 0x1a <_ZN14HardwareSerial3endEv+0x1a>
  1a:	20 95       	com	r18
  1c:	24 23       	and	r18, r20
  1e:	2c 93       	st	X, r18
  20:	a2 85       	ldd	r26, Z+10	; 0x0a
  22:	b3 85       	ldd	r27, Z+11	; 0x0b
  24:	4c 91       	ld	r20, X
  26:	9c 01       	movw	r18, r24
  28:	07 84       	ldd	r0, Z+15	; 0x0f
  2a:	00 c0       	rjmp	.+0      	; 0x2c <_ZN14HardwareSerial3endEv+0x2c>
  2c:	22 0f       	add	r18, r18
  2e:	33 1f       	adc	r19, r19
  30:	0a 94       	dec	r0
  32:	02 f4       	brpl	.+0      	; 0x34 <_ZN14HardwareSerial3endEv+0x34>
  34:	20 95       	com	r18
  36:	24 23       	and	r18, r20
  38:	2c 93       	st	X, r18
  3a:	a2 85       	ldd	r26, Z+10	; 0x0a
  3c:	b3 85       	ldd	r27, Z+11	; 0x0b
  3e:	2c 91       	ld	r18, X
  40:	00 88       	ldd	r0, Z+16	; 0x10
  42:	00 c0       	rjmp	.+0      	; 0x44 <_ZN14HardwareSerial3endEv+0x44>
  44:	88 0f       	add	r24, r24
  46:	99 1f       	adc	r25, r25
  48:	0a 94       	dec	r0
  4a:	02 f4       	brpl	.+0      	; 0x4c <_ZN14HardwareSerial3endEv+0x4c>
  4c:	80 95       	com	r24
  4e:	82 23       	and	r24, r18
  50:	8c 93       	st	X, r24
  52:	08 95       	ret

Disassembly of section .text._GLOBAL__I_rx_buffer:

00000000 <_GLOBAL__I_rx_buffer>:
   0:	80 e0       	ldi	r24, 0x00	; 0
   2:	90 e0       	ldi	r25, 0x00	; 0
   4:	90 93 00 00 	sts	0x0000, r25
   8:	80 93 00 00 	sts	0x0000, r24
   c:	20 e0       	ldi	r18, 0x00	; 0
   e:	30 e0       	ldi	r19, 0x00	; 0
  10:	30 93 00 00 	sts	0x0000, r19
  14:	20 93 00 00 	sts	0x0000, r18
  18:	25 ec       	ldi	r18, 0xC5	; 197
  1a:	30 e0       	ldi	r19, 0x00	; 0
  1c:	30 93 00 00 	sts	0x0000, r19
  20:	20 93 00 00 	sts	0x0000, r18
  24:	24 ec       	ldi	r18, 0xC4	; 196
  26:	30 e0       	ldi	r19, 0x00	; 0
  28:	30 93 00 00 	sts	0x0000, r19
  2c:	20 93 00 00 	sts	0x0000, r18
  30:	20 ec       	ldi	r18, 0xC0	; 192
  32:	30 e0       	ldi	r19, 0x00	; 0
  34:	30 93 00 00 	sts	0x0000, r19
  38:	20 93 00 00 	sts	0x0000, r18
  3c:	21 ec       	ldi	r18, 0xC1	; 193
  3e:	30 e0       	ldi	r19, 0x00	; 0
  40:	30 93 00 00 	sts	0x0000, r19
  44:	20 93 00 00 	sts	0x0000, r18
  48:	26 ec       	ldi	r18, 0xC6	; 198
  4a:	30 e0       	ldi	r19, 0x00	; 0
  4c:	30 93 00 00 	sts	0x0000, r19
  50:	20 93 00 00 	sts	0x0000, r18
  54:	e4 e0       	ldi	r30, 0x04	; 4
  56:	e0 93 00 00 	sts	0x0000, r30
  5a:	73 e0       	ldi	r23, 0x03	; 3
  5c:	70 93 00 00 	sts	0x0000, r23
  60:	67 e0       	ldi	r22, 0x07	; 7
  62:	60 93 00 00 	sts	0x0000, r22
  66:	55 e0       	ldi	r21, 0x05	; 5
  68:	50 93 00 00 	sts	0x0000, r21
  6c:	41 e0       	ldi	r20, 0x01	; 1
  6e:	40 93 00 00 	sts	0x0000, r20
  72:	90 93 00 00 	sts	0x0000, r25
  76:	80 93 00 00 	sts	0x0000, r24
  7a:	20 e0       	ldi	r18, 0x00	; 0
  7c:	30 e0       	ldi	r19, 0x00	; 0
  7e:	30 93 00 00 	sts	0x0000, r19
  82:	20 93 00 00 	sts	0x0000, r18
  86:	2d ec       	ldi	r18, 0xCD	; 205
  88:	30 e0       	ldi	r19, 0x00	; 0
  8a:	30 93 00 00 	sts	0x0000, r19
  8e:	20 93 00 00 	sts	0x0000, r18
  92:	2c ec       	ldi	r18, 0xCC	; 204
  94:	30 e0       	ldi	r19, 0x00	; 0
  96:	30 93 00 00 	sts	0x0000, r19
  9a:	20 93 00 00 	sts	0x0000, r18
  9e:	28 ec       	ldi	r18, 0xC8	; 200
  a0:	30 e0       	ldi	r19, 0x00	; 0
  a2:	30 93 00 00 	sts	0x0000, r19
  a6:	20 93 00 00 	sts	0x0000, r18
  aa:	29 ec       	ldi	r18, 0xC9	; 201
  ac:	30 e0       	ldi	r19, 0x00	; 0
  ae:	30 93 00 00 	sts	0x0000, r19
  b2:	20 93 00 00 	sts	0x0000, r18
  b6:	2e ec       	ldi	r18, 0xCE	; 206
  b8:	30 e0       	ldi	r19, 0x00	; 0
  ba:	30 93 00 00 	sts	0x0000, r19
  be:	20 93 00 00 	sts	0x0000, r18
  c2:	e0 93 00 00 	sts	0x0000, r30
  c6:	70 93 00 00 	sts	0x0000, r23
  ca:	60 93 00 00 	sts	0x0000, r22
  ce:	50 93 00 00 	sts	0x0000, r21
  d2:	40 93 00 00 	sts	0x0000, r20
  d6:	90 93 00 00 	sts	0x0000, r25
  da:	80 93 00 00 	sts	0x0000, r24
  de:	20 e0       	ldi	r18, 0x00	; 0
  e0:	30 e0       	ldi	r19, 0x00	; 0
  e2:	30 93 00 00 	sts	0x0000, r19
  e6:	20 93 00 00 	sts	0x0000, r18
  ea:	25 ed       	ldi	r18, 0xD5	; 213
  ec:	30 e0       	ldi	r19, 0x00	; 0
  ee:	30 93 00 00 	sts	0x0000, r19
  f2:	20 93 00 00 	sts	0x0000, r18
  f6:	24 ed       	ldi	r18, 0xD4	; 212
  f8:	30 e0       	ldi	r19, 0x00	; 0
  fa:	30 93 00 00 	sts	0x0000, r19
  fe:	20 93 00 00 	sts	0x0000, r18
 102:	20 ed       	ldi	r18, 0xD0	; 208
 104:	30 e0       	ldi	r19, 0x00	; 0
 106:	30 93 00 00 	sts	0x0000, r19
 10a:	20 93 00 00 	sts	0x0000, r18
 10e:	21 ed       	ldi	r18, 0xD1	; 209
 110:	30 e0       	ldi	r19, 0x00	; 0
 112:	30 93 00 00 	sts	0x0000, r19
 116:	20 93 00 00 	sts	0x0000, r18
 11a:	26 ed       	ldi	r18, 0xD6	; 214
 11c:	30 e0       	ldi	r19, 0x00	; 0
 11e:	30 93 00 00 	sts	0x0000, r19
 122:	20 93 00 00 	sts	0x0000, r18
 126:	e0 93 00 00 	sts	0x0000, r30
 12a:	70 93 00 00 	sts	0x0000, r23
 12e:	60 93 00 00 	sts	0x0000, r22
 132:	50 93 00 00 	sts	0x0000, r21
 136:	40 93 00 00 	sts	0x0000, r20
 13a:	90 93 00 00 	sts	0x0000, r25
 13e:	80 93 00 00 	sts	0x0000, r24
 142:	80 e0       	ldi	r24, 0x00	; 0
 144:	90 e0       	ldi	r25, 0x00	; 0
 146:	90 93 00 00 	sts	0x0000, r25
 14a:	80 93 00 00 	sts	0x0000, r24
 14e:	85 e3       	ldi	r24, 0x35	; 53
 150:	91 e0       	ldi	r25, 0x01	; 1
 152:	90 93 00 00 	sts	0x0000, r25
 156:	80 93 00 00 	sts	0x0000, r24
 15a:	84 e3       	ldi	r24, 0x34	; 52
 15c:	91 e0       	ldi	r25, 0x01	; 1
 15e:	90 93 00 00 	sts	0x0000, r25
 162:	80 93 00 00 	sts	0x0000, r24
 166:	80 e3       	ldi	r24, 0x30	; 48
 168:	91 e0       	ldi	r25, 0x01	; 1
 16a:	90 93 00 00 	sts	0x0000, r25
 16e:	80 93 00 00 	sts	0x0000, r24
 172:	81 e3       	ldi	r24, 0x31	; 49
 174:	91 e0       	ldi	r25, 0x01	; 1
 176:	90 93 00 00 	sts	0x0000, r25
 17a:	80 93 00 00 	sts	0x0000, r24
 17e:	86 e3       	ldi	r24, 0x36	; 54
 180:	91 e0       	ldi	r25, 0x01	; 1
 182:	90 93 00 00 	sts	0x0000, r25
 186:	80 93 00 00 	sts	0x0000, r24
 18a:	e0 93 00 00 	sts	0x0000, r30
 18e:	70 93 00 00 	sts	0x0000, r23
 192:	60 93 00 00 	sts	0x0000, r22
 196:	50 93 00 00 	sts	0x0000, r21
 19a:	40 93 00 00 	sts	0x0000, r20
 19e:	08 95       	ret

Print.o:     file format elf32-avr

Sections:
Idx Name          Size      VMA       LMA       File off  Algn
  0 .text         00000000  00000000  00000000  00000034  2**0
                  CONTENTS, ALLOC, LOAD, READONLY, CODE
  1 .data         00000002  00000000  00000000  00000034  2**0
                  CONTENTS, ALLOC, LOAD, DATA
  2 .bss          00000000  00000000  00000000  00000036  2**0
                  ALLOC
  3 .text._ZN5Print5writeEPKc 00000032  00000000  00000000  00000036  2**0
                  CONTENTS, ALLOC, LOAD, RELOC, READONLY, CODE
  4 .text._ZN5Print5writeEPKhj 0000003e  00000000  00000000  00000068  2**0
                  CONTENTS, ALLOC, LOAD, RELOC, READONLY, CODE
  5 .text._ZN5Print5printERK6String 00000054  00000000  00000000  000000a6  2**0
                  CONTENTS, ALLOC, LOAD, RELOC, READONLY, CODE
  6 .text._ZN5Print5printEPKc 00000010  00000000  00000000  000000fa  2**0
                  CONTENTS, ALLOC, LOAD, READONLY, CODE
  7 .text._ZN5Print11printNumberEmh 00000106  00000000  00000000  0000010a  2**0
                  CONTENTS, ALLOC, LOAD, RELOC, READONLY, CODE
  8 .text._ZN5Print5printEmi 0000001e  00000000  00000000  00000210  2**0
                  CONTENTS, ALLOC, LOAD, RELOC, READONLY, CODE
  9 .text._ZN5Print5printEji 0000000e  00000000  00000000  0000022e  2**0
                  CONTENTS, ALLOC, LOAD, RELOC, READONLY, CODE
 10 .text._ZN5Print5printEhi 00000010  00000000  00000000  0000023c  2**0
                  CONTENTS, ALLOC, LOAD, RELOC, READONLY, CODE
 11 .text._ZN5Print5printEli 0000006c  00000000  00000000  0000024c  2**0
                  CONTENTS, ALLOC, LOAD, RELOC, READONLY, CODE
 12 .text._ZN5Print5printEii 00000014  00000000  00000000  000002b8  2**0
                  CONTENTS, ALLOC, LOAD, RELOC, READONLY, CODE
 13 .text._ZN5Print5printEci 00000010  00000000  00000000  000002cc  2**0
                  CONTENTS, ALLOC, LOAD, RELOC, READONLY, CODE
 14 .text._ZN5Print7printlnEv 0000002e  00000000  00000000  000002dc  2**0
                  CONTENTS, ALLOC, LOAD, RELOC, READONLY, CODE
 15 .text._ZN5Print7printlnEmi 00000016  00000000  00000000  0000030a  2**0
                  CONTENTS, ALLOC, LOAD, RELOC, READONLY, CODE
 16 .text._ZN5Print7printlnEji 0000001e  00000000  00000000  00000320  2**0
                  CONTENTS, ALLOC, LOAD, RELOC, READONLY, CODE
 17 .text._ZN5Print7printlnEhi 00000020  00000000  00000000  0000033e  2**0
                  CONTENTS, ALLOC, LOAD, RELOC, READONLY, CODE
 18 .text._ZN5Print7printlnEPKc 00000016  00000000  00000000  0000035e  2**0
                  CONTENTS, ALLOC, LOAD, RELOC, READONLY, CODE
 19 .text._ZN5Print7printlnERK6String 00000016  00000000  00000000  00000374  2**0
                  CONTENTS, ALLOC, LOAD, RELOC, READONLY, CODE
 20 .text._ZN5Print7printlnEli 00000016  00000000  00000000  0000038a  2**0
                  CONTENTS, ALLOC, LOAD, RELOC, READONLY, CODE
 21 .text._ZN5Print7printlnEii 00000026  00000000  00000000  000003a0  2**0
                  CONTENTS, ALLOC, LOAD, RELOC, READONLY, CODE
 22 .text._ZN5Print7printlnEci 00000020  00000000  00000000  000003c6  2**0
                  CONTENTS, ALLOC, LOAD, RELOC, READONLY, CODE
 23 .text._ZN5Print10printFloatEdh 00000154  00000000  00000000  000003e6  2**0
                  CONTENTS, ALLOC, LOAD, RELOC, READONLY, CODE
 24 .text._ZN5Print5printEdi 00000006  00000000  00000000  0000053a  2**0
                  CONTENTS, ALLOC, LOAD, RELOC, READONLY, CODE
 25 .text._ZN5Print7printlnEdi 00000016  00000000  00000000  00000540  2**0
                  CONTENTS, ALLOC, LOAD, RELOC, READONLY, CODE
 26 .rodata._ZTV5Print 0000000a  00000000  00000000  00000556  2**0
                  CONTENTS, ALLOC, LOAD, RELOC, READONLY, DATA

Disassembly of section .text._ZN5Print5writeEPKc:

00000000 <_ZN5Print5writeEPKc>:
   0:	0f 93       	push	r16
   2:	1f 93       	push	r17
   4:	cf 93       	push	r28
   6:	df 93       	push	r29
   8:	ec 01       	movw	r28, r24
   a:	06 2f       	mov	r16, r22
   c:	17 2f       	mov	r17, r23
   e:	00 c0       	rjmp	.+0      	; 0x10 <_ZN5Print5writeEPKc+0x10>
  10:	e8 81       	ld	r30, Y
  12:	f9 81       	ldd	r31, Y+1	; 0x01
  14:	01 90       	ld	r0, Z+
  16:	f0 81       	ld	r31, Z
  18:	e0 2d       	mov	r30, r0
  1a:	ce 01       	movw	r24, r28
  1c:	19 95       	eicall
  1e:	f8 01       	movw	r30, r16
  20:	61 91       	ld	r22, Z+
  22:	8f 01       	movw	r16, r30
  24:	66 23       	and	r22, r22
  26:	01 f4       	brne	.+0      	; 0x28 <_ZN5Print5writeEPKc+0x28>
  28:	df 91       	pop	r29
  2a:	cf 91       	pop	r28
  2c:	1f 91       	pop	r17
  2e:	0f 91       	pop	r16
  30:	08 95       	ret

Disassembly of section .text._ZN5Print5writeEPKhj:

00000000 <_ZN5Print5writeEPKhj>:
   0:	ef 92       	push	r14
   2:	ff 92       	push	r15
   4:	0f 93       	push	r16
   6:	1f 93       	push	r17
   8:	cf 93       	push	r28
   a:	df 93       	push	r29
   c:	7c 01       	movw	r14, r24
   e:	eb 01       	movw	r28, r22
  10:	8a 01       	movw	r16, r20
  12:	00 c0       	rjmp	.+0      	; 0x14 <_ZN5Print5writeEPKhj+0x14>
  14:	69 91       	ld	r22, Y+
  16:	d7 01       	movw	r26, r14
  18:	ed 91       	ld	r30, X+
  1a:	fc 91       	ld	r31, X
  1c:	01 90       	ld	r0, Z+
  1e:	f0 81       	ld	r31, Z
  20:	e0 2d       	mov	r30, r0
  22:	c7 01       	movw	r24, r14
  24:	19 95       	eicall
  26:	01 50       	subi	r16, 0x01	; 1
  28:	10 40       	sbci	r17, 0x00	; 0
  2a:	01 15       	cp	r16, r1
  2c:	11 05       	cpc	r17, r1
  2e:	01 f4       	brne	.+0      	; 0x30 <_ZN5Print5writeEPKhj+0x30>
  30:	df 91       	pop	r29
  32:	cf 91       	pop	r28
  34:	1f 91       	pop	r17
  36:	0f 91       	pop	r16
  38:	ff 90       	pop	r15
  3a:	ef 90       	pop	r14
  3c:	08 95       	ret

Disassembly of section .text._ZN5Print5printERK6String:

00000000 <_ZN5Print5printERK6String>:
   0:	cf 92       	push	r12
   2:	df 92       	push	r13
   4:	ef 92       	push	r14
   6:	ff 92       	push	r15
   8:	0f 93       	push	r16
   a:	1f 93       	push	r17
   c:	cf 93       	push	r28
   e:	df 93       	push	r29
  10:	8c 01       	movw	r16, r24
  12:	7b 01       	movw	r14, r22
  14:	c0 e0       	ldi	r28, 0x00	; 0
  16:	d0 e0       	ldi	r29, 0x00	; 0
  18:	00 c0       	rjmp	.+0      	; 0x1a <_ZN5Print5printERK6String+0x1a>
  1a:	d8 01       	movw	r26, r16
  1c:	ed 91       	ld	r30, X+
  1e:	fc 91       	ld	r31, X
  20:	c0 80       	ld	r12, Z
  22:	d1 80       	ldd	r13, Z+1	; 0x01
  24:	c7 01       	movw	r24, r14
  26:	be 01       	movw	r22, r28
  28:	0e 94 00 00 	call	0	; 0x0 <_ZN5Print5printERK6String>
  2c:	68 2f       	mov	r22, r24
  2e:	c8 01       	movw	r24, r16
  30:	f6 01       	movw	r30, r12
  32:	19 95       	eicall
  34:	21 96       	adiw	r28, 0x01	; 1
  36:	f7 01       	movw	r30, r14
  38:	84 81       	ldd	r24, Z+4	; 0x04
  3a:	95 81       	ldd	r25, Z+5	; 0x05
  3c:	c8 17       	cp	r28, r24
  3e:	d9 07       	cpc	r29, r25
  40:	00 f0       	brcs	.+0      	; 0x42 <_ZN5Print5printERK6String+0x42>
  42:	df 91       	pop	r29
  44:	cf 91       	pop	r28
  46:	1f 91       	pop	r17
  48:	0f 91       	pop	r16
  4a:	ff 90       	pop	r15
  4c:	ef 90       	pop	r14
  4e:	df 90       	pop	r13
  50:	cf 90       	pop	r12
  52:	08 95       	ret

Disassembly of section .text._ZN5Print5printEPKc:

00000000 <_ZN5Print5printEPKc>:
   0:	dc 01       	movw	r26, r24
   2:	ed 91       	ld	r30, X+
   4:	fc 91       	ld	r31, X
   6:	02 80       	ldd	r0, Z+2	; 0x02
   8:	f3 81       	ldd	r31, Z+3	; 0x03
   a:	e0 2d       	mov	r30, r0
   c:	19 95       	eicall
   e:	08 95       	ret

Disassembly of section .text._ZN5Print11printNumberEmh:

00000000 <_ZN5Print11printNumberEmh>:
   0:	6f 92       	push	r6
   2:	7f 92       	push	r7
   4:	8f 92       	push	r8
   6:	9f 92       	push	r9
   8:	af 92       	push	r10
   a:	bf 92       	push	r11
   c:	cf 92       	push	r12
   e:	df 92       	push	r13
  10:	ef 92       	push	r14
  12:	ff 92       	push	r15
  14:	0f 93       	push	r16
  16:	1f 93       	push	r17
  18:	df 93       	push	r29
  1a:	cf 93       	push	r28
  1c:	cd b7       	in	r28, 0x3d	; 61
  1e:	de b7       	in	r29, 0x3e	; 62
  20:	a0 97       	sbiw	r28, 0x20	; 32
  22:	0f b6       	in	r0, 0x3f	; 63
  24:	f8 94       	cli
  26:	de bf       	out	0x3e, r29	; 62
  28:	0f be       	out	0x3f, r0	; 63
  2a:	cd bf       	out	0x3d, r28	; 61
  2c:	5c 01       	movw	r10, r24
  2e:	cb 01       	movw	r24, r22
  30:	ba 01       	movw	r22, r20
  32:	61 15       	cp	r22, r1
  34:	71 05       	cpc	r23, r1
  36:	81 05       	cpc	r24, r1
  38:	91 05       	cpc	r25, r1
  3a:	01 f4       	brne	.+0      	; 0x3c <_ZN5Print11printNumberEmh+0x3c>
  3c:	c5 01       	movw	r24, r10
  3e:	40 e3       	ldi	r20, 0x30	; 48
  40:	50 e0       	ldi	r21, 0x00	; 0
  42:	60 e0       	ldi	r22, 0x00	; 0
  44:	70 e0       	ldi	r23, 0x00	; 0
  46:	20 e0       	ldi	r18, 0x00	; 0
  48:	30 e0       	ldi	r19, 0x00	; 0
  4a:	0e 94 00 00 	call	0	; 0x0 <_ZN5Print11printNumberEmh>
  4e:	00 c0       	rjmp	.+0      	; 0x50 <_ZN5Print11printNumberEmh+0x50>
  50:	6e 01       	movw	r12, r28
  52:	08 94       	sec
  54:	c1 1c       	adc	r12, r1
  56:	d1 1c       	adc	r13, r1
  58:	ee 24       	eor	r14, r14
  5a:	ff 24       	eor	r15, r15
  5c:	87 01       	movw	r16, r14
  5e:	62 2e       	mov	r6, r18
  60:	77 24       	eor	r7, r7
  62:	88 24       	eor	r8, r8
  64:	99 24       	eor	r9, r9
  66:	a4 01       	movw	r20, r8
  68:	93 01       	movw	r18, r6
  6a:	0e 94 00 00 	call	0	; 0x0 <_ZN5Print11printNumberEmh>
  6e:	f6 01       	movw	r30, r12
  70:	61 93       	st	Z+, r22
  72:	6f 01       	movw	r12, r30
  74:	08 94       	sec
  76:	e1 1c       	adc	r14, r1
  78:	f1 1c       	adc	r15, r1
  7a:	01 1d       	adc	r16, r1
  7c:	11 1d       	adc	r17, r1
  7e:	b9 01       	movw	r22, r18
  80:	ca 01       	movw	r24, r20
  82:	61 15       	cp	r22, r1
  84:	71 05       	cpc	r23, r1
  86:	81 05       	cpc	r24, r1
  88:	91 05       	cpc	r25, r1
  8a:	01 f4       	brne	.+0      	; 0x8c <_ZN5Print11printNumberEmh+0x8c>
  8c:	d8 01       	movw	r26, r16
  8e:	c7 01       	movw	r24, r14
  90:	01 97       	sbiw	r24, 0x01	; 1
  92:	a1 09       	sbc	r26, r1
  94:	b1 09       	sbc	r27, r1
  96:	6e 01       	movw	r12, r28
  98:	08 94       	sec
  9a:	c1 1c       	adc	r12, r1
  9c:	d1 1c       	adc	r13, r1
  9e:	c8 0e       	add	r12, r24
  a0:	d9 1e       	adc	r13, r25
  a2:	00 c0       	rjmp	.+0      	; 0xa4 <_ZN5Print11printNumberEmh+0xa4>
  a4:	f6 01       	movw	r30, r12
  a6:	40 81       	ld	r20, Z
  a8:	4a 30       	cpi	r20, 0x0A	; 10
  aa:	00 f4       	brcc	.+0      	; 0xac <_ZN5Print11printNumberEmh+0xac>
  ac:	40 5d       	subi	r20, 0xD0	; 208
  ae:	00 c0       	rjmp	.+0      	; 0xb0 <_ZN5Print11printNumberEmh+0xb0>
  b0:	49 5c       	subi	r20, 0xC9	; 201
  b2:	50 e0       	ldi	r21, 0x00	; 0
  b4:	60 e0       	ldi	r22, 0x00	; 0
  b6:	70 e0       	ldi	r23, 0x00	; 0
  b8:	c5 01       	movw	r24, r10
  ba:	20 e0       	ldi	r18, 0x00	; 0
  bc:	30 e0       	ldi	r19, 0x00	; 0
  be:	0e 94 00 00 	call	0	; 0x0 <_ZN5Print11printNumberEmh>
  c2:	08 94       	sec
  c4:	e1 08       	sbc	r14, r1
  c6:	f1 08       	sbc	r15, r1
  c8:	01 09       	sbc	r16, r1
  ca:	11 09       	sbc	r17, r1
  cc:	08 94       	sec
  ce:	c1 08       	sbc	r12, r1
  d0:	d1 08       	sbc	r13, r1
  d2:	e1 14       	cp	r14, r1
  d4:	f1 04       	cpc	r15, r1
  d6:	01 05       	cpc	r16, r1
  d8:	11 05       	cpc	r17, r1
  da:	01 f4       	brne	.+0      	; 0xdc <_ZN5Print11printNumberEmh+0xdc>
  dc:	a0 96       	adiw	r28, 0x20	; 32
  de:	0f b6       	in	r0, 0x3f	; 63
  e0:	f8 94       	cli
  e2:	de bf       	out	0x3e, r29	; 62
  e4:	0f be       	out	0x3f, r0	; 63
  e6:	cd bf       	out	0x3d, r28	; 61
  e8:	cf 91       	pop	r28
  ea:	df 91       	pop	r29
  ec:	1f 91       	pop	r17
  ee:	0f 91       	pop	r16
  f0:	ff 90       	pop	r15
  f2:	ef 90       	pop	r14
  f4:	df 90       	pop	r13
  f6:	cf 90       	pop	r12
  f8:	bf 90       	pop	r11
  fa:	af 90       	pop	r10
  fc:	9f 90       	pop	r9
  fe:	8f 90       	pop	r8
 100:	7f 90       	pop	r7
 102:	6f 90       	pop	r6
 104:	08 95       	ret

Disassembly of section .text._ZN5Print5printEmi:

00000000 <_ZN5Print5printEmi>:
   0:	21 15       	cp	r18, r1
   2:	31 05       	cpc	r19, r1
   4:	01 f4       	brne	.+0      	; 0x6 <_ZN5Print5printEmi+0x6>
   6:	dc 01       	movw	r26, r24
   8:	ed 91       	ld	r30, X+
   a:	fc 91       	ld	r31, X
   c:	01 90       	ld	r0, Z+
   e:	f0 81       	ld	r31, Z
  10:	e0 2d       	mov	r30, r0
  12:	64 2f       	mov	r22, r20
  14:	19 95       	eicall
  16:	08 95       	ret
  18:	0e 94 00 00 	call	0	; 0x0 <_ZN5Print5printEmi>
  1c:	08 95       	ret

Disassembly of section .text._ZN5Print5printEji:

00000000 <_ZN5Print5printEji>:
   0:	9a 01       	movw	r18, r20
   2:	ab 01       	movw	r20, r22
   4:	60 e0       	ldi	r22, 0x00	; 0
   6:	70 e0       	ldi	r23, 0x00	; 0
   8:	0e 94 00 00 	call	0	; 0x0 <_ZN5Print5printEji>
   c:	08 95       	ret

Disassembly of section .text._ZN5Print5printEhi:

00000000 <_ZN5Print5printEhi>:
   0:	9a 01       	movw	r18, r20
   2:	46 2f       	mov	r20, r22
   4:	50 e0       	ldi	r21, 0x00	; 0
   6:	60 e0       	ldi	r22, 0x00	; 0
   8:	70 e0       	ldi	r23, 0x00	; 0
   a:	0e 94 00 00 	call	0	; 0x0 <_ZN5Print5printEhi>
   e:	08 95       	ret

Disassembly of section .text._ZN5Print5printEli:

00000000 <_ZN5Print5printEli>:
   0:	ef 92       	push	r14
   2:	ff 92       	push	r15
   4:	0f 93       	push	r16
   6:	1f 93       	push	r17
   8:	cf 93       	push	r28
   a:	df 93       	push	r29
   c:	ec 01       	movw	r28, r24
   e:	7a 01       	movw	r14, r20
  10:	8b 01       	movw	r16, r22
  12:	21 15       	cp	r18, r1
  14:	31 05       	cpc	r19, r1
  16:	01 f4       	brne	.+0      	; 0x18 <_ZN5Print5printEli+0x18>
  18:	e8 81       	ld	r30, Y
  1a:	f9 81       	ldd	r31, Y+1	; 0x01
  1c:	01 90       	ld	r0, Z+
  1e:	f0 81       	ld	r31, Z
  20:	e0 2d       	mov	r30, r0
  22:	64 2f       	mov	r22, r20
  24:	19 95       	eicall
  26:	00 c0       	rjmp	.+0      	; 0x28 <_ZN5Print5printEli+0x28>
  28:	2a 30       	cpi	r18, 0x0A	; 10
  2a:	31 05       	cpc	r19, r1
  2c:	01 f4       	brne	.+0      	; 0x2e <_ZN5Print5printEli+0x2e>
  2e:	77 ff       	sbrs	r23, 7
  30:	00 c0       	rjmp	.+0      	; 0x32 <_ZN5Print5printEli+0x32>
  32:	4d e2       	ldi	r20, 0x2D	; 45
  34:	50 e0       	ldi	r21, 0x00	; 0
  36:	60 e0       	ldi	r22, 0x00	; 0
  38:	70 e0       	ldi	r23, 0x00	; 0
  3a:	20 e0       	ldi	r18, 0x00	; 0
  3c:	30 e0       	ldi	r19, 0x00	; 0
  3e:	0e 94 00 00 	call	0	; 0x0 <_ZN5Print5printEli>
  42:	10 95       	com	r17
  44:	00 95       	com	r16
  46:	f0 94       	com	r15
  48:	e0 94       	com	r14
  4a:	e1 1c       	adc	r14, r1
  4c:	f1 1c       	adc	r15, r1
  4e:	01 1d       	adc	r16, r1
  50:	11 1d       	adc	r17, r1
  52:	ce 01       	movw	r24, r28
  54:	b8 01       	movw	r22, r16
  56:	a7 01       	movw	r20, r14
  58:	2a e0       	ldi	r18, 0x0A	; 10
  5a:	0e 94 00 00 	call	0	; 0x0 <_ZN5Print5printEli>
  5e:	df 91       	pop	r29
  60:	cf 91       	pop	r28
  62:	1f 91       	pop	r17
  64:	0f 91       	pop	r16
  66:	ff 90       	pop	r15
  68:	ef 90       	pop	r14
  6a:	08 95       	ret

Disassembly of section .text._ZN5Print5printEii:

00000000 <_ZN5Print5printEii>:
   0:	9a 01       	movw	r18, r20
   2:	fb 01       	movw	r30, r22
   4:	af 01       	movw	r20, r30
   6:	66 27       	eor	r22, r22
   8:	57 fd       	sbrc	r21, 7
   a:	60 95       	com	r22
   c:	76 2f       	mov	r23, r22
   e:	0e 94 00 00 	call	0	; 0x0 <_ZN5Print5printEii>
  12:	08 95       	ret

Disassembly of section .text._ZN5Print5printEci:

00000000 <_ZN5Print5printEci>:
   0:	9a 01       	movw	r18, r20
   2:	46 2f       	mov	r20, r22
   4:	50 e0       	ldi	r21, 0x00	; 0
   6:	60 e0       	ldi	r22, 0x00	; 0
   8:	70 e0       	ldi	r23, 0x00	; 0
   a:	0e 94 00 00 	call	0	; 0x0 <_ZN5Print5printEci>
   e:	08 95       	ret

Disassembly of section .text._ZN5Print7printlnEv:

00000000 <_ZN5Print7printlnEv>:
   0:	cf 93       	push	r28
   2:	df 93       	push	r29
   4:	ec 01       	movw	r28, r24
   6:	4d e0       	ldi	r20, 0x0D	; 13
   8:	50 e0       	ldi	r21, 0x00	; 0
   a:	60 e0       	ldi	r22, 0x00	; 0
   c:	70 e0       	ldi	r23, 0x00	; 0
   e:	20 e0       	ldi	r18, 0x00	; 0
  10:	30 e0       	ldi	r19, 0x00	; 0
  12:	0e 94 00 00 	call	0	; 0x0 <_ZN5Print7printlnEv>
  16:	ce 01       	movw	r24, r28
  18:	4a e0       	ldi	r20, 0x0A	; 10
  1a:	50 e0       	ldi	r21, 0x00	; 0
  1c:	60 e0       	ldi	r22, 0x00	; 0
  1e:	70 e0       	ldi	r23, 0x00	; 0
  20:	20 e0       	ldi	r18, 0x00	; 0
  22:	30 e0       	ldi	r19, 0x00	; 0
  24:	0e 94 00 00 	call	0	; 0x0 <_ZN5Print7printlnEv>
  28:	df 91       	pop	r29
  2a:	cf 91       	pop	r28
  2c:	08 95       	ret

Disassembly of section .text._ZN5Print7printlnEmi:

00000000 <_ZN5Print7printlnEmi>:
   0:	cf 93       	push	r28
   2:	df 93       	push	r29
   4:	ec 01       	movw	r28, r24
   6:	0e 94 00 00 	call	0	; 0x0 <_ZN5Print7printlnEmi>
   a:	ce 01       	movw	r24, r28
   c:	0e 94 00 00 	call	0	; 0x0 <_ZN5Print7printlnEmi>
  10:	df 91       	pop	r29
  12:	cf 91       	pop	r28
  14:	08 95       	ret

Disassembly of section .text._ZN5Print7printlnEji:

00000000 <_ZN5Print7printlnEji>:
   0:	cf 93       	push	r28
   2:	df 93       	push	r29
   4:	ec 01       	movw	r28, r24
   6:	9a 01       	movw	r18, r20
   8:	ab 01       	movw	r20, r22
   a:	60 e0       	ldi	r22, 0x00	; 0
   c:	70 e0       	ldi	r23, 0x00	; 0
   e:	0e 94 00 00 	call	0	; 0x0 <_ZN5Print7printlnEji>
  12:	ce 01       	movw	r24, r28
  14:	0e 94 00 00 	call	0	; 0x0 <_ZN5Print7printlnEji>
  18:	df 91       	pop	r29
  1a:	cf 91       	pop	r28
  1c:	08 95       	ret

Disassembly of section .text._ZN5Print7printlnEhi:

00000000 <_ZN5Print7printlnEhi>:
   0:	cf 93       	push	r28
   2:	df 93       	push	r29
   4:	ec 01       	movw	r28, r24
   6:	9a 01       	movw	r18, r20
   8:	46 2f       	mov	r20, r22
   a:	50 e0       	ldi	r21, 0x00	; 0
   c:	60 e0       	ldi	r22, 0x00	; 0
   e:	70 e0       	ldi	r23, 0x00	; 0
  10:	0e 94 00 00 	call	0	; 0x0 <_ZN5Print7printlnEhi>
  14:	ce 01       	movw	r24, r28
  16:	0e 94 00 00 	call	0	; 0x0 <_ZN5Print7printlnEhi>
  1a:	df 91       	pop	r29
  1c:	cf 91       	pop	r28
  1e:	08 95       	ret

Disassembly of section .text._ZN5Print7printlnEPKc:

00000000 <_ZN5Print7printlnEPKc>:
   0:	cf 93       	push	r28
   2:	df 93       	push	r29
   4:	ec 01       	movw	r28, r24
   6:	0e 94 00 00 	call	0	; 0x0 <_ZN5Print7printlnEPKc>
   a:	ce 01       	movw	r24, r28
   c:	0e 94 00 00 	call	0	; 0x0 <_ZN5Print7printlnEPKc>
  10:	df 91       	pop	r29
  12:	cf 91       	pop	r28
  14:	08 95       	ret

Disassembly of section .text._ZN5Print7printlnERK6String:

00000000 <_ZN5Print7printlnERK6String>:
   0:	cf 93       	push	r28
   2:	df 93       	push	r29
   4:	ec 01       	movw	r28, r24
   6:	0e 94 00 00 	call	0	; 0x0 <_ZN5Print7printlnERK6String>
   a:	ce 01       	movw	r24, r28
   c:	0e 94 00 00 	call	0	; 0x0 <_ZN5Print7printlnERK6String>
  10:	df 91       	pop	r29
  12:	cf 91       	pop	r28
  14:	08 95       	ret

Disassembly of section .text._ZN5Print7printlnEli:

00000000 <_ZN5Print7printlnEli>:
   0:	cf 93       	push	r28
   2:	df 93       	push	r29
   4:	ec 01       	movw	r28, r24
   6:	0e 94 00 00 	call	0	; 0x0 <_ZN5Print7printlnEli>
   a:	ce 01       	movw	r24, r28
   c:	0e 94 00 00 	call	0	; 0x0 <_ZN5Print7printlnEli>
  10:	df 91       	pop	r29
  12:	cf 91       	pop	r28
  14:	08 95       	ret

Disassembly of section .text._ZN5Print7printlnEii:

00000000 <_ZN5Print7printlnEii>:
   0:	cf 93       	push	r28
   2:	df 93       	push	r29
   4:	ec 01       	movw	r28, r24
   6:	9a 01       	movw	r18, r20
   8:	cb 01       	movw	r24, r22
   a:	ac 01       	movw	r20, r24
   c:	66 27       	eor	r22, r22
   e:	57 fd       	sbrc	r21, 7
  10:	60 95       	com	r22
  12:	76 2f       	mov	r23, r22
  14:	ce 01       	movw	r24, r28
  16:	0e 94 00 00 	call	0	; 0x0 <_ZN5Print7printlnEii>
  1a:	ce 01       	movw	r24, r28
  1c:	0e 94 00 00 	call	0	; 0x0 <_ZN5Print7printlnEii>
  20:	df 91       	pop	r29
  22:	cf 91       	pop	r28
  24:	08 95       	ret

Disassembly of section .text._ZN5Print7printlnEci:

00000000 <_ZN5Print7printlnEci>:
   0:	cf 93       	push	r28
   2:	df 93       	push	r29
   4:	ec 01       	movw	r28, r24
   6:	9a 01       	movw	r18, r20
   8:	46 2f       	mov	r20, r22
   a:	50 e0       	ldi	r21, 0x00	; 0
   c:	60 e0       	ldi	r22, 0x00	; 0
   e:	70 e0       	ldi	r23, 0x00	; 0
  10:	0e 94 00 00 	call	0	; 0x0 <_ZN5Print7printlnEci>
  14:	ce 01       	movw	r24, r28
  16:	0e 94 00 00 	call	0	; 0x0 <_ZN5Print7printlnEci>
  1a:	df 91       	pop	r29
  1c:	cf 91       	pop	r28
  1e:	08 95       	ret

Disassembly of section .text._ZN5Print10printFloatEdh:

00000000 <_ZN5Print10printFloatEdh>:
   0:	9f 92       	push	r9
   2:	af 92       	push	r10
   4:	bf 92       	push	r11
   6:	cf 92       	push	r12
   8:	df 92       	push	r13
   a:	ef 92       	push	r14
   c:	ff 92       	push	r15
   e:	0f 93       	push	r16
  10:	1f 93       	push	r17
  12:	cf 93       	push	r28
  14:	df 93       	push	r29
  16:	ec 01       	movw	r28, r24
  18:	7a 01       	movw	r14, r20
  1a:	8b 01       	movw	r16, r22
  1c:	d2 2e       	mov	r13, r18
  1e:	cb 01       	movw	r24, r22
  20:	ba 01       	movw	r22, r20
  22:	20 e0       	ldi	r18, 0x00	; 0
  24:	30 e0       	ldi	r19, 0x00	; 0
  26:	a9 01       	movw	r20, r18
  28:	0e 94 00 00 	call	0	; 0x0 <_ZN5Print10printFloatEdh>
  2c:	87 ff       	sbrs	r24, 7
  2e:	00 c0       	rjmp	.+0      	; 0x30 <_ZN5Print10printFloatEdh+0x30>
  30:	ce 01       	movw	r24, r28
  32:	4d e2       	ldi	r20, 0x2D	; 45
  34:	50 e0       	ldi	r21, 0x00	; 0
  36:	60 e0       	ldi	r22, 0x00	; 0
  38:	70 e0       	ldi	r23, 0x00	; 0
  3a:	20 e0       	ldi	r18, 0x00	; 0
  3c:	30 e0       	ldi	r19, 0x00	; 0
  3e:	0e 94 00 00 	call	0	; 0x0 <_ZN5Print10printFloatEdh>
  42:	17 fb       	bst	r17, 7
  44:	10 95       	com	r17
  46:	17 f9       	bld	r17, 7
  48:	10 95       	com	r17
  4a:	cc 24       	eor	r12, r12
  4c:	50 e0       	ldi	r21, 0x00	; 0
  4e:	40 e0       	ldi	r20, 0x00	; 0
  50:	30 e0       	ldi	r19, 0x00	; 0
  52:	2f e3       	ldi	r18, 0x3F	; 63
  54:	00 c0       	rjmp	.+0      	; 0x56 <_ZN5Print10printFloatEdh+0x56>
  56:	da 01       	movw	r26, r20
  58:	f9 01       	movw	r30, r18
  5a:	6b 2f       	mov	r22, r27
  5c:	74 2f       	mov	r23, r20
  5e:	8f 2f       	mov	r24, r31
  60:	92 2f       	mov	r25, r18
  62:	20 e0       	ldi	r18, 0x00	; 0
  64:	30 e0       	ldi	r19, 0x00	; 0
  66:	40 e2       	ldi	r20, 0x20	; 32
  68:	51 e4       	ldi	r21, 0x41	; 65
  6a:	0e 94 00 00 	call	0	; 0x0 <_ZN5Print10printFloatEdh>
  6e:	56 2f       	mov	r21, r22
  70:	47 2f       	mov	r20, r23
  72:	38 2f       	mov	r19, r24
  74:	29 2f       	mov	r18, r25
  76:	c3 94       	inc	r12
  78:	cd 14       	cp	r12, r13
  7a:	00 f0       	brcs	.+0      	; 0x7c <_ZN5Print10printFloatEdh+0x7c>
  7c:	c8 01       	movw	r24, r16
  7e:	b7 01       	movw	r22, r14
  80:	da 01       	movw	r26, r20
  82:	f9 01       	movw	r30, r18
  84:	2b 2f       	mov	r18, r27
  86:	34 2f       	mov	r19, r20
  88:	4f 2f       	mov	r20, r31
  8a:	5e 2f       	mov	r21, r30
  8c:	0e 94 00 00 	call	0	; 0x0 <_ZN5Print10printFloatEdh>
  90:	5b 01       	movw	r10, r22
  92:	f8 2e       	mov	r15, r24
  94:	09 2f       	mov	r16, r25
  96:	7b 2d       	mov	r23, r11
  98:	0e 94 00 00 	call	0	; 0x0 <_ZN5Print10printFloatEdh>
  9c:	c6 2e       	mov	r12, r22
  9e:	e7 2e       	mov	r14, r23
  a0:	18 2f       	mov	r17, r24
  a2:	99 2e       	mov	r9, r25
  a4:	0e 94 00 00 	call	0	; 0x0 <_ZN5Print10printFloatEdh>
  a8:	9b 01       	movw	r18, r22
  aa:	ac 01       	movw	r20, r24
  ac:	6a 2d       	mov	r22, r10
  ae:	7b 2d       	mov	r23, r11
  b0:	8f 2d       	mov	r24, r15
  b2:	90 2f       	mov	r25, r16
  b4:	0e 94 00 00 	call	0	; 0x0 <_ZN5Print10printFloatEdh>
  b8:	5b 01       	movw	r10, r22
  ba:	f8 2e       	mov	r15, r24
  bc:	09 2f       	mov	r16, r25
  be:	ce 01       	movw	r24, r28
  c0:	4c 2d       	mov	r20, r12
  c2:	5e 2d       	mov	r21, r14
  c4:	61 2f       	mov	r22, r17
  c6:	79 2d       	mov	r23, r9
  c8:	2a e0       	ldi	r18, 0x0A	; 10
  ca:	30 e0       	ldi	r19, 0x00	; 0
  cc:	0e 94 00 00 	call	0	; 0x0 <_ZN5Print10printFloatEdh>
  d0:	dd 20       	and	r13, r13
  d2:	01 f0       	breq	.+0      	; 0xd4 <_ZN5Print10printFloatEdh+0xd4>
  d4:	ce 01       	movw	r24, r28
  d6:	60 e0       	ldi	r22, 0x00	; 0
  d8:	70 e0       	ldi	r23, 0x00	; 0
  da:	0e 94 00 00 	call	0	; 0x0 <_ZN5Print10printFloatEdh>
  de:	00 c0       	rjmp	.+0      	; 0xe0 <_ZN5Print10printFloatEdh+0xe0>
  e0:	6a 2d       	mov	r22, r10
  e2:	7b 2d       	mov	r23, r11
  e4:	8f 2d       	mov	r24, r15
  e6:	90 2f       	mov	r25, r16
  e8:	20 e0       	ldi	r18, 0x00	; 0
  ea:	30 e0       	ldi	r19, 0x00	; 0
  ec:	40 e2       	ldi	r20, 0x20	; 32
  ee:	51 e4       	ldi	r21, 0x41	; 65
  f0:	0e 94 00 00 	call	0	; 0x0 <_ZN5Print10printFloatEdh>
  f4:	c6 2e       	mov	r12, r22
  f6:	b7 2e       	mov	r11, r23
  f8:	a8 2e       	mov	r10, r24
  fa:	99 2e       	mov	r9, r25
  fc:	0e 94 00 00 	call	0	; 0x0 <_ZN5Print10printFloatEdh>
 100:	7b 01       	movw	r14, r22
 102:	00 27       	eor	r16, r16
 104:	f7 fc       	sbrc	r15, 7
 106:	00 95       	com	r16
 108:	10 2f       	mov	r17, r16
 10a:	ce 01       	movw	r24, r28
 10c:	b8 01       	movw	r22, r16
 10e:	a7 01       	movw	r20, r14
 110:	2a e0       	ldi	r18, 0x0A	; 10
 112:	30 e0       	ldi	r19, 0x00	; 0
 114:	0e 94 00 00 	call	0	; 0x0 <_ZN5Print10printFloatEdh>
 118:	c8 01       	movw	r24, r16
 11a:	b7 01       	movw	r22, r14
 11c:	0e 94 00 00 	call	0	; 0x0 <_ZN5Print10printFloatEdh>
 120:	9b 01       	movw	r18, r22
 122:	ac 01       	movw	r20, r24
 124:	6c 2d       	mov	r22, r12
 126:	7b 2d       	mov	r23, r11
 128:	8a 2d       	mov	r24, r10
 12a:	99 2d       	mov	r25, r9
 12c:	0e 94 00 00 	call	0	; 0x0 <_ZN5Print10printFloatEdh>
 130:	5b 01       	movw	r10, r22
 132:	f8 2e       	mov	r15, r24
 134:	09 2f       	mov	r16, r25
 136:	da 94       	dec	r13
 138:	dd 20       	and	r13, r13
 13a:	01 f4       	brne	.+0      	; 0x13c <_ZN5Print10printFloatEdh+0x13c>
 13c:	df 91       	pop	r29
 13e:	cf 91       	pop	r28
 140:	1f 91       	pop	r17
 142:	0f 91       	pop	r16
 144:	ff 90       	pop	r15
 146:	ef 90       	pop	r14
 148:	df 90       	pop	r13
 14a:	cf 90       	pop	r12
 14c:	bf 90       	pop	r11
 14e:	af 90       	pop	r10
 150:	9f 90       	pop	r9
 152:	08 95       	ret

Disassembly of section .text._ZN5Print5printEdi:

00000000 <_ZN5Print5printEdi>:
   0:	0e 94 00 00 	call	0	; 0x0 <_ZN5Print5printEdi>
   4:	08 95       	ret

Disassembly of section .text._ZN5Print7printlnEdi:

00000000 <_ZN5Print7printlnEdi>:
   0:	cf 93       	push	r28
   2:	df 93       	push	r29
   4:	ec 01       	movw	r28, r24
   6:	0e 94 00 00 	call	0	; 0x0 <_ZN5Print7printlnEdi>
   a:	ce 01       	movw	r24, r28
   c:	0e 94 00 00 	call	0	; 0x0 <_ZN5Print7printlnEdi>
  10:	df 91       	pop	r29
  12:	cf 91       	pop	r28
  14:	08 95       	ret

Tone.o:     file format elf32-avr

Sections:
Idx Name          Size      VMA       LMA       File off  Algn
  0 .text         00000000  00000000  00000000  00000034  2**0
                  CONTENTS, ALLOC, LOAD, READONLY, CODE
  1 .data         00000000  00000000  00000000  00000034  2**0
                  CONTENTS, ALLOC, LOAD, DATA
  2 .bss          00000000  00000000  00000000  00000034  2**0
                  ALLOC
  3 .text._Z4tonehjm 000005e4  00000000  00000000  00000034  2**0
                  CONTENTS, ALLOC, LOAD, RELOC, READONLY, CODE
  4 .text._Z12disableTimerh 00000066  00000000  00000000  00000618  2**0
                  CONTENTS, ALLOC, LOAD, RELOC, READONLY, CODE
  5 .text._Z6noToneh 0000002c  00000000  00000000  0000067e  2**0
                  CONTENTS, ALLOC, LOAD, RELOC, READONLY, CODE
  6 .text.__vector_13 000000d2  00000000  00000000  000006aa  2**0
                  CONTENTS, ALLOC, LOAD, RELOC, READONLY, CODE
  7 .bss.timer0_toggle_count 00000004  00000000  00000000  0000077c  2**0
                  ALLOC
  8 .bss.timer0_pin_port 00000002  00000000  00000000  0000077c  2**0
                  ALLOC
  9 .bss.timer0_pin_mask 00000001  00000000  00000000  0000077c  2**0
                  ALLOC
 10 .bss.timer1_toggle_count 00000004  00000000  00000000  0000077c  2**0
                  ALLOC
 11 .bss.timer1_pin_port 00000002  00000000  00000000  0000077c  2**0
                  ALLOC
 12 .bss.timer1_pin_mask 00000001  00000000  00000000  0000077c  2**0
                  ALLOC
 13 .bss.timer2_toggle_count 00000004  00000000  00000000  0000077c  2**0
                  ALLOC
 14 .bss.timer2_pin_port 00000002  00000000  00000000  0000077c  2**0
                  ALLOC
 15 .bss.timer2_pin_mask 00000001  00000000  00000000  0000077c  2**0
                  ALLOC
 16 .bss.timer3_toggle_count 00000004  00000000  00000000  0000077c  2**0
                  ALLOC
 17 .bss.timer3_pin_port 00000002  00000000  00000000  0000077c  2**0
                  ALLOC
 18 .bss.timer3_pin_mask 00000001  00000000  00000000  0000077c  2**0
                  ALLOC
 19 .bss.timer4_toggle_count 00000004  00000000  00000000  0000077c  2**0
                  ALLOC
 20 .bss.timer4_pin_port 00000002  00000000  00000000  0000077c  2**0
                  ALLOC
 21 .bss.timer4_pin_mask 00000001  00000000  00000000  0000077c  2**0
                  ALLOC
 22 .bss.timer5_toggle_count 00000004  00000000  00000000  0000077c  2**0
                  ALLOC
 23 .bss.timer5_pin_port 00000002  00000000  00000000  0000077c  2**0
                  ALLOC
 24 .bss.timer5_pin_mask 00000001  00000000  00000000  0000077c  2**0
                  ALLOC
 25 .data._ZL9tone_pins 00000001  00000000  00000000  0000077c  2**0
                  CONTENTS, ALLOC, LOAD, DATA
 26 .progmem.data 00000001  00000000  00000000  0000077d  2**0
                  CONTENTS, ALLOC, LOAD, READONLY, DATA

Disassembly of section .text._Z4tonehjm:

00000000 <_Z4tonehjm>:
   0:	2f 92       	push	r2
   2:	3f 92       	push	r3
   4:	4f 92       	push	r4
   6:	5f 92       	push	r5
   8:	6f 92       	push	r6
   a:	7f 92       	push	r7
   c:	8f 92       	push	r8
   e:	9f 92       	push	r9
  10:	af 92       	push	r10
  12:	bf 92       	push	r11
  14:	df 92       	push	r13
  16:	ef 92       	push	r14
  18:	ff 92       	push	r15
  1a:	0f 93       	push	r16
  1c:	1f 93       	push	r17
  1e:	df 93       	push	r29
  20:	cf 93       	push	r28
  22:	00 d0       	rcall	.+0      	; 0x24 <_Z4tonehjm+0x24>
  24:	0f 92       	push	r0
  26:	cd b7       	in	r28, 0x3d	; 61
  28:	de b7       	in	r29, 0x3e	; 62
  2a:	1b 01       	movw	r2, r22
  2c:	29 83       	std	Y+1, r18	; 0x01
  2e:	3a 83       	std	Y+2, r19	; 0x02
  30:	4b 83       	std	Y+3, r20	; 0x03
  32:	5c 83       	std	Y+4, r21	; 0x04
  34:	90 91 00 00 	lds	r25, 0x0000
  38:	98 17       	cp	r25, r24
  3a:	01 f0       	breq	.+0      	; 0x3c <_Z4tonehjm+0x3c>
  3c:	9f 3f       	cpi	r25, 0xFF	; 255
  3e:	01 f0       	breq	.+0      	; 0x40 <_Z4tonehjm+0x40>
  40:	00 c0       	rjmp	.+0      	; 0x42 <_Z4tonehjm+0x42>
  42:	00 c0       	rjmp	.+0      	; 0x44 <_Z4tonehjm+0x44>
  44:	e0 e0       	ldi	r30, 0x00	; 0
  46:	f0 e0       	ldi	r31, 0x00	; 0
  48:	d4 90       	lpm	r13, Z+
  4a:	00 c0       	rjmp	.+0      	; 0x4c <_Z4tonehjm+0x4c>
  4c:	80 93 00 00 	sts	0x0000, r24
  50:	e0 e0       	ldi	r30, 0x00	; 0
  52:	f0 e0       	ldi	r31, 0x00	; 0
  54:	d4 90       	lpm	r13, Z+
  56:	9d 2d       	mov	r25, r13
  58:	9f 3f       	cpi	r25, 0xFF	; 255
  5a:	01 f4       	brne	.+0      	; 0x5c <_Z4tonehjm+0x5c>
  5c:	00 c0       	rjmp	.+0      	; 0x5e <_Z4tonehjm+0x5e>
  5e:	92 30       	cpi	r25, 0x02	; 2
  60:	01 f4       	brne	.+0      	; 0x62 <_Z4tonehjm+0x62>
  62:	00 c0       	rjmp	.+0      	; 0x64 <_Z4tonehjm+0x64>
  64:	93 30       	cpi	r25, 0x03	; 3
  66:	04 f4       	brge	.+0      	; 0x68 <_Z4tonehjm+0x68>
  68:	dd 20       	and	r13, r13
  6a:	01 f0       	breq	.+0      	; 0x6c <_Z4tonehjm+0x6c>
  6c:	91 30       	cpi	r25, 0x01	; 1
  6e:	01 f0       	breq	.+0      	; 0x70 <_Z4tonehjm+0x70>
  70:	00 c0       	rjmp	.+0      	; 0x72 <_Z4tonehjm+0x72>
  72:	00 c0       	rjmp	.+0      	; 0x74 <_Z4tonehjm+0x74>
  74:	ad 2d       	mov	r26, r13
  76:	a4 30       	cpi	r26, 0x04	; 4
  78:	01 f4       	brne	.+0      	; 0x7a <_Z4tonehjm+0x7a>
  7a:	00 c0       	rjmp	.+0      	; 0x7c <_Z4tonehjm+0x7c>
  7c:	a4 30       	cpi	r26, 0x04	; 4
  7e:	04 f4       	brge	.+0      	; 0x80 <_Z4tonehjm+0x80>
  80:	00 c0       	rjmp	.+0      	; 0x82 <_Z4tonehjm+0x82>
  82:	a5 30       	cpi	r26, 0x05	; 5
  84:	01 f0       	breq	.+0      	; 0x86 <_Z4tonehjm+0x86>
  86:	00 c0       	rjmp	.+0      	; 0x88 <_Z4tonehjm+0x88>
  88:	00 c0       	rjmp	.+0      	; 0x8a <_Z4tonehjm+0x8a>
  8a:	14 bc       	out	0x24, r1	; 36
  8c:	15 bc       	out	0x25, r1	; 37
  8e:	94 b5       	in	r25, 0x24	; 36
  90:	92 60       	ori	r25, 0x02	; 2
  92:	94 bd       	out	0x24, r25	; 36
  94:	95 b5       	in	r25, 0x25	; 37
  96:	91 60       	ori	r25, 0x01	; 1
  98:	95 bd       	out	0x25, r25	; 37
  9a:	28 2f       	mov	r18, r24
  9c:	30 e0       	ldi	r19, 0x00	; 0
  9e:	f9 01       	movw	r30, r18
  a0:	e0 50       	subi	r30, 0x00	; 0
  a2:	f0 40       	sbci	r31, 0x00	; 0
  a4:	e4 91       	lpm	r30, Z+
  a6:	f0 e0       	ldi	r31, 0x00	; 0
  a8:	ee 0f       	add	r30, r30
  aa:	ff 1f       	adc	r31, r31
  ac:	e0 50       	subi	r30, 0x00	; 0
  ae:	f0 40       	sbci	r31, 0x00	; 0
  b0:	45 91       	lpm	r20, Z+
  b2:	54 91       	lpm	r21, Z+
  b4:	40 93 00 00 	sts	0x0000, r20
  b8:	50 93 00 00 	sts	0x0000, r21
  bc:	20 50       	subi	r18, 0x00	; 0
  be:	30 40       	sbci	r19, 0x00	; 0
  c0:	f9 01       	movw	r30, r18
  c2:	24 91       	lpm	r18, Z+
  c4:	20 93 00 00 	sts	0x0000, r18
  c8:	00 c0       	rjmp	.+0      	; 0xca <_Z4tonehjm+0xca>
  ca:	10 92 80 00 	sts	0x0080, r1
  ce:	10 92 81 00 	sts	0x0081, r1
  d2:	90 91 81 00 	lds	r25, 0x0081
  d6:	98 60       	ori	r25, 0x08	; 8
  d8:	90 93 81 00 	sts	0x0081, r25
  dc:	90 91 81 00 	lds	r25, 0x0081
  e0:	91 60       	ori	r25, 0x01	; 1
  e2:	90 93 81 00 	sts	0x0081, r25
  e6:	28 2f       	mov	r18, r24
  e8:	30 e0       	ldi	r19, 0x00	; 0
  ea:	f9 01       	movw	r30, r18
  ec:	e0 50       	subi	r30, 0x00	; 0
  ee:	f0 40       	sbci	r31, 0x00	; 0
  f0:	e4 91       	lpm	r30, Z+
  f2:	f0 e0       	ldi	r31, 0x00	; 0
  f4:	ee 0f       	add	r30, r30
  f6:	ff 1f       	adc	r31, r31
  f8:	e0 50       	subi	r30, 0x00	; 0
  fa:	f0 40       	sbci	r31, 0x00	; 0
  fc:	45 91       	lpm	r20, Z+
  fe:	54 91       	lpm	r21, Z+
 100:	40 93 00 00 	sts	0x0000, r20
 104:	50 93 00 00 	sts	0x0000, r21
 108:	20 50       	subi	r18, 0x00	; 0
 10a:	30 40       	sbci	r19, 0x00	; 0
 10c:	f9 01       	movw	r30, r18
 10e:	24 91       	lpm	r18, Z+
 110:	20 93 00 00 	sts	0x0000, r18
 114:	00 c0       	rjmp	.+0      	; 0x116 <_Z4tonehjm+0x116>
 116:	10 92 b0 00 	sts	0x00B0, r1
 11a:	10 92 b1 00 	sts	0x00B1, r1
 11e:	90 91 b0 00 	lds	r25, 0x00B0
 122:	92 60       	ori	r25, 0x02	; 2
 124:	90 93 b0 00 	sts	0x00B0, r25
 128:	90 91 b1 00 	lds	r25, 0x00B1
 12c:	91 60       	ori	r25, 0x01	; 1
 12e:	90 93 b1 00 	sts	0x00B1, r25
 132:	28 2f       	mov	r18, r24
 134:	30 e0       	ldi	r19, 0x00	; 0
 136:	f9 01       	movw	r30, r18
 138:	e0 50       	subi	r30, 0x00	; 0
 13a:	f0 40       	sbci	r31, 0x00	; 0
 13c:	e4 91       	lpm	r30, Z+
 13e:	f0 e0       	ldi	r31, 0x00	; 0
 140:	ee 0f       	add	r30, r30
 142:	ff 1f       	adc	r31, r31
 144:	e0 50       	subi	r30, 0x00	; 0
 146:	f0 40       	sbci	r31, 0x00	; 0
 148:	45 91       	lpm	r20, Z+
 14a:	54 91       	lpm	r21, Z+
 14c:	40 93 00 00 	sts	0x0000, r20
 150:	50 93 00 00 	sts	0x0000, r21
 154:	20 50       	subi	r18, 0x00	; 0
 156:	30 40       	sbci	r19, 0x00	; 0
 158:	f9 01       	movw	r30, r18
 15a:	24 91       	lpm	r18, Z+
 15c:	20 93 00 00 	sts	0x0000, r18
 160:	00 c0       	rjmp	.+0      	; 0x162 <_Z4tonehjm+0x162>
 162:	10 92 90 00 	sts	0x0090, r1
 166:	10 92 91 00 	sts	0x0091, r1
 16a:	90 91 91 00 	lds	r25, 0x0091
 16e:	98 60       	ori	r25, 0x08	; 8
 170:	90 93 91 00 	sts	0x0091, r25
 174:	90 91 91 00 	lds	r25, 0x0091
 178:	91 60       	ori	r25, 0x01	; 1
 17a:	90 93 91 00 	sts	0x0091, r25
 17e:	28 2f       	mov	r18, r24
 180:	30 e0       	ldi	r19, 0x00	; 0
 182:	f9 01       	movw	r30, r18
 184:	e0 50       	subi	r30, 0x00	; 0
 186:	f0 40       	sbci	r31, 0x00	; 0
 188:	e4 91       	lpm	r30, Z+
 18a:	f0 e0       	ldi	r31, 0x00	; 0
 18c:	ee 0f       	add	r30, r30
 18e:	ff 1f       	adc	r31, r31
 190:	e0 50       	subi	r30, 0x00	; 0
 192:	f0 40       	sbci	r31, 0x00	; 0
 194:	45 91       	lpm	r20, Z+
 196:	54 91       	lpm	r21, Z+
 198:	40 93 00 00 	sts	0x0000, r20
 19c:	50 93 00 00 	sts	0x0000, r21
 1a0:	20 50       	subi	r18, 0x00	; 0
 1a2:	30 40       	sbci	r19, 0x00	; 0
 1a4:	f9 01       	movw	r30, r18
 1a6:	24 91       	lpm	r18, Z+
 1a8:	20 93 00 00 	sts	0x0000, r18
 1ac:	00 c0       	rjmp	.+0      	; 0x1ae <_Z4tonehjm+0x1ae>
 1ae:	10 92 a0 00 	sts	0x00A0, r1
 1b2:	10 92 a1 00 	sts	0x00A1, r1
 1b6:	90 91 a1 00 	lds	r25, 0x00A1
 1ba:	98 60       	ori	r25, 0x08	; 8
 1bc:	90 93 a1 00 	sts	0x00A1, r25
 1c0:	90 91 a1 00 	lds	r25, 0x00A1
 1c4:	91 60       	ori	r25, 0x01	; 1
 1c6:	90 93 a1 00 	sts	0x00A1, r25
 1ca:	28 2f       	mov	r18, r24
 1cc:	30 e0       	ldi	r19, 0x00	; 0
 1ce:	f9 01       	movw	r30, r18
 1d0:	e0 50       	subi	r30, 0x00	; 0
 1d2:	f0 40       	sbci	r31, 0x00	; 0
 1d4:	e4 91       	lpm	r30, Z+
 1d6:	f0 e0       	ldi	r31, 0x00	; 0
 1d8:	ee 0f       	add	r30, r30
 1da:	ff 1f       	adc	r31, r31
 1dc:	e0 50       	subi	r30, 0x00	; 0
 1de:	f0 40       	sbci	r31, 0x00	; 0
 1e0:	45 91       	lpm	r20, Z+
 1e2:	54 91       	lpm	r21, Z+
 1e4:	40 93 00 00 	sts	0x0000, r20
 1e8:	50 93 00 00 	sts	0x0000, r21
 1ec:	20 50       	subi	r18, 0x00	; 0
 1ee:	30 40       	sbci	r19, 0x00	; 0
 1f0:	f9 01       	movw	r30, r18
 1f2:	24 91       	lpm	r18, Z+
 1f4:	20 93 00 00 	sts	0x0000, r18
 1f8:	00 c0       	rjmp	.+0      	; 0x1fa <_Z4tonehjm+0x1fa>
 1fa:	10 92 20 01 	sts	0x0120, r1
 1fe:	10 92 21 01 	sts	0x0121, r1
 202:	90 91 21 01 	lds	r25, 0x0121
 206:	98 60       	ori	r25, 0x08	; 8
 208:	90 93 21 01 	sts	0x0121, r25
 20c:	90 91 21 01 	lds	r25, 0x0121
 210:	91 60       	ori	r25, 0x01	; 1
 212:	90 93 21 01 	sts	0x0121, r25
 216:	28 2f       	mov	r18, r24
 218:	30 e0       	ldi	r19, 0x00	; 0
 21a:	f9 01       	movw	r30, r18
 21c:	e0 50       	subi	r30, 0x00	; 0
 21e:	f0 40       	sbci	r31, 0x00	; 0
 220:	e4 91       	lpm	r30, Z+
 222:	f0 e0       	ldi	r31, 0x00	; 0
 224:	ee 0f       	add	r30, r30
 226:	ff 1f       	adc	r31, r31
 228:	e0 50       	subi	r30, 0x00	; 0
 22a:	f0 40       	sbci	r31, 0x00	; 0
 22c:	45 91       	lpm	r20, Z+
 22e:	54 91       	lpm	r21, Z+
 230:	40 93 00 00 	sts	0x0000, r20
 234:	50 93 00 00 	sts	0x0000, r21
 238:	20 50       	subi	r18, 0x00	; 0
 23a:	30 40       	sbci	r19, 0x00	; 0
 23c:	f9 01       	movw	r30, r18
 23e:	24 91       	lpm	r18, Z+
 240:	20 93 00 00 	sts	0x0000, r18
 244:	00 c0       	rjmp	.+0      	; 0x246 <_Z4tonehjm+0x246>
 246:	d7 fc       	sbrc	r13, 7
 248:	00 c0       	rjmp	.+0      	; 0x24a <_Z4tonehjm+0x24a>
 24a:	61 e0       	ldi	r22, 0x01	; 1
 24c:	0e 94 00 00 	call	0	; 0x0 <_Z4tonehjm>
 250:	dd 20       	and	r13, r13
 252:	01 f0       	breq	.+0      	; 0x254 <_Z4tonehjm+0x254>
 254:	fd 2d       	mov	r31, r13
 256:	f2 30       	cpi	r31, 0x02	; 2
 258:	01 f0       	breq	.+0      	; 0x25a <_Z4tonehjm+0x25a>
 25a:	00 c0       	rjmp	.+0      	; 0x25c <_Z4tonehjm+0x25c>
 25c:	41 01       	movw	r8, r2
 25e:	aa 24       	eor	r10, r10
 260:	bb 24       	eor	r11, r11
 262:	60 e0       	ldi	r22, 0x00	; 0
 264:	72 e1       	ldi	r23, 0x12	; 18
 266:	8a e7       	ldi	r24, 0x7A	; 122
 268:	90 e0       	ldi	r25, 0x00	; 0
 26a:	a5 01       	movw	r20, r10
 26c:	94 01       	movw	r18, r8
 26e:	0e 94 00 00 	call	0	; 0x0 <_Z4tonehjm>
 272:	29 01       	movw	r4, r18
 274:	3a 01       	movw	r6, r20
 276:	79 01       	movw	r14, r18
 278:	8a 01       	movw	r16, r20
 27a:	08 94       	sec
 27c:	e1 08       	sbc	r14, r1
 27e:	f1 08       	sbc	r15, r1
 280:	01 09       	sbc	r16, r1
 282:	11 09       	sbc	r17, r1
 284:	8f ef       	ldi	r24, 0xFF	; 255
 286:	e8 16       	cp	r14, r24
 288:	f1 04       	cpc	r15, r1
 28a:	01 05       	cpc	r16, r1
 28c:	11 05       	cpc	r17, r1
 28e:	01 f0       	breq	.+0      	; 0x290 <_Z4tonehjm+0x290>
 290:	00 f4       	brcc	.+0      	; 0x292 <_Z4tonehjm+0x292>
 292:	00 c0       	rjmp	.+0      	; 0x294 <_Z4tonehjm+0x294>
 294:	60 e4       	ldi	r22, 0x40	; 64
 296:	72 e4       	ldi	r23, 0x42	; 66
 298:	8f e0       	ldi	r24, 0x0F	; 15
 29a:	90 e0       	ldi	r25, 0x00	; 0
 29c:	a5 01       	movw	r20, r10
 29e:	94 01       	movw	r18, r8
 2a0:	0e 94 00 00 	call	0	; 0x0 <_Z4tonehjm>
 2a4:	79 01       	movw	r14, r18
 2a6:	8a 01       	movw	r16, r20
 2a8:	08 94       	sec
 2aa:	e1 08       	sbc	r14, r1
 2ac:	f1 08       	sbc	r15, r1
 2ae:	01 09       	sbc	r16, r1
 2b0:	11 09       	sbc	r17, r1
 2b2:	9d 2d       	mov	r25, r13
 2b4:	92 30       	cpi	r25, 0x02	; 2
 2b6:	01 f4       	brne	.+0      	; 0x2b8 <_Z4tonehjm+0x2b8>
 2b8:	af ef       	ldi	r26, 0xFF	; 255
 2ba:	ea 16       	cp	r14, r26
 2bc:	f1 04       	cpc	r15, r1
 2be:	01 05       	cpc	r16, r1
 2c0:	11 05       	cpc	r17, r1
 2c2:	01 f0       	breq	.+0      	; 0x2c4 <_Z4tonehjm+0x2c4>
 2c4:	00 f4       	brcc	.+0      	; 0x2c6 <_Z4tonehjm+0x2c6>
 2c6:	00 c0       	rjmp	.+0      	; 0x2c8 <_Z4tonehjm+0x2c8>
 2c8:	60 e9       	ldi	r22, 0x90	; 144
 2ca:	70 ed       	ldi	r23, 0xD0	; 208
 2cc:	83 e0       	ldi	r24, 0x03	; 3
 2ce:	90 e0       	ldi	r25, 0x00	; 0
 2d0:	a5 01       	movw	r20, r10
 2d2:	94 01       	movw	r18, r8
 2d4:	0e 94 00 00 	call	0	; 0x0 <_Z4tonehjm>
 2d8:	79 01       	movw	r14, r18
 2da:	8a 01       	movw	r16, r20
 2dc:	08 94       	sec
 2de:	e1 08       	sbc	r14, r1
 2e0:	f1 08       	sbc	r15, r1
 2e2:	01 09       	sbc	r16, r1
 2e4:	11 09       	sbc	r17, r1
 2e6:	83 e0       	ldi	r24, 0x03	; 3
 2e8:	00 c0       	rjmp	.+0      	; 0x2ea <_Z4tonehjm+0x2ea>
 2ea:	82 e0       	ldi	r24, 0x02	; 2
 2ec:	bf ef       	ldi	r27, 0xFF	; 255
 2ee:	eb 16       	cp	r14, r27
 2f0:	f1 04       	cpc	r15, r1
 2f2:	01 05       	cpc	r16, r1
 2f4:	11 05       	cpc	r17, r1
 2f6:	01 f0       	breq	.+0      	; 0x2f8 <_Z4tonehjm+0x2f8>
 2f8:	00 f4       	brcc	.+0      	; 0x2fa <_Z4tonehjm+0x2fa>
 2fa:	00 c0       	rjmp	.+0      	; 0x2fc <_Z4tonehjm+0x2fc>
 2fc:	68 e4       	ldi	r22, 0x48	; 72
 2fe:	78 ee       	ldi	r23, 0xE8	; 232
 300:	81 e0       	ldi	r24, 0x01	; 1
 302:	90 e0       	ldi	r25, 0x00	; 0
 304:	a5 01       	movw	r20, r10
 306:	94 01       	movw	r18, r8
 308:	0e 94 00 00 	call	0	; 0x0 <_Z4tonehjm>
 30c:	79 01       	movw	r14, r18
 30e:	8a 01       	movw	r16, r20
 310:	08 94       	sec
 312:	e1 08       	sbc	r14, r1
 314:	f1 08       	sbc	r15, r1
 316:	01 09       	sbc	r16, r1
 318:	11 09       	sbc	r17, r1
 31a:	dd 20       	and	r13, r13
 31c:	01 f0       	breq	.+0      	; 0x31e <_Z4tonehjm+0x31e>
 31e:	ed 2d       	mov	r30, r13
 320:	e2 30       	cpi	r30, 0x02	; 2
 322:	01 f4       	brne	.+0      	; 0x324 <_Z4tonehjm+0x324>
 324:	ff ef       	ldi	r31, 0xFF	; 255
 326:	ef 16       	cp	r14, r31
 328:	f1 04       	cpc	r15, r1
 32a:	01 05       	cpc	r16, r1
 32c:	11 05       	cpc	r17, r1
 32e:	01 f0       	breq	.+0      	; 0x330 <_Z4tonehjm+0x330>
 330:	00 f4       	brcc	.+0      	; 0x332 <_Z4tonehjm+0x332>
 332:	00 c0       	rjmp	.+0      	; 0x334 <_Z4tonehjm+0x334>
 334:	64 e2       	ldi	r22, 0x24	; 36
 336:	74 ef       	ldi	r23, 0xF4	; 244
 338:	80 e0       	ldi	r24, 0x00	; 0
 33a:	90 e0       	ldi	r25, 0x00	; 0
 33c:	a5 01       	movw	r20, r10
 33e:	94 01       	movw	r18, r8
 340:	0e 94 00 00 	call	0	; 0x0 <_Z4tonehjm>
 344:	79 01       	movw	r14, r18
 346:	8a 01       	movw	r16, r20
 348:	08 94       	sec
 34a:	e1 08       	sbc	r14, r1
 34c:	f1 08       	sbc	r15, r1
 34e:	01 09       	sbc	r16, r1
 350:	11 09       	sbc	r17, r1
 352:	85 e0       	ldi	r24, 0x05	; 5
 354:	00 c0       	rjmp	.+0      	; 0x356 <_Z4tonehjm+0x356>
 356:	83 e0       	ldi	r24, 0x03	; 3
 358:	00 c0       	rjmp	.+0      	; 0x35a <_Z4tonehjm+0x35a>
 35a:	84 e0       	ldi	r24, 0x04	; 4
 35c:	9f ef       	ldi	r25, 0xFF	; 255
 35e:	e9 16       	cp	r14, r25
 360:	f1 04       	cpc	r15, r1
 362:	01 05       	cpc	r16, r1
 364:	11 05       	cpc	r17, r1
 366:	01 f0       	breq	.+0      	; 0x368 <_Z4tonehjm+0x368>
 368:	00 f0       	brcs	.+0      	; 0x36a <_Z4tonehjm+0x36a>
 36a:	62 e1       	ldi	r22, 0x12	; 18
 36c:	7a e7       	ldi	r23, 0x7A	; 122
 36e:	80 e0       	ldi	r24, 0x00	; 0
 370:	90 e0       	ldi	r25, 0x00	; 0
 372:	a5 01       	movw	r20, r10
 374:	94 01       	movw	r18, r8
 376:	0e 94 00 00 	call	0	; 0x0 <_Z4tonehjm>
 37a:	79 01       	movw	r14, r18
 37c:	8a 01       	movw	r16, r20
 37e:	08 94       	sec
 380:	e1 08       	sbc	r14, r1
 382:	f1 08       	sbc	r15, r1
 384:	01 09       	sbc	r16, r1
 386:	11 09       	sbc	r17, r1
 388:	dd 20       	and	r13, r13
 38a:	01 f4       	brne	.+0      	; 0x38c <_Z4tonehjm+0x38c>
 38c:	84 e0       	ldi	r24, 0x04	; 4
 38e:	00 c0       	rjmp	.+0      	; 0x390 <_Z4tonehjm+0x390>
 390:	86 e0       	ldi	r24, 0x06	; 6
 392:	af ef       	ldi	r26, 0xFF	; 255
 394:	ea 16       	cp	r14, r26
 396:	f1 04       	cpc	r15, r1
 398:	01 05       	cpc	r16, r1
 39a:	11 05       	cpc	r17, r1
 39c:	01 f0       	breq	.+0      	; 0x39e <_Z4tonehjm+0x39e>
 39e:	00 f0       	brcs	.+0      	; 0x3a0 <_Z4tonehjm+0x3a0>
 3a0:	83 01       	movw	r16, r6
 3a2:	72 01       	movw	r14, r4
 3a4:	9a e0       	ldi	r25, 0x0A	; 10
 3a6:	16 95       	lsr	r17
 3a8:	07 95       	ror	r16
 3aa:	f7 94       	ror	r15
 3ac:	e7 94       	ror	r14
 3ae:	9a 95       	dec	r25
 3b0:	01 f4       	brne	.+0      	; 0x3b2 <_Z4tonehjm+0x3b2>
 3b2:	08 94       	sec
 3b4:	e1 08       	sbc	r14, r1
 3b6:	f1 08       	sbc	r15, r1
 3b8:	01 09       	sbc	r16, r1
 3ba:	11 09       	sbc	r17, r1
 3bc:	dd 20       	and	r13, r13
 3be:	01 f0       	breq	.+0      	; 0x3c0 <_Z4tonehjm+0x3c0>
 3c0:	87 e0       	ldi	r24, 0x07	; 7
 3c2:	00 c0       	rjmp	.+0      	; 0x3c4 <_Z4tonehjm+0x3c4>
 3c4:	81 e0       	ldi	r24, 0x01	; 1
 3c6:	dd 20       	and	r13, r13
 3c8:	01 f0       	breq	.+0      	; 0x3ca <_Z4tonehjm+0x3ca>
 3ca:	00 c0       	rjmp	.+0      	; 0x3cc <_Z4tonehjm+0x3cc>
 3cc:	85 e0       	ldi	r24, 0x05	; 5
 3ce:	85 bd       	out	0x25, r24	; 37
 3d0:	00 c0       	rjmp	.+0      	; 0x3d2 <_Z4tonehjm+0x3d2>
 3d2:	82 e0       	ldi	r24, 0x02	; 2
 3d4:	00 c0       	rjmp	.+0      	; 0x3d6 <_Z4tonehjm+0x3d6>
 3d6:	84 e0       	ldi	r24, 0x04	; 4
 3d8:	80 93 b1 00 	sts	0x00B1, r24
 3dc:	00 c0       	rjmp	.+0      	; 0x3de <_Z4tonehjm+0x3de>
 3de:	41 01       	movw	r8, r2
 3e0:	aa 24       	eor	r10, r10
 3e2:	bb 24       	eor	r11, r11
 3e4:	60 e0       	ldi	r22, 0x00	; 0
 3e6:	72 e1       	ldi	r23, 0x12	; 18
 3e8:	8a e7       	ldi	r24, 0x7A	; 122
 3ea:	90 e0       	ldi	r25, 0x00	; 0
 3ec:	a5 01       	movw	r20, r10
 3ee:	94 01       	movw	r18, r8
 3f0:	0e 94 00 00 	call	0	; 0x0 <_Z4tonehjm>
 3f4:	79 01       	movw	r14, r18
 3f6:	8a 01       	movw	r16, r20
 3f8:	08 94       	sec
 3fa:	e1 08       	sbc	r14, r1
 3fc:	f1 08       	sbc	r15, r1
 3fe:	01 09       	sbc	r16, r1
 400:	11 09       	sbc	r17, r1
 402:	b0 e0       	ldi	r27, 0x00	; 0
 404:	eb 16       	cp	r14, r27
 406:	b0 e0       	ldi	r27, 0x00	; 0
 408:	fb 06       	cpc	r15, r27
 40a:	b1 e0       	ldi	r27, 0x01	; 1
 40c:	0b 07       	cpc	r16, r27
 40e:	b0 e0       	ldi	r27, 0x00	; 0
 410:	1b 07       	cpc	r17, r27
 412:	00 f0       	brcs	.+0      	; 0x414 <_Z4tonehjm+0x414>
 414:	68 e4       	ldi	r22, 0x48	; 72
 416:	78 ee       	ldi	r23, 0xE8	; 232
 418:	81 e0       	ldi	r24, 0x01	; 1
 41a:	90 e0       	ldi	r25, 0x00	; 0
 41c:	a5 01       	movw	r20, r10
 41e:	94 01       	movw	r18, r8
 420:	0e 94 00 00 	call	0	; 0x0 <_Z4tonehjm>
 424:	79 01       	movw	r14, r18
 426:	8a 01       	movw	r16, r20
 428:	08 94       	sec
 42a:	e1 08       	sbc	r14, r1
 42c:	f1 08       	sbc	r15, r1
 42e:	01 09       	sbc	r16, r1
 430:	11 09       	sbc	r17, r1
 432:	93 e0       	ldi	r25, 0x03	; 3
 434:	00 c0       	rjmp	.+0      	; 0x436 <_Z4tonehjm+0x436>
 436:	91 e0       	ldi	r25, 0x01	; 1
 438:	ed 2d       	mov	r30, r13
 43a:	e1 30       	cpi	r30, 0x01	; 1
 43c:	01 f4       	brne	.+0      	; 0x43e <_Z4tonehjm+0x43e>
 43e:	80 91 81 00 	lds	r24, 0x0081
 442:	88 7f       	andi	r24, 0xF8	; 248
 444:	89 2b       	or	r24, r25
 446:	80 93 81 00 	sts	0x0081, r24
 44a:	00 c0       	rjmp	.+0      	; 0x44c <_Z4tonehjm+0x44c>
 44c:	fd 2d       	mov	r31, r13
 44e:	f3 30       	cpi	r31, 0x03	; 3
 450:	01 f4       	brne	.+0      	; 0x452 <_Z4tonehjm+0x452>
 452:	80 91 91 00 	lds	r24, 0x0091
 456:	88 7f       	andi	r24, 0xF8	; 248
 458:	89 2b       	or	r24, r25
 45a:	80 93 91 00 	sts	0x0091, r24
 45e:	00 c0       	rjmp	.+0      	; 0x460 <_Z4tonehjm+0x460>
 460:	8d 2d       	mov	r24, r13
 462:	84 30       	cpi	r24, 0x04	; 4
 464:	01 f4       	brne	.+0      	; 0x466 <_Z4tonehjm+0x466>
 466:	80 91 a1 00 	lds	r24, 0x00A1
 46a:	88 7f       	andi	r24, 0xF8	; 248
 46c:	89 2b       	or	r24, r25
 46e:	80 93 a1 00 	sts	0x00A1, r24
 472:	00 c0       	rjmp	.+0      	; 0x474 <_Z4tonehjm+0x474>
 474:	ad 2d       	mov	r26, r13
 476:	a5 30       	cpi	r26, 0x05	; 5
 478:	01 f4       	brne	.+0      	; 0x47a <_Z4tonehjm+0x47a>
 47a:	80 91 21 01 	lds	r24, 0x0121
 47e:	88 7f       	andi	r24, 0xF8	; 248
 480:	89 2b       	or	r24, r25
 482:	80 93 21 01 	sts	0x0121, r24
 486:	89 81       	ldd	r24, Y+1	; 0x01
 488:	9a 81       	ldd	r25, Y+2	; 0x02
 48a:	ab 81       	ldd	r26, Y+3	; 0x03
 48c:	bc 81       	ldd	r27, Y+4	; 0x04
 48e:	00 97       	sbiw	r24, 0x00	; 0
 490:	a1 05       	cpc	r26, r1
 492:	b1 05       	cpc	r27, r1
 494:	01 f0       	breq	.+0      	; 0x496 <_Z4tonehjm+0x496>
 496:	b1 01       	movw	r22, r2
 498:	66 0f       	add	r22, r22
 49a:	77 1f       	adc	r23, r23
 49c:	80 e0       	ldi	r24, 0x00	; 0
 49e:	90 e0       	ldi	r25, 0x00	; 0
 4a0:	29 81       	ldd	r18, Y+1	; 0x01
 4a2:	3a 81       	ldd	r19, Y+2	; 0x02
 4a4:	4b 81       	ldd	r20, Y+3	; 0x03
 4a6:	5c 81       	ldd	r21, Y+4	; 0x04
 4a8:	0e 94 00 00 	call	0	; 0x0 <_Z4tonehjm>
 4ac:	28 ee       	ldi	r18, 0xE8	; 232
 4ae:	33 e0       	ldi	r19, 0x03	; 3
 4b0:	40 e0       	ldi	r20, 0x00	; 0
 4b2:	50 e0       	ldi	r21, 0x00	; 0
 4b4:	0e 94 00 00 	call	0	; 0x0 <_Z4tonehjm>
 4b8:	00 c0       	rjmp	.+0      	; 0x4ba <_Z4tonehjm+0x4ba>
 4ba:	2f ef       	ldi	r18, 0xFF	; 255
 4bc:	3f ef       	ldi	r19, 0xFF	; 255
 4be:	4f ef       	ldi	r20, 0xFF	; 255
 4c0:	5f ef       	ldi	r21, 0xFF	; 255
 4c2:	9d 2d       	mov	r25, r13
 4c4:	92 30       	cpi	r25, 0x02	; 2
 4c6:	01 f0       	breq	.+0      	; 0x4c8 <_Z4tonehjm+0x4c8>
 4c8:	93 30       	cpi	r25, 0x03	; 3
 4ca:	04 f4       	brge	.+0      	; 0x4cc <_Z4tonehjm+0x4cc>
 4cc:	dd 20       	and	r13, r13
 4ce:	01 f0       	breq	.+0      	; 0x4d0 <_Z4tonehjm+0x4d0>
 4d0:	91 30       	cpi	r25, 0x01	; 1
 4d2:	01 f0       	breq	.+0      	; 0x4d4 <_Z4tonehjm+0x4d4>
 4d4:	00 c0       	rjmp	.+0      	; 0x4d6 <_Z4tonehjm+0x4d6>
 4d6:	00 c0       	rjmp	.+0      	; 0x4d8 <_Z4tonehjm+0x4d8>
 4d8:	ad 2d       	mov	r26, r13
 4da:	a4 30       	cpi	r26, 0x04	; 4
 4dc:	01 f4       	brne	.+0      	; 0x4de <_Z4tonehjm+0x4de>
 4de:	00 c0       	rjmp	.+0      	; 0x4e0 <_Z4tonehjm+0x4e0>
 4e0:	a4 30       	cpi	r26, 0x04	; 4
 4e2:	04 f0       	brlt	.+0      	; 0x4e4 <_Z4tonehjm+0x4e4>
 4e4:	a5 30       	cpi	r26, 0x05	; 5
 4e6:	01 f0       	breq	.+0      	; 0x4e8 <_Z4tonehjm+0x4e8>
 4e8:	00 c0       	rjmp	.+0      	; 0x4ea <_Z4tonehjm+0x4ea>
 4ea:	00 c0       	rjmp	.+0      	; 0x4ec <_Z4tonehjm+0x4ec>
 4ec:	e7 bc       	out	0x27, r14	; 39
 4ee:	20 93 00 00 	sts	0x0000, r18
 4f2:	30 93 00 00 	sts	0x0000, r19
 4f6:	40 93 00 00 	sts	0x0000, r20
 4fa:	50 93 00 00 	sts	0x0000, r21
 4fe:	80 91 6e 00 	lds	r24, 0x006E
 502:	82 60       	ori	r24, 0x02	; 2
 504:	80 93 6e 00 	sts	0x006E, r24
 508:	00 c0       	rjmp	.+0      	; 0x50a <_Z4tonehjm+0x50a>
 50a:	f0 92 89 00 	sts	0x0089, r15
 50e:	e0 92 88 00 	sts	0x0088, r14
 512:	20 93 00 00 	sts	0x0000, r18
 516:	30 93 00 00 	sts	0x0000, r19
 51a:	40 93 00 00 	sts	0x0000, r20
 51e:	50 93 00 00 	sts	0x0000, r21
 522:	80 91 6f 00 	lds	r24, 0x006F
 526:	82 60       	ori	r24, 0x02	; 2
 528:	80 93 6f 00 	sts	0x006F, r24
 52c:	00 c0       	rjmp	.+0      	; 0x52e <_Z4tonehjm+0x52e>
 52e:	e0 92 b3 00 	sts	0x00B3, r14
 532:	20 93 00 00 	sts	0x0000, r18
 536:	30 93 00 00 	sts	0x0000, r19
 53a:	40 93 00 00 	sts	0x0000, r20
 53e:	50 93 00 00 	sts	0x0000, r21
 542:	80 91 70 00 	lds	r24, 0x0070
 546:	82 60       	ori	r24, 0x02	; 2
 548:	80 93 70 00 	sts	0x0070, r24
 54c:	00 c0       	rjmp	.+0      	; 0x54e <_Z4tonehjm+0x54e>
 54e:	f0 92 99 00 	sts	0x0099, r15
 552:	e0 92 98 00 	sts	0x0098, r14
 556:	20 93 00 00 	sts	0x0000, r18
 55a:	30 93 00 00 	sts	0x0000, r19
 55e:	40 93 00 00 	sts	0x0000, r20
 562:	50 93 00 00 	sts	0x0000, r21
 566:	80 91 71 00 	lds	r24, 0x0071
 56a:	82 60       	ori	r24, 0x02	; 2
 56c:	80 93 71 00 	sts	0x0071, r24
 570:	00 c0       	rjmp	.+0      	; 0x572 <_Z4tonehjm+0x572>
 572:	f0 92 a9 00 	sts	0x00A9, r15
 576:	e0 92 a8 00 	sts	0x00A8, r14
 57a:	20 93 00 00 	sts	0x0000, r18
 57e:	30 93 00 00 	sts	0x0000, r19
 582:	40 93 00 00 	sts	0x0000, r20
 586:	50 93 00 00 	sts	0x0000, r21
 58a:	80 91 72 00 	lds	r24, 0x0072
 58e:	82 60       	ori	r24, 0x02	; 2
 590:	80 93 72 00 	sts	0x0072, r24
 594:	00 c0       	rjmp	.+0      	; 0x596 <_Z4tonehjm+0x596>
 596:	f0 92 29 01 	sts	0x0129, r15
 59a:	e0 92 28 01 	sts	0x0128, r14
 59e:	20 93 00 00 	sts	0x0000, r18
 5a2:	30 93 00 00 	sts	0x0000, r19
 5a6:	40 93 00 00 	sts	0x0000, r20
 5aa:	50 93 00 00 	sts	0x0000, r21
 5ae:	80 91 73 00 	lds	r24, 0x0073
 5b2:	82 60       	ori	r24, 0x02	; 2
 5b4:	80 93 73 00 	sts	0x0073, r24
 5b8:	0f 90       	pop	r0
 5ba:	0f 90       	pop	r0
 5bc:	0f 90       	pop	r0
 5be:	0f 90       	pop	r0
 5c0:	cf 91       	pop	r28
 5c2:	df 91       	pop	r29
 5c4:	1f 91       	pop	r17
 5c6:	0f 91       	pop	r16
 5c8:	ff 90       	pop	r15
 5ca:	ef 90       	pop	r14
 5cc:	df 90       	pop	r13
 5ce:	bf 90       	pop	r11
 5d0:	af 90       	pop	r10
 5d2:	9f 90       	pop	r9
 5d4:	8f 90       	pop	r8
 5d6:	7f 90       	pop	r7
 5d8:	6f 90       	pop	r6
 5da:	5f 90       	pop	r5
 5dc:	4f 90       	pop	r4
 5de:	3f 90       	pop	r3
 5e0:	2f 90       	pop	r2
 5e2:	08 95       	ret

Disassembly of section .text._Z12disableTimerh:

00000000 <_Z12disableTimerh>:
   0:	82 30       	cpi	r24, 0x02	; 2
   2:	01 f0       	breq	.+0      	; 0x4 <_Z12disableTimerh+0x4>
   4:	83 30       	cpi	r24, 0x03	; 3
   6:	00 f4       	brcc	.+0      	; 0x8 <_Z12disableTimerh+0x8>
   8:	88 23       	and	r24, r24
   a:	01 f0       	breq	.+0      	; 0xc <_Z12disableTimerh+0xc>
   c:	81 30       	cpi	r24, 0x01	; 1
   e:	01 f4       	brne	.+0      	; 0x10 <_Z12disableTimerh+0x10>
  10:	00 c0       	rjmp	.+0      	; 0x12 <_Z12disableTimerh+0x12>
  12:	84 30       	cpi	r24, 0x04	; 4
  14:	01 f0       	breq	.+0      	; 0x16 <_Z12disableTimerh+0x16>
  16:	84 30       	cpi	r24, 0x04	; 4
  18:	00 f0       	brcs	.+0      	; 0x1a <_Z12disableTimerh+0x1a>
  1a:	85 30       	cpi	r24, 0x05	; 5
  1c:	01 f4       	brne	.+0      	; 0x1e <_Z12disableTimerh+0x1e>
  1e:	00 c0       	rjmp	.+0      	; 0x20 <_Z12disableTimerh+0x20>
  20:	10 92 6e 00 	sts	0x006E, r1
  24:	08 95       	ret
  26:	80 91 6f 00 	lds	r24, 0x006F
  2a:	8d 7f       	andi	r24, 0xFD	; 253
  2c:	80 93 6f 00 	sts	0x006F, r24
  30:	08 95       	ret
  32:	80 91 70 00 	lds	r24, 0x0070
  36:	8d 7f       	andi	r24, 0xFD	; 253
  38:	80 93 70 00 	sts	0x0070, r24
  3c:	81 e0       	ldi	r24, 0x01	; 1
  3e:	80 93 b0 00 	sts	0x00B0, r24
  42:	80 91 b1 00 	lds	r24, 0x00B1
  46:	88 7f       	andi	r24, 0xF8	; 248
  48:	84 60       	ori	r24, 0x04	; 4
  4a:	80 93 b1 00 	sts	0x00B1, r24
  4e:	10 92 b3 00 	sts	0x00B3, r1
  52:	08 95       	ret
  54:	10 92 71 00 	sts	0x0071, r1
  58:	08 95       	ret
  5a:	10 92 72 00 	sts	0x0072, r1
  5e:	08 95       	ret
  60:	10 92 73 00 	sts	0x0073, r1
  64:	08 95       	ret

Disassembly of section .text._Z6noToneh:

00000000 <_Z6noToneh>:
   0:	1f 93       	push	r17
   2:	18 2f       	mov	r17, r24
   4:	80 91 00 00 	lds	r24, 0x0000
   8:	81 17       	cp	r24, r17
   a:	01 f4       	brne	.+0      	; 0xc <_Z6noToneh+0xc>
   c:	e0 e0       	ldi	r30, 0x00	; 0
   e:	f0 e0       	ldi	r31, 0x00	; 0
  10:	84 91       	lpm	r24, Z+
  12:	9f ef       	ldi	r25, 0xFF	; 255
  14:	90 93 00 00 	sts	0x0000, r25
  18:	00 c0       	rjmp	.+0      	; 0x1a <_Z6noToneh+0x1a>
  1a:	8f ef       	ldi	r24, 0xFF	; 255
  1c:	0e 94 00 00 	call	0	; 0x0 <_Z6noToneh>
  20:	81 2f       	mov	r24, r17
  22:	60 e0       	ldi	r22, 0x00	; 0
  24:	0e 94 00 00 	call	0	; 0x0 <_Z6noToneh>
  28:	1f 91       	pop	r17
  2a:	08 95       	ret

Disassembly of section .text.__vector_13:

00000000 <__vector_13>:
   0:	1f 92       	push	r1
   2:	0f 92       	push	r0
   4:	0f b6       	in	r0, 0x3f	; 63
   6:	0f 92       	push	r0
   8:	0b b6       	in	r0, 0x3b	; 59
   a:	0f 92       	push	r0
   c:	11 24       	eor	r1, r1
   e:	2f 93       	push	r18
  10:	3f 93       	push	r19
  12:	4f 93       	push	r20
  14:	5f 93       	push	r21
  16:	6f 93       	push	r22
  18:	7f 93       	push	r23
  1a:	8f 93       	push	r24
  1c:	9f 93       	push	r25
  1e:	af 93       	push	r26
  20:	bf 93       	push	r27
  22:	ef 93       	push	r30
  24:	ff 93       	push	r31
  26:	80 91 00 00 	lds	r24, 0x0000
  2a:	90 91 00 00 	lds	r25, 0x0000
  2e:	a0 91 00 00 	lds	r26, 0x0000
  32:	b0 91 00 00 	lds	r27, 0x0000
  36:	00 97       	sbiw	r24, 0x00	; 0
  38:	a1 05       	cpc	r26, r1
  3a:	b1 05       	cpc	r27, r1
  3c:	01 f0       	breq	.+0      	; 0x3e <__vector_13+0x3e>
  3e:	e0 91 00 00 	lds	r30, 0x0000
  42:	f0 91 00 00 	lds	r31, 0x0000
  46:	80 81       	ld	r24, Z
  48:	90 91 00 00 	lds	r25, 0x0000
  4c:	89 27       	eor	r24, r25
  4e:	80 83       	st	Z, r24
  50:	80 91 00 00 	lds	r24, 0x0000
  54:	90 91 00 00 	lds	r25, 0x0000
  58:	a0 91 00 00 	lds	r26, 0x0000
  5c:	b0 91 00 00 	lds	r27, 0x0000
  60:	18 16       	cp	r1, r24
  62:	19 06       	cpc	r1, r25
  64:	1a 06       	cpc	r1, r26
  66:	1b 06       	cpc	r1, r27
  68:	04 f4       	brge	.+0      	; 0x6a <__vector_13+0x6a>
  6a:	80 91 00 00 	lds	r24, 0x0000
  6e:	90 91 00 00 	lds	r25, 0x0000
  72:	a0 91 00 00 	lds	r26, 0x0000
  76:	b0 91 00 00 	lds	r27, 0x0000
  7a:	01 97       	sbiw	r24, 0x01	; 1
  7c:	a1 09       	sbc	r26, r1
  7e:	b1 09       	sbc	r27, r1
  80:	80 93 00 00 	sts	0x0000, r24
  84:	90 93 00 00 	sts	0x0000, r25
  88:	a0 93 00 00 	sts	0x0000, r26
  8c:	b0 93 00 00 	sts	0x0000, r27
  90:	00 c0       	rjmp	.+0      	; 0x92 <__vector_13+0x92>
  92:	82 e0       	ldi	r24, 0x02	; 2
  94:	0e 94 00 00 	call	0	; 0x0 <__vector_13>
  98:	e0 91 00 00 	lds	r30, 0x0000
  9c:	f0 91 00 00 	lds	r31, 0x0000
  a0:	90 81       	ld	r25, Z
  a2:	80 91 00 00 	lds	r24, 0x0000
  a6:	80 95       	com	r24
  a8:	89 23       	and	r24, r25
  aa:	80 83       	st	Z, r24
  ac:	ff 91       	pop	r31
  ae:	ef 91       	pop	r30
  b0:	bf 91       	pop	r27
  b2:	af 91       	pop	r26
  b4:	9f 91       	pop	r25
  b6:	8f 91       	pop	r24
  b8:	7f 91       	pop	r23
  ba:	6f 91       	pop	r22
  bc:	5f 91       	pop	r21
  be:	4f 91       	pop	r20
  c0:	3f 91       	pop	r19
  c2:	2f 91       	pop	r18
  c4:	0f 90       	pop	r0
  c6:	0b be       	out	0x3b, r0	; 59
  c8:	0f 90       	pop	r0
  ca:	0f be       	out	0x3f, r0	; 63
  cc:	0f 90       	pop	r0
  ce:	1f 90       	pop	r1
  d0:	18 95       	reti

WInterrupts.o:     file format elf32-avr

Sections:
Idx Name          Size      VMA       LMA       File off  Algn
  0 .text         00000000  00000000  00000000  00000034  2**0
                  CONTENTS, ALLOC, LOAD, READONLY, CODE
  1 .data         00000000  00000000  00000000  00000034  2**0
                  CONTENTS, ALLOC, LOAD, DATA
  2 .bss          00000000  00000000  00000000  00000034  2**0
                  ALLOC
  3 .text.attachInterrupt 000000f4  00000000  00000000  00000034  2**0
                  CONTENTS, ALLOC, LOAD, RELOC, READONLY, CODE
  4 .text.detachInterrupt 00000058  00000000  00000000  00000128  2**0
                  CONTENTS, ALLOC, LOAD, RELOC, READONLY, CODE
  5 .text.__vector_1 00000062  00000000  00000000  00000180  2**0
                  CONTENTS, ALLOC, LOAD, RELOC, READONLY, CODE
  6 .text.__vector_2 00000062  00000000  00000000  000001e2  2**0
                  CONTENTS, ALLOC, LOAD, RELOC, READONLY, CODE
  7 .text.__vector_3 00000062  00000000  00000000  00000244  2**0
                  CONTENTS, ALLOC, LOAD, RELOC, READONLY, CODE
  8 .text.__vector_4 00000062  00000000  00000000  000002a6  2**0
                  CONTENTS, ALLOC, LOAD, RELOC, READONLY, CODE
  9 .text.__vector_5 00000062  00000000  00000000  00000308  2**0
                  CONTENTS, ALLOC, LOAD, RELOC, READONLY, CODE
 10 .text.__vector_6 00000062  00000000  00000000  0000036a  2**0
                  CONTENTS, ALLOC, LOAD, RELOC, READONLY, CODE
 11 .text.__vector_7 00000062  00000000  00000000  000003cc  2**0
                  CONTENTS, ALLOC, LOAD, RELOC, READONLY, CODE
 12 .text.__vector_8 00000062  00000000  00000000  0000042e  2**0
                  CONTENTS, ALLOC, LOAD, RELOC, READONLY, CODE
 13 .bss.intFunc  00000010  00000000  00000000  00000490  2**0
                  ALLOC

Disassembly of section .text.attachInterrupt:

00000000 <attachInterrupt>:
   0:	88 30       	cpi	r24, 0x08	; 8
   2:	00 f0       	brcs	.+0      	; 0x4 <attachInterrupt+0x4>
   4:	00 c0       	rjmp	.+0      	; 0x6 <attachInterrupt+0x6>
   6:	e8 2f       	mov	r30, r24
   8:	f0 e0       	ldi	r31, 0x00	; 0
   a:	ee 0f       	add	r30, r30
   c:	ff 1f       	adc	r31, r31
   e:	e0 50       	subi	r30, 0x00	; 0
  10:	f0 40       	sbci	r31, 0x00	; 0
  12:	71 83       	std	Z+1, r23	; 0x01
  14:	60 83       	st	Z, r22
  16:	84 30       	cpi	r24, 0x04	; 4
  18:	01 f0       	breq	.+0      	; 0x1a <attachInterrupt+0x1a>
  1a:	85 30       	cpi	r24, 0x05	; 5
  1c:	00 f4       	brcc	.+0      	; 0x1e <attachInterrupt+0x1e>
  1e:	82 30       	cpi	r24, 0x02	; 2
  20:	01 f0       	breq	.+0      	; 0x22 <attachInterrupt+0x22>
  22:	83 30       	cpi	r24, 0x03	; 3
  24:	00 f4       	brcc	.+0      	; 0x26 <attachInterrupt+0x26>
  26:	81 30       	cpi	r24, 0x01	; 1
  28:	01 f4       	brne	.+0      	; 0x2a <attachInterrupt+0x2a>
  2a:	00 c0       	rjmp	.+0      	; 0x2c <attachInterrupt+0x2c>
  2c:	86 30       	cpi	r24, 0x06	; 6
  2e:	01 f4       	brne	.+0      	; 0x30 <attachInterrupt+0x30>
  30:	00 c0       	rjmp	.+0      	; 0x32 <attachInterrupt+0x32>
  32:	86 30       	cpi	r24, 0x06	; 6
  34:	00 f0       	brcs	.+0      	; 0x36 <attachInterrupt+0x36>
  36:	87 30       	cpi	r24, 0x07	; 7
  38:	01 f4       	brne	.+0      	; 0x3a <attachInterrupt+0x3a>
  3a:	00 c0       	rjmp	.+0      	; 0x3c <attachInterrupt+0x3c>
  3c:	80 91 69 00 	lds	r24, 0x0069
  40:	8c 7f       	andi	r24, 0xFC	; 252
  42:	84 2b       	or	r24, r20
  44:	80 93 69 00 	sts	0x0069, r24
  48:	e8 9a       	sbi	0x1d, 0	; 29
  4a:	08 95       	ret
  4c:	80 91 69 00 	lds	r24, 0x0069
  50:	44 0f       	add	r20, r20
  52:	55 1f       	adc	r21, r21
  54:	44 0f       	add	r20, r20
  56:	55 1f       	adc	r21, r21
  58:	83 7f       	andi	r24, 0xF3	; 243
  5a:	84 2b       	or	r24, r20
  5c:	80 93 69 00 	sts	0x0069, r24
  60:	e9 9a       	sbi	0x1d, 1	; 29
  62:	08 95       	ret
  64:	80 91 69 00 	lds	r24, 0x0069
  68:	74 e0       	ldi	r23, 0x04	; 4
  6a:	44 0f       	add	r20, r20
  6c:	55 1f       	adc	r21, r21
  6e:	7a 95       	dec	r23
  70:	01 f4       	brne	.+0      	; 0x72 <attachInterrupt+0x72>
  72:	8f 7c       	andi	r24, 0xCF	; 207
  74:	84 2b       	or	r24, r20
  76:	80 93 69 00 	sts	0x0069, r24
  7a:	ea 9a       	sbi	0x1d, 2	; 29
  7c:	08 95       	ret
  7e:	80 91 69 00 	lds	r24, 0x0069
  82:	66 e0       	ldi	r22, 0x06	; 6
  84:	44 0f       	add	r20, r20
  86:	55 1f       	adc	r21, r21
  88:	6a 95       	dec	r22
  8a:	01 f4       	brne	.+0      	; 0x8c <attachInterrupt+0x8c>
  8c:	8f 73       	andi	r24, 0x3F	; 63
  8e:	84 2b       	or	r24, r20
  90:	80 93 69 00 	sts	0x0069, r24
  94:	eb 9a       	sbi	0x1d, 3	; 29
  96:	08 95       	ret
  98:	80 91 6a 00 	lds	r24, 0x006A
  9c:	8c 7f       	andi	r24, 0xFC	; 252
  9e:	84 2b       	or	r24, r20
  a0:	80 93 6a 00 	sts	0x006A, r24
  a4:	ec 9a       	sbi	0x1d, 4	; 29
  a6:	08 95       	ret
  a8:	80 91 6a 00 	lds	r24, 0x006A
  ac:	44 0f       	add	r20, r20
  ae:	55 1f       	adc	r21, r21
  b0:	44 0f       	add	r20, r20
  b2:	55 1f       	adc	r21, r21
  b4:	83 7f       	andi	r24, 0xF3	; 243
  b6:	84 2b       	or	r24, r20
  b8:	80 93 6a 00 	sts	0x006A, r24
  bc:	ed 9a       	sbi	0x1d, 5	; 29
  be:	08 95       	ret
  c0:	80 91 6a 00 	lds	r24, 0x006A
  c4:	24 e0       	ldi	r18, 0x04	; 4
  c6:	44 0f       	add	r20, r20
  c8:	55 1f       	adc	r21, r21
  ca:	2a 95       	dec	r18
  cc:	01 f4       	brne	.+0      	; 0xce <attachInterrupt+0xce>
  ce:	8f 7c       	andi	r24, 0xCF	; 207
  d0:	84 2b       	or	r24, r20
  d2:	80 93 6a 00 	sts	0x006A, r24
  d6:	ee 9a       	sbi	0x1d, 6	; 29
  d8:	08 95       	ret
  da:	80 91 6a 00 	lds	r24, 0x006A
  de:	96 e0       	ldi	r25, 0x06	; 6
  e0:	44 0f       	add	r20, r20
  e2:	55 1f       	adc	r21, r21
  e4:	9a 95       	dec	r25
  e6:	01 f4       	brne	.+0      	; 0xe8 <attachInterrupt+0xe8>
  e8:	8f 73       	andi	r24, 0x3F	; 63
  ea:	84 2b       	or	r24, r20
  ec:	80 93 6a 00 	sts	0x006A, r24
  f0:	ef 9a       	sbi	0x1d, 7	; 29
  f2:	08 95       	ret

Disassembly of section .text.detachInterrupt:

00000000 <detachInterrupt>:
   0:	88 30       	cpi	r24, 0x08	; 8
   2:	00 f4       	brcc	.+0      	; 0x4 <detachInterrupt+0x4>
   4:	84 30       	cpi	r24, 0x04	; 4
   6:	01 f0       	breq	.+0      	; 0x8 <detachInterrupt+0x8>
   8:	85 30       	cpi	r24, 0x05	; 5
   a:	00 f4       	brcc	.+0      	; 0xc <detachInterrupt+0xc>
   c:	82 30       	cpi	r24, 0x02	; 2
   e:	01 f0       	breq	.+0      	; 0x10 <detachInterrupt+0x10>
  10:	83 30       	cpi	r24, 0x03	; 3
  12:	00 f4       	brcc	.+0      	; 0x14 <detachInterrupt+0x14>
  14:	81 30       	cpi	r24, 0x01	; 1
  16:	01 f4       	brne	.+0      	; 0x18 <detachInterrupt+0x18>
  18:	00 c0       	rjmp	.+0      	; 0x1a <detachInterrupt+0x1a>
  1a:	86 30       	cpi	r24, 0x06	; 6
  1c:	01 f0       	breq	.+0      	; 0x1e <detachInterrupt+0x1e>
  1e:	86 30       	cpi	r24, 0x06	; 6
  20:	00 f0       	brcs	.+0      	; 0x22 <detachInterrupt+0x22>
  22:	87 30       	cpi	r24, 0x07	; 7
  24:	01 f4       	brne	.+0      	; 0x26 <detachInterrupt+0x26>
  26:	00 c0       	rjmp	.+0      	; 0x28 <detachInterrupt+0x28>
  28:	e8 98       	cbi	0x1d, 0	; 29
  2a:	00 c0       	rjmp	.+0      	; 0x2c <detachInterrupt+0x2c>
  2c:	e9 98       	cbi	0x1d, 1	; 29
  2e:	00 c0       	rjmp	.+0      	; 0x30 <detachInterrupt+0x30>
  30:	ea 98       	cbi	0x1d, 2	; 29
  32:	00 c0       	rjmp	.+0      	; 0x34 <detachInterrupt+0x34>
  34:	eb 98       	cbi	0x1d, 3	; 29
  36:	00 c0       	rjmp	.+0      	; 0x38 <detachInterrupt+0x38>
  38:	ec 98       	cbi	0x1d, 4	; 29
  3a:	00 c0       	rjmp	.+0      	; 0x3c <detachInterrupt+0x3c>
  3c:	ed 98       	cbi	0x1d, 5	; 29
  3e:	00 c0       	rjmp	.+0      	; 0x40 <detachInterrupt+0x40>
  40:	ee 98       	cbi	0x1d, 6	; 29
  42:	00 c0       	rjmp	.+0      	; 0x44 <detachInterrupt+0x44>
  44:	ef 98       	cbi	0x1d, 7	; 29
  46:	e8 2f       	mov	r30, r24
  48:	f0 e0       	ldi	r31, 0x00	; 0
  4a:	ee 0f       	add	r30, r30
  4c:	ff 1f       	adc	r31, r31
  4e:	e0 50       	subi	r30, 0x00	; 0
  50:	f0 40       	sbci	r31, 0x00	; 0
  52:	11 82       	std	Z+1, r1	; 0x01
  54:	10 82       	st	Z, r1
  56:	08 95       	ret

Disassembly of section .text.__vector_1:

00000000 <__vector_1>:
   0:	1f 92       	push	r1
   2:	0f 92       	push	r0
   4:	0f b6       	in	r0, 0x3f	; 63
   6:	0f 92       	push	r0
   8:	0b b6       	in	r0, 0x3b	; 59
   a:	0f 92       	push	r0
   c:	11 24       	eor	r1, r1
   e:	2f 93       	push	r18
  10:	3f 93       	push	r19
  12:	4f 93       	push	r20
  14:	5f 93       	push	r21
  16:	6f 93       	push	r22
  18:	7f 93       	push	r23
  1a:	8f 93       	push	r24
  1c:	9f 93       	push	r25
  1e:	af 93       	push	r26
  20:	bf 93       	push	r27
  22:	ef 93       	push	r30
  24:	ff 93       	push	r31
  26:	80 91 00 00 	lds	r24, 0x0000
  2a:	90 91 00 00 	lds	r25, 0x0000
  2e:	00 97       	sbiw	r24, 0x00	; 0
  30:	01 f0       	breq	.+0      	; 0x32 <__vector_1+0x32>
  32:	e0 91 00 00 	lds	r30, 0x0000
  36:	f0 91 00 00 	lds	r31, 0x0000
  3a:	19 95       	eicall
  3c:	ff 91       	pop	r31
  3e:	ef 91       	pop	r30
  40:	bf 91       	pop	r27
  42:	af 91       	pop	r26
  44:	9f 91       	pop	r25
  46:	8f 91       	pop	r24
  48:	7f 91       	pop	r23
  4a:	6f 91       	pop	r22
  4c:	5f 91       	pop	r21
  4e:	4f 91       	pop	r20
  50:	3f 91       	pop	r19
  52:	2f 91       	pop	r18
  54:	0f 90       	pop	r0
  56:	0b be       	out	0x3b, r0	; 59
  58:	0f 90       	pop	r0
  5a:	0f be       	out	0x3f, r0	; 63
  5c:	0f 90       	pop	r0
  5e:	1f 90       	pop	r1
  60:	18 95       	reti

Disassembly of section .text.__vector_2:

00000000 <__vector_2>:
   0:	1f 92       	push	r1
   2:	0f 92       	push	r0
   4:	0f b6       	in	r0, 0x3f	; 63
   6:	0f 92       	push	r0
   8:	0b b6       	in	r0, 0x3b	; 59
   a:	0f 92       	push	r0
   c:	11 24       	eor	r1, r1
   e:	2f 93       	push	r18
  10:	3f 93       	push	r19
  12:	4f 93       	push	r20
  14:	5f 93       	push	r21
  16:	6f 93       	push	r22
  18:	7f 93       	push	r23
  1a:	8f 93       	push	r24
  1c:	9f 93       	push	r25
  1e:	af 93       	push	r26
  20:	bf 93       	push	r27
  22:	ef 93       	push	r30
  24:	ff 93       	push	r31
  26:	80 91 00 00 	lds	r24, 0x0000
  2a:	90 91 00 00 	lds	r25, 0x0000
  2e:	00 97       	sbiw	r24, 0x00	; 0
  30:	01 f0       	breq	.+0      	; 0x32 <__vector_2+0x32>
  32:	e0 91 00 00 	lds	r30, 0x0000
  36:	f0 91 00 00 	lds	r31, 0x0000
  3a:	19 95       	eicall
  3c:	ff 91       	pop	r31
  3e:	ef 91       	pop	r30
  40:	bf 91       	pop	r27
  42:	af 91       	pop	r26
  44:	9f 91       	pop	r25
  46:	8f 91       	pop	r24
  48:	7f 91       	pop	r23
  4a:	6f 91       	pop	r22
  4c:	5f 91       	pop	r21
  4e:	4f 91       	pop	r20
  50:	3f 91       	pop	r19
  52:	2f 91       	pop	r18
  54:	0f 90       	pop	r0
  56:	0b be       	out	0x3b, r0	; 59
  58:	0f 90       	pop	r0
  5a:	0f be       	out	0x3f, r0	; 63
  5c:	0f 90       	pop	r0
  5e:	1f 90       	pop	r1
  60:	18 95       	reti

Disassembly of section .text.__vector_3:

00000000 <__vector_3>:
   0:	1f 92       	push	r1
   2:	0f 92       	push	r0
   4:	0f b6       	in	r0, 0x3f	; 63
   6:	0f 92       	push	r0
   8:	0b b6       	in	r0, 0x3b	; 59
   a:	0f 92       	push	r0
   c:	11 24       	eor	r1, r1
   e:	2f 93       	push	r18
  10:	3f 93       	push	r19
  12:	4f 93       	push	r20
  14:	5f 93       	push	r21
  16:	6f 93       	push	r22
  18:	7f 93       	push	r23
  1a:	8f 93       	push	r24
  1c:	9f 93       	push	r25
  1e:	af 93       	push	r26
  20:	bf 93       	push	r27
  22:	ef 93       	push	r30
  24:	ff 93       	push	r31
  26:	80 91 00 00 	lds	r24, 0x0000
  2a:	90 91 00 00 	lds	r25, 0x0000
  2e:	00 97       	sbiw	r24, 0x00	; 0
  30:	01 f0       	breq	.+0      	; 0x32 <__vector_3+0x32>
  32:	e0 91 00 00 	lds	r30, 0x0000
  36:	f0 91 00 00 	lds	r31, 0x0000
  3a:	19 95       	eicall
  3c:	ff 91       	pop	r31
  3e:	ef 91       	pop	r30
  40:	bf 91       	pop	r27
  42:	af 91       	pop	r26
  44:	9f 91       	pop	r25
  46:	8f 91       	pop	r24
  48:	7f 91       	pop	r23
  4a:	6f 91       	pop	r22
  4c:	5f 91       	pop	r21
  4e:	4f 91       	pop	r20
  50:	3f 91       	pop	r19
  52:	2f 91       	pop	r18
  54:	0f 90       	pop	r0
  56:	0b be       	out	0x3b, r0	; 59
  58:	0f 90       	pop	r0
  5a:	0f be       	out	0x3f, r0	; 63
  5c:	0f 90       	pop	r0
  5e:	1f 90       	pop	r1
  60:	18 95       	reti

Disassembly of section .text.__vector_4:

00000000 <__vector_4>:
   0:	1f 92       	push	r1
   2:	0f 92       	push	r0
   4:	0f b6       	in	r0, 0x3f	; 63
   6:	0f 92       	push	r0
   8:	0b b6       	in	r0, 0x3b	; 59
   a:	0f 92       	push	r0
   c:	11 24       	eor	r1, r1
   e:	2f 93       	push	r18
  10:	3f 93       	push	r19
  12:	4f 93       	push	r20
  14:	5f 93       	push	r21
  16:	6f 93       	push	r22
  18:	7f 93       	push	r23
  1a:	8f 93       	push	r24
  1c:	9f 93       	push	r25
  1e:	af 93       	push	r26
  20:	bf 93       	push	r27
  22:	ef 93       	push	r30
  24:	ff 93       	push	r31
  26:	80 91 00 00 	lds	r24, 0x0000
  2a:	90 91 00 00 	lds	r25, 0x0000
  2e:	00 97       	sbiw	r24, 0x00	; 0
  30:	01 f0       	breq	.+0      	; 0x32 <__vector_4+0x32>
  32:	e0 91 00 00 	lds	r30, 0x0000
  36:	f0 91 00 00 	lds	r31, 0x0000
  3a:	19 95       	eicall
  3c:	ff 91       	pop	r31
  3e:	ef 91       	pop	r30
  40:	bf 91       	pop	r27
  42:	af 91       	pop	r26
  44:	9f 91       	pop	r25
  46:	8f 91       	pop	r24
  48:	7f 91       	pop	r23
  4a:	6f 91       	pop	r22
  4c:	5f 91       	pop	r21
  4e:	4f 91       	pop	r20
  50:	3f 91       	pop	r19
  52:	2f 91       	pop	r18
  54:	0f 90       	pop	r0
  56:	0b be       	out	0x3b, r0	; 59
  58:	0f 90       	pop	r0
  5a:	0f be       	out	0x3f, r0	; 63
  5c:	0f 90       	pop	r0
  5e:	1f 90       	pop	r1
  60:	18 95       	reti

Disassembly of section .text.__vector_5:

00000000 <__vector_5>:
   0:	1f 92       	push	r1
   2:	0f 92       	push	r0
   4:	0f b6       	in	r0, 0x3f	; 63
   6:	0f 92       	push	r0
   8:	0b b6       	in	r0, 0x3b	; 59
   a:	0f 92       	push	r0
   c:	11 24       	eor	r1, r1
   e:	2f 93       	push	r18
  10:	3f 93       	push	r19
  12:	4f 93       	push	r20
  14:	5f 93       	push	r21
  16:	6f 93       	push	r22
  18:	7f 93       	push	r23
  1a:	8f 93       	push	r24
  1c:	9f 93       	push	r25
  1e:	af 93       	push	r26
  20:	bf 93       	push	r27
  22:	ef 93       	push	r30
  24:	ff 93       	push	r31
  26:	80 91 00 00 	lds	r24, 0x0000
  2a:	90 91 00 00 	lds	r25, 0x0000
  2e:	00 97       	sbiw	r24, 0x00	; 0
  30:	01 f0       	breq	.+0      	; 0x32 <__vector_5+0x32>
  32:	e0 91 00 00 	lds	r30, 0x0000
  36:	f0 91 00 00 	lds	r31, 0x0000
  3a:	19 95       	eicall
  3c:	ff 91       	pop	r31
  3e:	ef 91       	pop	r30
  40:	bf 91       	pop	r27
  42:	af 91       	pop	r26
  44:	9f 91       	pop	r25
  46:	8f 91       	pop	r24
  48:	7f 91       	pop	r23
  4a:	6f 91       	pop	r22
  4c:	5f 91       	pop	r21
  4e:	4f 91       	pop	r20
  50:	3f 91       	pop	r19
  52:	2f 91       	pop	r18
  54:	0f 90       	pop	r0
  56:	0b be       	out	0x3b, r0	; 59
  58:	0f 90       	pop	r0
  5a:	0f be       	out	0x3f, r0	; 63
  5c:	0f 90       	pop	r0
  5e:	1f 90       	pop	r1
  60:	18 95       	reti

Disassembly of section .text.__vector_6:

00000000 <__vector_6>:
   0:	1f 92       	push	r1
   2:	0f 92       	push	r0
   4:	0f b6       	in	r0, 0x3f	; 63
   6:	0f 92       	push	r0
   8:	0b b6       	in	r0, 0x3b	; 59
   a:	0f 92       	push	r0
   c:	11 24       	eor	r1, r1
   e:	2f 93       	push	r18
  10:	3f 93       	push	r19
  12:	4f 93       	push	r20
  14:	5f 93       	push	r21
  16:	6f 93       	push	r22
  18:	7f 93       	push	r23
  1a:	8f 93       	push	r24
  1c:	9f 93       	push	r25
  1e:	af 93       	push	r26
  20:	bf 93       	push	r27
  22:	ef 93       	push	r30
  24:	ff 93       	push	r31
  26:	80 91 00 00 	lds	r24, 0x0000
  2a:	90 91 00 00 	lds	r25, 0x0000
  2e:	00 97       	sbiw	r24, 0x00	; 0
  30:	01 f0       	breq	.+0      	; 0x32 <__vector_6+0x32>
  32:	e0 91 00 00 	lds	r30, 0x0000
  36:	f0 91 00 00 	lds	r31, 0x0000
  3a:	19 95       	eicall
  3c:	ff 91       	pop	r31
  3e:	ef 91       	pop	r30
  40:	bf 91       	pop	r27
  42:	af 91       	pop	r26
  44:	9f 91       	pop	r25
  46:	8f 91       	pop	r24
  48:	7f 91       	pop	r23
  4a:	6f 91       	pop	r22
  4c:	5f 91       	pop	r21
  4e:	4f 91       	pop	r20
  50:	3f 91       	pop	r19
  52:	2f 91       	pop	r18
  54:	0f 90       	pop	r0
  56:	0b be       	out	0x3b, r0	; 59
  58:	0f 90       	pop	r0
  5a:	0f be       	out	0x3f, r0	; 63
  5c:	0f 90       	pop	r0
  5e:	1f 90       	pop	r1
  60:	18 95       	reti

Disassembly of section .text.__vector_7:

00000000 <__vector_7>:
   0:	1f 92       	push	r1
   2:	0f 92       	push	r0
   4:	0f b6       	in	r0, 0x3f	; 63
   6:	0f 92       	push	r0
   8:	0b b6       	in	r0, 0x3b	; 59
   a:	0f 92       	push	r0
   c:	11 24       	eor	r1, r1
   e:	2f 93       	push	r18
  10:	3f 93       	push	r19
  12:	4f 93       	push	r20
  14:	5f 93       	push	r21
  16:	6f 93       	push	r22
  18:	7f 93       	push	r23
  1a:	8f 93       	push	r24
  1c:	9f 93       	push	r25
  1e:	af 93       	push	r26
  20:	bf 93       	push	r27
  22:	ef 93       	push	r30
  24:	ff 93       	push	r31
  26:	80 91 00 00 	lds	r24, 0x0000
  2a:	90 91 00 00 	lds	r25, 0x0000
  2e:	00 97       	sbiw	r24, 0x00	; 0
  30:	01 f0       	breq	.+0      	; 0x32 <__vector_7+0x32>
  32:	e0 91 00 00 	lds	r30, 0x0000
  36:	f0 91 00 00 	lds	r31, 0x0000
  3a:	19 95       	eicall
  3c:	ff 91       	pop	r31
  3e:	ef 91       	pop	r30
  40:	bf 91       	pop	r27
  42:	af 91       	pop	r26
  44:	9f 91       	pop	r25
  46:	8f 91       	pop	r24
  48:	7f 91       	pop	r23
  4a:	6f 91       	pop	r22
  4c:	5f 91       	pop	r21
  4e:	4f 91       	pop	r20
  50:	3f 91       	pop	r19
  52:	2f 91       	pop	r18
  54:	0f 90       	pop	r0
  56:	0b be       	out	0x3b, r0	; 59
  58:	0f 90       	pop	r0
  5a:	0f be       	out	0x3f, r0	; 63
  5c:	0f 90       	pop	r0
  5e:	1f 90       	pop	r1
  60:	18 95       	reti

Disassembly of section .text.__vector_8:

00000000 <__vector_8>:
   0:	1f 92       	push	r1
   2:	0f 92       	push	r0
   4:	0f b6       	in	r0, 0x3f	; 63
   6:	0f 92       	push	r0
   8:	0b b6       	in	r0, 0x3b	; 59
   a:	0f 92       	push	r0
   c:	11 24       	eor	r1, r1
   e:	2f 93       	push	r18
  10:	3f 93       	push	r19
  12:	4f 93       	push	r20
  14:	5f 93       	push	r21
  16:	6f 93       	push	r22
  18:	7f 93       	push	r23
  1a:	8f 93       	push	r24
  1c:	9f 93       	push	r25
  1e:	af 93       	push	r26
  20:	bf 93       	push	r27
  22:	ef 93       	push	r30
  24:	ff 93       	push	r31
  26:	80 91 00 00 	lds	r24, 0x0000
  2a:	90 91 00 00 	lds	r25, 0x0000
  2e:	00 97       	sbiw	r24, 0x00	; 0
  30:	01 f0       	breq	.+0      	; 0x32 <__vector_8+0x32>
  32:	e0 91 00 00 	lds	r30, 0x0000
  36:	f0 91 00 00 	lds	r31, 0x0000
  3a:	19 95       	eicall
  3c:	ff 91       	pop	r31
  3e:	ef 91       	pop	r30
  40:	bf 91       	pop	r27
  42:	af 91       	pop	r26
  44:	9f 91       	pop	r25
  46:	8f 91       	pop	r24
  48:	7f 91       	pop	r23
  4a:	6f 91       	pop	r22
  4c:	5f 91       	pop	r21
  4e:	4f 91       	pop	r20
  50:	3f 91       	pop	r19
  52:	2f 91       	pop	r18
  54:	0f 90       	pop	r0
  56:	0b be       	out	0x3b, r0	; 59
  58:	0f 90       	pop	r0
  5a:	0f be       	out	0x3f, r0	; 63
  5c:	0f 90       	pop	r0
  5e:	1f 90       	pop	r1
  60:	18 95       	reti

WMath.o:     file format elf32-avr

Sections:
Idx Name          Size      VMA       LMA       File off  Algn
  0 .text         00000000  00000000  00000000  00000034  2**0
                  CONTENTS, ALLOC, LOAD, READONLY, CODE
  1 .data         00000000  00000000  00000000  00000034  2**0
                  CONTENTS, ALLOC, LOAD, DATA
  2 .bss          00000000  00000000  00000000  00000034  2**0
                  ALLOC
  3 .text._Z10randomSeedj 00000010  00000000  00000000  00000034  2**0
                  CONTENTS, ALLOC, LOAD, RELOC, READONLY, CODE
  4 .text._Z6randoml 0000003c  00000000  00000000  00000044  2**0
                  CONTENTS, ALLOC, LOAD, RELOC, READONLY, CODE
  5 .text._Z6randomll 0000003c  00000000  00000000  00000080  2**0
                  CONTENTS, ALLOC, LOAD, RELOC, READONLY, CODE
  6 .text._Z3maplllll 00000092  00000000  00000000  000000bc  2**0
                  CONTENTS, ALLOC, LOAD, RELOC, READONLY, CODE
  7 .text._Z8makeWordj 00000002  00000000  00000000  0000014e  2**0
                  CONTENTS, ALLOC, LOAD, READONLY, CODE
  8 .text._Z8makeWordhh 0000000e  00000000  00000000  00000150  2**0
                  CONTENTS, ALLOC, LOAD, READONLY, CODE

Disassembly of section .text._Z10randomSeedj:

00000000 <_Z10randomSeedj>:
   0:	00 97       	sbiw	r24, 0x00	; 0
   2:	01 f0       	breq	.+0      	; 0x4 <_Z10randomSeedj+0x4>
   4:	bc 01       	movw	r22, r24
   6:	80 e0       	ldi	r24, 0x00	; 0
   8:	90 e0       	ldi	r25, 0x00	; 0
   a:	0e 94 00 00 	call	0	; 0x0 <_Z10randomSeedj>
   e:	08 95       	ret

Disassembly of section .text._Z6randoml:

00000000 <_Z6randoml>:
   0:	ef 92       	push	r14
   2:	ff 92       	push	r15
   4:	0f 93       	push	r16
   6:	1f 93       	push	r17
   8:	7b 01       	movw	r14, r22
   a:	8c 01       	movw	r16, r24
   c:	61 15       	cp	r22, r1
   e:	71 05       	cpc	r23, r1
  10:	81 05       	cpc	r24, r1
  12:	91 05       	cpc	r25, r1
  14:	01 f0       	breq	.+0      	; 0x16 <_Z6randoml+0x16>
  16:	0e 94 00 00 	call	0	; 0x0 <_Z6randoml>
  1a:	a8 01       	movw	r20, r16
  1c:	97 01       	movw	r18, r14
  1e:	0e 94 00 00 	call	0	; 0x0 <_Z6randoml>
  22:	9b 01       	movw	r18, r22
  24:	ac 01       	movw	r20, r24
  26:	00 c0       	rjmp	.+0      	; 0x28 <_Z6randoml+0x28>
  28:	20 e0       	ldi	r18, 0x00	; 0
  2a:	30 e0       	ldi	r19, 0x00	; 0
  2c:	a9 01       	movw	r20, r18
  2e:	b9 01       	movw	r22, r18
  30:	ca 01       	movw	r24, r20
  32:	1f 91       	pop	r17
  34:	0f 91       	pop	r16
  36:	ff 90       	pop	r15
  38:	ef 90       	pop	r14
  3a:	08 95       	ret

Disassembly of section .text._Z6randomll:

00000000 <_Z6randomll>:
   0:	ef 92       	push	r14
   2:	ff 92       	push	r15
   4:	0f 93       	push	r16
   6:	1f 93       	push	r17
   8:	7b 01       	movw	r14, r22
   a:	8c 01       	movw	r16, r24
   c:	62 17       	cp	r22, r18
   e:	73 07       	cpc	r23, r19
  10:	84 07       	cpc	r24, r20
  12:	95 07       	cpc	r25, r21
  14:	04 f4       	brge	.+0      	; 0x16 <_Z6randomll+0x16>
  16:	ca 01       	movw	r24, r20
  18:	b9 01       	movw	r22, r18
  1a:	6e 19       	sub	r22, r14
  1c:	7f 09       	sbc	r23, r15
  1e:	80 0b       	sbc	r24, r16
  20:	91 0b       	sbc	r25, r17
  22:	0e 94 00 00 	call	0	; 0x0 <_Z6randomll>
  26:	e6 0e       	add	r14, r22
  28:	f7 1e       	adc	r15, r23
  2a:	08 1f       	adc	r16, r24
  2c:	19 1f       	adc	r17, r25
  2e:	b7 01       	movw	r22, r14
  30:	c8 01       	movw	r24, r16
  32:	1f 91       	pop	r17
  34:	0f 91       	pop	r16
  36:	ff 90       	pop	r15
  38:	ef 90       	pop	r14
  3a:	08 95       	ret

Disassembly of section .text._Z3maplllll:

00000000 <_Z3maplllll>:
   0:	2f 92       	push	r2
   2:	3f 92       	push	r3
   4:	4f 92       	push	r4
   6:	5f 92       	push	r5
   8:	6f 92       	push	r6
   a:	7f 92       	push	r7
   c:	8f 92       	push	r8
   e:	9f 92       	push	r9
  10:	af 92       	push	r10
  12:	bf 92       	push	r11
  14:	cf 92       	push	r12
  16:	df 92       	push	r13
  18:	ef 92       	push	r14
  1a:	ff 92       	push	r15
  1c:	0f 93       	push	r16
  1e:	1f 93       	push	r17
  20:	df 93       	push	r29
  22:	cf 93       	push	r28
  24:	cd b7       	in	r28, 0x3d	; 61
  26:	de b7       	in	r29, 0x3e	; 62
  28:	3b 01       	movw	r6, r22
  2a:	4c 01       	movw	r8, r24
  2c:	19 01       	movw	r2, r18
  2e:	2a 01       	movw	r4, r20
  30:	6e 89       	ldd	r22, Y+22	; 0x16
  32:	7f 89       	ldd	r23, Y+23	; 0x17
  34:	88 8d       	ldd	r24, Y+24	; 0x18
  36:	99 8d       	ldd	r25, Y+25	; 0x19
  38:	6a 19       	sub	r22, r10
  3a:	7b 09       	sbc	r23, r11
  3c:	8c 09       	sbc	r24, r12
  3e:	9d 09       	sbc	r25, r13
  40:	62 1a       	sub	r6, r18
  42:	73 0a       	sbc	r7, r19
  44:	84 0a       	sbc	r8, r20
  46:	95 0a       	sbc	r9, r21
  48:	a4 01       	movw	r20, r8
  4a:	93 01       	movw	r18, r6
  4c:	0e 94 00 00 	call	0	; 0x0 <_Z3maplllll>
  50:	e2 18       	sub	r14, r2
  52:	f3 08       	sbc	r15, r3
  54:	04 09       	sbc	r16, r4
  56:	15 09       	sbc	r17, r5
  58:	a8 01       	movw	r20, r16
  5a:	97 01       	movw	r18, r14
  5c:	0e 94 00 00 	call	0	; 0x0 <_Z3maplllll>
  60:	2a 0d       	add	r18, r10
  62:	3b 1d       	adc	r19, r11
  64:	4c 1d       	adc	r20, r12
  66:	5d 1d       	adc	r21, r13
  68:	b9 01       	movw	r22, r18
  6a:	ca 01       	movw	r24, r20
  6c:	cf 91       	pop	r28
  6e:	df 91       	pop	r29
  70:	1f 91       	pop	r17
  72:	0f 91       	pop	r16
  74:	ff 90       	pop	r15
  76:	ef 90       	pop	r14
  78:	df 90       	pop	r13
  7a:	cf 90       	pop	r12
  7c:	bf 90       	pop	r11
  7e:	af 90       	pop	r10
  80:	9f 90       	pop	r9
  82:	8f 90       	pop	r8
  84:	7f 90       	pop	r7
  86:	6f 90       	pop	r6
  88:	5f 90       	pop	r5
  8a:	4f 90       	pop	r4
  8c:	3f 90       	pop	r3
  8e:	2f 90       	pop	r2
  90:	08 95       	ret

Disassembly of section .text._Z8makeWordj:

00000000 <_Z8makeWordj>:
   0:	08 95       	ret

Disassembly of section .text._Z8makeWordhh:

00000000 <_Z8makeWordhh>:
   0:	70 e0       	ldi	r23, 0x00	; 0
   2:	38 2f       	mov	r19, r24
   4:	20 e0       	ldi	r18, 0x00	; 0
   6:	62 2b       	or	r22, r18
   8:	73 2b       	or	r23, r19
   a:	cb 01       	movw	r24, r22
   c:	08 95       	ret

WString.o:     file format elf32-avr

Sections:
Idx Name          Size      VMA       LMA       File off  Algn
  0 .text         00000000  00000000  00000000  00000034  2**0
                  CONTENTS, ALLOC, LOAD, READONLY, CODE
  1 .data         00000001  00000000  00000000  00000034  2**0
                  CONTENTS, ALLOC, LOAD, DATA
  2 .bss          00000000  00000000  00000000  00000035  2**0
                  ALLOC
  3 .text._ZN6String9getBufferEj 00000028  00000000  00000000  00000035  2**0
                  CONTENTS, ALLOC, LOAD, RELOC, READONLY, CODE
  4 .text._ZN6StringC2EPKc 0000005c  00000000  00000000  0000005d  2**0
                  CONTENTS, ALLOC, LOAD, RELOC, READONLY, CODE
  5 .text._ZN6StringC2ERKS_ 00000036  00000000  00000000  000000b9  2**0
                  CONTENTS, ALLOC, LOAD, RELOC, READONLY, CODE
  6 .text._ZN6StringC2Ec 00000034  00000000  00000000  000000ef  2**0
                  CONTENTS, ALLOC, LOAD, RELOC, READONLY, CODE
  7 .text._ZN6StringC2Eh 00000034  00000000  00000000  00000123  2**0
                  CONTENTS, ALLOC, LOAD, RELOC, READONLY, CODE
  8 .text._ZN6StringC2Eii 00000074  00000000  00000000  00000157  2**0
                  CONTENTS, ALLOC, LOAD, RELOC, READONLY, CODE
  9 .text._ZN6StringC2Eji 00000078  00000000  00000000  000001cb  2**0
                  CONTENTS, ALLOC, LOAD, RELOC, READONLY, CODE
 10 .text._ZN6StringC2Eli 00000076  00000000  00000000  00000243  2**0
                  CONTENTS, ALLOC, LOAD, RELOC, READONLY, CODE
 11 .text._ZN6StringC2Emi 0000007a  00000000  00000000  000002b9  2**0
                  CONTENTS, ALLOC, LOAD, RELOC, READONLY, CODE
 12 .text._ZNK6String6charAtEj 00000010  00000000  00000000  00000333  2**0
                  CONTENTS, ALLOC, LOAD, READONLY, CODE
 13 .text._ZN6String9setCharAtEjc 0000001e  00000000  00000000  00000343  2**0
                  CONTENTS, ALLOC, LOAD, RELOC, READONLY, CODE
 14 .text._ZNK6String9compareToERKS_ 00000012  00000000  00000000  00000361  2**0
                  CONTENTS, ALLOC, LOAD, RELOC, READONLY, CODE
 15 .text._ZN6StringaSERKS_ 00000064  00000000  00000000  00000373  2**0
                  CONTENTS, ALLOC, LOAD, RELOC, READONLY, CODE
 16 .text._ZN6StringpLERKS_ 0000006c  00000000  00000000  000003d7  2**0
                  CONTENTS, ALLOC, LOAD, RELOC, READONLY, CODE
 17 .text._ZN6String6concatERKS_ 00000006  00000000  00000000  00000443  2**0
                  CONTENTS, ALLOC, LOAD, RELOC, READONLY, CODE
 18 .text._ZNK6StringeqERKS_ 00000032  00000000  00000000  00000449  2**0
                  CONTENTS, ALLOC, LOAD, RELOC, READONLY, CODE
 19 .text._ZNK6StringneERKS_ 00000036  00000000  00000000  0000047b  2**0
                  CONTENTS, ALLOC, LOAD, RELOC, READONLY, CODE
 20 .text._ZNK6StringltERKS_ 0000001c  00000000  00000000  000004b1  2**0
                  CONTENTS, ALLOC, LOAD, RELOC, READONLY, CODE
 21 .text._ZNK6StringgtERKS_ 00000022  00000000  00000000  000004cd  2**0
                  CONTENTS, ALLOC, LOAD, RELOC, READONLY, CODE
 22 .text._ZNK6StringleERKS_ 00000022  00000000  00000000  000004ef  2**0
                  CONTENTS, ALLOC, LOAD, RELOC, READONLY, CODE
 23 .text._ZNK6StringgeERKS_ 0000001e  00000000  00000000  00000511  2**0
                  CONTENTS, ALLOC, LOAD, RELOC, READONLY, CODE
 24 .text._ZN6StringixEj 00000026  00000000  00000000  0000052f  2**0
                  CONTENTS, ALLOC, LOAD, RELOC, READONLY, CODE
 25 .text._ZNK6StringixEj 00000010  00000000  00000000  00000555  2**0
                  CONTENTS, ALLOC, LOAD, READONLY, CODE
 26 .text._ZNK6String8endsWithERKS_ 0000003c  00000000  00000000  00000565  2**0
                  CONTENTS, ALLOC, LOAD, RELOC, READONLY, CODE
 27 .text._ZNK6String6equalsERKS_ 00000034  00000000  00000000  000005a1  2**0
                  CONTENTS, ALLOC, LOAD, RELOC, READONLY, CODE
 28 .text._ZN6String7replaceEcc 0000007c  00000000  00000000  000005d5  2**0
                  CONTENTS, ALLOC, LOAD, RELOC, READONLY, CODE
 29 .text._ZNK6String7indexOfEcj 00000038  00000000  00000000  00000651  2**0
                  CONTENTS, ALLOC, LOAD, RELOC, READONLY, CODE
 30 .text._ZNK6String7indexOfEc 0000000a  00000000  00000000  00000689  2**0
                  CONTENTS, ALLOC, LOAD, RELOC, READONLY, CODE
 31 .text._ZNK6String7indexOfERKS_j 0000003c  00000000  00000000  00000693  2**0
                  CONTENTS, ALLOC, LOAD, RELOC, READONLY, CODE
 32 .text._ZNK6String7indexOfERKS_ 0000000a  00000000  00000000  000006cf  2**0
                  CONTENTS, ALLOC, LOAD, RELOC, READONLY, CODE
 33 .text._ZNK6String11lastIndexOfEcj 0000006a  00000000  00000000  000006d9  2**0
                  CONTENTS, ALLOC, LOAD, RELOC, READONLY, CODE
 34 .text._ZNK6String11lastIndexOfEc 00000010  00000000  00000000  00000743  2**0
                  CONTENTS, ALLOC, LOAD, RELOC, READONLY, CODE
 35 .text._ZNK6String10startsWithERKS_j 0000003e  00000000  00000000  00000753  2**0
                  CONTENTS, ALLOC, LOAD, RELOC, READONLY, CODE
 36 .text._ZNK6String10startsWithERKS_ 00000020  00000000  00000000  00000791  2**0
                  CONTENTS, ALLOC, LOAD, RELOC, READONLY, CODE
 37 .text._ZNK6String9substringEjj 00000080  00000000  00000000  000007b1  2**0
                  CONTENTS, ALLOC, LOAD, RELOC, READONLY, CODE
 38 .text._ZNK6String9substringEj 00000018  00000000  00000000  00000831  2**0
                  CONTENTS, ALLOC, LOAD, RELOC, READONLY, CODE
 39 .text._ZNK6String11lastIndexOfERKS_j 000000d2  00000000  00000000  00000849  2**0
                  CONTENTS, ALLOC, LOAD, RELOC, READONLY, CODE
 40 .text._ZNK6String11lastIndexOfERKS_ 00000016  00000000  00000000  0000091b  2**0
                  CONTENTS, ALLOC, LOAD, RELOC, READONLY, CODE
 41 .text._ZN6String7replaceERKS_S1_ 0000014a  00000000  00000000  00000931  2**0
                  CONTENTS, ALLOC, LOAD, RELOC, READONLY, CODE
 42 .text._ZNK6String11toLowerCaseEv 00000066  00000000  00000000  00000a7b  2**0
                  CONTENTS, ALLOC, LOAD, RELOC, READONLY, CODE
 43 .text._ZNK6String16equalsIgnoreCaseERKS_ 000000a4  00000000  00000000  00000ae1  2**0
                  CONTENTS, ALLOC, LOAD, RELOC, READONLY, CODE
 44 .text._ZNK6String11toUpperCaseEv 00000066  00000000  00000000  00000b85  2**0
                  CONTENTS, ALLOC, LOAD, RELOC, READONLY, CODE
 45 .text._ZNK6String4trimEv 000000d2  00000000  00000000  00000beb  2**0
                  CONTENTS, ALLOC, LOAD, RELOC, READONLY, CODE
 46 .text._ZN6String8getBytesEPhj 00000044  00000000  00000000  00000cbd  2**0
                  CONTENTS, ALLOC, LOAD, RELOC, READONLY, CODE
 47 .text._ZN6String11toCharArrayEPcj 00000044  00000000  00000000  00000d01  2**0
                  CONTENTS, ALLOC, LOAD, RELOC, READONLY, CODE
 48 .bss._ZZN6StringixEjE19dummy_writable_char 00000001  00000000  00000000  00000d45  2**0
                  ALLOC

Disassembly of section .text._ZN6String9getBufferEj:

00000000 <_ZN6String9getBufferEj>:
   0:	cf 93       	push	r28
   2:	df 93       	push	r29
   4:	ec 01       	movw	r28, r24
   6:	cb 01       	movw	r24, r22
   8:	7b 83       	std	Y+3, r23	; 0x03
   a:	6a 83       	std	Y+2, r22	; 0x02
   c:	01 96       	adiw	r24, 0x01	; 1
   e:	0e 94 00 00 	call	0	; 0x0 <_ZN6String9getBufferEj>
  12:	99 83       	std	Y+1, r25	; 0x01
  14:	88 83       	st	Y, r24
  16:	00 97       	sbiw	r24, 0x00	; 0
  18:	01 f4       	brne	.+0      	; 0x1a <_ZN6String9getBufferEj+0x1a>
  1a:	1b 82       	std	Y+3, r1	; 0x03
  1c:	1a 82       	std	Y+2, r1	; 0x02
  1e:	1d 82       	std	Y+5, r1	; 0x05
  20:	1c 82       	std	Y+4, r1	; 0x04
  22:	df 91       	pop	r29
  24:	cf 91       	pop	r28
  26:	08 95       	ret

Disassembly of section .text._ZN6StringC2EPKc:

00000000 <_ZN6StringC1EPKc>:
   0:	ef 92       	push	r14
   2:	ff 92       	push	r15
   4:	0f 93       	push	r16
   6:	1f 93       	push	r17
   8:	cf 93       	push	r28
   a:	df 93       	push	r29
   c:	8c 01       	movw	r16, r24
   e:	eb 01       	movw	r28, r22
  10:	20 97       	sbiw	r28, 0x00	; 0
  12:	01 f4       	brne	.+0      	; 0x14 <_ZN6StringC1EPKc+0x14>
  14:	c0 e0       	ldi	r28, 0x00	; 0
  16:	d0 e0       	ldi	r29, 0x00	; 0
  18:	7e 01       	movw	r14, r28
  1a:	ec 2f       	mov	r30, r28
  1c:	ff 2d       	mov	r31, r15
  1e:	df 01       	movw	r26, r30
  20:	0d 90       	ld	r0, X+
  22:	00 20       	and	r0, r0
  24:	01 f4       	brne	.+0      	; 0x26 <_ZN6StringC1EPKc+0x26>
  26:	bd 01       	movw	r22, r26
  28:	61 50       	subi	r22, 0x01	; 1
  2a:	70 40       	sbci	r23, 0x00	; 0
  2c:	6e 1b       	sub	r22, r30
  2e:	7f 0b       	sbc	r23, r31
  30:	f8 01       	movw	r30, r16
  32:	75 83       	std	Z+5, r23	; 0x05
  34:	64 83       	std	Z+4, r22	; 0x04
  36:	c8 01       	movw	r24, r16
  38:	0e 94 00 00 	call	0	; 0x0 <_ZN6StringC1EPKc>
  3c:	d8 01       	movw	r26, r16
  3e:	8d 91       	ld	r24, X+
  40:	9c 91       	ld	r25, X
  42:	11 97       	sbiw	r26, 0x01	; 1
  44:	00 97       	sbiw	r24, 0x00	; 0
  46:	01 f0       	breq	.+0      	; 0x48 <_ZN6StringC1EPKc+0x48>
  48:	be 01       	movw	r22, r28
  4a:	0e 94 00 00 	call	0	; 0x0 <_ZN6StringC1EPKc>
  4e:	df 91       	pop	r29
  50:	cf 91       	pop	r28
  52:	1f 91       	pop	r17
  54:	0f 91       	pop	r16
  56:	ff 90       	pop	r15
  58:	ef 90       	pop	r14
  5a:	08 95       	ret

Disassembly of section .text._ZN6StringC2ERKS_:

00000000 <_ZN6StringC1ERKS_>:
   0:	0f 93       	push	r16
   2:	1f 93       	push	r17
   4:	cf 93       	push	r28
   6:	df 93       	push	r29
   8:	ec 01       	movw	r28, r24
   a:	8b 01       	movw	r16, r22
   c:	fb 01       	movw	r30, r22
   e:	64 81       	ldd	r22, Z+4	; 0x04
  10:	75 81       	ldd	r23, Z+5	; 0x05
  12:	7d 83       	std	Y+5, r23	; 0x05
  14:	6c 83       	std	Y+4, r22	; 0x04
  16:	0e 94 00 00 	call	0	; 0x0 <_ZN6StringC1ERKS_>
  1a:	88 81       	ld	r24, Y
  1c:	99 81       	ldd	r25, Y+1	; 0x01
  1e:	00 97       	sbiw	r24, 0x00	; 0
  20:	01 f0       	breq	.+0      	; 0x22 <_ZN6StringC1ERKS_+0x22>
  22:	f8 01       	movw	r30, r16
  24:	60 81       	ld	r22, Z
  26:	71 81       	ldd	r23, Z+1	; 0x01
  28:	0e 94 00 00 	call	0	; 0x0 <_ZN6StringC1ERKS_>
  2c:	df 91       	pop	r29
  2e:	cf 91       	pop	r28
  30:	1f 91       	pop	r17
  32:	0f 91       	pop	r16
  34:	08 95       	ret

Disassembly of section .text._ZN6StringC2Ec:

00000000 <_ZN6StringC1Ec>:
   0:	1f 93       	push	r17
   2:	cf 93       	push	r28
   4:	df 93       	push	r29
   6:	ec 01       	movw	r28, r24
   8:	16 2f       	mov	r17, r22
   a:	81 e0       	ldi	r24, 0x01	; 1
   c:	90 e0       	ldi	r25, 0x00	; 0
   e:	9d 83       	std	Y+5, r25	; 0x05
  10:	8c 83       	std	Y+4, r24	; 0x04
  12:	ce 01       	movw	r24, r28
  14:	61 e0       	ldi	r22, 0x01	; 1
  16:	70 e0       	ldi	r23, 0x00	; 0
  18:	0e 94 00 00 	call	0	; 0x0 <_ZN6StringC1Ec>
  1c:	e8 81       	ld	r30, Y
  1e:	f9 81       	ldd	r31, Y+1	; 0x01
  20:	30 97       	sbiw	r30, 0x00	; 0
  22:	01 f0       	breq	.+0      	; 0x24 <_ZN6StringC1Ec+0x24>
  24:	10 83       	st	Z, r17
  26:	e8 81       	ld	r30, Y
  28:	f9 81       	ldd	r31, Y+1	; 0x01
  2a:	11 82       	std	Z+1, r1	; 0x01
  2c:	df 91       	pop	r29
  2e:	cf 91       	pop	r28
  30:	1f 91       	pop	r17
  32:	08 95       	ret

Disassembly of section .text._ZN6StringC2Eh:

00000000 <_ZN6StringC1Eh>:
   0:	1f 93       	push	r17
   2:	cf 93       	push	r28
   4:	df 93       	push	r29
   6:	ec 01       	movw	r28, r24
   8:	16 2f       	mov	r17, r22
   a:	81 e0       	ldi	r24, 0x01	; 1
   c:	90 e0       	ldi	r25, 0x00	; 0
   e:	9d 83       	std	Y+5, r25	; 0x05
  10:	8c 83       	std	Y+4, r24	; 0x04
  12:	ce 01       	movw	r24, r28
  14:	61 e0       	ldi	r22, 0x01	; 1
  16:	70 e0       	ldi	r23, 0x00	; 0
  18:	0e 94 00 00 	call	0	; 0x0 <_ZN6StringC1Eh>
  1c:	e8 81       	ld	r30, Y
  1e:	f9 81       	ldd	r31, Y+1	; 0x01
  20:	30 97       	sbiw	r30, 0x00	; 0
  22:	01 f0       	breq	.+0      	; 0x24 <_ZN6StringC1Eh+0x24>
  24:	10 83       	st	Z, r17
  26:	e8 81       	ld	r30, Y
  28:	f9 81       	ldd	r31, Y+1	; 0x01
  2a:	11 82       	std	Z+1, r1	; 0x01
  2c:	df 91       	pop	r29
  2e:	cf 91       	pop	r28
  30:	1f 91       	pop	r17
  32:	08 95       	ret

Disassembly of section .text._ZN6StringC2Eii:

00000000 <_ZN6StringC1Eii>:
   0:	ef 92       	push	r14
   2:	ff 92       	push	r15
   4:	0f 93       	push	r16
   6:	1f 93       	push	r17
   8:	df 93       	push	r29
   a:	cf 93       	push	r28
   c:	cd b7       	in	r28, 0x3d	; 61
   e:	de b7       	in	r29, 0x3e	; 62
  10:	a1 97       	sbiw	r28, 0x21	; 33
  12:	0f b6       	in	r0, 0x3f	; 63
  14:	f8 94       	cli
  16:	de bf       	out	0x3e, r29	; 62
  18:	0f be       	out	0x3f, r0	; 63
  1a:	cd bf       	out	0x3d, r28	; 61
  1c:	7c 01       	movw	r14, r24
  1e:	cb 01       	movw	r24, r22
  20:	8e 01       	movw	r16, r28
  22:	0f 5f       	subi	r16, 0xFF	; 255
  24:	1f 4f       	sbci	r17, 0xFF	; 255
  26:	b8 01       	movw	r22, r16
  28:	0e 94 00 00 	call	0	; 0x0 <_ZN6StringC1Eii>
  2c:	f8 01       	movw	r30, r16
  2e:	01 90       	ld	r0, Z+
  30:	00 20       	and	r0, r0
  32:	01 f4       	brne	.+0      	; 0x34 <_ZN6StringC1Eii+0x34>
  34:	bf 01       	movw	r22, r30
  36:	61 50       	subi	r22, 0x01	; 1
  38:	70 40       	sbci	r23, 0x00	; 0
  3a:	60 1b       	sub	r22, r16
  3c:	71 0b       	sbc	r23, r17
  3e:	f7 01       	movw	r30, r14
  40:	75 83       	std	Z+5, r23	; 0x05
  42:	64 83       	std	Z+4, r22	; 0x04
  44:	c7 01       	movw	r24, r14
  46:	0e 94 00 00 	call	0	; 0x0 <_ZN6StringC1Eii>
  4a:	f7 01       	movw	r30, r14
  4c:	80 81       	ld	r24, Z
  4e:	91 81       	ldd	r25, Z+1	; 0x01
  50:	00 97       	sbiw	r24, 0x00	; 0
  52:	01 f0       	breq	.+0      	; 0x54 <_ZN6StringC1Eii+0x54>
  54:	b8 01       	movw	r22, r16
  56:	0e 94 00 00 	call	0	; 0x0 <_ZN6StringC1Eii>
  5a:	a1 96       	adiw	r28, 0x21	; 33
  5c:	0f b6       	in	r0, 0x3f	; 63
  5e:	f8 94       	cli
  60:	de bf       	out	0x3e, r29	; 62
  62:	0f be       	out	0x3f, r0	; 63
  64:	cd bf       	out	0x3d, r28	; 61
  66:	cf 91       	pop	r28
  68:	df 91       	pop	r29
  6a:	1f 91       	pop	r17
  6c:	0f 91       	pop	r16
  6e:	ff 90       	pop	r15
  70:	ef 90       	pop	r14
  72:	08 95       	ret

Disassembly of section .text._ZN6StringC2Eji:

00000000 <_ZN6StringC1Eji>:
   0:	ef 92       	push	r14
   2:	ff 92       	push	r15
   4:	0f 93       	push	r16
   6:	1f 93       	push	r17
   8:	df 93       	push	r29
   a:	cf 93       	push	r28
   c:	cd b7       	in	r28, 0x3d	; 61
   e:	de b7       	in	r29, 0x3e	; 62
  10:	a1 97       	sbiw	r28, 0x21	; 33
  12:	0f b6       	in	r0, 0x3f	; 63
  14:	f8 94       	cli
  16:	de bf       	out	0x3e, r29	; 62
  18:	0f be       	out	0x3f, r0	; 63
  1a:	cd bf       	out	0x3d, r28	; 61
  1c:	7c 01       	movw	r14, r24
  1e:	9a 01       	movw	r18, r20
  20:	80 e0       	ldi	r24, 0x00	; 0
  22:	90 e0       	ldi	r25, 0x00	; 0
  24:	8e 01       	movw	r16, r28
  26:	0f 5f       	subi	r16, 0xFF	; 255
  28:	1f 4f       	sbci	r17, 0xFF	; 255
  2a:	a8 01       	movw	r20, r16
  2c:	0e 94 00 00 	call	0	; 0x0 <_ZN6StringC1Eji>
  30:	f8 01       	movw	r30, r16
  32:	01 90       	ld	r0, Z+
  34:	00 20       	and	r0, r0
  36:	01 f4       	brne	.+0      	; 0x38 <_ZN6StringC1Eji+0x38>
  38:	bf 01       	movw	r22, r30
  3a:	61 50       	subi	r22, 0x01	; 1
  3c:	70 40       	sbci	r23, 0x00	; 0
  3e:	60 1b       	sub	r22, r16
  40:	71 0b       	sbc	r23, r17
  42:	f7 01       	movw	r30, r14
  44:	75 83       	std	Z+5, r23	; 0x05
  46:	64 83       	std	Z+4, r22	; 0x04
  48:	c7 01       	movw	r24, r14
  4a:	0e 94 00 00 	call	0	; 0x0 <_ZN6StringC1Eji>
  4e:	f7 01       	movw	r30, r14
  50:	80 81       	ld	r24, Z
  52:	91 81       	ldd	r25, Z+1	; 0x01
  54:	00 97       	sbiw	r24, 0x00	; 0
  56:	01 f0       	breq	.+0      	; 0x58 <_ZN6StringC1Eji+0x58>
  58:	b8 01       	movw	r22, r16
  5a:	0e 94 00 00 	call	0	; 0x0 <_ZN6StringC1Eji>
  5e:	a1 96       	adiw	r28, 0x21	; 33
  60:	0f b6       	in	r0, 0x3f	; 63
  62:	f8 94       	cli
  64:	de bf       	out	0x3e, r29	; 62
  66:	0f be       	out	0x3f, r0	; 63
  68:	cd bf       	out	0x3d, r28	; 61
  6a:	cf 91       	pop	r28
  6c:	df 91       	pop	r29
  6e:	1f 91       	pop	r17
  70:	0f 91       	pop	r16
  72:	ff 90       	pop	r15
  74:	ef 90       	pop	r14
  76:	08 95       	ret

Disassembly of section .text._ZN6StringC2Eli:

00000000 <_ZN6StringC1Eli>:
   0:	ef 92       	push	r14
   2:	ff 92       	push	r15
   4:	0f 93       	push	r16
   6:	1f 93       	push	r17
   8:	df 93       	push	r29
   a:	cf 93       	push	r28
   c:	cd b7       	in	r28, 0x3d	; 61
   e:	de b7       	in	r29, 0x3e	; 62
  10:	a1 97       	sbiw	r28, 0x21	; 33
  12:	0f b6       	in	r0, 0x3f	; 63
  14:	f8 94       	cli
  16:	de bf       	out	0x3e, r29	; 62
  18:	0f be       	out	0x3f, r0	; 63
  1a:	cd bf       	out	0x3d, r28	; 61
  1c:	7c 01       	movw	r14, r24
  1e:	cb 01       	movw	r24, r22
  20:	ba 01       	movw	r22, r20
  22:	8e 01       	movw	r16, r28
  24:	0f 5f       	subi	r16, 0xFF	; 255
  26:	1f 4f       	sbci	r17, 0xFF	; 255
  28:	a8 01       	movw	r20, r16
  2a:	0e 94 00 00 	call	0	; 0x0 <_ZN6StringC1Eli>
  2e:	f8 01       	movw	r30, r16
  30:	01 90       	ld	r0, Z+
  32:	00 20       	and	r0, r0
  34:	01 f4       	brne	.+0      	; 0x36 <_ZN6StringC1Eli+0x36>
  36:	bf 01       	movw	r22, r30
  38:	61 50       	subi	r22, 0x01	; 1
  3a:	70 40       	sbci	r23, 0x00	; 0
  3c:	60 1b       	sub	r22, r16
  3e:	71 0b       	sbc	r23, r17
  40:	f7 01       	movw	r30, r14
  42:	75 83       	std	Z+5, r23	; 0x05
  44:	64 83       	std	Z+4, r22	; 0x04
  46:	c7 01       	movw	r24, r14
  48:	0e 94 00 00 	call	0	; 0x0 <_ZN6StringC1Eli>
  4c:	f7 01       	movw	r30, r14
  4e:	80 81       	ld	r24, Z
  50:	91 81       	ldd	r25, Z+1	; 0x01
  52:	00 97       	sbiw	r24, 0x00	; 0
  54:	01 f0       	breq	.+0      	; 0x56 <_ZN6StringC1Eli+0x56>
  56:	b8 01       	movw	r22, r16
  58:	0e 94 00 00 	call	0	; 0x0 <_ZN6StringC1Eli>
  5c:	a1 96       	adiw	r28, 0x21	; 33
  5e:	0f b6       	in	r0, 0x3f	; 63
  60:	f8 94       	cli
  62:	de bf       	out	0x3e, r29	; 62
  64:	0f be       	out	0x3f, r0	; 63
  66:	cd bf       	out	0x3d, r28	; 61
  68:	cf 91       	pop	r28
  6a:	df 91       	pop	r29
  6c:	1f 91       	pop	r17
  6e:	0f 91       	pop	r16
  70:	ff 90       	pop	r15
  72:	ef 90       	pop	r14
  74:	08 95       	ret

Disassembly of section .text._ZN6StringC2Emi:

00000000 <_ZN6StringC1Emi>:
   0:	ef 92       	push	r14
   2:	ff 92       	push	r15
   4:	0f 93       	push	r16
   6:	1f 93       	push	r17
   8:	df 93       	push	r29
   a:	cf 93       	push	r28
   c:	cd b7       	in	r28, 0x3d	; 61
   e:	de b7       	in	r29, 0x3e	; 62
  10:	a1 97       	sbiw	r28, 0x21	; 33
  12:	0f b6       	in	r0, 0x3f	; 63
  14:	f8 94       	cli
  16:	de bf       	out	0x3e, r29	; 62
  18:	0f be       	out	0x3f, r0	; 63
  1a:	cd bf       	out	0x3d, r28	; 61
  1c:	7c 01       	movw	r14, r24
  1e:	cb 01       	movw	r24, r22
  20:	ba 01       	movw	r22, r20
  22:	8e 01       	movw	r16, r28
  24:	0f 5f       	subi	r16, 0xFF	; 255
  26:	1f 4f       	sbci	r17, 0xFF	; 255
  28:	a8 01       	movw	r20, r16
  2a:	2a e0       	ldi	r18, 0x0A	; 10
  2c:	30 e0       	ldi	r19, 0x00	; 0
  2e:	0e 94 00 00 	call	0	; 0x0 <_ZN6StringC1Emi>
  32:	f8 01       	movw	r30, r16
  34:	01 90       	ld	r0, Z+
  36:	00 20       	and	r0, r0
  38:	01 f4       	brne	.+0      	; 0x3a <_ZN6StringC1Emi+0x3a>
  3a:	bf 01       	movw	r22, r30
  3c:	61 50       	subi	r22, 0x01	; 1
  3e:	70 40       	sbci	r23, 0x00	; 0
  40:	60 1b       	sub	r22, r16
  42:	71 0b       	sbc	r23, r17
  44:	f7 01       	movw	r30, r14
  46:	75 83       	std	Z+5, r23	; 0x05
  48:	64 83       	std	Z+4, r22	; 0x04
  4a:	c7 01       	movw	r24, r14
  4c:	0e 94 00 00 	call	0	; 0x0 <_ZN6StringC1Emi>
  50:	f7 01       	movw	r30, r14
  52:	80 81       	ld	r24, Z
  54:	91 81       	ldd	r25, Z+1	; 0x01
  56:	00 97       	sbiw	r24, 0x00	; 0
  58:	01 f0       	breq	.+0      	; 0x5a <_ZN6StringC1Emi+0x5a>
  5a:	b8 01       	movw	r22, r16
  5c:	0e 94 00 00 	call	0	; 0x0 <_ZN6StringC1Emi>
  60:	a1 96       	adiw	r28, 0x21	; 33
  62:	0f b6       	in	r0, 0x3f	; 63
  64:	f8 94       	cli
  66:	de bf       	out	0x3e, r29	; 62
  68:	0f be       	out	0x3f, r0	; 63
  6a:	cd bf       	out	0x3d, r28	; 61
  6c:	cf 91       	pop	r28
  6e:	df 91       	pop	r29
  70:	1f 91       	pop	r17
  72:	0f 91       	pop	r16
  74:	ff 90       	pop	r15
  76:	ef 90       	pop	r14
  78:	08 95       	ret

Disassembly of section .text._ZNK6String6charAtEj:

00000000 <_ZNK6String6charAtEj>:
   0:	dc 01       	movw	r26, r24
   2:	ed 91       	ld	r30, X+
   4:	fc 91       	ld	r31, X
   6:	11 97       	sbiw	r26, 0x01	; 1
   8:	e6 0f       	add	r30, r22
   a:	f7 1f       	adc	r31, r23
   c:	80 81       	ld	r24, Z
   e:	08 95       	ret

Disassembly of section .text._ZN6String9setCharAtEjc:

00000000 <_ZN6String9setCharAtEjc>:
   0:	fc 01       	movw	r30, r24
   2:	80 81       	ld	r24, Z
   4:	91 81       	ldd	r25, Z+1	; 0x01
   6:	00 97       	sbiw	r24, 0x00	; 0
   8:	01 f0       	breq	.+0      	; 0xa <_ZN6String9setCharAtEjc+0xa>
   a:	24 81       	ldd	r18, Z+4	; 0x04
   c:	35 81       	ldd	r19, Z+5	; 0x05
   e:	62 17       	cp	r22, r18
  10:	73 07       	cpc	r23, r19
  12:	00 f4       	brcc	.+0      	; 0x14 <_ZN6String9setCharAtEjc+0x14>
  14:	68 0f       	add	r22, r24
  16:	79 1f       	adc	r23, r25
  18:	fb 01       	movw	r30, r22
  1a:	40 83       	st	Z, r20
  1c:	08 95       	ret

Disassembly of section .text._ZNK6String9compareToERKS_:

00000000 <_ZNK6String9compareToERKS_>:
   0:	fb 01       	movw	r30, r22
   2:	60 81       	ld	r22, Z
   4:	71 81       	ldd	r23, Z+1	; 0x01
   6:	fc 01       	movw	r30, r24
   8:	80 81       	ld	r24, Z
   a:	91 81       	ldd	r25, Z+1	; 0x01
   c:	0e 94 00 00 	call	0	; 0x0 <_ZNK6String9compareToERKS_>
  10:	08 95       	ret

Disassembly of section .text._ZN6StringaSERKS_:

00000000 <_ZN6StringaSERKS_>:
   0:	ef 92       	push	r14
   2:	ff 92       	push	r15
   4:	0f 93       	push	r16
   6:	1f 93       	push	r17
   8:	cf 93       	push	r28
   a:	df 93       	push	r29
   c:	ec 01       	movw	r28, r24
   e:	8b 01       	movw	r16, r22
  10:	86 17       	cp	r24, r22
  12:	97 07       	cpc	r25, r23
  14:	01 f0       	breq	.+0      	; 0x16 <_ZN6StringaSERKS_+0x16>
  16:	fb 01       	movw	r30, r22
  18:	24 81       	ldd	r18, Z+4	; 0x04
  1a:	35 81       	ldd	r19, Z+5	; 0x05
  1c:	8c 81       	ldd	r24, Y+4	; 0x04
  1e:	9d 81       	ldd	r25, Y+5	; 0x05
  20:	82 17       	cp	r24, r18
  22:	93 07       	cpc	r25, r19
  24:	00 f4       	brcc	.+0      	; 0x26 <_ZN6StringaSERKS_+0x26>
  26:	88 81       	ld	r24, Y
  28:	99 81       	ldd	r25, Y+1	; 0x01
  2a:	0e 94 00 00 	call	0	; 0x0 <_ZN6StringaSERKS_>
  2e:	f8 01       	movw	r30, r16
  30:	64 81       	ldd	r22, Z+4	; 0x04
  32:	75 81       	ldd	r23, Z+5	; 0x05
  34:	ce 01       	movw	r24, r28
  36:	0e 94 00 00 	call	0	; 0x0 <_ZN6StringaSERKS_>
  3a:	88 81       	ld	r24, Y
  3c:	99 81       	ldd	r25, Y+1	; 0x01
  3e:	00 97       	sbiw	r24, 0x00	; 0
  40:	01 f0       	breq	.+0      	; 0x42 <_ZN6StringaSERKS_+0x42>
  42:	f8 01       	movw	r30, r16
  44:	24 81       	ldd	r18, Z+4	; 0x04
  46:	35 81       	ldd	r19, Z+5	; 0x05
  48:	3d 83       	std	Y+5, r19	; 0x05
  4a:	2c 83       	std	Y+4, r18	; 0x04
  4c:	60 81       	ld	r22, Z
  4e:	71 81       	ldd	r23, Z+1	; 0x01
  50:	0e 94 00 00 	call	0	; 0x0 <_ZN6StringaSERKS_>
  54:	ce 01       	movw	r24, r28
  56:	df 91       	pop	r29
  58:	cf 91       	pop	r28
  5a:	1f 91       	pop	r17
  5c:	0f 91       	pop	r16
  5e:	ff 90       	pop	r15
  60:	ef 90       	pop	r14
  62:	08 95       	ret

Disassembly of section .text._ZN6StringpLERKS_:

00000000 <_ZN6StringpLERKS_>:
   0:	ef 92       	push	r14
   2:	ff 92       	push	r15
   4:	0f 93       	push	r16
   6:	1f 93       	push	r17
   8:	cf 93       	push	r28
   a:	df 93       	push	r29
   c:	ec 01       	movw	r28, r24
   e:	7b 01       	movw	r14, r22
  10:	fb 01       	movw	r30, r22
  12:	64 81       	ldd	r22, Z+4	; 0x04
  14:	75 81       	ldd	r23, Z+5	; 0x05
  16:	8c 81       	ldd	r24, Y+4	; 0x04
  18:	9d 81       	ldd	r25, Y+5	; 0x05
  1a:	68 0f       	add	r22, r24
  1c:	79 1f       	adc	r23, r25
  1e:	7d 83       	std	Y+5, r23	; 0x05
  20:	6c 83       	std	Y+4, r22	; 0x04
  22:	8a 81       	ldd	r24, Y+2	; 0x02
  24:	9b 81       	ldd	r25, Y+3	; 0x03
  26:	86 17       	cp	r24, r22
  28:	97 07       	cpc	r25, r23
  2a:	00 f4       	brcc	.+0      	; 0x2c <_ZN6StringpLERKS_+0x2c>
  2c:	08 81       	ld	r16, Y
  2e:	19 81       	ldd	r17, Y+1	; 0x01
  30:	ce 01       	movw	r24, r28
  32:	0e 94 00 00 	call	0	; 0x0 <_ZN6StringpLERKS_>
  36:	88 81       	ld	r24, Y
  38:	99 81       	ldd	r25, Y+1	; 0x01
  3a:	00 97       	sbiw	r24, 0x00	; 0
  3c:	01 f0       	breq	.+0      	; 0x3e <_ZN6StringpLERKS_+0x3e>
  3e:	b8 01       	movw	r22, r16
  40:	0e 94 00 00 	call	0	; 0x0 <_ZN6StringpLERKS_>
  44:	c8 01       	movw	r24, r16
  46:	0e 94 00 00 	call	0	; 0x0 <_ZN6StringpLERKS_>
  4a:	88 81       	ld	r24, Y
  4c:	99 81       	ldd	r25, Y+1	; 0x01
  4e:	00 97       	sbiw	r24, 0x00	; 0
  50:	01 f0       	breq	.+0      	; 0x52 <_ZN6StringpLERKS_+0x52>
  52:	f7 01       	movw	r30, r14
  54:	60 81       	ld	r22, Z
  56:	71 81       	ldd	r23, Z+1	; 0x01
  58:	0e 94 00 00 	call	0	; 0x0 <_ZN6StringpLERKS_>
  5c:	ce 01       	movw	r24, r28
  5e:	df 91       	pop	r29
  60:	cf 91       	pop	r28
  62:	1f 91       	pop	r17
  64:	0f 91       	pop	r16
  66:	ff 90       	pop	r15
  68:	ef 90       	pop	r14
  6a:	08 95       	ret

Disassembly of section .text._ZN6String6concatERKS_:

00000000 <_ZN6String6concatERKS_>:
   0:	0e 94 00 00 	call	0	; 0x0 <_ZN6String6concatERKS_>
   4:	08 95       	ret

Disassembly of section .text._ZNK6StringeqERKS_:

00000000 <_ZNK6StringeqERKS_>:
   0:	fc 01       	movw	r30, r24
   2:	db 01       	movw	r26, r22
   4:	24 81       	ldd	r18, Z+4	; 0x04
   6:	35 81       	ldd	r19, Z+5	; 0x05
   8:	14 96       	adiw	r26, 0x04	; 4
   a:	8d 91       	ld	r24, X+
   c:	9c 91       	ld	r25, X
   e:	15 97       	sbiw	r26, 0x05	; 5
  10:	28 17       	cp	r18, r24
  12:	39 07       	cpc	r19, r25
  14:	01 f4       	brne	.+0      	; 0x16 <_ZNK6StringeqERKS_+0x16>
  16:	6d 91       	ld	r22, X+
  18:	7c 91       	ld	r23, X
  1a:	80 81       	ld	r24, Z
  1c:	91 81       	ldd	r25, Z+1	; 0x01
  1e:	0e 94 00 00 	call	0	; 0x0 <_ZNK6StringeqERKS_>
  22:	9c 01       	movw	r18, r24
  24:	81 e0       	ldi	r24, 0x01	; 1
  26:	21 15       	cp	r18, r1
  28:	31 05       	cpc	r19, r1
  2a:	01 f0       	breq	.+0      	; 0x2c <_ZNK6StringeqERKS_+0x2c>
  2c:	80 e0       	ldi	r24, 0x00	; 0
  2e:	90 e0       	ldi	r25, 0x00	; 0
  30:	08 95       	ret

Disassembly of section .text._ZNK6StringneERKS_:

00000000 <_ZNK6StringneERKS_>:
   0:	fc 01       	movw	r30, r24
   2:	db 01       	movw	r26, r22
   4:	24 81       	ldd	r18, Z+4	; 0x04
   6:	35 81       	ldd	r19, Z+5	; 0x05
   8:	14 96       	adiw	r26, 0x04	; 4
   a:	8d 91       	ld	r24, X+
   c:	9c 91       	ld	r25, X
   e:	15 97       	sbiw	r26, 0x05	; 5
  10:	28 17       	cp	r18, r24
  12:	39 07       	cpc	r19, r25
  14:	01 f4       	brne	.+0      	; 0x16 <_ZNK6StringneERKS_+0x16>
  16:	6d 91       	ld	r22, X+
  18:	7c 91       	ld	r23, X
  1a:	80 81       	ld	r24, Z
  1c:	91 81       	ldd	r25, Z+1	; 0x01
  1e:	0e 94 00 00 	call	0	; 0x0 <_ZNK6StringneERKS_>
  22:	9c 01       	movw	r18, r24
  24:	81 e0       	ldi	r24, 0x01	; 1
  26:	21 15       	cp	r18, r1
  28:	31 05       	cpc	r19, r1
  2a:	01 f4       	brne	.+0      	; 0x2c <_ZNK6StringneERKS_+0x2c>
  2c:	80 e0       	ldi	r24, 0x00	; 0
  2e:	00 c0       	rjmp	.+0      	; 0x30 <_ZNK6StringneERKS_+0x30>
  30:	81 e0       	ldi	r24, 0x01	; 1
  32:	90 e0       	ldi	r25, 0x00	; 0
  34:	08 95       	ret

Disassembly of section .text._ZNK6StringltERKS_:

00000000 <_ZNK6StringltERKS_>:
   0:	fb 01       	movw	r30, r22
   2:	60 81       	ld	r22, Z
   4:	71 81       	ldd	r23, Z+1	; 0x01
   6:	fc 01       	movw	r30, r24
   8:	80 81       	ld	r24, Z
   a:	91 81       	ldd	r25, Z+1	; 0x01
   c:	0e 94 00 00 	call	0	; 0x0 <_ZNK6StringltERKS_>
  10:	89 2f       	mov	r24, r25
  12:	88 1f       	adc	r24, r24
  14:	88 27       	eor	r24, r24
  16:	88 1f       	adc	r24, r24
  18:	90 e0       	ldi	r25, 0x00	; 0
  1a:	08 95       	ret

Disassembly of section .text._ZNK6StringgtERKS_:

00000000 <_ZNK6StringgtERKS_>:
   0:	fb 01       	movw	r30, r22
   2:	60 81       	ld	r22, Z
   4:	71 81       	ldd	r23, Z+1	; 0x01
   6:	fc 01       	movw	r30, r24
   8:	80 81       	ld	r24, Z
   a:	91 81       	ldd	r25, Z+1	; 0x01
   c:	0e 94 00 00 	call	0	; 0x0 <_ZNK6StringgtERKS_>
  10:	21 e0       	ldi	r18, 0x01	; 1
  12:	30 e0       	ldi	r19, 0x00	; 0
  14:	18 16       	cp	r1, r24
  16:	19 06       	cpc	r1, r25
  18:	04 f0       	brlt	.+0      	; 0x1a <_ZNK6StringgtERKS_+0x1a>
  1a:	20 e0       	ldi	r18, 0x00	; 0
  1c:	30 e0       	ldi	r19, 0x00	; 0
  1e:	c9 01       	movw	r24, r18
  20:	08 95       	ret

Disassembly of section .text._ZNK6StringleERKS_:

00000000 <_ZNK6StringleERKS_>:
   0:	fb 01       	movw	r30, r22
   2:	60 81       	ld	r22, Z
   4:	71 81       	ldd	r23, Z+1	; 0x01
   6:	fc 01       	movw	r30, r24
   8:	80 81       	ld	r24, Z
   a:	91 81       	ldd	r25, Z+1	; 0x01
   c:	0e 94 00 00 	call	0	; 0x0 <_ZNK6StringleERKS_>
  10:	21 e0       	ldi	r18, 0x01	; 1
  12:	30 e0       	ldi	r19, 0x00	; 0
  14:	18 16       	cp	r1, r24
  16:	19 06       	cpc	r1, r25
  18:	04 f4       	brge	.+0      	; 0x1a <_ZNK6StringleERKS_+0x1a>
  1a:	20 e0       	ldi	r18, 0x00	; 0
  1c:	30 e0       	ldi	r19, 0x00	; 0
  1e:	c9 01       	movw	r24, r18
  20:	08 95       	ret

Disassembly of section .text._ZNK6StringgeERKS_:

00000000 <_ZNK6StringgeERKS_>:
   0:	fb 01       	movw	r30, r22
   2:	60 81       	ld	r22, Z
   4:	71 81       	ldd	r23, Z+1	; 0x01
   6:	fc 01       	movw	r30, r24
   8:	80 81       	ld	r24, Z
   a:	91 81       	ldd	r25, Z+1	; 0x01
   c:	0e 94 00 00 	call	0	; 0x0 <_ZNK6StringgeERKS_>
  10:	89 2f       	mov	r24, r25
  12:	80 95       	com	r24
  14:	88 1f       	adc	r24, r24
  16:	88 27       	eor	r24, r24
  18:	88 1f       	adc	r24, r24
  1a:	90 e0       	ldi	r25, 0x00	; 0
  1c:	08 95       	ret

Disassembly of section .text._ZN6StringixEj:

00000000 <_ZN6StringixEj>:
   0:	fc 01       	movw	r30, r24
   2:	84 81       	ldd	r24, Z+4	; 0x04
   4:	95 81       	ldd	r25, Z+5	; 0x05
   6:	68 17       	cp	r22, r24
   8:	79 07       	cpc	r23, r25
   a:	00 f4       	brcc	.+0      	; 0xc <_ZN6StringixEj+0xc>
   c:	80 81       	ld	r24, Z
   e:	91 81       	ldd	r25, Z+1	; 0x01
  10:	00 97       	sbiw	r24, 0x00	; 0
  12:	01 f4       	brne	.+0      	; 0x14 <_ZN6StringixEj+0x14>
  14:	10 92 00 00 	sts	0x0000, r1
  18:	60 e0       	ldi	r22, 0x00	; 0
  1a:	70 e0       	ldi	r23, 0x00	; 0
  1c:	00 c0       	rjmp	.+0      	; 0x1e <_ZN6StringixEj+0x1e>
  1e:	68 0f       	add	r22, r24
  20:	79 1f       	adc	r23, r25
  22:	cb 01       	movw	r24, r22
  24:	08 95       	ret

Disassembly of section .text._ZNK6StringixEj:

00000000 <_ZNK6StringixEj>:
   0:	dc 01       	movw	r26, r24
   2:	ed 91       	ld	r30, X+
   4:	fc 91       	ld	r31, X
   6:	11 97       	sbiw	r26, 0x01	; 1
   8:	e6 0f       	add	r30, r22
   a:	f7 1f       	adc	r31, r23
   c:	80 81       	ld	r24, Z
   e:	08 95       	ret

Disassembly of section .text._ZNK6String8endsWithERKS_:

00000000 <_ZNK6String8endsWithERKS_>:
   0:	fc 01       	movw	r30, r24
   2:	db 01       	movw	r26, r22
   4:	84 81       	ldd	r24, Z+4	; 0x04
   6:	95 81       	ldd	r25, Z+5	; 0x05
   8:	14 96       	adiw	r26, 0x04	; 4
   a:	2d 91       	ld	r18, X+
   c:	3c 91       	ld	r19, X
   e:	15 97       	sbiw	r26, 0x05	; 5
  10:	82 17       	cp	r24, r18
  12:	93 07       	cpc	r25, r19
  14:	00 f0       	brcs	.+0      	; 0x16 <_ZNK6String8endsWithERKS_+0x16>
  16:	82 1b       	sub	r24, r18
  18:	93 0b       	sbc	r25, r19
  1a:	20 81       	ld	r18, Z
  1c:	31 81       	ldd	r19, Z+1	; 0x01
  1e:	6d 91       	ld	r22, X+
  20:	7c 91       	ld	r23, X
  22:	82 0f       	add	r24, r18
  24:	93 1f       	adc	r25, r19
  26:	0e 94 00 00 	call	0	; 0x0 <_ZNK6String8endsWithERKS_>
  2a:	9c 01       	movw	r18, r24
  2c:	81 e0       	ldi	r24, 0x01	; 1
  2e:	21 15       	cp	r18, r1
  30:	31 05       	cpc	r19, r1
  32:	01 f0       	breq	.+0      	; 0x34 <_ZNK6String8endsWithERKS_+0x34>
  34:	80 e0       	ldi	r24, 0x00	; 0
  36:	08 95       	ret
  38:	80 e0       	ldi	r24, 0x00	; 0
  3a:	08 95       	ret

Disassembly of section .text._ZNK6String6equalsERKS_:

00000000 <_ZNK6String6equalsERKS_>:
   0:	fc 01       	movw	r30, r24
   2:	db 01       	movw	r26, r22
   4:	24 81       	ldd	r18, Z+4	; 0x04
   6:	35 81       	ldd	r19, Z+5	; 0x05
   8:	14 96       	adiw	r26, 0x04	; 4
   a:	8d 91       	ld	r24, X+
   c:	9c 91       	ld	r25, X
   e:	15 97       	sbiw	r26, 0x05	; 5
  10:	28 17       	cp	r18, r24
  12:	39 07       	cpc	r19, r25
  14:	01 f4       	brne	.+0      	; 0x16 <_ZNK6String6equalsERKS_+0x16>
  16:	6d 91       	ld	r22, X+
  18:	7c 91       	ld	r23, X
  1a:	80 81       	ld	r24, Z
  1c:	91 81       	ldd	r25, Z+1	; 0x01
  1e:	0e 94 00 00 	call	0	; 0x0 <_ZNK6String6equalsERKS_>
  22:	9c 01       	movw	r18, r24
  24:	81 e0       	ldi	r24, 0x01	; 1
  26:	21 15       	cp	r18, r1
  28:	31 05       	cpc	r19, r1
  2a:	01 f0       	breq	.+0      	; 0x2c <_ZNK6String6equalsERKS_+0x2c>
  2c:	80 e0       	ldi	r24, 0x00	; 0
  2e:	08 95       	ret
  30:	80 e0       	ldi	r24, 0x00	; 0
  32:	08 95       	ret

Disassembly of section .text._ZN6String7replaceEcc:

00000000 <_ZN6String7replaceEcc>:
   0:	ef 92       	push	r14
   2:	ff 92       	push	r15
   4:	0f 93       	push	r16
   6:	1f 93       	push	r17
   8:	df 93       	push	r29
   a:	cf 93       	push	r28
   c:	00 d0       	rcall	.+0      	; 0xe <_ZN6String7replaceEcc+0xe>
   e:	00 d0       	rcall	.+0      	; 0x10 <_ZN6String7replaceEcc+0x10>
  10:	cd b7       	in	r28, 0x3d	; 61
  12:	de b7       	in	r29, 0x3e	; 62
  14:	8c 01       	movw	r16, r24
  16:	fb 01       	movw	r30, r22
  18:	f4 2e       	mov	r15, r20
  1a:	e2 2e       	mov	r14, r18
  1c:	60 81       	ld	r22, Z
  1e:	71 81       	ldd	r23, Z+1	; 0x01
  20:	61 15       	cp	r22, r1
  22:	71 05       	cpc	r23, r1
  24:	01 f4       	brne	.+0      	; 0x26 <_ZN6String7replaceEcc+0x26>
  26:	bf 01       	movw	r22, r30
  28:	0e 94 00 00 	call	0	; 0x0 <_ZN6String7replaceEcc>
  2c:	00 c0       	rjmp	.+0      	; 0x2e <_ZN6String7replaceEcc+0x2e>
  2e:	ce 01       	movw	r24, r28
  30:	01 96       	adiw	r24, 0x01	; 1
  32:	0e 94 00 00 	call	0	; 0x0 <_ZN6String7replaceEcc>
  36:	89 81       	ldd	r24, Y+1	; 0x01
  38:	9a 81       	ldd	r25, Y+2	; 0x02
  3a:	00 c0       	rjmp	.+0      	; 0x3c <_ZN6String7replaceEcc+0x3c>
  3c:	fc 01       	movw	r30, r24
  3e:	e0 82       	st	Z, r14
  40:	6f 2d       	mov	r22, r15
  42:	70 e0       	ldi	r23, 0x00	; 0
  44:	0e 94 00 00 	call	0	; 0x0 <_ZN6String7replaceEcc>
  48:	00 97       	sbiw	r24, 0x00	; 0
  4a:	01 f4       	brne	.+0      	; 0x4c <_ZN6String7replaceEcc+0x4c>
  4c:	c8 01       	movw	r24, r16
  4e:	be 01       	movw	r22, r28
  50:	6f 5f       	subi	r22, 0xFF	; 255
  52:	7f 4f       	sbci	r23, 0xFF	; 255
  54:	0e 94 00 00 	call	0	; 0x0 <_ZN6String7replaceEcc>
  58:	89 81       	ldd	r24, Y+1	; 0x01
  5a:	9a 81       	ldd	r25, Y+2	; 0x02
  5c:	0e 94 00 00 	call	0	; 0x0 <_ZN6String7replaceEcc>
  60:	c8 01       	movw	r24, r16
  62:	26 96       	adiw	r28, 0x06	; 6
  64:	0f b6       	in	r0, 0x3f	; 63
  66:	f8 94       	cli
  68:	de bf       	out	0x3e, r29	; 62
  6a:	0f be       	out	0x3f, r0	; 63
  6c:	cd bf       	out	0x3d, r28	; 61
  6e:	cf 91       	pop	r28
  70:	df 91       	pop	r29
  72:	1f 91       	pop	r17
  74:	0f 91       	pop	r16
  76:	ff 90       	pop	r15
  78:	ef 90       	pop	r14
  7a:	08 95       	ret

Disassembly of section .text._ZNK6String7indexOfEcj:

00000000 <_ZNK6String7indexOfEcj>:
   0:	cf 93       	push	r28
   2:	df 93       	push	r29
   4:	fc 01       	movw	r30, r24
   6:	ca 01       	movw	r24, r20
   8:	24 81       	ldd	r18, Z+4	; 0x04
   a:	35 81       	ldd	r19, Z+5	; 0x05
   c:	42 17       	cp	r20, r18
   e:	53 07       	cpc	r21, r19
  10:	00 f4       	brcc	.+0      	; 0x12 <_ZNK6String7indexOfEcj+0x12>
  12:	c0 81       	ld	r28, Z
  14:	d1 81       	ldd	r29, Z+1	; 0x01
  16:	8c 0f       	add	r24, r28
  18:	9d 1f       	adc	r25, r29
  1a:	70 e0       	ldi	r23, 0x00	; 0
  1c:	0e 94 00 00 	call	0	; 0x0 <_ZNK6String7indexOfEcj>
  20:	00 97       	sbiw	r24, 0x00	; 0
  22:	01 f0       	breq	.+0      	; 0x24 <_ZNK6String7indexOfEcj+0x24>
  24:	9c 01       	movw	r18, r24
  26:	2c 1b       	sub	r18, r28
  28:	3d 0b       	sbc	r19, r29
  2a:	00 c0       	rjmp	.+0      	; 0x2c <_ZNK6String7indexOfEcj+0x2c>
  2c:	2f ef       	ldi	r18, 0xFF	; 255
  2e:	3f ef       	ldi	r19, 0xFF	; 255
  30:	c9 01       	movw	r24, r18
  32:	df 91       	pop	r29
  34:	cf 91       	pop	r28
  36:	08 95       	ret

Disassembly of section .text._ZNK6String7indexOfEc:

00000000 <_ZNK6String7indexOfEc>:
   0:	40 e0       	ldi	r20, 0x00	; 0
   2:	50 e0       	ldi	r21, 0x00	; 0
   4:	0e 94 00 00 	call	0	; 0x0 <_ZNK6String7indexOfEc>
   8:	08 95       	ret

Disassembly of section .text._ZNK6String7indexOfERKS_j:

00000000 <_ZNK6String7indexOfERKS_j>:
   0:	cf 93       	push	r28
   2:	df 93       	push	r29
   4:	fc 01       	movw	r30, r24
   6:	ca 01       	movw	r24, r20
   8:	24 81       	ldd	r18, Z+4	; 0x04
   a:	35 81       	ldd	r19, Z+5	; 0x05
   c:	42 17       	cp	r20, r18
   e:	53 07       	cpc	r21, r19
  10:	00 f4       	brcc	.+0      	; 0x12 <_ZNK6String7indexOfERKS_j+0x12>
  12:	c0 81       	ld	r28, Z
  14:	d1 81       	ldd	r29, Z+1	; 0x01
  16:	fb 01       	movw	r30, r22
  18:	60 81       	ld	r22, Z
  1a:	71 81       	ldd	r23, Z+1	; 0x01
  1c:	8c 0f       	add	r24, r28
  1e:	9d 1f       	adc	r25, r29
  20:	0e 94 00 00 	call	0	; 0x0 <_ZNK6String7indexOfERKS_j>
  24:	00 97       	sbiw	r24, 0x00	; 0
  26:	01 f0       	breq	.+0      	; 0x28 <_ZNK6String7indexOfERKS_j+0x28>
  28:	9c 01       	movw	r18, r24
  2a:	2c 1b       	sub	r18, r28
  2c:	3d 0b       	sbc	r19, r29
  2e:	00 c0       	rjmp	.+0      	; 0x30 <_ZNK6String7indexOfERKS_j+0x30>
  30:	2f ef       	ldi	r18, 0xFF	; 255
  32:	3f ef       	ldi	r19, 0xFF	; 255
  34:	c9 01       	movw	r24, r18
  36:	df 91       	pop	r29
  38:	cf 91       	pop	r28
  3a:	08 95       	ret

Disassembly of section .text._ZNK6String7indexOfERKS_:

00000000 <_ZNK6String7indexOfERKS_>:
   0:	40 e0       	ldi	r20, 0x00	; 0
   2:	50 e0       	ldi	r21, 0x00	; 0
   4:	0e 94 00 00 	call	0	; 0x0 <_ZNK6String7indexOfERKS_>
   8:	08 95       	ret

Disassembly of section .text._ZNK6String11lastIndexOfEcj:

00000000 <_ZNK6String11lastIndexOfEcj>:
   0:	df 92       	push	r13
   2:	ef 92       	push	r14
   4:	ff 92       	push	r15
   6:	0f 93       	push	r16
   8:	1f 93       	push	r17
   a:	cf 93       	push	r28
   c:	df 93       	push	r29
   e:	ec 01       	movw	r28, r24
  10:	8c 81       	ldd	r24, Y+4	; 0x04
  12:	9d 81       	ldd	r25, Y+5	; 0x05
  14:	48 17       	cp	r20, r24
  16:	59 07       	cpc	r21, r25
  18:	00 f4       	brcc	.+0      	; 0x1a <_ZNK6String11lastIndexOfEcj+0x1a>
  1a:	7a 01       	movw	r14, r20
  1c:	08 94       	sec
  1e:	e1 1c       	adc	r14, r1
  20:	f1 1c       	adc	r15, r1
  22:	e8 81       	ld	r30, Y
  24:	f9 81       	ldd	r31, Y+1	; 0x01
  26:	ee 0d       	add	r30, r14
  28:	ff 1d       	adc	r31, r15
  2a:	d0 80       	ld	r13, Z
  2c:	10 82       	st	Z, r1
  2e:	08 81       	ld	r16, Y
  30:	19 81       	ldd	r17, Y+1	; 0x01
  32:	c8 01       	movw	r24, r16
  34:	70 e0       	ldi	r23, 0x00	; 0
  36:	0e 94 00 00 	call	0	; 0x0 <_ZNK6String11lastIndexOfEcj>
  3a:	0e 0d       	add	r16, r14
  3c:	1f 1d       	adc	r17, r15
  3e:	f8 01       	movw	r30, r16
  40:	d0 82       	st	Z, r13
  42:	00 97       	sbiw	r24, 0x00	; 0
  44:	01 f0       	breq	.+0      	; 0x46 <_ZNK6String11lastIndexOfEcj+0x46>
  46:	28 81       	ld	r18, Y
  48:	39 81       	ldd	r19, Y+1	; 0x01
  4a:	ac 01       	movw	r20, r24
  4c:	42 1b       	sub	r20, r18
  4e:	53 0b       	sbc	r21, r19
  50:	9a 01       	movw	r18, r20
  52:	00 c0       	rjmp	.+0      	; 0x54 <_ZNK6String11lastIndexOfEcj+0x54>
  54:	2f ef       	ldi	r18, 0xFF	; 255
  56:	3f ef       	ldi	r19, 0xFF	; 255
  58:	c9 01       	movw	r24, r18
  5a:	df 91       	pop	r29
  5c:	cf 91       	pop	r28
  5e:	1f 91       	pop	r17
  60:	0f 91       	pop	r16
  62:	ff 90       	pop	r15
  64:	ef 90       	pop	r14
  66:	df 90       	pop	r13
  68:	08 95       	ret

Disassembly of section .text._ZNK6String11lastIndexOfEc:

00000000 <_ZNK6String11lastIndexOfEc>:
   0:	fc 01       	movw	r30, r24
   2:	44 81       	ldd	r20, Z+4	; 0x04
   4:	55 81       	ldd	r21, Z+5	; 0x05
   6:	41 50       	subi	r20, 0x01	; 1
   8:	50 40       	sbci	r21, 0x00	; 0
   a:	0e 94 00 00 	call	0	; 0x0 <_ZNK6String11lastIndexOfEc>
   e:	08 95       	ret

Disassembly of section .text._ZNK6String10startsWithERKS_j:

00000000 <_ZNK6String10startsWithERKS_j>:
   0:	fc 01       	movw	r30, r24
   2:	db 01       	movw	r26, r22
   4:	ca 01       	movw	r24, r20
   6:	14 96       	adiw	r26, 0x04	; 4
   8:	4d 91       	ld	r20, X+
   a:	5c 91       	ld	r21, X
   c:	15 97       	sbiw	r26, 0x05	; 5
   e:	24 81       	ldd	r18, Z+4	; 0x04
  10:	35 81       	ldd	r19, Z+5	; 0x05
  12:	24 1b       	sub	r18, r20
  14:	35 0b       	sbc	r19, r21
  16:	28 17       	cp	r18, r24
  18:	39 07       	cpc	r19, r25
  1a:	00 f0       	brcs	.+0      	; 0x1c <_ZNK6String10startsWithERKS_j+0x1c>
  1c:	20 81       	ld	r18, Z
  1e:	31 81       	ldd	r19, Z+1	; 0x01
  20:	6d 91       	ld	r22, X+
  22:	7c 91       	ld	r23, X
  24:	82 0f       	add	r24, r18
  26:	93 1f       	adc	r25, r19
  28:	0e 94 00 00 	call	0	; 0x0 <_ZNK6String10startsWithERKS_j>
  2c:	9c 01       	movw	r18, r24
  2e:	81 e0       	ldi	r24, 0x01	; 1
  30:	21 15       	cp	r18, r1
  32:	31 05       	cpc	r19, r1
  34:	01 f0       	breq	.+0      	; 0x36 <_ZNK6String10startsWithERKS_j+0x36>
  36:	80 e0       	ldi	r24, 0x00	; 0
  38:	08 95       	ret
  3a:	80 e0       	ldi	r24, 0x00	; 0
  3c:	08 95       	ret

Disassembly of section .text._ZNK6String10startsWithERKS_:

00000000 <_ZNK6String10startsWithERKS_>:
   0:	fc 01       	movw	r30, r24
   2:	44 81       	ldd	r20, Z+4	; 0x04
   4:	55 81       	ldd	r21, Z+5	; 0x05
   6:	fb 01       	movw	r30, r22
   8:	24 81       	ldd	r18, Z+4	; 0x04
   a:	35 81       	ldd	r19, Z+5	; 0x05
   c:	42 17       	cp	r20, r18
   e:	53 07       	cpc	r21, r19
  10:	00 f0       	brcs	.+0      	; 0x12 <_ZNK6String10startsWithERKS_+0x12>
  12:	40 e0       	ldi	r20, 0x00	; 0
  14:	50 e0       	ldi	r21, 0x00	; 0
  16:	0e 94 00 00 	call	0	; 0x0 <_ZNK6String10startsWithERKS_>
  1a:	08 95       	ret
  1c:	80 e0       	ldi	r24, 0x00	; 0
  1e:	08 95       	ret

Disassembly of section .text._ZNK6String9substringEjj:

00000000 <_ZNK6String9substringEjj>:
   0:	cf 92       	push	r12
   2:	df 92       	push	r13
   4:	ef 92       	push	r14
   6:	ff 92       	push	r15
   8:	0f 93       	push	r16
   a:	1f 93       	push	r17
   c:	cf 93       	push	r28
   e:	df 93       	push	r29
  10:	7c 01       	movw	r14, r24
  12:	8b 01       	movw	r16, r22
  14:	e9 01       	movw	r28, r18
  16:	24 17       	cp	r18, r20
  18:	35 07       	cpc	r19, r21
  1a:	00 f4       	brcc	.+0      	; 0x1c <_ZNK6String9substringEjj+0x1c>
  1c:	34 2f       	mov	r19, r20
  1e:	25 2f       	mov	r18, r21
  20:	ae 01       	movw	r20, r28
  22:	c9 01       	movw	r24, r18
  24:	c9 2e       	mov	r12, r25
  26:	e6 01       	movw	r28, r12
  28:	6e 01       	movw	r12, r28
  2a:	d2 2e       	mov	r13, r18
  2c:	e6 01       	movw	r28, r12
  2e:	d8 01       	movw	r26, r16
  30:	14 96       	adiw	r26, 0x04	; 4
  32:	8d 91       	ld	r24, X+
  34:	9c 91       	ld	r25, X
  36:	15 97       	sbiw	r26, 0x05	; 5
  38:	8c 17       	cp	r24, r28
  3a:	9d 07       	cpc	r25, r29
  3c:	00 f4       	brcc	.+0      	; 0x3e <_ZNK6String9substringEjj+0x3e>
  3e:	ec 01       	movw	r28, r24
  40:	d8 01       	movw	r26, r16
  42:	ed 91       	ld	r30, X+
  44:	fc 91       	ld	r31, X
  46:	11 97       	sbiw	r26, 0x01	; 1
  48:	ec 0f       	add	r30, r28
  4a:	fd 1f       	adc	r31, r29
  4c:	d0 80       	ld	r13, Z
  4e:	10 82       	st	Z, r1
  50:	6d 91       	ld	r22, X+
  52:	7c 91       	ld	r23, X
  54:	64 0f       	add	r22, r20
  56:	75 1f       	adc	r23, r21
  58:	c7 01       	movw	r24, r14
  5a:	0e 94 00 00 	call	0	; 0x0 <_ZNK6String9substringEjj>
  5e:	d8 01       	movw	r26, r16
  60:	ed 91       	ld	r30, X+
  62:	fc 91       	ld	r31, X
  64:	11 97       	sbiw	r26, 0x01	; 1
  66:	ec 0f       	add	r30, r28
  68:	fd 1f       	adc	r31, r29
  6a:	d0 82       	st	Z, r13
  6c:	c7 01       	movw	r24, r14
  6e:	df 91       	pop	r29
  70:	cf 91       	pop	r28
  72:	1f 91       	pop	r17
  74:	0f 91       	pop	r16
  76:	ff 90       	pop	r15
  78:	ef 90       	pop	r14
  7a:	df 90       	pop	r13
  7c:	cf 90       	pop	r12
  7e:	08 95       	ret

Disassembly of section .text._ZNK6String9substringEj:

00000000 <_ZNK6String9substringEj>:
   0:	cf 93       	push	r28
   2:	df 93       	push	r29
   4:	ec 01       	movw	r28, r24
   6:	fb 01       	movw	r30, r22
   8:	24 81       	ldd	r18, Z+4	; 0x04
   a:	35 81       	ldd	r19, Z+5	; 0x05
   c:	0e 94 00 00 	call	0	; 0x0 <_ZNK6String9substringEj>
  10:	ce 01       	movw	r24, r28
  12:	df 91       	pop	r29
  14:	cf 91       	pop	r28
  16:	08 95       	ret

Disassembly of section .text._ZNK6String11lastIndexOfERKS_j:

00000000 <_ZNK6String11lastIndexOfERKS_j>:
   0:	8f 92       	push	r8
   2:	9f 92       	push	r9
   4:	af 92       	push	r10
   6:	bf 92       	push	r11
   8:	cf 92       	push	r12
   a:	df 92       	push	r13
   c:	ef 92       	push	r14
   e:	ff 92       	push	r15
  10:	0f 93       	push	r16
  12:	1f 93       	push	r17
  14:	df 93       	push	r29
  16:	cf 93       	push	r28
  18:	00 d0       	rcall	.+0      	; 0x1a <_ZNK6String11lastIndexOfERKS_j+0x1a>
  1a:	00 d0       	rcall	.+0      	; 0x1c <_ZNK6String11lastIndexOfERKS_j+0x1c>
  1c:	cd b7       	in	r28, 0x3d	; 61
  1e:	de b7       	in	r29, 0x3e	; 62
  20:	6c 01       	movw	r12, r24
  22:	7b 01       	movw	r14, r22
  24:	db 01       	movw	r26, r22
  26:	14 96       	adiw	r26, 0x04	; 4
  28:	8d 91       	ld	r24, X+
  2a:	9c 91       	ld	r25, X
  2c:	15 97       	sbiw	r26, 0x05	; 5
  2e:	00 97       	sbiw	r24, 0x00	; 0
  30:	01 f0       	breq	.+0      	; 0x32 <_ZNK6String11lastIndexOfERKS_j+0x32>
  32:	01 97       	sbiw	r24, 0x01	; 1
  34:	48 17       	cp	r20, r24
  36:	59 07       	cpc	r21, r25
  38:	00 f0       	brcs	.+0      	; 0x3a <_ZNK6String11lastIndexOfERKS_j+0x3a>
  3a:	f6 01       	movw	r30, r12
  3c:	84 81       	ldd	r24, Z+4	; 0x04
  3e:	95 81       	ldd	r25, Z+5	; 0x05
  40:	48 17       	cp	r20, r24
  42:	59 07       	cpc	r21, r25
  44:	00 f4       	brcc	.+0      	; 0x46 <_ZNK6String11lastIndexOfERKS_j+0x46>
  46:	ed 91       	ld	r30, X+
  48:	fc 91       	ld	r31, X
  4a:	11 97       	sbiw	r26, 0x01	; 1
  4c:	90 80       	ld	r9, Z
  4e:	8a 01       	movw	r16, r20
  50:	5e 01       	movw	r10, r28
  52:	08 94       	sec
  54:	a1 1c       	adc	r10, r1
  56:	b1 1c       	adc	r11, r1
  58:	00 c0       	rjmp	.+0      	; 0x5a <_ZNK6String11lastIndexOfERKS_j+0x5a>
  5a:	d6 01       	movw	r26, r12
  5c:	ed 91       	ld	r30, X+
  5e:	fc 91       	ld	r31, X
  60:	11 97       	sbiw	r26, 0x01	; 1
  62:	e0 0f       	add	r30, r16
  64:	f1 1f       	adc	r31, r17
  66:	80 81       	ld	r24, Z
  68:	89 15       	cp	r24, r9
  6a:	01 f4       	brne	.+0      	; 0x6c <_ZNK6String11lastIndexOfERKS_j+0x6c>
  6c:	f7 01       	movw	r30, r14
  6e:	24 81       	ldd	r18, Z+4	; 0x04
  70:	35 81       	ldd	r19, Z+5	; 0x05
  72:	20 0f       	add	r18, r16
  74:	31 1f       	adc	r19, r17
  76:	c5 01       	movw	r24, r10
  78:	b6 01       	movw	r22, r12
  7a:	a8 01       	movw	r20, r16
  7c:	0e 94 00 00 	call	0	; 0x0 <_ZNK6String11lastIndexOfERKS_j>
  80:	c5 01       	movw	r24, r10
  82:	b7 01       	movw	r22, r14
  84:	0e 94 00 00 	call	0	; 0x0 <_ZNK6String11lastIndexOfERKS_j>
  88:	88 2e       	mov	r8, r24
  8a:	89 81       	ldd	r24, Y+1	; 0x01
  8c:	9a 81       	ldd	r25, Y+2	; 0x02
  8e:	0e 94 00 00 	call	0	; 0x0 <_ZNK6String11lastIndexOfERKS_j>
  92:	1c 82       	std	Y+4, r1	; 0x04
  94:	1b 82       	std	Y+3, r1	; 0x03
  96:	1e 82       	std	Y+6, r1	; 0x06
  98:	1d 82       	std	Y+5, r1	; 0x05
  9a:	88 20       	and	r8, r8
  9c:	01 f4       	brne	.+0      	; 0x9e <_ZNK6String11lastIndexOfERKS_j+0x9e>
  9e:	01 50       	subi	r16, 0x01	; 1
  a0:	10 40       	sbci	r17, 0x00	; 0
  a2:	17 ff       	sbrs	r17, 7
  a4:	00 c0       	rjmp	.+0      	; 0xa6 <_ZNK6String11lastIndexOfERKS_j+0xa6>
  a6:	0f ef       	ldi	r16, 0xFF	; 255
  a8:	1f ef       	ldi	r17, 0xFF	; 255
  aa:	c8 01       	movw	r24, r16
  ac:	26 96       	adiw	r28, 0x06	; 6
  ae:	0f b6       	in	r0, 0x3f	; 63
  b0:	f8 94       	cli
  b2:	de bf       	out	0x3e, r29	; 62
  b4:	0f be       	out	0x3f, r0	; 63
  b6:	cd bf       	out	0x3d, r28	; 61
  b8:	cf 91       	pop	r28
  ba:	df 91       	pop	r29
  bc:	1f 91       	pop	r17
  be:	0f 91       	pop	r16
  c0:	ff 90       	pop	r15
  c2:	ef 90       	pop	r14
  c4:	df 90       	pop	r13
  c6:	cf 90       	pop	r12
  c8:	bf 90       	pop	r11
  ca:	af 90       	pop	r10
  cc:	9f 90       	pop	r9
  ce:	8f 90       	pop	r8
  d0:	08 95       	ret

Disassembly of section .text._ZNK6String11lastIndexOfERKS_:

00000000 <_ZNK6String11lastIndexOfERKS_>:
   0:	fc 01       	movw	r30, r24
   2:	44 81       	ldd	r20, Z+4	; 0x04
   4:	55 81       	ldd	r21, Z+5	; 0x05
   6:	fb 01       	movw	r30, r22
   8:	24 81       	ldd	r18, Z+4	; 0x04
   a:	35 81       	ldd	r19, Z+5	; 0x05
   c:	42 1b       	sub	r20, r18
   e:	53 0b       	sbc	r21, r19
  10:	0e 94 00 00 	call	0	; 0x0 <_ZNK6String11lastIndexOfERKS_>
  14:	08 95       	ret

Disassembly of section .text._ZN6String7replaceERKS_S1_:

00000000 <_ZN6String7replaceERKS_S1_>:
   0:	2f 92       	push	r2
   2:	3f 92       	push	r3
   4:	4f 92       	push	r4
   6:	5f 92       	push	r5
   8:	6f 92       	push	r6
   a:	7f 92       	push	r7
   c:	8f 92       	push	r8
   e:	9f 92       	push	r9
  10:	af 92       	push	r10
  12:	bf 92       	push	r11
  14:	cf 92       	push	r12
  16:	df 92       	push	r13
  18:	ef 92       	push	r14
  1a:	ff 92       	push	r15
  1c:	0f 93       	push	r16
  1e:	1f 93       	push	r17
  20:	df 93       	push	r29
  22:	cf 93       	push	r28
  24:	cd b7       	in	r28, 0x3d	; 61
  26:	de b7       	in	r29, 0x3e	; 62
  28:	68 97       	sbiw	r28, 0x18	; 24
  2a:	0f b6       	in	r0, 0x3f	; 63
  2c:	f8 94       	cli
  2e:	de bf       	out	0x3e, r29	; 62
  30:	0f be       	out	0x3f, r0	; 63
  32:	cd bf       	out	0x3d, r28	; 61
  34:	5c 01       	movw	r10, r24
  36:	2a 01       	movw	r4, r20
  38:	19 01       	movw	r2, r18
  3a:	fb 01       	movw	r30, r22
  3c:	20 81       	ld	r18, Z
  3e:	31 81       	ldd	r19, Z+1	; 0x01
  40:	21 15       	cp	r18, r1
  42:	31 05       	cpc	r19, r1
  44:	01 f4       	brne	.+0      	; 0x46 <_ZN6String7replaceERKS_S1_+0x46>
  46:	0e 94 00 00 	call	0	; 0x0 <_ZN6String7replaceERKS_S1_>
  4a:	00 c0       	rjmp	.+0      	; 0x4c <_ZN6String7replaceERKS_S1_+0x4c>
  4c:	8e 01       	movw	r16, r28
  4e:	0f 5f       	subi	r16, 0xFF	; 255
  50:	1f 4f       	sbci	r17, 0xFF	; 255
  52:	c8 01       	movw	r24, r16
  54:	b9 01       	movw	r22, r18
  56:	0e 94 00 00 	call	0	; 0x0 <_ZN6String7replaceERKS_S1_>
  5a:	27 e0       	ldi	r18, 0x07	; 7
  5c:	e2 2e       	mov	r14, r18
  5e:	f1 2c       	mov	r15, r1
  60:	ec 0e       	add	r14, r28
  62:	fd 1e       	adc	r15, r29
  64:	c7 01       	movw	r24, r14
  66:	60 e0       	ldi	r22, 0x00	; 0
  68:	70 e0       	ldi	r23, 0x00	; 0
  6a:	0e 94 00 00 	call	0	; 0x0 <_ZN6String7replaceERKS_S1_>
  6e:	9d e0       	ldi	r25, 0x0D	; 13
  70:	89 2e       	mov	r8, r25
  72:	91 2c       	mov	r9, r1
  74:	8c 0e       	add	r8, r28
  76:	9d 1e       	adc	r9, r29
  78:	83 e1       	ldi	r24, 0x13	; 19
  7a:	68 2e       	mov	r6, r24
  7c:	71 2c       	mov	r7, r1
  7e:	6c 0e       	add	r6, r28
  80:	7d 1e       	adc	r7, r29
  82:	00 c0       	rjmp	.+0      	; 0x84 <_ZN6String7replaceERKS_S1_+0x84>
  84:	c4 01       	movw	r24, r8
  86:	b8 01       	movw	r22, r16
  88:	40 e0       	ldi	r20, 0x00	; 0
  8a:	50 e0       	ldi	r21, 0x00	; 0
  8c:	96 01       	movw	r18, r12
  8e:	0e 94 00 00 	call	0	; 0x0 <_ZN6String7replaceERKS_S1_>
  92:	c7 01       	movw	r24, r14
  94:	b4 01       	movw	r22, r8
  96:	0e 94 00 00 	call	0	; 0x0 <_ZN6String7replaceERKS_S1_>
  9a:	8d 85       	ldd	r24, Y+13	; 0x0d
  9c:	9e 85       	ldd	r25, Y+14	; 0x0e
  9e:	0e 94 00 00 	call	0	; 0x0 <_ZN6String7replaceERKS_S1_>
  a2:	18 8a       	std	Y+16, r1	; 0x10
  a4:	1f 86       	std	Y+15, r1	; 0x0f
  a6:	1a 8a       	std	Y+18, r1	; 0x12
  a8:	19 8a       	std	Y+17, r1	; 0x11
  aa:	c7 01       	movw	r24, r14
  ac:	b1 01       	movw	r22, r2
  ae:	0e 94 00 00 	call	0	; 0x0 <_ZN6String7replaceERKS_S1_>
  b2:	f2 01       	movw	r30, r4
  b4:	44 81       	ldd	r20, Z+4	; 0x04
  b6:	55 81       	ldd	r21, Z+5	; 0x05
  b8:	4c 0d       	add	r20, r12
  ba:	5d 1d       	adc	r21, r13
  bc:	c3 01       	movw	r24, r6
  be:	b8 01       	movw	r22, r16
  c0:	0e 94 00 00 	call	0	; 0x0 <_ZN6String7replaceERKS_S1_>
  c4:	c8 01       	movw	r24, r16
  c6:	b3 01       	movw	r22, r6
  c8:	0e 94 00 00 	call	0	; 0x0 <_ZN6String7replaceERKS_S1_>
  cc:	8b 89       	ldd	r24, Y+19	; 0x13
  ce:	9c 89       	ldd	r25, Y+20	; 0x14
  d0:	0e 94 00 00 	call	0	; 0x0 <_ZN6String7replaceERKS_S1_>
  d4:	1e 8a       	std	Y+22, r1	; 0x16
  d6:	1d 8a       	std	Y+21, r1	; 0x15
  d8:	18 8e       	std	Y+24, r1	; 0x18
  da:	1f 8a       	std	Y+23, r1	; 0x17
  dc:	c8 01       	movw	r24, r16
  de:	b2 01       	movw	r22, r4
  e0:	0e 94 00 00 	call	0	; 0x0 <_ZN6String7replaceERKS_S1_>
  e4:	6c 01       	movw	r12, r24
  e6:	ff ef       	ldi	r31, 0xFF	; 255
  e8:	8f 3f       	cpi	r24, 0xFF	; 255
  ea:	9f 07       	cpc	r25, r31
  ec:	01 f4       	brne	.+0      	; 0xee <_ZN6String7replaceERKS_S1_+0xee>
  ee:	c7 01       	movw	r24, r14
  f0:	b8 01       	movw	r22, r16
  f2:	0e 94 00 00 	call	0	; 0x0 <_ZN6String7replaceERKS_S1_>
  f6:	c5 01       	movw	r24, r10
  f8:	b7 01       	movw	r22, r14
  fa:	0e 94 00 00 	call	0	; 0x0 <_ZN6String7replaceERKS_S1_>
  fe:	8f 81       	ldd	r24, Y+7	; 0x07
 100:	98 85       	ldd	r25, Y+8	; 0x08
 102:	0e 94 00 00 	call	0	; 0x0 <_ZN6String7replaceERKS_S1_>
 106:	1a 86       	std	Y+10, r1	; 0x0a
 108:	19 86       	std	Y+9, r1	; 0x09
 10a:	1c 86       	std	Y+12, r1	; 0x0c
 10c:	1b 86       	std	Y+11, r1	; 0x0b
 10e:	89 81       	ldd	r24, Y+1	; 0x01
 110:	9a 81       	ldd	r25, Y+2	; 0x02
 112:	0e 94 00 00 	call	0	; 0x0 <_ZN6String7replaceERKS_S1_>
 116:	c5 01       	movw	r24, r10
 118:	68 96       	adiw	r28, 0x18	; 24
 11a:	0f b6       	in	r0, 0x3f	; 63
 11c:	f8 94       	cli
 11e:	de bf       	out	0x3e, r29	; 62
 120:	0f be       	out	0x3f, r0	; 63
 122:	cd bf       	out	0x3d, r28	; 61
 124:	cf 91       	pop	r28
 126:	df 91       	pop	r29
 128:	1f 91       	pop	r17
 12a:	0f 91       	pop	r16
 12c:	ff 90       	pop	r15
 12e:	ef 90       	pop	r14
 130:	df 90       	pop	r13
 132:	cf 90       	pop	r12
 134:	bf 90       	pop	r11
 136:	af 90       	pop	r10
 138:	9f 90       	pop	r9
 13a:	8f 90       	pop	r8
 13c:	7f 90       	pop	r7
 13e:	6f 90       	pop	r6
 140:	5f 90       	pop	r5
 142:	4f 90       	pop	r4
 144:	3f 90       	pop	r3
 146:	2f 90       	pop	r2
 148:	08 95       	ret

Disassembly of section .text._ZNK6String11toLowerCaseEv:

00000000 <_ZNK6String11toLowerCaseEv>:
   0:	af 92       	push	r10
   2:	bf 92       	push	r11
   4:	cf 92       	push	r12
   6:	df 92       	push	r13
   8:	ef 92       	push	r14
   a:	ff 92       	push	r15
   c:	0f 93       	push	r16
   e:	1f 93       	push	r17
  10:	cf 93       	push	r28
  12:	df 93       	push	r29
  14:	5c 01       	movw	r10, r24
  16:	eb 01       	movw	r28, r22
  18:	6c 01       	movw	r12, r24
  1a:	68 81       	ld	r22, Y
  1c:	79 81       	ldd	r23, Y+1	; 0x01
  1e:	0e 94 00 00 	call	0	; 0x0 <_ZNK6String11toLowerCaseEv>
  22:	00 e0       	ldi	r16, 0x00	; 0
  24:	10 e0       	ldi	r17, 0x00	; 0
  26:	00 c0       	rjmp	.+0      	; 0x28 <_ZNK6String11toLowerCaseEv+0x28>
  28:	f6 01       	movw	r30, r12
  2a:	e0 80       	ld	r14, Z
  2c:	f1 80       	ldd	r15, Z+1	; 0x01
  2e:	e0 0e       	add	r14, r16
  30:	f1 1e       	adc	r15, r17
  32:	f7 01       	movw	r30, r14
  34:	80 81       	ld	r24, Z
  36:	90 e0       	ldi	r25, 0x00	; 0
  38:	0e 94 00 00 	call	0	; 0x0 <_ZNK6String11toLowerCaseEv>
  3c:	f7 01       	movw	r30, r14
  3e:	80 83       	st	Z, r24
  40:	0f 5f       	subi	r16, 0xFF	; 255
  42:	1f 4f       	sbci	r17, 0xFF	; 255
  44:	8c 81       	ldd	r24, Y+4	; 0x04
  46:	9d 81       	ldd	r25, Y+5	; 0x05
  48:	08 17       	cp	r16, r24
  4a:	19 07       	cpc	r17, r25
  4c:	00 f0       	brcs	.+0      	; 0x4e <_ZNK6String11toLowerCaseEv+0x4e>
  4e:	c5 01       	movw	r24, r10
  50:	df 91       	pop	r29
  52:	cf 91       	pop	r28
  54:	1f 91       	pop	r17
  56:	0f 91       	pop	r16
  58:	ff 90       	pop	r15
  5a:	ef 90       	pop	r14
  5c:	df 90       	pop	r13
  5e:	cf 90       	pop	r12
  60:	bf 90       	pop	r11
  62:	af 90       	pop	r10
  64:	08 95       	ret

Disassembly of section .text._ZNK6String16equalsIgnoreCaseERKS_:

00000000 <_ZNK6String16equalsIgnoreCaseERKS_>:
   0:	ef 92       	push	r14
   2:	ff 92       	push	r15
   4:	0f 93       	push	r16
   6:	1f 93       	push	r17
   8:	df 93       	push	r29
   a:	cf 93       	push	r28
   c:	cd b7       	in	r28, 0x3d	; 61
   e:	de b7       	in	r29, 0x3e	; 62
  10:	2d 97       	sbiw	r28, 0x0d	; 13
  12:	0f b6       	in	r0, 0x3f	; 63
  14:	f8 94       	cli
  16:	de bf       	out	0x3e, r29	; 62
  18:	0f be       	out	0x3f, r0	; 63
  1a:	cd bf       	out	0x3d, r28	; 61
  1c:	fc 01       	movw	r30, r24
  1e:	8b 01       	movw	r16, r22
  20:	86 17       	cp	r24, r22
  22:	97 07       	cpc	r25, r23
  24:	01 f0       	breq	.+0      	; 0x26 <_ZNK6String16equalsIgnoreCaseERKS_+0x26>
  26:	24 81       	ldd	r18, Z+4	; 0x04
  28:	35 81       	ldd	r19, Z+5	; 0x05
  2a:	db 01       	movw	r26, r22
  2c:	14 96       	adiw	r26, 0x04	; 4
  2e:	8d 91       	ld	r24, X+
  30:	9c 91       	ld	r25, X
  32:	15 97       	sbiw	r26, 0x05	; 5
  34:	28 17       	cp	r18, r24
  36:	39 07       	cpc	r19, r25
  38:	01 f4       	brne	.+0      	; 0x3a <_ZNK6String16equalsIgnoreCaseERKS_+0x3a>
  3a:	ce 01       	movw	r24, r28
  3c:	01 96       	adiw	r24, 0x01	; 1
  3e:	bf 01       	movw	r22, r30
  40:	0e 94 00 00 	call	0	; 0x0 <_ZNK6String16equalsIgnoreCaseERKS_>
  44:	e9 80       	ldd	r14, Y+1	; 0x01
  46:	fa 80       	ldd	r15, Y+2	; 0x02
  48:	ce 01       	movw	r24, r28
  4a:	07 96       	adiw	r24, 0x07	; 7
  4c:	b8 01       	movw	r22, r16
  4e:	0e 94 00 00 	call	0	; 0x0 <_ZNK6String16equalsIgnoreCaseERKS_>
  52:	0f 81       	ldd	r16, Y+7	; 0x07
  54:	18 85       	ldd	r17, Y+8	; 0x08
  56:	c7 01       	movw	r24, r14
  58:	b8 01       	movw	r22, r16
  5a:	0e 94 00 00 	call	0	; 0x0 <_ZNK6String16equalsIgnoreCaseERKS_>
  5e:	41 e0       	ldi	r20, 0x01	; 1
  60:	00 97       	sbiw	r24, 0x00	; 0
  62:	01 f0       	breq	.+0      	; 0x64 <_ZNK6String16equalsIgnoreCaseERKS_+0x64>
  64:	40 e0       	ldi	r20, 0x00	; 0
  66:	c8 01       	movw	r24, r16
  68:	4d 87       	std	Y+13, r20	; 0x0d
  6a:	0e 94 00 00 	call	0	; 0x0 <_ZNK6String16equalsIgnoreCaseERKS_>
  6e:	1a 86       	std	Y+10, r1	; 0x0a
  70:	19 86       	std	Y+9, r1	; 0x09
  72:	1c 86       	std	Y+12, r1	; 0x0c
  74:	1b 86       	std	Y+11, r1	; 0x0b
  76:	89 81       	ldd	r24, Y+1	; 0x01
  78:	9a 81       	ldd	r25, Y+2	; 0x02
  7a:	0e 94 00 00 	call	0	; 0x0 <_ZNK6String16equalsIgnoreCaseERKS_>
  7e:	4d 85       	ldd	r20, Y+13	; 0x0d
  80:	00 c0       	rjmp	.+0      	; 0x82 <_ZNK6String16equalsIgnoreCaseERKS_+0x82>
  82:	41 e0       	ldi	r20, 0x01	; 1
  84:	00 c0       	rjmp	.+0      	; 0x86 <_ZNK6String16equalsIgnoreCaseERKS_+0x86>
  86:	40 e0       	ldi	r20, 0x00	; 0
  88:	84 2f       	mov	r24, r20
  8a:	2d 96       	adiw	r28, 0x0d	; 13
  8c:	0f b6       	in	r0, 0x3f	; 63
  8e:	f8 94       	cli
  90:	de bf       	out	0x3e, r29	; 62
  92:	0f be       	out	0x3f, r0	; 63
  94:	cd bf       	out	0x3d, r28	; 61
  96:	cf 91       	pop	r28
  98:	df 91       	pop	r29
  9a:	1f 91       	pop	r17
  9c:	0f 91       	pop	r16
  9e:	ff 90       	pop	r15
  a0:	ef 90       	pop	r14
  a2:	08 95       	ret

Disassembly of section .text._ZNK6String11toUpperCaseEv:

00000000 <_ZNK6String11toUpperCaseEv>:
   0:	af 92       	push	r10
   2:	bf 92       	push	r11
   4:	cf 92       	push	r12
   6:	df 92       	push	r13
   8:	ef 92       	push	r14
   a:	ff 92       	push	r15
   c:	0f 93       	push	r16
   e:	1f 93       	push	r17
  10:	cf 93       	push	r28
  12:	df 93       	push	r29
  14:	5c 01       	movw	r10, r24
  16:	eb 01       	movw	r28, r22
  18:	6c 01       	movw	r12, r24
  1a:	68 81       	ld	r22, Y
  1c:	79 81       	ldd	r23, Y+1	; 0x01
  1e:	0e 94 00 00 	call	0	; 0x0 <_ZNK6String11toUpperCaseEv>
  22:	00 e0       	ldi	r16, 0x00	; 0
  24:	10 e0       	ldi	r17, 0x00	; 0
  26:	00 c0       	rjmp	.+0      	; 0x28 <_ZNK6String11toUpperCaseEv+0x28>
  28:	f6 01       	movw	r30, r12
  2a:	e0 80       	ld	r14, Z
  2c:	f1 80       	ldd	r15, Z+1	; 0x01
  2e:	e0 0e       	add	r14, r16
  30:	f1 1e       	adc	r15, r17
  32:	f7 01       	movw	r30, r14
  34:	80 81       	ld	r24, Z
  36:	90 e0       	ldi	r25, 0x00	; 0
  38:	0e 94 00 00 	call	0	; 0x0 <_ZNK6String11toUpperCaseEv>
  3c:	f7 01       	movw	r30, r14
  3e:	80 83       	st	Z, r24
  40:	0f 5f       	subi	r16, 0xFF	; 255
  42:	1f 4f       	sbci	r17, 0xFF	; 255
  44:	8c 81       	ldd	r24, Y+4	; 0x04
  46:	9d 81       	ldd	r25, Y+5	; 0x05
  48:	08 17       	cp	r16, r24
  4a:	19 07       	cpc	r17, r25
  4c:	00 f0       	brcs	.+0      	; 0x4e <_ZNK6String11toUpperCaseEv+0x4e>
  4e:	c5 01       	movw	r24, r10
  50:	df 91       	pop	r29
  52:	cf 91       	pop	r28
  54:	1f 91       	pop	r17
  56:	0f 91       	pop	r16
  58:	ff 90       	pop	r15
  5a:	ef 90       	pop	r14
  5c:	df 90       	pop	r13
  5e:	cf 90       	pop	r12
  60:	bf 90       	pop	r11
  62:	af 90       	pop	r10
  64:	08 95       	ret

Disassembly of section .text._ZNK6String4trimEv:

00000000 <_ZNK6String4trimEv>:
   0:	af 92       	push	r10
   2:	bf 92       	push	r11
   4:	cf 92       	push	r12
   6:	df 92       	push	r13
   8:	ef 92       	push	r14
   a:	ff 92       	push	r15
   c:	0f 93       	push	r16
   e:	1f 93       	push	r17
  10:	df 93       	push	r29
  12:	cf 93       	push	r28
  14:	00 d0       	rcall	.+0      	; 0x16 <_ZNK6String4trimEv+0x16>
  16:	00 d0       	rcall	.+0      	; 0x18 <_ZNK6String4trimEv+0x18>
  18:	cd b7       	in	r28, 0x3d	; 61
  1a:	de b7       	in	r29, 0x3e	; 62
  1c:	5c 01       	movw	r10, r24
  1e:	6b 01       	movw	r12, r22
  20:	db 01       	movw	r26, r22
  22:	6d 91       	ld	r22, X+
  24:	7c 91       	ld	r23, X
  26:	11 97       	sbiw	r26, 0x01	; 1
  28:	61 15       	cp	r22, r1
  2a:	71 05       	cpc	r23, r1
  2c:	01 f4       	brne	.+0      	; 0x2e <_ZNK6String4trimEv+0x2e>
  2e:	b6 01       	movw	r22, r12
  30:	0e 94 00 00 	call	0	; 0x0 <_ZNK6String4trimEv>
  34:	00 c0       	rjmp	.+0      	; 0x36 <_ZNK6String4trimEv+0x36>
  36:	ce 01       	movw	r24, r28
  38:	01 96       	adiw	r24, 0x01	; 1
  3a:	0e 94 00 00 	call	0	; 0x0 <_ZNK6String4trimEv>
  3e:	f6 01       	movw	r30, r12
  40:	e4 80       	ldd	r14, Z+4	; 0x04
  42:	f5 80       	ldd	r15, Z+5	; 0x05
  44:	00 e0       	ldi	r16, 0x00	; 0
  46:	10 e0       	ldi	r17, 0x00	; 0
  48:	00 c0       	rjmp	.+0      	; 0x4a <_ZNK6String4trimEv+0x4a>
  4a:	d6 01       	movw	r26, r12
  4c:	ed 91       	ld	r30, X+
  4e:	fc 91       	ld	r31, X
  50:	e0 0f       	add	r30, r16
  52:	f1 1f       	adc	r31, r17
  54:	80 81       	ld	r24, Z
  56:	90 e0       	ldi	r25, 0x00	; 0
  58:	0e 94 00 00 	call	0	; 0x0 <_ZNK6String4trimEv>
  5c:	00 97       	sbiw	r24, 0x00	; 0
  5e:	01 f0       	breq	.+0      	; 0x60 <_ZNK6String4trimEv+0x60>
  60:	0f 5f       	subi	r16, 0xFF	; 255
  62:	1f 4f       	sbci	r17, 0xFF	; 255
  64:	0e 15       	cp	r16, r14
  66:	1f 05       	cpc	r17, r15
  68:	00 f0       	brcs	.+0      	; 0x6a <_ZNK6String4trimEv+0x6a>
  6a:	ed 80       	ldd	r14, Y+5	; 0x05
  6c:	fe 80       	ldd	r15, Y+6	; 0x06
  6e:	00 c0       	rjmp	.+0      	; 0x70 <_ZNK6String4trimEv+0x70>
  70:	d6 01       	movw	r26, r12
  72:	ed 91       	ld	r30, X+
  74:	fc 91       	ld	r31, X
  76:	ee 0d       	add	r30, r14
  78:	ff 1d       	adc	r31, r15
  7a:	80 81       	ld	r24, Z
  7c:	90 e0       	ldi	r25, 0x00	; 0
  7e:	0e 94 00 00 	call	0	; 0x0 <_ZNK6String4trimEv>
  82:	00 97       	sbiw	r24, 0x00	; 0
  84:	01 f0       	breq	.+0      	; 0x86 <_ZNK6String4trimEv+0x86>
  86:	08 94       	sec
  88:	e1 08       	sbc	r14, r1
  8a:	f1 08       	sbc	r15, r1
  8c:	0e 15       	cp	r16, r14
  8e:	1f 05       	cpc	r17, r15
  90:	00 f0       	brcs	.+0      	; 0x92 <_ZNK6String4trimEv+0x92>
  92:	97 01       	movw	r18, r14
  94:	2f 5f       	subi	r18, 0xFF	; 255
  96:	3f 4f       	sbci	r19, 0xFF	; 255
  98:	c5 01       	movw	r24, r10
  9a:	be 01       	movw	r22, r28
  9c:	6f 5f       	subi	r22, 0xFF	; 255
  9e:	7f 4f       	sbci	r23, 0xFF	; 255
  a0:	a8 01       	movw	r20, r16
  a2:	0e 94 00 00 	call	0	; 0x0 <_ZNK6String4trimEv>
  a6:	89 81       	ldd	r24, Y+1	; 0x01
  a8:	9a 81       	ldd	r25, Y+2	; 0x02
  aa:	0e 94 00 00 	call	0	; 0x0 <_ZNK6String4trimEv>
  ae:	c5 01       	movw	r24, r10
  b0:	26 96       	adiw	r28, 0x06	; 6
  b2:	0f b6       	in	r0, 0x3f	; 63
  b4:	f8 94       	cli
  b6:	de bf       	out	0x3e, r29	; 62
  b8:	0f be       	out	0x3f, r0	; 63
  ba:	cd bf       	out	0x3d, r28	; 61
  bc:	cf 91       	pop	r28
  be:	df 91       	pop	r29
  c0:	1f 91       	pop	r17
  c2:	0f 91       	pop	r16
  c4:	ff 90       	pop	r15
  c6:	ef 90       	pop	r14
  c8:	df 90       	pop	r13
  ca:	cf 90       	pop	r12
  cc:	bf 90       	pop	r11
  ce:	af 90       	pop	r10
  d0:	08 95       	ret

Disassembly of section .text._ZN6String8getBytesEPhj:

00000000 <_ZN6String8getBytesEPhj>:
   0:	0f 93       	push	r16
   2:	1f 93       	push	r17
   4:	cf 93       	push	r28
   6:	df 93       	push	r29
   8:	fc 01       	movw	r30, r24
   a:	8b 01       	movw	r16, r22
   c:	41 15       	cp	r20, r1
   e:	51 05       	cpc	r21, r1
  10:	01 f0       	breq	.+0      	; 0x12 <_ZN6String8getBytesEPhj+0x12>
  12:	61 15       	cp	r22, r1
  14:	71 05       	cpc	r23, r1
  16:	01 f0       	breq	.+0      	; 0x18 <_ZN6String8getBytesEPhj+0x18>
  18:	84 81       	ldd	r24, Z+4	; 0x04
  1a:	95 81       	ldd	r25, Z+5	; 0x05
  1c:	ea 01       	movw	r28, r20
  1e:	21 97       	sbiw	r28, 0x01	; 1
  20:	8c 17       	cp	r24, r28
  22:	9d 07       	cpc	r25, r29
  24:	00 f4       	brcc	.+0      	; 0x26 <_ZN6String8getBytesEPhj+0x26>
  26:	ec 01       	movw	r28, r24
  28:	60 81       	ld	r22, Z
  2a:	71 81       	ldd	r23, Z+1	; 0x01
  2c:	c8 01       	movw	r24, r16
  2e:	ae 01       	movw	r20, r28
  30:	0e 94 00 00 	call	0	; 0x0 <_ZN6String8getBytesEPhj>
  34:	c0 0f       	add	r28, r16
  36:	d1 1f       	adc	r29, r17
  38:	18 82       	st	Y, r1
  3a:	df 91       	pop	r29
  3c:	cf 91       	pop	r28
  3e:	1f 91       	pop	r17
  40:	0f 91       	pop	r16
  42:	08 95       	ret

Disassembly of section .text._ZN6String11toCharArrayEPcj:

00000000 <_ZN6String11toCharArrayEPcj>:
   0:	0f 93       	push	r16
   2:	1f 93       	push	r17
   4:	cf 93       	push	r28
   6:	df 93       	push	r29
   8:	fc 01       	movw	r30, r24
   a:	8b 01       	movw	r16, r22
   c:	41 15       	cp	r20, r1
   e:	51 05       	cpc	r21, r1
  10:	01 f0       	breq	.+0      	; 0x12 <_ZN6String11toCharArrayEPcj+0x12>
  12:	61 15       	cp	r22, r1
  14:	71 05       	cpc	r23, r1
  16:	01 f0       	breq	.+0      	; 0x18 <_ZN6String11toCharArrayEPcj+0x18>
  18:	84 81       	ldd	r24, Z+4	; 0x04
  1a:	95 81       	ldd	r25, Z+5	; 0x05
  1c:	ea 01       	movw	r28, r20
  1e:	21 97       	sbiw	r28, 0x01	; 1
  20:	8c 17       	cp	r24, r28
  22:	9d 07       	cpc	r25, r29
  24:	00 f4       	brcc	.+0      	; 0x26 <_ZN6String11toCharArrayEPcj+0x26>
  26:	ec 01       	movw	r28, r24
  28:	60 81       	ld	r22, Z
  2a:	71 81       	ldd	r23, Z+1	; 0x01
  2c:	c8 01       	movw	r24, r16
  2e:	ae 01       	movw	r20, r28
  30:	0e 94 00 00 	call	0	; 0x0 <_ZN6String11toCharArrayEPcj>
  34:	c0 0f       	add	r28, r16
  36:	d1 1f       	adc	r29, r17
  38:	18 82       	st	Y, r1
  3a:	df 91       	pop	r29
  3c:	cf 91       	pop	r28
  3e:	1f 91       	pop	r17
  40:	0f 91       	pop	r16
  42:	08 95       	ret

missing.o:     file format elf32-avr

Sections:
Idx Name          Size      VMA       LMA       File off  Algn
  0 .text         00000000  00000000  00000000  00000034  2**0
                  CONTENTS, ALLOC, LOAD, READONLY, CODE
  1 .data         00000000  00000000  00000000  00000034  2**0
                  CONTENTS, ALLOC, LOAD, DATA
  2 .bss          00000000  00000000  00000000  00000034  2**0
                  ALLOC
  3 .text.__cxa_pure_virtual 00000002  00000000  00000000  00000034  2**0
                  CONTENTS, ALLOC, LOAD, RELOC, READONLY, CODE

Disassembly of section .text.__cxa_pure_virtual:

00000000 <__cxa_pure_virtual>:
   0:	00 c0       	rjmp	.+0      	; 0x2 <__zero_reg__+0x1>

pins_arduino.o:     file format elf32-avr

Sections:
Idx Name          Size      VMA       LMA       File off  Algn
  0 .text         00000000  00000000  00000000  00000034  2**0
                  CONTENTS, ALLOC, LOAD, READONLY, CODE
  1 .data         00000000  00000000  00000000  00000034  2**0
                  CONTENTS, ALLOC, LOAD, DATA
  2 .bss          00000000  00000000  00000000  00000034  2**0
                  ALLOC
  3 .progmem.data 00000120  00000000  00000000  00000034  2**0
                  CONTENTS, ALLOC, LOAD, READONLY, DATA

wiring.o:     file format elf32-avr

Sections:
Idx Name          Size      VMA       LMA       File off  Algn
  0 .text         00000000  00000000  00000000  00000034  2**0
                  CONTENTS, ALLOC, LOAD, READONLY, CODE
  1 .data         00000000  00000000  00000000  00000034  2**0
                  CONTENTS, ALLOC, LOAD, DATA
  2 .bss          00000000  00000000  00000000  00000034  2**0
                  ALLOC
  3 .text.__vector_23 00000090  00000000  00000000  00000034  2**0
                  CONTENTS, ALLOC, LOAD, RELOC, READONLY, CODE
  4 .text.millis  0000001c  00000000  00000000  000000c4  2**0
                  CONTENTS, ALLOC, LOAD, RELOC, READONLY, CODE
  5 .text.micros  0000004c  00000000  00000000  000000e0  2**0
                  CONTENTS, ALLOC, LOAD, RELOC, READONLY, CODE
  6 .text.delay   0000004e  00000000  00000000  0000012c  2**0
                  CONTENTS, ALLOC, LOAD, RELOC, READONLY, CODE
  7 .text.delayMicroseconds 00000014  00000000  00000000  0000017a  2**0
                  CONTENTS, ALLOC, LOAD, RELOC, READONLY, CODE
  8 .text.init    000000c4  00000000  00000000  0000018e  2**0
                  CONTENTS, ALLOC, LOAD, READONLY, CODE
  9 .bss.timer0_overflow_count 00000004  00000000  00000000  00000252  2**0
                  ALLOC
 10 .bss.timer0_millis 00000004  00000000  00000000  00000252  2**0
                  ALLOC
 11 .bss.timer0_fract 00000001  00000000  00000000  00000252  2**0
                  ALLOC

Disassembly of section .text.__vector_23:

00000000 <__vector_23>:
   0:	1f 92       	push	r1
   2:	0f 92       	push	r0
   4:	0f b6       	in	r0, 0x3f	; 63
   6:	0f 92       	push	r0
   8:	11 24       	eor	r1, r1
   a:	2f 93       	push	r18
   c:	3f 93       	push	r19
   e:	8f 93       	push	r24
  10:	9f 93       	push	r25
  12:	af 93       	push	r26
  14:	bf 93       	push	r27
  16:	80 91 00 00 	lds	r24, 0x0000
  1a:	90 91 00 00 	lds	r25, 0x0000
  1e:	a0 91 00 00 	lds	r26, 0x0000
  22:	b0 91 00 00 	lds	r27, 0x0000
  26:	30 91 00 00 	lds	r19, 0x0000
  2a:	01 96       	adiw	r24, 0x01	; 1
  2c:	a1 1d       	adc	r26, r1
  2e:	b1 1d       	adc	r27, r1
  30:	23 2f       	mov	r18, r19
  32:	2d 5f       	subi	r18, 0xFD	; 253
  34:	2d 37       	cpi	r18, 0x7D	; 125
  36:	00 f0       	brcs	.+0      	; 0x38 <__vector_23+0x38>
  38:	2d 57       	subi	r18, 0x7D	; 125
  3a:	01 96       	adiw	r24, 0x01	; 1
  3c:	a1 1d       	adc	r26, r1
  3e:	b1 1d       	adc	r27, r1
  40:	20 93 00 00 	sts	0x0000, r18
  44:	80 93 00 00 	sts	0x0000, r24
  48:	90 93 00 00 	sts	0x0000, r25
  4c:	a0 93 00 00 	sts	0x0000, r26
  50:	b0 93 00 00 	sts	0x0000, r27
  54:	80 91 00 00 	lds	r24, 0x0000
  58:	90 91 00 00 	lds	r25, 0x0000
  5c:	a0 91 00 00 	lds	r26, 0x0000
  60:	b0 91 00 00 	lds	r27, 0x0000
  64:	01 96       	adiw	r24, 0x01	; 1
  66:	a1 1d       	adc	r26, r1
  68:	b1 1d       	adc	r27, r1
  6a:	80 93 00 00 	sts	0x0000, r24
  6e:	90 93 00 00 	sts	0x0000, r25
  72:	a0 93 00 00 	sts	0x0000, r26
  76:	b0 93 00 00 	sts	0x0000, r27
  7a:	bf 91       	pop	r27
  7c:	af 91       	pop	r26
  7e:	9f 91       	pop	r25
  80:	8f 91       	pop	r24
  82:	3f 91       	pop	r19
  84:	2f 91       	pop	r18
  86:	0f 90       	pop	r0
  88:	0f be       	out	0x3f, r0	; 63
  8a:	0f 90       	pop	r0
  8c:	1f 90       	pop	r1
  8e:	18 95       	reti

Disassembly of section .text.millis:

00000000 <millis>:
   0:	8f b7       	in	r24, 0x3f	; 63
   2:	f8 94       	cli
   4:	20 91 00 00 	lds	r18, 0x0000
   8:	30 91 00 00 	lds	r19, 0x0000
   c:	40 91 00 00 	lds	r20, 0x0000
  10:	50 91 00 00 	lds	r21, 0x0000
  14:	8f bf       	out	0x3f, r24	; 63
  16:	b9 01       	movw	r22, r18
  18:	ca 01       	movw	r24, r20
  1a:	08 95       	ret

Disassembly of section .text.micros:

00000000 <micros>:
   0:	9f b7       	in	r25, 0x3f	; 63
   2:	f8 94       	cli
   4:	20 91 00 00 	lds	r18, 0x0000
   8:	30 91 00 00 	lds	r19, 0x0000
   c:	40 91 00 00 	lds	r20, 0x0000
  10:	50 91 00 00 	lds	r21, 0x0000
  14:	86 b5       	in	r24, 0x26	; 38
  16:	a8 9b       	sbis	0x15, 0	; 21
  18:	00 c0       	rjmp	.+0      	; 0x1a <micros+0x1a>
  1a:	8f 3f       	cpi	r24, 0xFF	; 255
  1c:	01 f0       	breq	.+0      	; 0x1e <micros+0x1e>
  1e:	2f 5f       	subi	r18, 0xFF	; 255
  20:	3f 4f       	sbci	r19, 0xFF	; 255
  22:	4f 4f       	sbci	r20, 0xFF	; 255
  24:	5f 4f       	sbci	r21, 0xFF	; 255
  26:	9f bf       	out	0x3f, r25	; 63
  28:	54 2f       	mov	r21, r20
  2a:	43 2f       	mov	r20, r19
  2c:	32 2f       	mov	r19, r18
  2e:	22 27       	eor	r18, r18
  30:	28 0f       	add	r18, r24
  32:	31 1d       	adc	r19, r1
  34:	41 1d       	adc	r20, r1
  36:	51 1d       	adc	r21, r1
  38:	82 e0       	ldi	r24, 0x02	; 2
  3a:	22 0f       	add	r18, r18
  3c:	33 1f       	adc	r19, r19
  3e:	44 1f       	adc	r20, r20
  40:	55 1f       	adc	r21, r21
  42:	8a 95       	dec	r24
  44:	01 f4       	brne	.+0      	; 0x46 <micros+0x46>
  46:	b9 01       	movw	r22, r18
  48:	ca 01       	movw	r24, r20
  4a:	08 95       	ret

Disassembly of section .text.delay:

00000000 <delay>:
   0:	ef 92       	push	r14
   2:	ff 92       	push	r15
   4:	0f 93       	push	r16
   6:	1f 93       	push	r17
   8:	cf 93       	push	r28
   a:	df 93       	push	r29
   c:	7b 01       	movw	r14, r22
   e:	8c 01       	movw	r16, r24
  10:	0e 94 00 00 	call	0	; 0x0 <delay>
  14:	eb 01       	movw	r28, r22
  16:	00 c0       	rjmp	.+0      	; 0x18 <delay+0x18>
  18:	0e 94 00 00 	call	0	; 0x0 <delay>
  1c:	6c 1b       	sub	r22, r28
  1e:	7d 0b       	sbc	r23, r29
  20:	83 e0       	ldi	r24, 0x03	; 3
  22:	68 3e       	cpi	r22, 0xE8	; 232
  24:	78 07       	cpc	r23, r24
  26:	00 f0       	brcs	.+0      	; 0x28 <delay+0x28>
  28:	08 94       	sec
  2a:	e1 08       	sbc	r14, r1
  2c:	f1 08       	sbc	r15, r1
  2e:	01 09       	sbc	r16, r1
  30:	11 09       	sbc	r17, r1
  32:	c8 51       	subi	r28, 0x18	; 24
  34:	dc 4f       	sbci	r29, 0xFC	; 252
  36:	e1 14       	cp	r14, r1
  38:	f1 04       	cpc	r15, r1
  3a:	01 05       	cpc	r16, r1
  3c:	11 05       	cpc	r17, r1
  3e:	01 f4       	brne	.+0      	; 0x40 <delay+0x40>
  40:	df 91       	pop	r29
  42:	cf 91       	pop	r28
  44:	1f 91       	pop	r17
  46:	0f 91       	pop	r16
  48:	ff 90       	pop	r15
  4a:	ef 90       	pop	r14
  4c:	08 95       	ret

Disassembly of section .text.delayMicroseconds:

00000000 <delayMicroseconds>:
   0:	01 97       	sbiw	r24, 0x01	; 1
   2:	01 f0       	breq	.+0      	; 0x4 <delayMicroseconds+0x4>
   4:	88 0f       	add	r24, r24
   6:	99 1f       	adc	r25, r25
   8:	88 0f       	add	r24, r24
   a:	99 1f       	adc	r25, r25
   c:	02 97       	sbiw	r24, 0x02	; 2
   e:	01 97       	sbiw	r24, 0x01	; 1
  10:	01 f4       	brne	.+0      	; 0x12 <delayMicroseconds+0x12>
  12:	08 95       	ret

Disassembly of section .text.init:

00000000 <init>:
   0:	78 94       	sei
   2:	84 b5       	in	r24, 0x24	; 36
   4:	82 60       	ori	r24, 0x02	; 2
   6:	84 bd       	out	0x24, r24	; 36
   8:	84 b5       	in	r24, 0x24	; 36
   a:	81 60       	ori	r24, 0x01	; 1
   c:	84 bd       	out	0x24, r24	; 36
   e:	85 b5       	in	r24, 0x25	; 37
  10:	82 60       	ori	r24, 0x02	; 2
  12:	85 bd       	out	0x25, r24	; 37
  14:	85 b5       	in	r24, 0x25	; 37
  16:	81 60       	ori	r24, 0x01	; 1
  18:	85 bd       	out	0x25, r24	; 37
  1a:	ee e6       	ldi	r30, 0x6E	; 110
  1c:	f0 e0       	ldi	r31, 0x00	; 0
  1e:	80 81       	ld	r24, Z
  20:	81 60       	ori	r24, 0x01	; 1
  22:	80 83       	st	Z, r24
  24:	e1 e8       	ldi	r30, 0x81	; 129
  26:	f0 e0       	ldi	r31, 0x00	; 0
  28:	10 82       	st	Z, r1
  2a:	80 81       	ld	r24, Z
  2c:	82 60       	ori	r24, 0x02	; 2
  2e:	80 83       	st	Z, r24
  30:	80 81       	ld	r24, Z
  32:	81 60       	ori	r24, 0x01	; 1
  34:	80 83       	st	Z, r24
  36:	e0 e8       	ldi	r30, 0x80	; 128
  38:	f0 e0       	ldi	r31, 0x00	; 0
  3a:	80 81       	ld	r24, Z
  3c:	81 60       	ori	r24, 0x01	; 1
  3e:	80 83       	st	Z, r24
  40:	e1 eb       	ldi	r30, 0xB1	; 177
  42:	f0 e0       	ldi	r31, 0x00	; 0
  44:	80 81       	ld	r24, Z
  46:	84 60       	ori	r24, 0x04	; 4
  48:	80 83       	st	Z, r24
  4a:	e0 eb       	ldi	r30, 0xB0	; 176
  4c:	f0 e0       	ldi	r31, 0x00	; 0
  4e:	80 81       	ld	r24, Z
  50:	81 60       	ori	r24, 0x01	; 1
  52:	80 83       	st	Z, r24
  54:	e1 e9       	ldi	r30, 0x91	; 145
  56:	f0 e0       	ldi	r31, 0x00	; 0
  58:	80 81       	ld	r24, Z
  5a:	82 60       	ori	r24, 0x02	; 2
  5c:	80 83       	st	Z, r24
  5e:	80 81       	ld	r24, Z
  60:	81 60       	ori	r24, 0x01	; 1
  62:	80 83       	st	Z, r24
  64:	e1 ea       	ldi	r30, 0xA1	; 161
  66:	f0 e0       	ldi	r31, 0x00	; 0
  68:	80 81       	ld	r24, Z
  6a:	82 60       	ori	r24, 0x02	; 2
  6c:	80 83       	st	Z, r24
  6e:	80 81       	ld	r24, Z
  70:	81 60       	ori	r24, 0x01	; 1
  72:	80 83       	st	Z, r24
  74:	e1 e2       	ldi	r30, 0x21	; 33
  76:	f1 e0       	ldi	r31, 0x01	; 1
  78:	80 81       	ld	r24, Z
  7a:	82 60       	ori	r24, 0x02	; 2
  7c:	80 83       	st	Z, r24
  7e:	80 81       	ld	r24, Z
  80:	81 60       	ori	r24, 0x01	; 1
  82:	80 83       	st	Z, r24
  84:	e0 e9       	ldi	r30, 0x90	; 144
  86:	f0 e0       	ldi	r31, 0x00	; 0
  88:	80 81       	ld	r24, Z
  8a:	81 60       	ori	r24, 0x01	; 1
  8c:	80 83       	st	Z, r24
  8e:	e0 ea       	ldi	r30, 0xA0	; 160
  90:	f0 e0       	ldi	r31, 0x00	; 0
  92:	80 81       	ld	r24, Z
  94:	81 60       	ori	r24, 0x01	; 1
  96:	80 83       	st	Z, r24
  98:	e0 e2       	ldi	r30, 0x20	; 32
  9a:	f1 e0       	ldi	r31, 0x01	; 1
  9c:	80 81       	ld	r24, Z
  9e:	81 60       	ori	r24, 0x01	; 1
  a0:	80 83       	st	Z, r24
  a2:	ea e7       	ldi	r30, 0x7A	; 122
  a4:	f0 e0       	ldi	r31, 0x00	; 0
  a6:	80 81       	ld	r24, Z
  a8:	84 60       	ori	r24, 0x04	; 4
  aa:	80 83       	st	Z, r24
  ac:	80 81       	ld	r24, Z
  ae:	82 60       	ori	r24, 0x02	; 2
  b0:	80 83       	st	Z, r24
  b2:	80 81       	ld	r24, Z
  b4:	81 60       	ori	r24, 0x01	; 1
  b6:	80 83       	st	Z, r24
  b8:	80 81       	ld	r24, Z
  ba:	80 68       	ori	r24, 0x80	; 128
  bc:	80 83       	st	Z, r24
  be:	10 92 c1 00 	sts	0x00C1, r1
  c2:	08 95       	ret

wiring_analog.o:     file format elf32-avr

Sections:
Idx Name          Size      VMA       LMA       File off  Algn
  0 .text         00000000  00000000  00000000  00000034  2**0
                  CONTENTS, ALLOC, LOAD, READONLY, CODE
  1 .data         00000000  00000000  00000000  00000034  2**0
                  CONTENTS, ALLOC, LOAD, DATA
  2 .bss          00000000  00000000  00000000  00000034  2**0
                  ALLOC
  3 .text.analogReference 00000006  00000000  00000000  00000034  2**0
                  CONTENTS, ALLOC, LOAD, RELOC, READONLY, CODE
  4 .text.analogRead 00000066  00000000  00000000  0000003a  2**0
                  CONTENTS, ALLOC, LOAD, RELOC, READONLY, CODE
  5 .text.analogWrite 00000178  00000000  00000000  000000a0  2**0
                  CONTENTS, ALLOC, LOAD, RELOC, READONLY, CODE
  6 .data.analog_reference 00000001  00000000  00000000  00000218  2**0
                  CONTENTS, ALLOC, LOAD, DATA

Disassembly of section .text.analogReference:

00000000 <analogReference>:
   0:	80 93 00 00 	sts	0x0000, r24
   4:	08 95       	ret

Disassembly of section .text.analogRead:

00000000 <analogRead>:
   0:	86 33       	cpi	r24, 0x36	; 54
   2:	00 f0       	brcs	.+0      	; 0x4 <analogRead+0x4>
   4:	86 53       	subi	r24, 0x36	; 54
   6:	90 91 7b 00 	lds	r25, 0x007B
   a:	28 2f       	mov	r18, r24
   c:	26 95       	lsr	r18
   e:	26 95       	lsr	r18
  10:	26 95       	lsr	r18
  12:	30 e0       	ldi	r19, 0x00	; 0
  14:	21 70       	andi	r18, 0x01	; 1
  16:	30 70       	andi	r19, 0x00	; 0
  18:	43 e0       	ldi	r20, 0x03	; 3
  1a:	22 0f       	add	r18, r18
  1c:	33 1f       	adc	r19, r19
  1e:	4a 95       	dec	r20
  20:	01 f4       	brne	.+0      	; 0x22 <analogRead+0x22>
  22:	97 7f       	andi	r25, 0xF7	; 247
  24:	92 2b       	or	r25, r18
  26:	90 93 7b 00 	sts	0x007B, r25
  2a:	87 70       	andi	r24, 0x07	; 7
  2c:	90 91 00 00 	lds	r25, 0x0000
  30:	92 95       	swap	r25
  32:	99 0f       	add	r25, r25
  34:	99 0f       	add	r25, r25
  36:	90 7c       	andi	r25, 0xC0	; 192
  38:	98 2b       	or	r25, r24
  3a:	90 93 7c 00 	sts	0x007C, r25
  3e:	80 91 7a 00 	lds	r24, 0x007A
  42:	80 64       	ori	r24, 0x40	; 64
  44:	80 93 7a 00 	sts	0x007A, r24
  48:	80 91 7a 00 	lds	r24, 0x007A
  4c:	86 fd       	sbrc	r24, 6
  4e:	00 c0       	rjmp	.+0      	; 0x50 <analogRead+0x50>
  50:	20 91 78 00 	lds	r18, 0x0078
  54:	30 91 79 00 	lds	r19, 0x0079
  58:	93 2f       	mov	r25, r19
  5a:	80 e0       	ldi	r24, 0x00	; 0
  5c:	30 e0       	ldi	r19, 0x00	; 0
  5e:	28 2b       	or	r18, r24
  60:	39 2b       	or	r19, r25
  62:	c9 01       	movw	r24, r18
  64:	08 95       	ret

Disassembly of section .text.analogWrite:

00000000 <analogWrite>:
   0:	1f 93       	push	r17
   2:	cf 93       	push	r28
   4:	df 93       	push	r29
   6:	18 2f       	mov	r17, r24
   8:	eb 01       	movw	r28, r22
   a:	61 e0       	ldi	r22, 0x01	; 1
   c:	0e 94 00 00 	call	0	; 0x0 <analogWrite>
  10:	e1 2f       	mov	r30, r17
  12:	f0 e0       	ldi	r31, 0x00	; 0
  14:	e0 50       	subi	r30, 0x00	; 0
  16:	f0 40       	sbci	r31, 0x00	; 0
  18:	84 91       	lpm	r24, Z+
  1a:	83 30       	cpi	r24, 0x03	; 3
  1c:	01 f4       	brne	.+0      	; 0x1e <analogWrite+0x1e>
  1e:	80 91 80 00 	lds	r24, 0x0080
  22:	80 68       	ori	r24, 0x80	; 128
  24:	80 93 80 00 	sts	0x0080, r24
  28:	d0 93 89 00 	sts	0x0089, r29
  2c:	c0 93 88 00 	sts	0x0088, r28
  30:	00 c0       	rjmp	.+0      	; 0x32 <analogWrite+0x32>
  32:	84 30       	cpi	r24, 0x04	; 4
  34:	01 f4       	brne	.+0      	; 0x36 <analogWrite+0x36>
  36:	80 91 80 00 	lds	r24, 0x0080
  3a:	80 62       	ori	r24, 0x20	; 32
  3c:	80 93 80 00 	sts	0x0080, r24
  40:	d0 93 8b 00 	sts	0x008B, r29
  44:	c0 93 8a 00 	sts	0x008A, r28
  48:	00 c0       	rjmp	.+0      	; 0x4a <analogWrite+0x4a>
  4a:	81 30       	cpi	r24, 0x01	; 1
  4c:	01 f4       	brne	.+0      	; 0x4e <analogWrite+0x4e>
  4e:	20 97       	sbiw	r28, 0x00	; 0
  50:	01 f4       	brne	.+0      	; 0x52 <analogWrite+0x52>
  52:	00 c0       	rjmp	.+0      	; 0x54 <analogWrite+0x54>
  54:	84 b5       	in	r24, 0x24	; 36
  56:	80 68       	ori	r24, 0x80	; 128
  58:	84 bd       	out	0x24, r24	; 36
  5a:	c7 bd       	out	0x27, r28	; 39
  5c:	00 c0       	rjmp	.+0      	; 0x5e <analogWrite+0x5e>
  5e:	82 30       	cpi	r24, 0x02	; 2
  60:	01 f4       	brne	.+0      	; 0x62 <analogWrite+0x62>
  62:	20 97       	sbiw	r28, 0x00	; 0
  64:	01 f4       	brne	.+0      	; 0x66 <analogWrite+0x66>
  66:	00 c0       	rjmp	.+0      	; 0x68 <analogWrite+0x68>
  68:	84 b5       	in	r24, 0x24	; 36
  6a:	80 62       	ori	r24, 0x20	; 32
  6c:	84 bd       	out	0x24, r24	; 36
  6e:	c8 bd       	out	0x28, r28	; 40
  70:	00 c0       	rjmp	.+0      	; 0x72 <analogWrite+0x72>
  72:	86 30       	cpi	r24, 0x06	; 6
  74:	01 f4       	brne	.+0      	; 0x76 <analogWrite+0x76>
  76:	80 91 b0 00 	lds	r24, 0x00B0
  7a:	80 68       	ori	r24, 0x80	; 128
  7c:	80 93 b0 00 	sts	0x00B0, r24
  80:	c0 93 b3 00 	sts	0x00B3, r28
  84:	00 c0       	rjmp	.+0      	; 0x86 <analogWrite+0x86>
  86:	87 30       	cpi	r24, 0x07	; 7
  88:	01 f4       	brne	.+0      	; 0x8a <analogWrite+0x8a>
  8a:	80 91 b0 00 	lds	r24, 0x00B0
  8e:	80 62       	ori	r24, 0x20	; 32
  90:	80 93 b0 00 	sts	0x00B0, r24
  94:	c0 93 b4 00 	sts	0x00B4, r28
  98:	00 c0       	rjmp	.+0      	; 0x9a <analogWrite+0x9a>
  9a:	88 30       	cpi	r24, 0x08	; 8
  9c:	01 f4       	brne	.+0      	; 0x9e <analogWrite+0x9e>
  9e:	80 91 90 00 	lds	r24, 0x0090
  a2:	80 68       	ori	r24, 0x80	; 128
  a4:	80 93 90 00 	sts	0x0090, r24
  a8:	d0 93 99 00 	sts	0x0099, r29
  ac:	c0 93 98 00 	sts	0x0098, r28
  b0:	00 c0       	rjmp	.+0      	; 0xb2 <analogWrite+0xb2>
  b2:	89 30       	cpi	r24, 0x09	; 9
  b4:	01 f4       	brne	.+0      	; 0xb6 <analogWrite+0xb6>
  b6:	80 91 90 00 	lds	r24, 0x0090
  ba:	80 62       	ori	r24, 0x20	; 32
  bc:	80 93 90 00 	sts	0x0090, r24
  c0:	d0 93 9b 00 	sts	0x009B, r29
  c4:	c0 93 9a 00 	sts	0x009A, r28
  c8:	00 c0       	rjmp	.+0      	; 0xca <analogWrite+0xca>
  ca:	8a 30       	cpi	r24, 0x0A	; 10
  cc:	01 f4       	brne	.+0      	; 0xce <analogWrite+0xce>
  ce:	80 91 90 00 	lds	r24, 0x0090
  d2:	88 60       	ori	r24, 0x08	; 8
  d4:	80 93 90 00 	sts	0x0090, r24
  d8:	d0 93 9d 00 	sts	0x009D, r29
  dc:	c0 93 9c 00 	sts	0x009C, r28
  e0:	00 c0       	rjmp	.+0      	; 0xe2 <analogWrite+0xe2>
  e2:	8b 30       	cpi	r24, 0x0B	; 11
  e4:	01 f4       	brne	.+0      	; 0xe6 <analogWrite+0xe6>
  e6:	80 91 a0 00 	lds	r24, 0x00A0
  ea:	80 68       	ori	r24, 0x80	; 128
  ec:	80 93 a0 00 	sts	0x00A0, r24
  f0:	d0 93 a9 00 	sts	0x00A9, r29
  f4:	c0 93 a8 00 	sts	0x00A8, r28
  f8:	00 c0       	rjmp	.+0      	; 0xfa <analogWrite+0xfa>
  fa:	e4 91       	lpm	r30, Z+
  fc:	ec 30       	cpi	r30, 0x0C	; 12
  fe:	01 f4       	brne	.+0      	; 0x100 <analogWrite+0x100>
 100:	80 91 a0 00 	lds	r24, 0x00A0
 104:	80 62       	ori	r24, 0x20	; 32
 106:	80 93 a0 00 	sts	0x00A0, r24
 10a:	d0 93 ab 00 	sts	0x00AB, r29
 10e:	c0 93 aa 00 	sts	0x00AA, r28
 112:	00 c0       	rjmp	.+0      	; 0x114 <analogWrite+0x114>
 114:	ed 30       	cpi	r30, 0x0D	; 13
 116:	01 f4       	brne	.+0      	; 0x118 <analogWrite+0x118>
 118:	80 91 a0 00 	lds	r24, 0x00A0
 11c:	88 60       	ori	r24, 0x08	; 8
 11e:	80 93 a0 00 	sts	0x00A0, r24
 122:	d0 93 ad 00 	sts	0x00AD, r29
 126:	c0 93 ac 00 	sts	0x00AC, r28
 12a:	00 c0       	rjmp	.+0      	; 0x12c <analogWrite+0x12c>
 12c:	ee 30       	cpi	r30, 0x0E	; 14
 12e:	01 f4       	brne	.+0      	; 0x130 <analogWrite+0x130>
 130:	80 91 20 01 	lds	r24, 0x0120
 134:	80 68       	ori	r24, 0x80	; 128
 136:	80 93 20 01 	sts	0x0120, r24
 13a:	d0 93 29 01 	sts	0x0129, r29
 13e:	c0 93 28 01 	sts	0x0128, r28
 142:	00 c0       	rjmp	.+0      	; 0x144 <analogWrite+0x144>
 144:	ef 30       	cpi	r30, 0x0F	; 15
 146:	01 f4       	brne	.+0      	; 0x148 <analogWrite+0x148>
 148:	80 91 20 01 	lds	r24, 0x0120
 14c:	80 62       	ori	r24, 0x20	; 32
 14e:	80 93 20 01 	sts	0x0120, r24
 152:	d0 93 2b 01 	sts	0x012B, r29
 156:	c0 93 2a 01 	sts	0x012A, r28
 15a:	00 c0       	rjmp	.+0      	; 0x15c <analogWrite+0x15c>
 15c:	c0 38       	cpi	r28, 0x80	; 128
 15e:	d1 05       	cpc	r29, r1
 160:	04 f4       	brge	.+0      	; 0x162 <analogWrite+0x162>
 162:	81 2f       	mov	r24, r17
 164:	60 e0       	ldi	r22, 0x00	; 0
 166:	00 c0       	rjmp	.+0      	; 0x168 <analogWrite+0x168>
 168:	81 2f       	mov	r24, r17
 16a:	61 e0       	ldi	r22, 0x01	; 1
 16c:	0e 94 00 00 	call	0	; 0x0 <analogWrite>
 170:	df 91       	pop	r29
 172:	cf 91       	pop	r28
 174:	1f 91       	pop	r17
 176:	08 95       	ret

wiring_digital.o:     file format elf32-avr

Sections:
Idx Name          Size      VMA       LMA       File off  Algn
  0 .text         00000000  00000000  00000000  00000034  2**0
                  CONTENTS, ALLOC, LOAD, READONLY, CODE
  1 .data         00000000  00000000  00000000  00000034  2**0
                  CONTENTS, ALLOC, LOAD, DATA
  2 .bss          00000000  00000000  00000000  00000034  2**0
                  ALLOC
  3 .text.pinMode 00000048  00000000  00000000  00000034  2**0
                  CONTENTS, ALLOC, LOAD, RELOC, READONLY, CODE
  4 .text.digitalWrite 0000011e  00000000  00000000  0000007c  2**0
                  CONTENTS, ALLOC, LOAD, RELOC, READONLY, CODE
  5 .text.digitalRead 0000010e  00000000  00000000  0000019a  2**0
                  CONTENTS, ALLOC, LOAD, RELOC, READONLY, CODE

Disassembly of section .text.pinMode:

00000000 <pinMode>:
   0:	90 e0       	ldi	r25, 0x00	; 0
   2:	fc 01       	movw	r30, r24
   4:	e0 50       	subi	r30, 0x00	; 0
   6:	f0 40       	sbci	r31, 0x00	; 0
   8:	24 91       	lpm	r18, Z+
   a:	fc 01       	movw	r30, r24
   c:	e0 50       	subi	r30, 0x00	; 0
   e:	f0 40       	sbci	r31, 0x00	; 0
  10:	e4 91       	lpm	r30, Z+
  12:	ee 23       	and	r30, r30
  14:	01 f0       	breq	.+0      	; 0x16 <pinMode+0x16>
  16:	f0 e0       	ldi	r31, 0x00	; 0
  18:	ee 0f       	add	r30, r30
  1a:	ff 1f       	adc	r31, r31
  1c:	e0 50       	subi	r30, 0x00	; 0
  1e:	f0 40       	sbci	r31, 0x00	; 0
  20:	85 91       	lpm	r24, Z+
  22:	94 91       	lpm	r25, Z+
  24:	dc 01       	movw	r26, r24
  26:	66 23       	and	r22, r22
  28:	01 f4       	brne	.+0      	; 0x2a <pinMode+0x2a>
  2a:	9f b7       	in	r25, 0x3f	; 63
  2c:	f8 94       	cli
  2e:	8c 91       	ld	r24, X
  30:	20 95       	com	r18
  32:	82 23       	and	r24, r18
  34:	8c 93       	st	X, r24
  36:	9f bf       	out	0x3f, r25	; 63
  38:	08 95       	ret
  3a:	9f b7       	in	r25, 0x3f	; 63
  3c:	f8 94       	cli
  3e:	8c 91       	ld	r24, X
  40:	82 2b       	or	r24, r18
  42:	8c 93       	st	X, r24
  44:	9f bf       	out	0x3f, r25	; 63
  46:	08 95       	ret

Disassembly of section .text.digitalWrite:

00000000 <digitalWrite>:
   0:	90 e0       	ldi	r25, 0x00	; 0
   2:	fc 01       	movw	r30, r24
   4:	e0 50       	subi	r30, 0x00	; 0
   6:	f0 40       	sbci	r31, 0x00	; 0
   8:	24 91       	lpm	r18, Z+
   a:	fc 01       	movw	r30, r24
   c:	e0 50       	subi	r30, 0x00	; 0
   e:	f0 40       	sbci	r31, 0x00	; 0
  10:	44 91       	lpm	r20, Z+
  12:	80 50       	subi	r24, 0x00	; 0
  14:	90 40       	sbci	r25, 0x00	; 0
  16:	fc 01       	movw	r30, r24
  18:	84 91       	lpm	r24, Z+
  1a:	88 23       	and	r24, r24
  1c:	01 f4       	brne	.+0      	; 0x1e <digitalWrite+0x1e>
  1e:	00 c0       	rjmp	.+0      	; 0x20 <digitalWrite+0x20>
  20:	22 23       	and	r18, r18
  22:	01 f4       	brne	.+0      	; 0x24 <digitalWrite+0x24>
  24:	00 c0       	rjmp	.+0      	; 0x26 <digitalWrite+0x26>
  26:	23 30       	cpi	r18, 0x03	; 3
  28:	01 f4       	brne	.+0      	; 0x2a <digitalWrite+0x2a>
  2a:	90 91 80 00 	lds	r25, 0x0080
  2e:	9f 77       	andi	r25, 0x7F	; 127
  30:	00 c0       	rjmp	.+0      	; 0x32 <digitalWrite+0x32>
  32:	24 30       	cpi	r18, 0x04	; 4
  34:	01 f4       	brne	.+0      	; 0x36 <digitalWrite+0x36>
  36:	90 91 80 00 	lds	r25, 0x0080
  3a:	9f 7d       	andi	r25, 0xDF	; 223
  3c:	90 93 80 00 	sts	0x0080, r25
  40:	00 c0       	rjmp	.+0      	; 0x42 <digitalWrite+0x42>
  42:	21 30       	cpi	r18, 0x01	; 1
  44:	01 f4       	brne	.+0      	; 0x46 <digitalWrite+0x46>
  46:	94 b5       	in	r25, 0x24	; 36
  48:	9f 77       	andi	r25, 0x7F	; 127
  4a:	00 c0       	rjmp	.+0      	; 0x4c <digitalWrite+0x4c>
  4c:	22 30       	cpi	r18, 0x02	; 2
  4e:	01 f4       	brne	.+0      	; 0x50 <digitalWrite+0x50>
  50:	94 b5       	in	r25, 0x24	; 36
  52:	9f 7d       	andi	r25, 0xDF	; 223
  54:	94 bd       	out	0x24, r25	; 36
  56:	00 c0       	rjmp	.+0      	; 0x58 <digitalWrite+0x58>
  58:	26 30       	cpi	r18, 0x06	; 6
  5a:	01 f4       	brne	.+0      	; 0x5c <digitalWrite+0x5c>
  5c:	90 91 b0 00 	lds	r25, 0x00B0
  60:	9f 77       	andi	r25, 0x7F	; 127
  62:	00 c0       	rjmp	.+0      	; 0x64 <digitalWrite+0x64>
  64:	27 30       	cpi	r18, 0x07	; 7
  66:	01 f4       	brne	.+0      	; 0x68 <digitalWrite+0x68>
  68:	90 91 b0 00 	lds	r25, 0x00B0
  6c:	9f 7d       	andi	r25, 0xDF	; 223
  6e:	90 93 b0 00 	sts	0x00B0, r25
  72:	00 c0       	rjmp	.+0      	; 0x74 <digitalWrite+0x74>
  74:	28 30       	cpi	r18, 0x08	; 8
  76:	01 f4       	brne	.+0      	; 0x78 <digitalWrite+0x78>
  78:	90 91 90 00 	lds	r25, 0x0090
  7c:	9f 77       	andi	r25, 0x7F	; 127
  7e:	00 c0       	rjmp	.+0      	; 0x80 <digitalWrite+0x80>
  80:	29 30       	cpi	r18, 0x09	; 9
  82:	01 f4       	brne	.+0      	; 0x84 <digitalWrite+0x84>
  84:	90 91 90 00 	lds	r25, 0x0090
  88:	9f 7d       	andi	r25, 0xDF	; 223
  8a:	00 c0       	rjmp	.+0      	; 0x8c <digitalWrite+0x8c>
  8c:	2a 30       	cpi	r18, 0x0A	; 10
  8e:	01 f4       	brne	.+0      	; 0x90 <digitalWrite+0x90>
  90:	90 91 90 00 	lds	r25, 0x0090
  94:	97 7f       	andi	r25, 0xF7	; 247
  96:	90 93 90 00 	sts	0x0090, r25
  9a:	00 c0       	rjmp	.+0      	; 0x9c <digitalWrite+0x9c>
  9c:	2b 30       	cpi	r18, 0x0B	; 11
  9e:	01 f4       	brne	.+0      	; 0xa0 <digitalWrite+0xa0>
  a0:	90 91 a0 00 	lds	r25, 0x00A0
  a4:	9f 77       	andi	r25, 0x7F	; 127
  a6:	00 c0       	rjmp	.+0      	; 0xa8 <digitalWrite+0xa8>
  a8:	2c 30       	cpi	r18, 0x0C	; 12
  aa:	01 f4       	brne	.+0      	; 0xac <digitalWrite+0xac>
  ac:	90 91 a0 00 	lds	r25, 0x00A0
  b0:	9f 7d       	andi	r25, 0xDF	; 223
  b2:	00 c0       	rjmp	.+0      	; 0xb4 <digitalWrite+0xb4>
  b4:	2d 30       	cpi	r18, 0x0D	; 13
  b6:	01 f4       	brne	.+0      	; 0xb8 <digitalWrite+0xb8>
  b8:	90 91 a0 00 	lds	r25, 0x00A0
  bc:	97 7f       	andi	r25, 0xF7	; 247
  be:	90 93 a0 00 	sts	0x00A0, r25
  c2:	00 c0       	rjmp	.+0      	; 0xc4 <digitalWrite+0xc4>
  c4:	2e 30       	cpi	r18, 0x0E	; 14
  c6:	01 f4       	brne	.+0      	; 0xc8 <digitalWrite+0xc8>
  c8:	90 91 20 01 	lds	r25, 0x0120
  cc:	9f 77       	andi	r25, 0x7F	; 127
  ce:	00 c0       	rjmp	.+0      	; 0xd0 <digitalWrite+0xd0>
  d0:	2f 30       	cpi	r18, 0x0F	; 15
  d2:	01 f4       	brne	.+0      	; 0xd4 <digitalWrite+0xd4>
  d4:	90 91 20 01 	lds	r25, 0x0120
  d8:	9f 7d       	andi	r25, 0xDF	; 223
  da:	00 c0       	rjmp	.+0      	; 0xdc <digitalWrite+0xdc>
  dc:	20 31       	cpi	r18, 0x10	; 16
  de:	01 f4       	brne	.+0      	; 0xe0 <digitalWrite+0xe0>
  e0:	90 91 20 01 	lds	r25, 0x0120
  e4:	97 7f       	andi	r25, 0xF7	; 247
  e6:	90 93 20 01 	sts	0x0120, r25
  ea:	e8 2f       	mov	r30, r24
  ec:	f0 e0       	ldi	r31, 0x00	; 0
  ee:	ee 0f       	add	r30, r30
  f0:	ff 1f       	adc	r31, r31
  f2:	e0 50       	subi	r30, 0x00	; 0
  f4:	f0 40       	sbci	r31, 0x00	; 0
  f6:	25 91       	lpm	r18, Z+
  f8:	34 91       	lpm	r19, Z+
  fa:	d9 01       	movw	r26, r18
  fc:	66 23       	and	r22, r22
  fe:	01 f4       	brne	.+0      	; 0x100 <digitalWrite+0x100>
 100:	9f b7       	in	r25, 0x3f	; 63
 102:	f8 94       	cli
 104:	8c 91       	ld	r24, X
 106:	40 95       	com	r20
 108:	84 23       	and	r24, r20
 10a:	8c 93       	st	X, r24
 10c:	9f bf       	out	0x3f, r25	; 63
 10e:	08 95       	ret
 110:	9f b7       	in	r25, 0x3f	; 63
 112:	f8 94       	cli
 114:	8c 91       	ld	r24, X
 116:	84 2b       	or	r24, r20
 118:	8c 93       	st	X, r24
 11a:	9f bf       	out	0x3f, r25	; 63
 11c:	08 95       	ret

Disassembly of section .text.digitalRead:

00000000 <digitalRead>:
   0:	90 e0       	ldi	r25, 0x00	; 0
   2:	fc 01       	movw	r30, r24
   4:	e0 50       	subi	r30, 0x00	; 0
   6:	f0 40       	sbci	r31, 0x00	; 0
   8:	24 91       	lpm	r18, Z+
   a:	fc 01       	movw	r30, r24
   c:	e0 50       	subi	r30, 0x00	; 0
   e:	f0 40       	sbci	r31, 0x00	; 0
  10:	44 91       	lpm	r20, Z+
  12:	80 50       	subi	r24, 0x00	; 0
  14:	90 40       	sbci	r25, 0x00	; 0
  16:	fc 01       	movw	r30, r24
  18:	84 91       	lpm	r24, Z+
  1a:	88 23       	and	r24, r24
  1c:	01 f4       	brne	.+0      	; 0x1e <digitalRead+0x1e>
  1e:	00 c0       	rjmp	.+0      	; 0x20 <digitalRead+0x20>
  20:	22 23       	and	r18, r18
  22:	01 f4       	brne	.+0      	; 0x24 <digitalRead+0x24>
  24:	00 c0       	rjmp	.+0      	; 0x26 <digitalRead+0x26>
  26:	23 30       	cpi	r18, 0x03	; 3
  28:	01 f4       	brne	.+0      	; 0x2a <digitalRead+0x2a>
  2a:	90 91 80 00 	lds	r25, 0x0080
  2e:	9f 77       	andi	r25, 0x7F	; 127
  30:	00 c0       	rjmp	.+0      	; 0x32 <digitalRead+0x32>
  32:	24 30       	cpi	r18, 0x04	; 4
  34:	01 f4       	brne	.+0      	; 0x36 <digitalRead+0x36>
  36:	90 91 80 00 	lds	r25, 0x0080
  3a:	9f 7d       	andi	r25, 0xDF	; 223
  3c:	90 93 80 00 	sts	0x0080, r25
  40:	00 c0       	rjmp	.+0      	; 0x42 <digitalRead+0x42>
  42:	21 30       	cpi	r18, 0x01	; 1
  44:	01 f4       	brne	.+0      	; 0x46 <digitalRead+0x46>
  46:	94 b5       	in	r25, 0x24	; 36
  48:	9f 77       	andi	r25, 0x7F	; 127
  4a:	00 c0       	rjmp	.+0      	; 0x4c <digitalRead+0x4c>
  4c:	22 30       	cpi	r18, 0x02	; 2
  4e:	01 f4       	brne	.+0      	; 0x50 <digitalRead+0x50>
  50:	94 b5       	in	r25, 0x24	; 36
  52:	9f 7d       	andi	r25, 0xDF	; 223
  54:	94 bd       	out	0x24, r25	; 36
  56:	00 c0       	rjmp	.+0      	; 0x58 <digitalRead+0x58>
  58:	26 30       	cpi	r18, 0x06	; 6
  5a:	01 f4       	brne	.+0      	; 0x5c <digitalRead+0x5c>
  5c:	90 91 b0 00 	lds	r25, 0x00B0
  60:	9f 77       	andi	r25, 0x7F	; 127
  62:	00 c0       	rjmp	.+0      	; 0x64 <digitalRead+0x64>
  64:	27 30       	cpi	r18, 0x07	; 7
  66:	01 f4       	brne	.+0      	; 0x68 <digitalRead+0x68>
  68:	90 91 b0 00 	lds	r25, 0x00B0
  6c:	9f 7d       	andi	r25, 0xDF	; 223
  6e:	90 93 b0 00 	sts	0x00B0, r25
  72:	00 c0       	rjmp	.+0      	; 0x74 <digitalRead+0x74>
  74:	28 30       	cpi	r18, 0x08	; 8
  76:	01 f4       	brne	.+0      	; 0x78 <digitalRead+0x78>
  78:	90 91 90 00 	lds	r25, 0x0090
  7c:	9f 77       	andi	r25, 0x7F	; 127
  7e:	00 c0       	rjmp	.+0      	; 0x80 <digitalRead+0x80>
  80:	29 30       	cpi	r18, 0x09	; 9
  82:	01 f4       	brne	.+0      	; 0x84 <digitalRead+0x84>
  84:	90 91 90 00 	lds	r25, 0x0090
  88:	9f 7d       	andi	r25, 0xDF	; 223
  8a:	00 c0       	rjmp	.+0      	; 0x8c <digitalRead+0x8c>
  8c:	2a 30       	cpi	r18, 0x0A	; 10
  8e:	01 f4       	brne	.+0      	; 0x90 <digitalRead+0x90>
  90:	90 91 90 00 	lds	r25, 0x0090
  94:	97 7f       	andi	r25, 0xF7	; 247
  96:	90 93 90 00 	sts	0x0090, r25
  9a:	00 c0       	rjmp	.+0      	; 0x9c <digitalRead+0x9c>
  9c:	2b 30       	cpi	r18, 0x0B	; 11
  9e:	01 f4       	brne	.+0      	; 0xa0 <digitalRead+0xa0>
  a0:	90 91 a0 00 	lds	r25, 0x00A0
  a4:	9f 77       	andi	r25, 0x7F	; 127
  a6:	00 c0       	rjmp	.+0      	; 0xa8 <digitalRead+0xa8>
  a8:	2c 30       	cpi	r18, 0x0C	; 12
  aa:	01 f4       	brne	.+0      	; 0xac <digitalRead+0xac>
  ac:	90 91 a0 00 	lds	r25, 0x00A0
  b0:	9f 7d       	andi	r25, 0xDF	; 223
  b2:	00 c0       	rjmp	.+0      	; 0xb4 <digitalRead+0xb4>
  b4:	2d 30       	cpi	r18, 0x0D	; 13
  b6:	01 f4       	brne	.+0      	; 0xb8 <digitalRead+0xb8>
  b8:	90 91 a0 00 	lds	r25, 0x00A0
  bc:	97 7f       	andi	r25, 0xF7	; 247
  be:	90 93 a0 00 	sts	0x00A0, r25
  c2:	00 c0       	rjmp	.+0      	; 0xc4 <digitalRead+0xc4>
  c4:	2e 30       	cpi	r18, 0x0E	; 14
  c6:	01 f4       	brne	.+0      	; 0xc8 <digitalRead+0xc8>
  c8:	90 91 20 01 	lds	r25, 0x0120
  cc:	9f 77       	andi	r25, 0x7F	; 127
  ce:	00 c0       	rjmp	.+0      	; 0xd0 <digitalRead+0xd0>
  d0:	2f 30       	cpi	r18, 0x0F	; 15
  d2:	01 f4       	brne	.+0      	; 0xd4 <digitalRead+0xd4>
  d4:	90 91 20 01 	lds	r25, 0x0120
  d8:	9f 7d       	andi	r25, 0xDF	; 223
  da:	00 c0       	rjmp	.+0      	; 0xdc <digitalRead+0xdc>
  dc:	20 31       	cpi	r18, 0x10	; 16
  de:	01 f4       	brne	.+0      	; 0xe0 <digitalRead+0xe0>
  e0:	90 91 20 01 	lds	r25, 0x0120
  e4:	97 7f       	andi	r25, 0xF7	; 247
  e6:	90 93 20 01 	sts	0x0120, r25
  ea:	e8 2f       	mov	r30, r24
  ec:	f0 e0       	ldi	r31, 0x00	; 0
  ee:	ee 0f       	add	r30, r30
  f0:	ff 1f       	adc	r31, r31
  f2:	e0 50       	subi	r30, 0x00	; 0
  f4:	f0 40       	sbci	r31, 0x00	; 0
  f6:	25 91       	lpm	r18, Z+
  f8:	34 91       	lpm	r19, Z+
  fa:	d9 01       	movw	r26, r18
  fc:	8c 91       	ld	r24, X
  fe:	84 23       	and	r24, r20
 100:	21 e0       	ldi	r18, 0x01	; 1
 102:	30 e0       	ldi	r19, 0x00	; 0
 104:	01 f4       	brne	.+0      	; 0x106 <digitalRead+0x106>
 106:	20 e0       	ldi	r18, 0x00	; 0
 108:	30 e0       	ldi	r19, 0x00	; 0
 10a:	c9 01       	movw	r24, r18
 10c:	08 95       	ret

wiring_pulse.o:     file format elf32-avr

Sections:
Idx Name          Size      VMA       LMA       File off  Algn
  0 .text         00000000  00000000  00000000  00000034  2**0
                  CONTENTS, ALLOC, LOAD, READONLY, CODE
  1 .data         00000000  00000000  00000000  00000034  2**0
                  CONTENTS, ALLOC, LOAD, DATA
  2 .bss          00000000  00000000  00000000  00000034  2**0
                  ALLOC
  3 .text.pulseIn 0000010c  00000000  00000000  00000034  2**0
                  CONTENTS, ALLOC, LOAD, RELOC, READONLY, CODE

Disassembly of section .text.pulseIn:

00000000 <pulseIn>:
   0:	cf 92       	push	r12
   2:	df 92       	push	r13
   4:	ef 92       	push	r14
   6:	ff 92       	push	r15
   8:	0f 93       	push	r16
   a:	1f 93       	push	r17
   c:	cf 93       	push	r28
   e:	df 93       	push	r29
  10:	90 e0       	ldi	r25, 0x00	; 0
  12:	fc 01       	movw	r30, r24
  14:	e0 50       	subi	r30, 0x00	; 0
  16:	f0 40       	sbci	r31, 0x00	; 0
  18:	e4 90       	lpm	r14, Z+
  1a:	80 50       	subi	r24, 0x00	; 0
  1c:	90 40       	sbci	r25, 0x00	; 0
  1e:	fc 01       	movw	r30, r24
  20:	84 91       	lpm	r24, Z+
  22:	66 23       	and	r22, r22
  24:	01 f4       	brne	.+0      	; 0x26 <pulseIn+0x26>
  26:	ff 24       	eor	r15, r15
  28:	00 c0       	rjmp	.+0      	; 0x2a <pulseIn+0x2a>
  2a:	fe 2c       	mov	r15, r14
  2c:	89 01       	movw	r16, r18
  2e:	9a 01       	movw	r18, r20
  30:	3f 70       	andi	r19, 0x0F	; 15
  32:	40 e0       	ldi	r20, 0x00	; 0
  34:	50 e0       	ldi	r21, 0x00	; 0
  36:	ba 01       	movw	r22, r20
  38:	90 e0       	ldi	r25, 0x00	; 0
  3a:	fc 01       	movw	r30, r24
  3c:	ee 0f       	add	r30, r30
  3e:	ff 1f       	adc	r31, r31
  40:	e0 50       	subi	r30, 0x00	; 0
  42:	f0 40       	sbci	r31, 0x00	; 0
  44:	a5 91       	lpm	r26, Z+
  46:	b4 91       	lpm	r27, Z+
  48:	00 c0       	rjmp	.+0      	; 0x4a <pulseIn+0x4a>
  4a:	40 17       	cp	r20, r16
  4c:	51 07       	cpc	r21, r17
  4e:	62 07       	cpc	r22, r18
  50:	73 07       	cpc	r23, r19
  52:	01 f4       	brne	.+0      	; 0x54 <pulseIn+0x54>
  54:	00 c0       	rjmp	.+0      	; 0x56 <pulseIn+0x56>
  56:	4f 5f       	subi	r20, 0xFF	; 255
  58:	5f 4f       	sbci	r21, 0xFF	; 255
  5a:	6f 4f       	sbci	r22, 0xFF	; 255
  5c:	7f 4f       	sbci	r23, 0xFF	; 255
  5e:	ca 2e       	mov	r12, r26
  60:	e6 01       	movw	r28, r12
  62:	6e 01       	movw	r12, r28
  64:	db 2e       	mov	r13, r27
  66:	e6 01       	movw	r28, r12
  68:	e8 81       	ld	r30, Y
  6a:	ee 21       	and	r30, r14
  6c:	ef 15       	cp	r30, r15
  6e:	01 f0       	breq	.+0      	; 0x70 <pulseIn+0x70>
  70:	00 c0       	rjmp	.+0      	; 0x72 <pulseIn+0x72>
  72:	40 17       	cp	r20, r16
  74:	51 07       	cpc	r21, r17
  76:	62 07       	cpc	r22, r18
  78:	73 07       	cpc	r23, r19
  7a:	01 f4       	brne	.+0      	; 0x7c <pulseIn+0x7c>
  7c:	00 c0       	rjmp	.+0      	; 0x7e <pulseIn+0x7e>
  7e:	4f 5f       	subi	r20, 0xFF	; 255
  80:	5f 4f       	sbci	r21, 0xFF	; 255
  82:	6f 4f       	sbci	r22, 0xFF	; 255
  84:	7f 4f       	sbci	r23, 0xFF	; 255
  86:	00 c0       	rjmp	.+0      	; 0x88 <pulseIn+0x88>
  88:	88 0f       	add	r24, r24
  8a:	99 1f       	adc	r25, r25
  8c:	80 50       	subi	r24, 0x00	; 0
  8e:	90 40       	sbci	r25, 0x00	; 0
  90:	fc 01       	movw	r30, r24
  92:	c5 91       	lpm	r28, Z+
  94:	d4 91       	lpm	r29, Z+
  96:	6e 01       	movw	r12, r28
  98:	ac 2f       	mov	r26, r28
  9a:	bd 2d       	mov	r27, r13
  9c:	ec 91       	ld	r30, X
  9e:	ee 21       	and	r30, r14
  a0:	ef 15       	cp	r30, r15
  a2:	01 f4       	brne	.+0      	; 0xa4 <pulseIn+0xa4>
  a4:	20 e0       	ldi	r18, 0x00	; 0
  a6:	30 e0       	ldi	r19, 0x00	; 0
  a8:	a9 01       	movw	r20, r18
  aa:	fc 01       	movw	r30, r24
  ac:	65 91       	lpm	r22, Z+
  ae:	74 91       	lpm	r23, Z+
  b0:	00 c0       	rjmp	.+0      	; 0xb2 <pulseIn+0xb2>
  b2:	2f 5f       	subi	r18, 0xFF	; 255
  b4:	3f 4f       	sbci	r19, 0xFF	; 255
  b6:	4f 4f       	sbci	r20, 0xFF	; 255
  b8:	5f 4f       	sbci	r21, 0xFF	; 255
  ba:	fb 01       	movw	r30, r22
  bc:	80 81       	ld	r24, Z
  be:	8e 21       	and	r24, r14
  c0:	8f 15       	cp	r24, r15
  c2:	01 f0       	breq	.+0      	; 0xc4 <pulseIn+0xc4>
  c4:	ca 01       	movw	r24, r20
  c6:	b9 01       	movw	r22, r18
  c8:	2a e0       	ldi	r18, 0x0A	; 10
  ca:	30 e0       	ldi	r19, 0x00	; 0
  cc:	40 e0       	ldi	r20, 0x00	; 0
  ce:	50 e0       	ldi	r21, 0x00	; 0
  d0:	0e 94 00 00 	call	0	; 0x0 <pulseIn>
  d4:	9b 01       	movw	r18, r22
  d6:	ac 01       	movw	r20, r24
  d8:	20 5f       	subi	r18, 0xF0	; 240
  da:	3f 4f       	sbci	r19, 0xFF	; 255
  dc:	4f 4f       	sbci	r20, 0xFF	; 255
  de:	5f 4f       	sbci	r21, 0xFF	; 255
  e0:	84 e0       	ldi	r24, 0x04	; 4
  e2:	56 95       	lsr	r21
  e4:	47 95       	ror	r20
  e6:	37 95       	ror	r19
  e8:	27 95       	ror	r18
  ea:	8a 95       	dec	r24
  ec:	01 f4       	brne	.+0      	; 0xee <pulseIn+0xee>
  ee:	00 c0       	rjmp	.+0      	; 0xf0 <pulseIn+0xf0>
  f0:	20 e0       	ldi	r18, 0x00	; 0
  f2:	30 e0       	ldi	r19, 0x00	; 0
  f4:	a9 01       	movw	r20, r18
  f6:	b9 01       	movw	r22, r18
  f8:	ca 01       	movw	r24, r20
  fa:	df 91       	pop	r29
  fc:	cf 91       	pop	r28
  fe:	1f 91       	pop	r17
 100:	0f 91       	pop	r16
 102:	ff 90       	pop	r15
 104:	ef 90       	pop	r14
 106:	df 90       	pop	r13
 108:	cf 90       	pop	r12
 10a:	08 95       	ret

wiring_shift.o:     file format elf32-avr

Sections:
Idx Name          Size      VMA       LMA       File off  Algn
  0 .text         00000000  00000000  00000000  00000034  2**0
                  CONTENTS, ALLOC, LOAD, READONLY, CODE
  1 .data         00000000  00000000  00000000  00000034  2**0
                  CONTENTS, ALLOC, LOAD, DATA
  2 .bss          00000000  00000000  00000000  00000034  2**0
                  ALLOC
  3 .text.shiftIn 00000084  00000000  00000000  00000034  2**0
                  CONTENTS, ALLOC, LOAD, RELOC, READONLY, CODE
  4 .text.shiftOut 00000086  00000000  00000000  000000b8  2**0
                  CONTENTS, ALLOC, LOAD, RELOC, READONLY, CODE

Disassembly of section .text.shiftIn:

00000000 <shiftIn>:
   0:	cf 92       	push	r12
   2:	df 92       	push	r13
   4:	ef 92       	push	r14
   6:	ff 92       	push	r15
   8:	0f 93       	push	r16
   a:	1f 93       	push	r17
   c:	cf 93       	push	r28
   e:	df 93       	push	r29
  10:	e8 2e       	mov	r14, r24
  12:	f6 2e       	mov	r15, r22
  14:	c4 2e       	mov	r12, r20
  16:	c7 e0       	ldi	r28, 0x07	; 7
  18:	d0 e0       	ldi	r29, 0x00	; 0
  1a:	dd 24       	eor	r13, r13
  1c:	07 e0       	ldi	r16, 0x07	; 7
  1e:	10 e0       	ldi	r17, 0x00	; 0
  20:	8f 2d       	mov	r24, r15
  22:	61 e0       	ldi	r22, 0x01	; 1
  24:	0e 94 00 00 	call	0	; 0x0 <shiftIn>
  28:	cc 20       	and	r12, r12
  2a:	01 f4       	brne	.+0      	; 0x2c <shiftIn+0x2c>
  2c:	8e 2d       	mov	r24, r14
  2e:	0e 94 00 00 	call	0	; 0x0 <shiftIn>
  32:	98 01       	movw	r18, r16
  34:	2c 1b       	sub	r18, r28
  36:	3d 0b       	sbc	r19, r29
  38:	ac 01       	movw	r20, r24
  3a:	00 c0       	rjmp	.+0      	; 0x3c <shiftIn+0x3c>
  3c:	44 0f       	add	r20, r20
  3e:	55 1f       	adc	r21, r21
  40:	2a 95       	dec	r18
  42:	02 f4       	brpl	.+0      	; 0x44 <shiftIn+0x44>
  44:	9a 01       	movw	r18, r20
  46:	00 c0       	rjmp	.+0      	; 0x48 <shiftIn+0x48>
  48:	8e 2d       	mov	r24, r14
  4a:	0e 94 00 00 	call	0	; 0x0 <shiftIn>
  4e:	9c 01       	movw	r18, r24
  50:	0c 2e       	mov	r0, r28
  52:	00 c0       	rjmp	.+0      	; 0x54 <shiftIn+0x54>
  54:	22 0f       	add	r18, r18
  56:	33 1f       	adc	r19, r19
  58:	0a 94       	dec	r0
  5a:	02 f4       	brpl	.+0      	; 0x5c <shiftIn+0x5c>
  5c:	d2 2a       	or	r13, r18
  5e:	8f 2d       	mov	r24, r15
  60:	60 e0       	ldi	r22, 0x00	; 0
  62:	0e 94 00 00 	call	0	; 0x0 <shiftIn>
  66:	21 97       	sbiw	r28, 0x01	; 1
  68:	5f ef       	ldi	r21, 0xFF	; 255
  6a:	cf 3f       	cpi	r28, 0xFF	; 255
  6c:	d5 07       	cpc	r29, r21
  6e:	01 f4       	brne	.+0      	; 0x70 <shiftIn+0x70>
  70:	8d 2d       	mov	r24, r13
  72:	df 91       	pop	r29
  74:	cf 91       	pop	r28
  76:	1f 91       	pop	r17
  78:	0f 91       	pop	r16
  7a:	ff 90       	pop	r15
  7c:	ef 90       	pop	r14
  7e:	df 90       	pop	r13
  80:	cf 90       	pop	r12
  82:	08 95       	ret

Disassembly of section .text.shiftOut:

00000000 <shiftOut>:
   0:	bf 92       	push	r11
   2:	cf 92       	push	r12
   4:	df 92       	push	r13
   6:	ef 92       	push	r14
   8:	ff 92       	push	r15
   a:	0f 93       	push	r16
   c:	1f 93       	push	r17
   e:	cf 93       	push	r28
  10:	df 93       	push	r29
  12:	c8 2e       	mov	r12, r24
  14:	d6 2e       	mov	r13, r22
  16:	b4 2e       	mov	r11, r20
  18:	c7 e0       	ldi	r28, 0x07	; 7
  1a:	d0 e0       	ldi	r29, 0x00	; 0
  1c:	02 2f       	mov	r16, r18
  1e:	10 e0       	ldi	r17, 0x00	; 0
  20:	87 e0       	ldi	r24, 0x07	; 7
  22:	e8 2e       	mov	r14, r24
  24:	f1 2c       	mov	r15, r1
  26:	bb 20       	and	r11, r11
  28:	01 f4       	brne	.+0      	; 0x2a <shiftOut+0x2a>
  2a:	97 01       	movw	r18, r14
  2c:	2c 1b       	sub	r18, r28
  2e:	3d 0b       	sbc	r19, r29
  30:	c8 01       	movw	r24, r16
  32:	00 c0       	rjmp	.+0      	; 0x34 <shiftOut+0x34>
  34:	95 95       	asr	r25
  36:	87 95       	ror	r24
  38:	2a 95       	dec	r18
  3a:	02 f4       	brpl	.+0      	; 0x3c <shiftOut+0x3c>
  3c:	9c 01       	movw	r18, r24
  3e:	00 c0       	rjmp	.+0      	; 0x40 <shiftOut+0x40>
  40:	98 01       	movw	r18, r16
  42:	0c 2e       	mov	r0, r28
  44:	00 c0       	rjmp	.+0      	; 0x46 <shiftOut+0x46>
  46:	35 95       	asr	r19
  48:	27 95       	ror	r18
  4a:	0a 94       	dec	r0
  4c:	02 f4       	brpl	.+0      	; 0x4e <shiftOut+0x4e>
  4e:	62 2f       	mov	r22, r18
  50:	61 70       	andi	r22, 0x01	; 1
  52:	8c 2d       	mov	r24, r12
  54:	0e 94 00 00 	call	0	; 0x0 <shiftOut>
  58:	8d 2d       	mov	r24, r13
  5a:	61 e0       	ldi	r22, 0x01	; 1
  5c:	0e 94 00 00 	call	0	; 0x0 <shiftOut>
  60:	8d 2d       	mov	r24, r13
  62:	60 e0       	ldi	r22, 0x00	; 0
  64:	0e 94 00 00 	call	0	; 0x0 <shiftOut>
  68:	21 97       	sbiw	r28, 0x01	; 1
  6a:	9f ef       	ldi	r25, 0xFF	; 255
  6c:	cf 3f       	cpi	r28, 0xFF	; 255
  6e:	d9 07       	cpc	r29, r25
  70:	01 f4       	brne	.+0      	; 0x72 <shiftOut+0x72>
  72:	df 91       	pop	r29
  74:	cf 91       	pop	r28
  76:	1f 91       	pop	r17
  78:	0f 91       	pop	r16
  7a:	ff 90       	pop	r15
  7c:	ef 90       	pop	r14
  7e:	df 90       	pop	r13
  80:	cf 90       	pop	r12
  82:	bf 90       	pop	r11
  84:	08 95       	ret

twi.o:     file format elf32-avr

Sections:
Idx Name          Size      VMA       LMA       File off  Algn
  0 .text         00000000  00000000  00000000  00000034  2**0
                  CONTENTS, ALLOC, LOAD, READONLY, CODE
  1 .data         00000000  00000000  00000000  00000034  2**0
                  CONTENTS, ALLOC, LOAD, DATA
  2 .bss          00000000  00000000  00000000  00000034  2**0
                  ALLOC
  3 .text.twi_init 00000026  00000000  00000000  00000034  2**0
                  CONTENTS, ALLOC, LOAD, RELOC, READONLY, CODE
  4 .text.twi_setAddress 00000008  00000000  00000000  0000005a  2**0
                  CONTENTS, ALLOC, LOAD, READONLY, CODE
  5 .text.twi_readFrom 0000006c  00000000  00000000  00000062  2**0
                  CONTENTS, ALLOC, LOAD, RELOC, READONLY, CODE
  6 .text.twi_writeTo 00000080  00000000  00000000  000000ce  2**0
                  CONTENTS, ALLOC, LOAD, RELOC, READONLY, CODE
  7 .text.twi_transmit 00000034  00000000  00000000  0000014e  2**0
                  CONTENTS, ALLOC, LOAD, RELOC, READONLY, CODE
  8 .text.twi_attachSlaveRxEvent 0000000a  00000000  00000000  00000182  2**0
                  CONTENTS, ALLOC, LOAD, RELOC, READONLY, CODE
  9 .text.twi_attachSlaveTxEvent 0000000a  00000000  00000000  0000018c  2**0
                  CONTENTS, ALLOC, LOAD, RELOC, READONLY, CODE
 10 .text.twi_reply 00000010  00000000  00000000  00000196  2**0
                  CONTENTS, ALLOC, LOAD, RELOC, READONLY, CODE
 11 .text.twi_stop 00000014  00000000  00000000  000001a6  2**0
                  CONTENTS, ALLOC, LOAD, RELOC, READONLY, CODE
 12 .text.twi_releaseBus 0000000c  00000000  00000000  000001ba  2**0
                  CONTENTS, ALLOC, LOAD, RELOC, READONLY, CODE
 13 .text.__vector_39 000002b4  00000000  00000000  000001c6  2**0
                  CONTENTS, ALLOC, LOAD, RELOC, READONLY, CODE
 14 .bss.twi_slarw 00000001  00000000  00000000  0000047a  2**0
                  ALLOC
 15 .bss.twi_masterBufferIndex 00000001  00000000  00000000  0000047a  2**0
                  ALLOC
 16 .bss.twi_masterBufferLength 00000001  00000000  00000000  0000047a  2**0
                  ALLOC
 17 .bss.twi_masterBuffer 00000020  00000000  00000000  0000047a  2**0
                  ALLOC
 18 .bss.twi_error 00000001  00000000  00000000  0000047a  2**0
                  ALLOC
 19 .bss.twi_state 00000001  00000000  00000000  0000047a  2**0
                  ALLOC
 20 .bss.twi_rxBufferIndex 00000001  00000000  00000000  0000047a  2**0
                  ALLOC
 21 .bss.twi_rxBuffer 00000020  00000000  00000000  0000047a  2**0
                  ALLOC
 22 .bss.twi_onSlaveReceive 00000002  00000000  00000000  0000047a  2**0
                  ALLOC
 23 .bss.twi_txBufferIndex 00000001  00000000  00000000  0000047a  2**0
                  ALLOC
 24 .bss.twi_txBufferLength 00000001  00000000  00000000  0000047a  2**0
                  ALLOC
 25 .bss.twi_onSlaveTransmit 00000002  00000000  00000000  0000047a  2**0
                  ALLOC
 26 .bss.twi_txBuffer 00000020  00000000  00000000  0000047a  2**0
                  ALLOC

Disassembly of section .text.twi_init:

00000000 <twi_init>:
   0:	10 92 00 00 	sts	0x0000, r1
   4:	58 9a       	sbi	0x0b, 0	; 11
   6:	59 9a       	sbi	0x0b, 1	; 11
   8:	e9 eb       	ldi	r30, 0xB9	; 185
   a:	f0 e0       	ldi	r31, 0x00	; 0
   c:	80 81       	ld	r24, Z
   e:	8e 7f       	andi	r24, 0xFE	; 254
  10:	80 83       	st	Z, r24
  12:	80 81       	ld	r24, Z
  14:	8d 7f       	andi	r24, 0xFD	; 253
  16:	80 83       	st	Z, r24
  18:	88 e4       	ldi	r24, 0x48	; 72
  1a:	80 93 b8 00 	sts	0x00B8, r24
  1e:	85 e4       	ldi	r24, 0x45	; 69
  20:	80 93 bc 00 	sts	0x00BC, r24
  24:	08 95       	ret

Disassembly of section .text.twi_setAddress:

00000000 <twi_setAddress>:
   0:	88 0f       	add	r24, r24
   2:	80 93 ba 00 	sts	0x00BA, r24
   6:	08 95       	ret

Disassembly of section .text.twi_readFrom:

00000000 <twi_readFrom>:
   0:	41 32       	cpi	r20, 0x21	; 33
   2:	00 f4       	brcc	.+0      	; 0x4 <twi_readFrom+0x4>
   4:	90 91 00 00 	lds	r25, 0x0000
   8:	99 23       	and	r25, r25
   a:	01 f4       	brne	.+0      	; 0xc <twi_readFrom+0xc>
   c:	91 e0       	ldi	r25, 0x01	; 1
   e:	90 93 00 00 	sts	0x0000, r25
  12:	9f ef       	ldi	r25, 0xFF	; 255
  14:	90 93 00 00 	sts	0x0000, r25
  18:	10 92 00 00 	sts	0x0000, r1
  1c:	94 2f       	mov	r25, r20
  1e:	91 50       	subi	r25, 0x01	; 1
  20:	90 93 00 00 	sts	0x0000, r25
  24:	88 0f       	add	r24, r24
  26:	81 60       	ori	r24, 0x01	; 1
  28:	80 93 00 00 	sts	0x0000, r24
  2c:	85 ee       	ldi	r24, 0xE5	; 229
  2e:	80 93 bc 00 	sts	0x00BC, r24
  32:	80 91 00 00 	lds	r24, 0x0000
  36:	81 30       	cpi	r24, 0x01	; 1
  38:	01 f0       	breq	.+0      	; 0x3a <twi_readFrom+0x3a>
  3a:	80 91 00 00 	lds	r24, 0x0000
  3e:	84 17       	cp	r24, r20
  40:	00 f4       	brcc	.+0      	; 0x42 <twi_readFrom+0x42>
  42:	40 91 00 00 	lds	r20, 0x0000
  46:	e0 e0       	ldi	r30, 0x00	; 0
  48:	f0 e0       	ldi	r31, 0x00	; 0
  4a:	26 2f       	mov	r18, r22
  4c:	37 2f       	mov	r19, r23
  4e:	d9 01       	movw	r26, r18
  50:	24 2f       	mov	r18, r20
  52:	30 e0       	ldi	r19, 0x00	; 0
  54:	2e 0f       	add	r18, r30
  56:	3f 1f       	adc	r19, r31
  58:	00 c0       	rjmp	.+0      	; 0x5a <twi_readFrom+0x5a>
  5a:	81 91       	ld	r24, Z+
  5c:	8d 93       	st	X+, r24
  5e:	e2 17       	cp	r30, r18
  60:	f3 07       	cpc	r31, r19
  62:	01 f4       	brne	.+0      	; 0x64 <twi_readFrom+0x64>
  64:	00 c0       	rjmp	.+0      	; 0x66 <twi_readFrom+0x66>
  66:	40 e0       	ldi	r20, 0x00	; 0
  68:	84 2f       	mov	r24, r20
  6a:	08 95       	ret

Disassembly of section .text.twi_writeTo:

00000000 <twi_writeTo>:
   0:	41 32       	cpi	r20, 0x21	; 33
   2:	00 f4       	brcc	.+0      	; 0x4 <twi_writeTo+0x4>
   4:	90 91 00 00 	lds	r25, 0x0000
   8:	99 23       	and	r25, r25
   a:	01 f4       	brne	.+0      	; 0xc <twi_writeTo+0xc>
   c:	92 e0       	ldi	r25, 0x02	; 2
   e:	90 93 00 00 	sts	0x0000, r25
  12:	9f ef       	ldi	r25, 0xFF	; 255
  14:	90 93 00 00 	sts	0x0000, r25
  18:	10 92 00 00 	sts	0x0000, r1
  1c:	40 93 00 00 	sts	0x0000, r20
  20:	db 01       	movw	r26, r22
  22:	e0 e0       	ldi	r30, 0x00	; 0
  24:	f0 e0       	ldi	r31, 0x00	; 0
  26:	50 e0       	ldi	r21, 0x00	; 0
  28:	4e 0f       	add	r20, r30
  2a:	5f 1f       	adc	r21, r31
  2c:	00 c0       	rjmp	.+0      	; 0x2e <twi_writeTo+0x2e>
  2e:	9d 91       	ld	r25, X+
  30:	91 93       	st	Z+, r25
  32:	e4 17       	cp	r30, r20
  34:	f5 07       	cpc	r31, r21
  36:	01 f4       	brne	.+0      	; 0x38 <twi_writeTo+0x38>
  38:	90 e0       	ldi	r25, 0x00	; 0
  3a:	88 0f       	add	r24, r24
  3c:	99 1f       	adc	r25, r25
  3e:	80 93 00 00 	sts	0x0000, r24
  42:	85 ee       	ldi	r24, 0xE5	; 229
  44:	80 93 bc 00 	sts	0x00BC, r24
  48:	22 23       	and	r18, r18
  4a:	01 f0       	breq	.+0      	; 0x4c <twi_writeTo+0x4c>
  4c:	80 91 00 00 	lds	r24, 0x0000
  50:	82 30       	cpi	r24, 0x02	; 2
  52:	01 f0       	breq	.+0      	; 0x54 <twi_writeTo+0x54>
  54:	80 91 00 00 	lds	r24, 0x0000
  58:	8f 3f       	cpi	r24, 0xFF	; 255
  5a:	01 f0       	breq	.+0      	; 0x5c <twi_writeTo+0x5c>
  5c:	80 91 00 00 	lds	r24, 0x0000
  60:	80 32       	cpi	r24, 0x20	; 32
  62:	01 f0       	breq	.+0      	; 0x64 <twi_writeTo+0x64>
  64:	80 91 00 00 	lds	r24, 0x0000
  68:	80 33       	cpi	r24, 0x30	; 48
  6a:	01 f4       	brne	.+0      	; 0x6c <twi_writeTo+0x6c>
  6c:	83 e0       	ldi	r24, 0x03	; 3
  6e:	08 95       	ret
  70:	81 e0       	ldi	r24, 0x01	; 1
  72:	08 95       	ret
  74:	80 e0       	ldi	r24, 0x00	; 0
  76:	08 95       	ret
  78:	82 e0       	ldi	r24, 0x02	; 2
  7a:	08 95       	ret
  7c:	84 e0       	ldi	r24, 0x04	; 4
  7e:	08 95       	ret

Disassembly of section .text.twi_transmit:

00000000 <twi_transmit>:
   0:	61 32       	cpi	r22, 0x21	; 33
   2:	00 f4       	brcc	.+0      	; 0x4 <twi_transmit+0x4>
   4:	20 91 00 00 	lds	r18, 0x0000
   8:	24 30       	cpi	r18, 0x04	; 4
   a:	01 f4       	brne	.+0      	; 0xc <twi_transmit+0xc>
   c:	60 93 00 00 	sts	0x0000, r22
  10:	dc 01       	movw	r26, r24
  12:	e0 e0       	ldi	r30, 0x00	; 0
  14:	f0 e0       	ldi	r31, 0x00	; 0
  16:	70 e0       	ldi	r23, 0x00	; 0
  18:	6e 0f       	add	r22, r30
  1a:	7f 1f       	adc	r23, r31
  1c:	00 c0       	rjmp	.+0      	; 0x1e <twi_transmit+0x1e>
  1e:	8d 91       	ld	r24, X+
  20:	81 93       	st	Z+, r24
  22:	e6 17       	cp	r30, r22
  24:	f7 07       	cpc	r31, r23
  26:	01 f4       	brne	.+0      	; 0x28 <twi_transmit+0x28>
  28:	80 e0       	ldi	r24, 0x00	; 0
  2a:	08 95       	ret
  2c:	81 e0       	ldi	r24, 0x01	; 1
  2e:	08 95       	ret
  30:	82 e0       	ldi	r24, 0x02	; 2
  32:	08 95       	ret

Disassembly of section .text.twi_attachSlaveRxEvent:

00000000 <twi_attachSlaveRxEvent>:
   0:	90 93 00 00 	sts	0x0000, r25
   4:	80 93 00 00 	sts	0x0000, r24
   8:	08 95       	ret

Disassembly of section .text.twi_attachSlaveTxEvent:

00000000 <twi_attachSlaveTxEvent>:
   0:	90 93 00 00 	sts	0x0000, r25
   4:	80 93 00 00 	sts	0x0000, r24
   8:	08 95       	ret

Disassembly of section .text.twi_reply:

00000000 <twi_reply>:
   0:	88 23       	and	r24, r24
   2:	01 f0       	breq	.+0      	; 0x4 <twi_reply+0x4>
   4:	85 ec       	ldi	r24, 0xC5	; 197
   6:	00 c0       	rjmp	.+0      	; 0x8 <twi_reply+0x8>
   8:	85 e8       	ldi	r24, 0x85	; 133
   a:	80 93 bc 00 	sts	0x00BC, r24
   e:	08 95       	ret

Disassembly of section .text.twi_stop:

00000000 <twi_stop>:
   0:	85 ed       	ldi	r24, 0xD5	; 213
   2:	80 93 bc 00 	sts	0x00BC, r24
   6:	80 91 bc 00 	lds	r24, 0x00BC
   a:	84 fd       	sbrc	r24, 4
   c:	00 c0       	rjmp	.+0      	; 0xe <twi_stop+0xe>
   e:	10 92 00 00 	sts	0x0000, r1
  12:	08 95       	ret

Disassembly of section .text.twi_releaseBus:

00000000 <twi_releaseBus>:
   0:	85 ec       	ldi	r24, 0xC5	; 197
   2:	80 93 bc 00 	sts	0x00BC, r24
   6:	10 92 00 00 	sts	0x0000, r1
   a:	08 95       	ret

Disassembly of section .text.__vector_39:

00000000 <__vector_39>:
   0:	1f 92       	push	r1
   2:	0f 92       	push	r0
   4:	0f b6       	in	r0, 0x3f	; 63
   6:	0f 92       	push	r0
   8:	0b b6       	in	r0, 0x3b	; 59
   a:	0f 92       	push	r0
   c:	11 24       	eor	r1, r1
   e:	2f 93       	push	r18
  10:	3f 93       	push	r19
  12:	4f 93       	push	r20
  14:	5f 93       	push	r21
  16:	6f 93       	push	r22
  18:	7f 93       	push	r23
  1a:	8f 93       	push	r24
  1c:	9f 93       	push	r25
  1e:	af 93       	push	r26
  20:	bf 93       	push	r27
  22:	ef 93       	push	r30
  24:	ff 93       	push	r31
  26:	80 91 b9 00 	lds	r24, 0x00B9
  2a:	90 e0       	ldi	r25, 0x00	; 0
  2c:	88 7f       	andi	r24, 0xF8	; 248
  2e:	90 70       	andi	r25, 0x00	; 0
  30:	80 36       	cpi	r24, 0x60	; 96
  32:	91 05       	cpc	r25, r1
  34:	01 f4       	brne	.+0      	; 0x36 <__vector_39+0x36>
  36:	00 c0       	rjmp	.+0      	; 0x38 <__vector_39+0x38>
  38:	81 36       	cpi	r24, 0x61	; 97
  3a:	91 05       	cpc	r25, r1
  3c:	04 f4       	brge	.+0      	; 0x3e <__vector_39+0x3e>
  3e:	88 32       	cpi	r24, 0x28	; 40
  40:	91 05       	cpc	r25, r1
  42:	01 f4       	brne	.+0      	; 0x44 <__vector_39+0x44>
  44:	00 c0       	rjmp	.+0      	; 0x46 <__vector_39+0x46>
  46:	89 32       	cpi	r24, 0x29	; 41
  48:	91 05       	cpc	r25, r1
  4a:	04 f4       	brge	.+0      	; 0x4c <__vector_39+0x4c>
  4c:	80 31       	cpi	r24, 0x10	; 16
  4e:	91 05       	cpc	r25, r1
  50:	01 f4       	brne	.+0      	; 0x52 <__vector_39+0x52>
  52:	00 c0       	rjmp	.+0      	; 0x54 <__vector_39+0x54>
  54:	81 31       	cpi	r24, 0x11	; 17
  56:	91 05       	cpc	r25, r1
  58:	04 f4       	brge	.+0      	; 0x5a <__vector_39+0x5a>
  5a:	00 97       	sbiw	r24, 0x00	; 0
  5c:	01 f4       	brne	.+0      	; 0x5e <__vector_39+0x5e>
  5e:	00 c0       	rjmp	.+0      	; 0x60 <__vector_39+0x60>
  60:	88 30       	cpi	r24, 0x08	; 8
  62:	91 05       	cpc	r25, r1
  64:	01 f0       	breq	.+0      	; 0x66 <__vector_39+0x66>
  66:	00 c0       	rjmp	.+0      	; 0x68 <__vector_39+0x68>
  68:	00 c0       	rjmp	.+0      	; 0x6a <__vector_39+0x6a>
  6a:	88 31       	cpi	r24, 0x18	; 24
  6c:	91 05       	cpc	r25, r1
  6e:	01 f4       	brne	.+0      	; 0x70 <__vector_39+0x70>
  70:	00 c0       	rjmp	.+0      	; 0x72 <__vector_39+0x72>
  72:	80 32       	cpi	r24, 0x20	; 32
  74:	91 05       	cpc	r25, r1
  76:	01 f0       	breq	.+0      	; 0x78 <__vector_39+0x78>
  78:	00 c0       	rjmp	.+0      	; 0x7a <__vector_39+0x7a>
  7a:	00 c0       	rjmp	.+0      	; 0x7c <__vector_39+0x7c>
  7c:	80 34       	cpi	r24, 0x40	; 64
  7e:	91 05       	cpc	r25, r1
  80:	01 f4       	brne	.+0      	; 0x82 <__vector_39+0x82>
  82:	00 c0       	rjmp	.+0      	; 0x84 <__vector_39+0x84>
  84:	81 34       	cpi	r24, 0x41	; 65
  86:	91 05       	cpc	r25, r1
  88:	04 f4       	brge	.+0      	; 0x8a <__vector_39+0x8a>
  8a:	80 33       	cpi	r24, 0x30	; 48
  8c:	91 05       	cpc	r25, r1
  8e:	01 f4       	brne	.+0      	; 0x90 <__vector_39+0x90>
  90:	00 c0       	rjmp	.+0      	; 0x92 <__vector_39+0x92>
  92:	88 33       	cpi	r24, 0x38	; 56
  94:	91 05       	cpc	r25, r1
  96:	01 f0       	breq	.+0      	; 0x98 <__vector_39+0x98>
  98:	00 c0       	rjmp	.+0      	; 0x9a <__vector_39+0x9a>
  9a:	00 c0       	rjmp	.+0      	; 0x9c <__vector_39+0x9c>
  9c:	80 35       	cpi	r24, 0x50	; 80
  9e:	91 05       	cpc	r25, r1
  a0:	01 f4       	brne	.+0      	; 0xa2 <__vector_39+0xa2>
  a2:	00 c0       	rjmp	.+0      	; 0xa4 <__vector_39+0xa4>
  a4:	88 35       	cpi	r24, 0x58	; 88
  a6:	91 05       	cpc	r25, r1
  a8:	01 f4       	brne	.+0      	; 0xaa <__vector_39+0xaa>
  aa:	00 c0       	rjmp	.+0      	; 0xac <__vector_39+0xac>
  ac:	88 34       	cpi	r24, 0x48	; 72
  ae:	91 05       	cpc	r25, r1
  b0:	01 f0       	breq	.+0      	; 0xb2 <__vector_39+0xb2>
  b2:	00 c0       	rjmp	.+0      	; 0xb4 <__vector_39+0xb4>
  b4:	00 c0       	rjmp	.+0      	; 0xb6 <__vector_39+0xb6>
  b6:	88 39       	cpi	r24, 0x98	; 152
  b8:	91 05       	cpc	r25, r1
  ba:	01 f4       	brne	.+0      	; 0xbc <__vector_39+0xbc>
  bc:	00 c0       	rjmp	.+0      	; 0xbe <__vector_39+0xbe>
  be:	89 39       	cpi	r24, 0x99	; 153
  c0:	91 05       	cpc	r25, r1
  c2:	04 f4       	brge	.+0      	; 0xc4 <__vector_39+0xc4>
  c4:	88 37       	cpi	r24, 0x78	; 120
  c6:	91 05       	cpc	r25, r1
  c8:	01 f4       	brne	.+0      	; 0xca <__vector_39+0xca>
  ca:	00 c0       	rjmp	.+0      	; 0xcc <__vector_39+0xcc>
  cc:	89 37       	cpi	r24, 0x79	; 121
  ce:	91 05       	cpc	r25, r1
  d0:	04 f4       	brge	.+0      	; 0xd2 <__vector_39+0xd2>
  d2:	88 36       	cpi	r24, 0x68	; 104
  d4:	91 05       	cpc	r25, r1
  d6:	01 f4       	brne	.+0      	; 0xd8 <__vector_39+0xd8>
  d8:	00 c0       	rjmp	.+0      	; 0xda <__vector_39+0xda>
  da:	80 37       	cpi	r24, 0x70	; 112
  dc:	91 05       	cpc	r25, r1
  de:	01 f0       	breq	.+0      	; 0xe0 <__vector_39+0xe0>
  e0:	00 c0       	rjmp	.+0      	; 0xe2 <__vector_39+0xe2>
  e2:	00 c0       	rjmp	.+0      	; 0xe4 <__vector_39+0xe4>
  e4:	88 38       	cpi	r24, 0x88	; 136
  e6:	91 05       	cpc	r25, r1
  e8:	01 f4       	brne	.+0      	; 0xea <__vector_39+0xea>
  ea:	00 c0       	rjmp	.+0      	; 0xec <__vector_39+0xec>
  ec:	80 39       	cpi	r24, 0x90	; 144
  ee:	91 05       	cpc	r25, r1
  f0:	01 f4       	brne	.+0      	; 0xf2 <__vector_39+0xf2>
  f2:	00 c0       	rjmp	.+0      	; 0xf4 <__vector_39+0xf4>
  f4:	80 38       	cpi	r24, 0x80	; 128
  f6:	91 05       	cpc	r25, r1
  f8:	01 f0       	breq	.+0      	; 0xfa <__vector_39+0xfa>
  fa:	00 c0       	rjmp	.+0      	; 0xfc <__vector_39+0xfc>
  fc:	00 c0       	rjmp	.+0      	; 0xfe <__vector_39+0xfe>
  fe:	80 3b       	cpi	r24, 0xB0	; 176
 100:	91 05       	cpc	r25, r1
 102:	01 f4       	brne	.+0      	; 0x104 <__vector_39+0x104>
 104:	00 c0       	rjmp	.+0      	; 0x106 <__vector_39+0x106>
 106:	81 3b       	cpi	r24, 0xB1	; 177
 108:	91 05       	cpc	r25, r1
 10a:	04 f4       	brge	.+0      	; 0x10c <__vector_39+0x10c>
 10c:	80 3a       	cpi	r24, 0xA0	; 160
 10e:	91 05       	cpc	r25, r1
 110:	01 f4       	brne	.+0      	; 0x112 <__vector_39+0x112>
 112:	00 c0       	rjmp	.+0      	; 0x114 <__vector_39+0x114>
 114:	88 3a       	cpi	r24, 0xA8	; 168
 116:	91 05       	cpc	r25, r1
 118:	01 f0       	breq	.+0      	; 0x11a <__vector_39+0x11a>
 11a:	00 c0       	rjmp	.+0      	; 0x11c <__vector_39+0x11c>
 11c:	00 c0       	rjmp	.+0      	; 0x11e <__vector_39+0x11e>
 11e:	80 3c       	cpi	r24, 0xC0	; 192
 120:	91 05       	cpc	r25, r1
 122:	01 f4       	brne	.+0      	; 0x124 <__vector_39+0x124>
 124:	00 c0       	rjmp	.+0      	; 0x126 <__vector_39+0x126>
 126:	88 3c       	cpi	r24, 0xC8	; 200
 128:	91 05       	cpc	r25, r1
 12a:	01 f4       	brne	.+0      	; 0x12c <__vector_39+0x12c>
 12c:	00 c0       	rjmp	.+0      	; 0x12e <__vector_39+0x12e>
 12e:	88 3b       	cpi	r24, 0xB8	; 184
 130:	91 05       	cpc	r25, r1
 132:	01 f0       	breq	.+0      	; 0x134 <__vector_39+0x134>
 134:	00 c0       	rjmp	.+0      	; 0x136 <__vector_39+0x136>
 136:	00 c0       	rjmp	.+0      	; 0x138 <__vector_39+0x138>
 138:	80 91 00 00 	lds	r24, 0x0000
 13c:	80 93 bb 00 	sts	0x00BB, r24
 140:	00 c0       	rjmp	.+0      	; 0x142 <__vector_39+0x142>
 142:	90 91 00 00 	lds	r25, 0x0000
 146:	80 91 00 00 	lds	r24, 0x0000
 14a:	98 17       	cp	r25, r24
 14c:	00 f0       	brcs	.+0      	; 0x14e <__vector_39+0x14e>
 14e:	00 c0       	rjmp	.+0      	; 0x150 <__vector_39+0x150>
 150:	80 91 00 00 	lds	r24, 0x0000
 154:	e8 2f       	mov	r30, r24
 156:	f0 e0       	ldi	r31, 0x00	; 0
 158:	e0 50       	subi	r30, 0x00	; 0
 15a:	f0 40       	sbci	r31, 0x00	; 0
 15c:	90 81       	ld	r25, Z
 15e:	90 93 bb 00 	sts	0x00BB, r25
 162:	8f 5f       	subi	r24, 0xFF	; 255
 164:	80 93 00 00 	sts	0x0000, r24
 168:	81 e0       	ldi	r24, 0x01	; 1
 16a:	00 c0       	rjmp	.+0      	; 0x16c <__vector_39+0x16c>
 16c:	80 e2       	ldi	r24, 0x20	; 32
 16e:	00 c0       	rjmp	.+0      	; 0x170 <__vector_39+0x170>
 170:	80 e3       	ldi	r24, 0x30	; 48
 172:	80 93 00 00 	sts	0x0000, r24
 176:	00 c0       	rjmp	.+0      	; 0x178 <__vector_39+0x178>
 178:	88 e3       	ldi	r24, 0x38	; 56
 17a:	80 93 00 00 	sts	0x0000, r24
 17e:	00 c0       	rjmp	.+0      	; 0x180 <__vector_39+0x180>
 180:	80 91 00 00 	lds	r24, 0x0000
 184:	90 91 bb 00 	lds	r25, 0x00BB
 188:	e8 2f       	mov	r30, r24
 18a:	f0 e0       	ldi	r31, 0x00	; 0
 18c:	e0 50       	subi	r30, 0x00	; 0
 18e:	f0 40       	sbci	r31, 0x00	; 0
 190:	90 83       	st	Z, r25
 192:	8f 5f       	subi	r24, 0xFF	; 255
 194:	80 93 00 00 	sts	0x0000, r24
 198:	90 91 00 00 	lds	r25, 0x0000
 19c:	80 91 00 00 	lds	r24, 0x0000
 1a0:	00 c0       	rjmp	.+0      	; 0x1a2 <__vector_39+0x1a2>
 1a2:	80 91 00 00 	lds	r24, 0x0000
 1a6:	90 91 bb 00 	lds	r25, 0x00BB
 1aa:	e8 2f       	mov	r30, r24
 1ac:	f0 e0       	ldi	r31, 0x00	; 0
 1ae:	e0 50       	subi	r30, 0x00	; 0
 1b0:	f0 40       	sbci	r31, 0x00	; 0
 1b2:	90 83       	st	Z, r25
 1b4:	8f 5f       	subi	r24, 0xFF	; 255
 1b6:	80 93 00 00 	sts	0x0000, r24
 1ba:	00 c0       	rjmp	.+0      	; 0x1bc <__vector_39+0x1bc>
 1bc:	83 e0       	ldi	r24, 0x03	; 3
 1be:	80 93 00 00 	sts	0x0000, r24
 1c2:	10 92 00 00 	sts	0x0000, r1
 1c6:	00 c0       	rjmp	.+0      	; 0x1c8 <__vector_39+0x1c8>
 1c8:	80 91 00 00 	lds	r24, 0x0000
 1cc:	80 32       	cpi	r24, 0x20	; 32
 1ce:	00 f0       	brcs	.+0      	; 0x1d0 <__vector_39+0x1d0>
 1d0:	00 c0       	rjmp	.+0      	; 0x1d2 <__vector_39+0x1d2>
 1d2:	80 91 00 00 	lds	r24, 0x0000
 1d6:	90 91 bb 00 	lds	r25, 0x00BB
 1da:	e8 2f       	mov	r30, r24
 1dc:	f0 e0       	ldi	r31, 0x00	; 0
 1de:	e0 50       	subi	r30, 0x00	; 0
 1e0:	f0 40       	sbci	r31, 0x00	; 0
 1e2:	90 83       	st	Z, r25
 1e4:	8f 5f       	subi	r24, 0xFF	; 255
 1e6:	80 93 00 00 	sts	0x0000, r24
 1ea:	00 c0       	rjmp	.+0      	; 0x1ec <__vector_39+0x1ec>
 1ec:	80 91 00 00 	lds	r24, 0x0000
 1f0:	80 32       	cpi	r24, 0x20	; 32
 1f2:	00 f4       	brcc	.+0      	; 0x1f4 <__vector_39+0x1f4>
 1f4:	e0 91 00 00 	lds	r30, 0x0000
 1f8:	f0 e0       	ldi	r31, 0x00	; 0
 1fa:	e0 50       	subi	r30, 0x00	; 0
 1fc:	f0 40       	sbci	r31, 0x00	; 0
 1fe:	10 82       	st	Z, r1
 200:	0e 94 00 00 	call	0	; 0x0 <__vector_39>
 204:	60 91 00 00 	lds	r22, 0x0000
 208:	e0 91 00 00 	lds	r30, 0x0000
 20c:	f0 91 00 00 	lds	r31, 0x0000
 210:	80 e0       	ldi	r24, 0x00	; 0
 212:	90 e0       	ldi	r25, 0x00	; 0
 214:	70 e0       	ldi	r23, 0x00	; 0
 216:	19 95       	eicall
 218:	10 92 00 00 	sts	0x0000, r1
 21c:	0e 94 00 00 	call	0	; 0x0 <__vector_39>
 220:	00 c0       	rjmp	.+0      	; 0x222 <__vector_39+0x222>
 222:	84 e0       	ldi	r24, 0x04	; 4
 224:	80 93 00 00 	sts	0x0000, r24
 228:	10 92 00 00 	sts	0x0000, r1
 22c:	10 92 00 00 	sts	0x0000, r1
 230:	e0 91 00 00 	lds	r30, 0x0000
 234:	f0 91 00 00 	lds	r31, 0x0000
 238:	19 95       	eicall
 23a:	80 91 00 00 	lds	r24, 0x0000
 23e:	88 23       	and	r24, r24
 240:	01 f4       	brne	.+0      	; 0x242 <__vector_39+0x242>
 242:	81 e0       	ldi	r24, 0x01	; 1
 244:	80 93 00 00 	sts	0x0000, r24
 248:	10 92 00 00 	sts	0x0000, r1
 24c:	80 91 00 00 	lds	r24, 0x0000
 250:	e8 2f       	mov	r30, r24
 252:	f0 e0       	ldi	r31, 0x00	; 0
 254:	e0 50       	subi	r30, 0x00	; 0
 256:	f0 40       	sbci	r31, 0x00	; 0
 258:	90 81       	ld	r25, Z
 25a:	90 93 bb 00 	sts	0x00BB, r25
 25e:	8f 5f       	subi	r24, 0xFF	; 255
 260:	80 93 00 00 	sts	0x0000, r24
 264:	90 91 00 00 	lds	r25, 0x0000
 268:	80 91 00 00 	lds	r24, 0x0000
 26c:	98 17       	cp	r25, r24
 26e:	00 f4       	brcc	.+0      	; 0x270 <__vector_39+0x270>
 270:	00 c0       	rjmp	.+0      	; 0x272 <__vector_39+0x272>
 272:	80 e0       	ldi	r24, 0x00	; 0
 274:	0e 94 00 00 	call	0	; 0x0 <__vector_39>
 278:	00 c0       	rjmp	.+0      	; 0x27a <__vector_39+0x27a>
 27a:	81 e0       	ldi	r24, 0x01	; 1
 27c:	0e 94 00 00 	call	0	; 0x0 <__vector_39>
 280:	10 92 00 00 	sts	0x0000, r1
 284:	00 c0       	rjmp	.+0      	; 0x286 <__vector_39+0x286>
 286:	10 92 00 00 	sts	0x0000, r1
 28a:	0e 94 00 00 	call	0	; 0x0 <__vector_39>
 28e:	ff 91       	pop	r31
 290:	ef 91       	pop	r30
 292:	bf 91       	pop	r27
 294:	af 91       	pop	r26
 296:	9f 91       	pop	r25
 298:	8f 91       	pop	r24
 29a:	7f 91       	pop	r23
 29c:	6f 91       	pop	r22
 29e:	5f 91       	pop	r21
 2a0:	4f 91       	pop	r20
 2a2:	3f 91       	pop	r19
 2a4:	2f 91       	pop	r18
 2a6:	0f 90       	pop	r0
 2a8:	0b be       	out	0x3b, r0	; 59
 2aa:	0f 90       	pop	r0
 2ac:	0f be       	out	0x3f, r0	; 63
 2ae:	0f 90       	pop	r0
 2b0:	1f 90       	pop	r1
 2b2:	18 95       	reti

Wire.o:     file format elf32-avr

Sections:
Idx Name          Size      VMA       LMA       File off  Algn
  0 .text         00000000  00000000  00000000  00000034  2**0
                  CONTENTS, ALLOC, LOAD, READONLY, CODE
  1 .data         00000000  00000000  00000000  00000034  2**0
                  CONTENTS, ALLOC, LOAD, DATA
  2 .bss          00000000  00000000  00000000  00000034  2**0
                  ALLOC
  3 .text._ZN7TwoWire16onReceiveServiceEPhi 00000050  00000000  00000000  00000034  2**0
                  CONTENTS, ALLOC, LOAD, RELOC, READONLY, CODE
  4 .text._ZN7TwoWire16onRequestServiceEv 00000018  00000000  00000000  00000084  2**0
                  CONTENTS, ALLOC, LOAD, RELOC, READONLY, CODE
  5 .text._ZN7TwoWireC2Ev 00000002  00000000  00000000  0000009c  2**0
                  CONTENTS, ALLOC, LOAD, READONLY, CODE
  6 .text._ZN7TwoWire5beginEv 00000016  00000000  00000000  0000009e  2**0
                  CONTENTS, ALLOC, LOAD, RELOC, READONLY, CODE
  7 .text._ZN7TwoWire5beginEh 00000028  00000000  00000000  000000b4  2**0
                  CONTENTS, ALLOC, LOAD, RELOC, READONLY, CODE
  8 .text._ZN7TwoWire5beginEi 00000006  00000000  00000000  000000dc  2**0
                  CONTENTS, ALLOC, LOAD, RELOC, READONLY, CODE
  9 .text._ZN7TwoWire11requestFromEhh 0000001a  00000000  00000000  000000e2  2**0
                  CONTENTS, ALLOC, LOAD, RELOC, READONLY, CODE
 10 .text._ZN7TwoWire11requestFromEii 00000006  00000000  00000000  000000fc  2**0
                  CONTENTS, ALLOC, LOAD, RELOC, READONLY, CODE
 11 .text._ZN7TwoWire17beginTransmissionEh 00000014  00000000  00000000  00000102  2**0
                  CONTENTS, ALLOC, LOAD, RELOC, READONLY, CODE
 12 .text._ZN7TwoWire17beginTransmissionEi 00000006  00000000  00000000  00000116  2**0
                  CONTENTS, ALLOC, LOAD, RELOC, READONLY, CODE
 13 .text._ZN7TwoWire15endTransmissionEv 00000020  00000000  00000000  0000011c  2**0
                  CONTENTS, ALLOC, LOAD, RELOC, READONLY, CODE
 14 .text._ZN7TwoWire4sendEh 00000048  00000000  00000000  0000013c  2**0
                  CONTENTS, ALLOC, LOAD, RELOC, READONLY, CODE
 15 .text._ZN7TwoWire4sendEPhh 0000005c  00000000  00000000  00000184  2**0
                  CONTENTS, ALLOC, LOAD, RELOC, READONLY, CODE
 16 .text._ZN7TwoWire4sendEPc 00000018  00000000  00000000  000001e0  2**0
                  CONTENTS, ALLOC, LOAD, RELOC, READONLY, CODE
 17 .text._ZN7TwoWire4sendEi 00000006  00000000  00000000  000001f8  2**0
                  CONTENTS, ALLOC, LOAD, RELOC, READONLY, CODE
 18 .text._ZN7TwoWire9availableEv 0000000c  00000000  00000000  000001fe  2**0
                  CONTENTS, ALLOC, LOAD, RELOC, READONLY, CODE
 19 .text._ZN7TwoWire7receiveEv 00000022  00000000  00000000  0000020a  2**0
                  CONTENTS, ALLOC, LOAD, RELOC, READONLY, CODE
 20 .text._ZN7TwoWire9onReceiveEPFviE 0000000a  00000000  00000000  0000022c  2**0
                  CONTENTS, ALLOC, LOAD, RELOC, READONLY, CODE
 21 .text._ZN7TwoWire9onRequestEPFvvE 0000000a  00000000  00000000  00000236  2**0
                  CONTENTS, ALLOC, LOAD, RELOC, READONLY, CODE
 22 .text._GLOBAL__I__ZN7TwoWire8rxBufferE 00000002  00000000  00000000  00000240  2**0
                  CONTENTS, ALLOC, LOAD, READONLY, CODE
 23 .ctors        00000002  00000000  00000000  00000242  2**0
                  CONTENTS, ALLOC, LOAD, RELOC, READONLY, DATA
 24 .bss._ZN7TwoWire8rxBufferE 00000020  00000000  00000000  00000244  2**0
                  ALLOC
 25 .bss._ZN7TwoWire13rxBufferIndexE 00000001  00000000  00000000  00000244  2**0
                  ALLOC
 26 .bss._ZN7TwoWire14rxBufferLengthE 00000001  00000000  00000000  00000244  2**0
                  ALLOC
 27 .bss._ZN7TwoWire9txAddressE 00000001  00000000  00000000  00000244  2**0
                  ALLOC
 28 .bss._ZN7TwoWire8txBufferE 00000020  00000000  00000000  00000244  2**0
                  ALLOC
 29 .bss._ZN7TwoWire13txBufferIndexE 00000001  00000000  00000000  00000244  2**0
                  ALLOC
 30 .bss._ZN7TwoWire14txBufferLengthE 00000001  00000000  00000000  00000244  2**0
                  ALLOC
 31 .bss._ZN7TwoWire12transmittingE 00000001  00000000  00000000  00000244  2**0
                  ALLOC
 32 .bss._ZN7TwoWire14user_onRequestE 00000002  00000000  00000000  00000244  2**0
                  ALLOC
 33 .bss._ZN7TwoWire14user_onReceiveE 00000002  00000000  00000000  00000244  2**0
                  ALLOC
 34 .bss.Wire     00000001  00000000  00000000  00000244  2**0
                  ALLOC

Disassembly of section .text._ZN7TwoWire16onReceiveServiceEPhi:

00000000 <_ZN7TwoWire16onReceiveServiceEPhi>:
   0:	cf 93       	push	r28
   2:	df 93       	push	r29
   4:	9c 01       	movw	r18, r24
   6:	cb 01       	movw	r24, r22
   8:	e0 91 00 00 	lds	r30, 0x0000
   c:	f0 91 00 00 	lds	r31, 0x0000
  10:	30 97       	sbiw	r30, 0x00	; 0
  12:	01 f0       	breq	.+0      	; 0x14 <_ZN7TwoWire16onReceiveServiceEPhi+0x14>
  14:	50 91 00 00 	lds	r21, 0x0000
  18:	40 91 00 00 	lds	r20, 0x0000
  1c:	54 17       	cp	r21, r20
  1e:	00 f0       	brcs	.+0      	; 0x20 <_ZN7TwoWire16onReceiveServiceEPhi+0x20>
  20:	60 e0       	ldi	r22, 0x00	; 0
  22:	00 c0       	rjmp	.+0      	; 0x24 <_ZN7TwoWire16onReceiveServiceEPhi+0x24>
  24:	da 01       	movw	r26, r20
  26:	a0 50       	subi	r26, 0x00	; 0
  28:	b0 40       	sbci	r27, 0x00	; 0
  2a:	42 0f       	add	r20, r18
  2c:	53 1f       	adc	r21, r19
  2e:	ea 01       	movw	r28, r20
  30:	48 81       	ld	r20, Y
  32:	4c 93       	st	X, r20
  34:	6f 5f       	subi	r22, 0xFF	; 255
  36:	46 2f       	mov	r20, r22
  38:	50 e0       	ldi	r21, 0x00	; 0
  3a:	48 17       	cp	r20, r24
  3c:	59 07       	cpc	r21, r25
  3e:	04 f0       	brlt	.+0      	; 0x40 <_ZN7TwoWire16onReceiveServiceEPhi+0x40>
  40:	10 92 00 00 	sts	0x0000, r1
  44:	80 93 00 00 	sts	0x0000, r24
  48:	19 95       	eicall
  4a:	df 91       	pop	r29
  4c:	cf 91       	pop	r28
  4e:	08 95       	ret

Disassembly of section .text._ZN7TwoWire16onRequestServiceEv:

00000000 <_ZN7TwoWire16onRequestServiceEv>:
   0:	e0 91 00 00 	lds	r30, 0x0000
   4:	f0 91 00 00 	lds	r31, 0x0000
   8:	30 97       	sbiw	r30, 0x00	; 0
   a:	01 f0       	breq	.+0      	; 0xc <_ZN7TwoWire16onRequestServiceEv+0xc>
   c:	10 92 00 00 	sts	0x0000, r1
  10:	10 92 00 00 	sts	0x0000, r1
  14:	19 95       	eicall
  16:	08 95       	ret

Disassembly of section .text._ZN7TwoWireC2Ev:

00000000 <_ZN7TwoWireC1Ev>:
   0:	08 95       	ret

Disassembly of section .text._ZN7TwoWire5beginEv:

00000000 <_ZN7TwoWire5beginEv>:
   0:	10 92 00 00 	sts	0x0000, r1
   4:	10 92 00 00 	sts	0x0000, r1
   8:	10 92 00 00 	sts	0x0000, r1
   c:	10 92 00 00 	sts	0x0000, r1
  10:	0e 94 00 00 	call	0	; 0x0 <_ZN7TwoWire5beginEv>
  14:	08 95       	ret

Disassembly of section .text._ZN7TwoWire5beginEh:

00000000 <_ZN7TwoWire5beginEh>:
   0:	cf 93       	push	r28
   2:	df 93       	push	r29
   4:	ec 01       	movw	r28, r24
   6:	86 2f       	mov	r24, r22
   8:	0e 94 00 00 	call	0	; 0x0 <_ZN7TwoWire5beginEh>
   c:	80 e0       	ldi	r24, 0x00	; 0
   e:	90 e0       	ldi	r25, 0x00	; 0
  10:	0e 94 00 00 	call	0	; 0x0 <_ZN7TwoWire5beginEh>
  14:	80 e0       	ldi	r24, 0x00	; 0
  16:	90 e0       	ldi	r25, 0x00	; 0
  18:	0e 94 00 00 	call	0	; 0x0 <_ZN7TwoWire5beginEh>
  1c:	ce 01       	movw	r24, r28
  1e:	0e 94 00 00 	call	0	; 0x0 <_ZN7TwoWire5beginEh>
  22:	df 91       	pop	r29
  24:	cf 91       	pop	r28
  26:	08 95       	ret

Disassembly of section .text._ZN7TwoWire5beginEi:

00000000 <_ZN7TwoWire5beginEi>:
   0:	0e 94 00 00 	call	0	; 0x0 <_ZN7TwoWire5beginEi>
   4:	08 95       	ret

Disassembly of section .text._ZN7TwoWire11requestFromEhh:

00000000 <_ZN7TwoWire11requestFromEhh>:
   0:	86 2f       	mov	r24, r22
   2:	41 32       	cpi	r20, 0x21	; 33
   4:	00 f0       	brcs	.+0      	; 0x6 <_ZN7TwoWire11requestFromEhh+0x6>
   6:	40 e2       	ldi	r20, 0x20	; 32
   8:	60 e0       	ldi	r22, 0x00	; 0
   a:	70 e0       	ldi	r23, 0x00	; 0
   c:	0e 94 00 00 	call	0	; 0x0 <_ZN7TwoWire11requestFromEhh>
  10:	10 92 00 00 	sts	0x0000, r1
  14:	80 93 00 00 	sts	0x0000, r24
  18:	08 95       	ret

Disassembly of section .text._ZN7TwoWire11requestFromEii:

00000000 <_ZN7TwoWire11requestFromEii>:
   0:	0e 94 00 00 	call	0	; 0x0 <_ZN7TwoWire11requestFromEii>
   4:	08 95       	ret

Disassembly of section .text._ZN7TwoWire17beginTransmissionEh:

00000000 <_ZN7TwoWire17beginTransmissionEh>:
   0:	81 e0       	ldi	r24, 0x01	; 1
   2:	80 93 00 00 	sts	0x0000, r24
   6:	60 93 00 00 	sts	0x0000, r22
   a:	10 92 00 00 	sts	0x0000, r1
   e:	10 92 00 00 	sts	0x0000, r1
  12:	08 95       	ret

Disassembly of section .text._ZN7TwoWire17beginTransmissionEi:

00000000 <_ZN7TwoWire17beginTransmissionEi>:
   0:	0e 94 00 00 	call	0	; 0x0 <_ZN7TwoWire17beginTransmissionEi>
   4:	08 95       	ret

Disassembly of section .text._ZN7TwoWire15endTransmissionEv:

00000000 <_ZN7TwoWire15endTransmissionEv>:
   0:	80 91 00 00 	lds	r24, 0x0000
   4:	60 e0       	ldi	r22, 0x00	; 0
   6:	70 e0       	ldi	r23, 0x00	; 0
   8:	40 91 00 00 	lds	r20, 0x0000
   c:	21 e0       	ldi	r18, 0x01	; 1
   e:	0e 94 00 00 	call	0	; 0x0 <_ZN7TwoWire15endTransmissionEv>
  12:	10 92 00 00 	sts	0x0000, r1
  16:	10 92 00 00 	sts	0x0000, r1
  1a:	10 92 00 00 	sts	0x0000, r1
  1e:	08 95       	ret

Disassembly of section .text._ZN7TwoWire4sendEh:

00000000 <_ZN7TwoWire4sendEh>:
   0:	df 93       	push	r29
   2:	cf 93       	push	r28
   4:	0f 92       	push	r0
   6:	cd b7       	in	r28, 0x3d	; 61
   8:	de b7       	in	r29, 0x3e	; 62
   a:	69 83       	std	Y+1, r22	; 0x01
   c:	80 91 00 00 	lds	r24, 0x0000
  10:	88 23       	and	r24, r24
  12:	01 f0       	breq	.+0      	; 0x14 <_ZN7TwoWire4sendEh+0x14>
  14:	80 91 00 00 	lds	r24, 0x0000
  18:	80 32       	cpi	r24, 0x20	; 32
  1a:	00 f4       	brcc	.+0      	; 0x1c <_ZN7TwoWire4sendEh+0x1c>
  1c:	80 91 00 00 	lds	r24, 0x0000
  20:	e8 2f       	mov	r30, r24
  22:	f0 e0       	ldi	r31, 0x00	; 0
  24:	e0 50       	subi	r30, 0x00	; 0
  26:	f0 40       	sbci	r31, 0x00	; 0
  28:	60 83       	st	Z, r22
  2a:	8f 5f       	subi	r24, 0xFF	; 255
  2c:	80 93 00 00 	sts	0x0000, r24
  30:	80 93 00 00 	sts	0x0000, r24
  34:	00 c0       	rjmp	.+0      	; 0x36 <_ZN7TwoWire4sendEh+0x36>
  36:	ce 01       	movw	r24, r28
  38:	01 96       	adiw	r24, 0x01	; 1
  3a:	61 e0       	ldi	r22, 0x01	; 1
  3c:	0e 94 00 00 	call	0	; 0x0 <_ZN7TwoWire4sendEh>
  40:	0f 90       	pop	r0
  42:	cf 91       	pop	r28
  44:	df 91       	pop	r29
  46:	08 95       	ret

Disassembly of section .text._ZN7TwoWire4sendEPhh:

00000000 <_ZN7TwoWire4sendEPhh>:
   0:	cf 92       	push	r12
   2:	df 92       	push	r13
   4:	ff 92       	push	r15
   6:	0f 93       	push	r16
   8:	1f 93       	push	r17
   a:	df 93       	push	r29
   c:	cf 93       	push	r28
   e:	0f 92       	push	r0
  10:	cd b7       	in	r28, 0x3d	; 61
  12:	de b7       	in	r29, 0x3e	; 62
  14:	6c 01       	movw	r12, r24
  16:	f6 2e       	mov	r15, r22
  18:	97 2f       	mov	r25, r23
  1a:	80 91 00 00 	lds	r24, 0x0000
  1e:	88 23       	and	r24, r24
  20:	01 f0       	breq	.+0      	; 0x22 <_ZN7TwoWire4sendEPhh+0x22>
  22:	06 2f       	mov	r16, r22
  24:	17 2f       	mov	r17, r23
  26:	00 c0       	rjmp	.+0      	; 0x28 <_ZN7TwoWire4sendEPhh+0x28>
  28:	f8 01       	movw	r30, r16
  2a:	61 91       	ld	r22, Z+
  2c:	8f 01       	movw	r16, r30
  2e:	c6 01       	movw	r24, r12
  30:	49 83       	std	Y+1, r20	; 0x01
  32:	0e 94 00 00 	call	0	; 0x0 <_ZN7TwoWire4sendEPhh>
  36:	49 81       	ldd	r20, Y+1	; 0x01
  38:	80 2f       	mov	r24, r16
  3a:	8f 19       	sub	r24, r15
  3c:	84 17       	cp	r24, r20
  3e:	00 f0       	brcs	.+0      	; 0x40 <_ZN7TwoWire4sendEPhh+0x40>
  40:	00 c0       	rjmp	.+0      	; 0x42 <_ZN7TwoWire4sendEPhh+0x42>
  42:	86 2f       	mov	r24, r22
  44:	64 2f       	mov	r22, r20
  46:	0e 94 00 00 	call	0	; 0x0 <_ZN7TwoWire4sendEPhh>
  4a:	0f 90       	pop	r0
  4c:	cf 91       	pop	r28
  4e:	df 91       	pop	r29
  50:	1f 91       	pop	r17
  52:	0f 91       	pop	r16
  54:	ff 90       	pop	r15
  56:	df 90       	pop	r13
  58:	cf 90       	pop	r12
  5a:	08 95       	ret

Disassembly of section .text._ZN7TwoWire4sendEPc:

00000000 <_ZN7TwoWire4sendEPc>:
   0:	db 01       	movw	r26, r22
   2:	0d 90       	ld	r0, X+
   4:	00 20       	and	r0, r0
   6:	01 f4       	brne	.+0      	; 0x8 <_ZN7TwoWire4sendEPc+0x8>
   8:	ad 01       	movw	r20, r26
   a:	41 50       	subi	r20, 0x01	; 1
   c:	50 40       	sbci	r21, 0x00	; 0
   e:	46 1b       	sub	r20, r22
  10:	57 0b       	sbc	r21, r23
  12:	0e 94 00 00 	call	0	; 0x0 <_ZN7TwoWire4sendEPc>
  16:	08 95       	ret

Disassembly of section .text._ZN7TwoWire4sendEi:

00000000 <_ZN7TwoWire4sendEi>:
   0:	0e 94 00 00 	call	0	; 0x0 <_ZN7TwoWire4sendEi>
   4:	08 95       	ret

Disassembly of section .text._ZN7TwoWire9availableEv:

00000000 <_ZN7TwoWire9availableEv>:
   0:	80 91 00 00 	lds	r24, 0x0000
   4:	90 91 00 00 	lds	r25, 0x0000
   8:	89 1b       	sub	r24, r25
   a:	08 95       	ret

Disassembly of section .text._ZN7TwoWire7receiveEv:

00000000 <_ZN7TwoWire7receiveEv>:
   0:	90 91 00 00 	lds	r25, 0x0000
   4:	80 91 00 00 	lds	r24, 0x0000
   8:	98 17       	cp	r25, r24
   a:	00 f4       	brcc	.+0      	; 0xc <_ZN7TwoWire7receiveEv+0xc>
   c:	e9 2f       	mov	r30, r25
   e:	f0 e0       	ldi	r31, 0x00	; 0
  10:	e0 50       	subi	r30, 0x00	; 0
  12:	f0 40       	sbci	r31, 0x00	; 0
  14:	80 81       	ld	r24, Z
  16:	9f 5f       	subi	r25, 0xFF	; 255
  18:	90 93 00 00 	sts	0x0000, r25
  1c:	08 95       	ret
  1e:	80 e0       	ldi	r24, 0x00	; 0
  20:	08 95       	ret

Disassembly of section .text._ZN7TwoWire9onReceiveEPFviE:

00000000 <_ZN7TwoWire9onReceiveEPFviE>:
   0:	70 93 00 00 	sts	0x0000, r23
   4:	60 93 00 00 	sts	0x0000, r22
   8:	08 95       	ret

Disassembly of section .text._ZN7TwoWire9onRequestEPFvvE:

00000000 <_ZN7TwoWire9onRequestEPFvvE>:
   0:	70 93 00 00 	sts	0x0000, r23
   4:	60 93 00 00 	sts	0x0000, r22
   8:	08 95       	ret

Disassembly of section .text._GLOBAL__I__ZN7TwoWire8rxBufferE:

00000000 <_GLOBAL__I__ZN7TwoWire8rxBufferE>:
   0:	08 95       	ret

Stepper.o:     file format elf32-avr

Sections:
Idx Name          Size      VMA       LMA       File off  Algn
  0 .text         00000000  00000000  00000000  00000034  2**0
                  CONTENTS, ALLOC, LOAD, READONLY, CODE
  1 .data         00000000  00000000  00000000  00000034  2**0
                  CONTENTS, ALLOC, LOAD, DATA
  2 .bss          00000000  00000000  00000000  00000034  2**0
                  ALLOC
  3 .text._ZN7StepperC2Eiii 0000004c  00000000  00000000  00000034  2**0
                  CONTENTS, ALLOC, LOAD, RELOC, READONLY, CODE
  4 .text._ZN7StepperC2Eiiiii 0000006c  00000000  00000000  00000080  2**0
                  CONTENTS, ALLOC, LOAD, RELOC, READONLY, CODE
  5 .text._ZN7Stepper8setSpeedEl 0000004c  00000000  00000000  000000ec  2**0
                  CONTENTS, ALLOC, LOAD, RELOC, READONLY, CODE
  6 .text._ZN7Stepper9stepMotorEi 000000f2  00000000  00000000  00000138  2**0
                  CONTENTS, ALLOC, LOAD, RELOC, READONLY, CODE
  7 .text._ZN7Stepper4stepEi 000000da  00000000  00000000  0000022a  2**0
                  CONTENTS, ALLOC, LOAD, RELOC, READONLY, CODE
  8 .text._ZN7Stepper7versionEv 00000006  00000000  00000000  00000304  2**0
                  CONTENTS, ALLOC, LOAD, READONLY, CODE

Disassembly of section .text._ZN7StepperC2Eiii:

00000000 <_ZN7StepperC1Eiii>:
   0:	cf 93       	push	r28
   2:	df 93       	push	r29
   4:	ec 01       	movw	r28, r24
   6:	84 2f       	mov	r24, r20
   8:	1d 86       	std	Y+13, r1	; 0x0d
   a:	1c 86       	std	Y+12, r1	; 0x0c
   c:	1b 82       	std	Y+3, r1	; 0x03
   e:	1a 82       	std	Y+2, r1	; 0x02
  10:	19 82       	std	Y+1, r1	; 0x01
  12:	18 82       	st	Y, r1
  14:	1e 8a       	std	Y+22, r1	; 0x16
  16:	1f 8a       	std	Y+23, r1	; 0x17
  18:	18 8e       	std	Y+24, r1	; 0x18
  1a:	19 8e       	std	Y+25, r1	; 0x19
  1c:	79 87       	std	Y+9, r23	; 0x09
  1e:	68 87       	std	Y+8, r22	; 0x08
  20:	4e 87       	std	Y+14, r20	; 0x0e
  22:	5f 87       	std	Y+15, r21	; 0x0f
  24:	39 8b       	std	Y+17, r19	; 0x11
  26:	28 8b       	std	Y+16, r18	; 0x10
  28:	61 e0       	ldi	r22, 0x01	; 1
  2a:	0e 94 00 00 	call	0	; 0x0 <_ZN7StepperC1Eiii>
  2e:	88 89       	ldd	r24, Y+16	; 0x10
  30:	61 e0       	ldi	r22, 0x01	; 1
  32:	0e 94 00 00 	call	0	; 0x0 <_ZN7StepperC1Eiii>
  36:	1b 8a       	std	Y+19, r1	; 0x13
  38:	1a 8a       	std	Y+18, r1	; 0x12
  3a:	1d 8a       	std	Y+21, r1	; 0x15
  3c:	1c 8a       	std	Y+20, r1	; 0x14
  3e:	82 e0       	ldi	r24, 0x02	; 2
  40:	90 e0       	ldi	r25, 0x00	; 0
  42:	9b 87       	std	Y+11, r25	; 0x0b
  44:	8a 87       	std	Y+10, r24	; 0x0a
  46:	df 91       	pop	r29
  48:	cf 91       	pop	r28
  4a:	08 95       	ret

Disassembly of section .text._ZN7StepperC2Eiiiii:

00000000 <_ZN7StepperC1Eiiiii>:
   0:	ef 92       	push	r14
   2:	ff 92       	push	r15
   4:	0f 93       	push	r16
   6:	1f 93       	push	r17
   8:	cf 93       	push	r28
   a:	df 93       	push	r29
   c:	ec 01       	movw	r28, r24
   e:	84 2f       	mov	r24, r20
  10:	1d 86       	std	Y+13, r1	; 0x0d
  12:	1c 86       	std	Y+12, r1	; 0x0c
  14:	1b 82       	std	Y+3, r1	; 0x03
  16:	1a 82       	std	Y+2, r1	; 0x02
  18:	19 82       	std	Y+1, r1	; 0x01
  1a:	18 82       	st	Y, r1
  1c:	1e 8a       	std	Y+22, r1	; 0x16
  1e:	1f 8a       	std	Y+23, r1	; 0x17
  20:	18 8e       	std	Y+24, r1	; 0x18
  22:	19 8e       	std	Y+25, r1	; 0x19
  24:	79 87       	std	Y+9, r23	; 0x09
  26:	68 87       	std	Y+8, r22	; 0x08
  28:	4e 87       	std	Y+14, r20	; 0x0e
  2a:	5f 87       	std	Y+15, r21	; 0x0f
  2c:	39 8b       	std	Y+17, r19	; 0x11
  2e:	28 8b       	std	Y+16, r18	; 0x10
  30:	1b 8b       	std	Y+19, r17	; 0x13
  32:	0a 8b       	std	Y+18, r16	; 0x12
  34:	fd 8a       	std	Y+21, r15	; 0x15
  36:	ec 8a       	std	Y+20, r14	; 0x14
  38:	61 e0       	ldi	r22, 0x01	; 1
  3a:	0e 94 00 00 	call	0	; 0x0 <_ZN7StepperC1Eiiiii>
  3e:	88 89       	ldd	r24, Y+16	; 0x10
  40:	61 e0       	ldi	r22, 0x01	; 1
  42:	0e 94 00 00 	call	0	; 0x0 <_ZN7StepperC1Eiiiii>
  46:	8a 89       	ldd	r24, Y+18	; 0x12
  48:	61 e0       	ldi	r22, 0x01	; 1
  4a:	0e 94 00 00 	call	0	; 0x0 <_ZN7StepperC1Eiiiii>
  4e:	8c 89       	ldd	r24, Y+20	; 0x14
  50:	61 e0       	ldi	r22, 0x01	; 1
  52:	0e 94 00 00 	call	0	; 0x0 <_ZN7StepperC1Eiiiii>
  56:	84 e0       	ldi	r24, 0x04	; 4
  58:	90 e0       	ldi	r25, 0x00	; 0
  5a:	9b 87       	std	Y+11, r25	; 0x0b
  5c:	8a 87       	std	Y+10, r24	; 0x0a
  5e:	df 91       	pop	r29
  60:	cf 91       	pop	r28
  62:	1f 91       	pop	r17
  64:	0f 91       	pop	r16
  66:	ff 90       	pop	r15
  68:	ef 90       	pop	r14
  6a:	08 95       	ret

Disassembly of section .text._ZN7Stepper8setSpeedEl:

00000000 <_ZN7Stepper8setSpeedEl>:
   0:	ef 92       	push	r14
   2:	ff 92       	push	r15
   4:	0f 93       	push	r16
   6:	1f 93       	push	r17
   8:	cf 93       	push	r28
   a:	df 93       	push	r29
   c:	ec 01       	movw	r28, r24
   e:	7a 01       	movw	r14, r20
  10:	8b 01       	movw	r16, r22
  12:	28 85       	ldd	r18, Y+8	; 0x08
  14:	39 85       	ldd	r19, Y+9	; 0x09
  16:	44 27       	eor	r20, r20
  18:	37 fd       	sbrc	r19, 7
  1a:	40 95       	com	r20
  1c:	54 2f       	mov	r21, r20
  1e:	60 e6       	ldi	r22, 0x60	; 96
  20:	7a ee       	ldi	r23, 0xEA	; 234
  22:	80 e0       	ldi	r24, 0x00	; 0
  24:	90 e0       	ldi	r25, 0x00	; 0
  26:	0e 94 00 00 	call	0	; 0x0 <_ZN7Stepper8setSpeedEl>
  2a:	ca 01       	movw	r24, r20
  2c:	b9 01       	movw	r22, r18
  2e:	a8 01       	movw	r20, r16
  30:	97 01       	movw	r18, r14
  32:	0e 94 00 00 	call	0	; 0x0 <_ZN7Stepper8setSpeedEl>
  36:	2c 83       	std	Y+4, r18	; 0x04
  38:	3d 83       	std	Y+5, r19	; 0x05
  3a:	4e 83       	std	Y+6, r20	; 0x06
  3c:	5f 83       	std	Y+7, r21	; 0x07
  3e:	df 91       	pop	r29
  40:	cf 91       	pop	r28
  42:	1f 91       	pop	r17
  44:	0f 91       	pop	r16
  46:	ff 90       	pop	r15
  48:	ef 90       	pop	r14
  4a:	08 95       	ret

Disassembly of section .text._ZN7Stepper9stepMotorEi:

00000000 <_ZN7Stepper9stepMotorEi>:
   0:	0f 93       	push	r16
   2:	1f 93       	push	r17
   4:	cf 93       	push	r28
   6:	df 93       	push	r29
   8:	ec 01       	movw	r28, r24
   a:	8b 01       	movw	r16, r22
   c:	8a 85       	ldd	r24, Y+10	; 0x0a
   e:	9b 85       	ldd	r25, Y+11	; 0x0b
  10:	82 30       	cpi	r24, 0x02	; 2
  12:	91 05       	cpc	r25, r1
  14:	01 f4       	brne	.+0      	; 0x16 <_ZN7Stepper9stepMotorEi+0x16>
  16:	61 30       	cpi	r22, 0x01	; 1
  18:	71 05       	cpc	r23, r1
  1a:	01 f0       	breq	.+0      	; 0x1c <_ZN7Stepper9stepMotorEi+0x1c>
  1c:	62 30       	cpi	r22, 0x02	; 2
  1e:	71 05       	cpc	r23, r1
  20:	04 f4       	brge	.+0      	; 0x22 <_ZN7Stepper9stepMotorEi+0x22>
  22:	61 15       	cp	r22, r1
  24:	71 05       	cpc	r23, r1
  26:	01 f0       	breq	.+0      	; 0x28 <_ZN7Stepper9stepMotorEi+0x28>
  28:	00 c0       	rjmp	.+0      	; 0x2a <_ZN7Stepper9stepMotorEi+0x2a>
  2a:	62 30       	cpi	r22, 0x02	; 2
  2c:	71 05       	cpc	r23, r1
  2e:	01 f0       	breq	.+0      	; 0x30 <_ZN7Stepper9stepMotorEi+0x30>
  30:	63 30       	cpi	r22, 0x03	; 3
  32:	71 05       	cpc	r23, r1
  34:	01 f4       	brne	.+0      	; 0x36 <_ZN7Stepper9stepMotorEi+0x36>
  36:	00 c0       	rjmp	.+0      	; 0x38 <_ZN7Stepper9stepMotorEi+0x38>
  38:	8e 85       	ldd	r24, Y+14	; 0x0e
  3a:	60 e0       	ldi	r22, 0x00	; 0
  3c:	00 c0       	rjmp	.+0      	; 0x3e <_ZN7Stepper9stepMotorEi+0x3e>
  3e:	8e 85       	ldd	r24, Y+14	; 0x0e
  40:	61 e0       	ldi	r22, 0x01	; 1
  42:	0e 94 00 00 	call	0	; 0x0 <_ZN7Stepper9stepMotorEi>
  46:	88 89       	ldd	r24, Y+16	; 0x10
  48:	61 e0       	ldi	r22, 0x01	; 1
  4a:	00 c0       	rjmp	.+0      	; 0x4c <_ZN7Stepper9stepMotorEi+0x4c>
  4c:	8e 85       	ldd	r24, Y+14	; 0x0e
  4e:	61 e0       	ldi	r22, 0x01	; 1
  50:	00 c0       	rjmp	.+0      	; 0x52 <_ZN7Stepper9stepMotorEi+0x52>
  52:	8e 85       	ldd	r24, Y+14	; 0x0e
  54:	60 e0       	ldi	r22, 0x00	; 0
  56:	0e 94 00 00 	call	0	; 0x0 <_ZN7Stepper9stepMotorEi>
  5a:	88 89       	ldd	r24, Y+16	; 0x10
  5c:	60 e0       	ldi	r22, 0x00	; 0
  5e:	0e 94 00 00 	call	0	; 0x0 <_ZN7Stepper9stepMotorEi>
  62:	8a 85       	ldd	r24, Y+10	; 0x0a
  64:	9b 85       	ldd	r25, Y+11	; 0x0b
  66:	84 30       	cpi	r24, 0x04	; 4
  68:	91 05       	cpc	r25, r1
  6a:	01 f4       	brne	.+0      	; 0x6c <_ZN7Stepper9stepMotorEi+0x6c>
  6c:	01 30       	cpi	r16, 0x01	; 1
  6e:	11 05       	cpc	r17, r1
  70:	01 f0       	breq	.+0      	; 0x72 <_ZN7Stepper9stepMotorEi+0x72>
  72:	02 30       	cpi	r16, 0x02	; 2
  74:	11 05       	cpc	r17, r1
  76:	04 f4       	brge	.+0      	; 0x78 <_ZN7Stepper9stepMotorEi+0x78>
  78:	01 15       	cp	r16, r1
  7a:	11 05       	cpc	r17, r1
  7c:	01 f0       	breq	.+0      	; 0x7e <_ZN7Stepper9stepMotorEi+0x7e>
  7e:	00 c0       	rjmp	.+0      	; 0x80 <_ZN7Stepper9stepMotorEi+0x80>
  80:	02 30       	cpi	r16, 0x02	; 2
  82:	11 05       	cpc	r17, r1
  84:	01 f0       	breq	.+0      	; 0x86 <_ZN7Stepper9stepMotorEi+0x86>
  86:	03 30       	cpi	r16, 0x03	; 3
  88:	11 05       	cpc	r17, r1
  8a:	01 f4       	brne	.+0      	; 0x8c <_ZN7Stepper9stepMotorEi+0x8c>
  8c:	00 c0       	rjmp	.+0      	; 0x8e <_ZN7Stepper9stepMotorEi+0x8e>
  8e:	8e 85       	ldd	r24, Y+14	; 0x0e
  90:	61 e0       	ldi	r22, 0x01	; 1
  92:	0e 94 00 00 	call	0	; 0x0 <_ZN7Stepper9stepMotorEi>
  96:	88 89       	ldd	r24, Y+16	; 0x10
  98:	60 e0       	ldi	r22, 0x00	; 0
  9a:	00 c0       	rjmp	.+0      	; 0x9c <_ZN7Stepper9stepMotorEi+0x9c>
  9c:	8e 85       	ldd	r24, Y+14	; 0x0e
  9e:	60 e0       	ldi	r22, 0x00	; 0
  a0:	0e 94 00 00 	call	0	; 0x0 <_ZN7Stepper9stepMotorEi>
  a4:	88 89       	ldd	r24, Y+16	; 0x10
  a6:	61 e0       	ldi	r22, 0x01	; 1
  a8:	0e 94 00 00 	call	0	; 0x0 <_ZN7Stepper9stepMotorEi>
  ac:	8a 89       	ldd	r24, Y+18	; 0x12
  ae:	61 e0       	ldi	r22, 0x01	; 1
  b0:	0e 94 00 00 	call	0	; 0x0 <_ZN7Stepper9stepMotorEi>
  b4:	8c 89       	ldd	r24, Y+20	; 0x14
  b6:	60 e0       	ldi	r22, 0x00	; 0
  b8:	00 c0       	rjmp	.+0      	; 0xba <_ZN7Stepper9stepMotorEi+0xba>
  ba:	8e 85       	ldd	r24, Y+14	; 0x0e
  bc:	60 e0       	ldi	r22, 0x00	; 0
  be:	0e 94 00 00 	call	0	; 0x0 <_ZN7Stepper9stepMotorEi>
  c2:	88 89       	ldd	r24, Y+16	; 0x10
  c4:	61 e0       	ldi	r22, 0x01	; 1
  c6:	00 c0       	rjmp	.+0      	; 0xc8 <_ZN7Stepper9stepMotorEi+0xc8>
  c8:	8e 85       	ldd	r24, Y+14	; 0x0e
  ca:	61 e0       	ldi	r22, 0x01	; 1
  cc:	0e 94 00 00 	call	0	; 0x0 <_ZN7Stepper9stepMotorEi>
  d0:	88 89       	ldd	r24, Y+16	; 0x10
  d2:	60 e0       	ldi	r22, 0x00	; 0
  d4:	0e 94 00 00 	call	0	; 0x0 <_ZN7Stepper9stepMotorEi>
  d8:	8a 89       	ldd	r24, Y+18	; 0x12
  da:	60 e0       	ldi	r22, 0x00	; 0
  dc:	0e 94 00 00 	call	0	; 0x0 <_ZN7Stepper9stepMotorEi>
  e0:	8c 89       	ldd	r24, Y+20	; 0x14
  e2:	61 e0       	ldi	r22, 0x01	; 1
  e4:	0e 94 00 00 	call	0	; 0x0 <_ZN7Stepper9stepMotorEi>
  e8:	df 91       	pop	r29
  ea:	cf 91       	pop	r28
  ec:	1f 91       	pop	r17
  ee:	0f 91       	pop	r16
  f0:	08 95       	ret

Disassembly of section .text._ZN7Stepper4stepEi:

00000000 <_ZN7Stepper4stepEi>:
   0:	ef 92       	push	r14
   2:	ff 92       	push	r15
   4:	0f 93       	push	r16
   6:	1f 93       	push	r17
   8:	cf 93       	push	r28
   a:	df 93       	push	r29
   c:	ec 01       	movw	r28, r24
   e:	8b 01       	movw	r16, r22
  10:	77 ff       	sbrs	r23, 7
  12:	00 c0       	rjmp	.+0      	; 0x14 <_ZN7Stepper4stepEi+0x14>
  14:	00 27       	eor	r16, r16
  16:	11 27       	eor	r17, r17
  18:	06 1b       	sub	r16, r22
  1a:	17 0b       	sbc	r17, r23
  1c:	16 16       	cp	r1, r22
  1e:	17 06       	cpc	r1, r23
  20:	04 f4       	brge	.+0      	; 0x22 <_ZN7Stepper4stepEi+0x22>
  22:	81 e0       	ldi	r24, 0x01	; 1
  24:	90 e0       	ldi	r25, 0x00	; 0
  26:	99 83       	std	Y+1, r25	; 0x01
  28:	88 83       	st	Y, r24
  2a:	00 c0       	rjmp	.+0      	; 0x2c <_ZN7Stepper4stepEi+0x2c>
  2c:	61 15       	cp	r22, r1
  2e:	71 05       	cpc	r23, r1
  30:	01 f4       	brne	.+0      	; 0x32 <_ZN7Stepper4stepEi+0x32>
  32:	00 c0       	rjmp	.+0      	; 0x34 <_ZN7Stepper4stepEi+0x34>
  34:	19 82       	std	Y+1, r1	; 0x01
  36:	18 82       	st	Y, r1
  38:	00 c0       	rjmp	.+0      	; 0x3a <_ZN7Stepper4stepEi+0x3a>
  3a:	0e 94 00 00 	call	0	; 0x0 <_ZN7Stepper4stepEi>
  3e:	2e 89       	ldd	r18, Y+22	; 0x16
  40:	3f 89       	ldd	r19, Y+23	; 0x17
  42:	48 8d       	ldd	r20, Y+24	; 0x18
  44:	59 8d       	ldd	r21, Y+25	; 0x19
  46:	62 1b       	sub	r22, r18
  48:	73 0b       	sbc	r23, r19
  4a:	84 0b       	sbc	r24, r20
  4c:	95 0b       	sbc	r25, r21
  4e:	2c 81       	ldd	r18, Y+4	; 0x04
  50:	3d 81       	ldd	r19, Y+5	; 0x05
  52:	4e 81       	ldd	r20, Y+6	; 0x06
  54:	5f 81       	ldd	r21, Y+7	; 0x07
  56:	62 17       	cp	r22, r18
  58:	73 07       	cpc	r23, r19
  5a:	84 07       	cpc	r24, r20
  5c:	95 07       	cpc	r25, r21
  5e:	00 f0       	brcs	.+0      	; 0x60 <_ZN7Stepper4stepEi+0x60>
  60:	0e 94 00 00 	call	0	; 0x0 <_ZN7Stepper4stepEi>
  64:	6e 8b       	std	Y+22, r22	; 0x16
  66:	7f 8b       	std	Y+23, r23	; 0x17
  68:	88 8f       	std	Y+24, r24	; 0x18
  6a:	99 8f       	std	Y+25, r25	; 0x19
  6c:	28 81       	ld	r18, Y
  6e:	39 81       	ldd	r19, Y+1	; 0x01
  70:	8c 85       	ldd	r24, Y+12	; 0x0c
  72:	9d 85       	ldd	r25, Y+13	; 0x0d
  74:	21 30       	cpi	r18, 0x01	; 1
  76:	31 05       	cpc	r19, r1
  78:	01 f4       	brne	.+0      	; 0x7a <_ZN7Stepper4stepEi+0x7a>
  7a:	01 96       	adiw	r24, 0x01	; 1
  7c:	9d 87       	std	Y+13, r25	; 0x0d
  7e:	8c 87       	std	Y+12, r24	; 0x0c
  80:	28 85       	ldd	r18, Y+8	; 0x08
  82:	39 85       	ldd	r19, Y+9	; 0x09
  84:	82 17       	cp	r24, r18
  86:	93 07       	cpc	r25, r19
  88:	01 f4       	brne	.+0      	; 0x8a <_ZN7Stepper4stepEi+0x8a>
  8a:	1d 86       	std	Y+13, r1	; 0x0d
  8c:	1c 86       	std	Y+12, r1	; 0x0c
  8e:	00 c0       	rjmp	.+0      	; 0x90 <_ZN7Stepper4stepEi+0x90>
  90:	00 97       	sbiw	r24, 0x00	; 0
  92:	01 f4       	brne	.+0      	; 0x94 <_ZN7Stepper4stepEi+0x94>
  94:	88 85       	ldd	r24, Y+8	; 0x08
  96:	99 85       	ldd	r25, Y+9	; 0x09
  98:	9d 87       	std	Y+13, r25	; 0x0d
  9a:	8c 87       	std	Y+12, r24	; 0x0c
  9c:	8c 85       	ldd	r24, Y+12	; 0x0c
  9e:	9d 85       	ldd	r25, Y+13	; 0x0d
  a0:	01 97       	sbiw	r24, 0x01	; 1
  a2:	9d 87       	std	Y+13, r25	; 0x0d
  a4:	8c 87       	std	Y+12, r24	; 0x0c
  a6:	01 50       	subi	r16, 0x01	; 1
  a8:	10 40       	sbci	r17, 0x00	; 0
  aa:	8c 85       	ldd	r24, Y+12	; 0x0c
  ac:	9d 85       	ldd	r25, Y+13	; 0x0d
  ae:	b7 01       	movw	r22, r14
  b0:	0e 94 00 00 	call	0	; 0x0 <_ZN7Stepper4stepEi>
  b4:	bc 01       	movw	r22, r24
  b6:	ce 01       	movw	r24, r28
  b8:	0e 94 00 00 	call	0	; 0x0 <_ZN7Stepper4stepEi>
  bc:	00 c0       	rjmp	.+0      	; 0xbe <_ZN7Stepper4stepEi+0xbe>
  be:	84 e0       	ldi	r24, 0x04	; 4
  c0:	e8 2e       	mov	r14, r24
  c2:	f1 2c       	mov	r15, r1
  c4:	01 15       	cp	r16, r1
  c6:	11 05       	cpc	r17, r1
  c8:	01 f0       	breq	.+0      	; 0xca <_ZN7Stepper4stepEi+0xca>
  ca:	00 c0       	rjmp	.+0      	; 0xcc <_ZN7Stepper4stepEi+0xcc>
  cc:	df 91       	pop	r29
  ce:	cf 91       	pop	r28
  d0:	1f 91       	pop	r17
  d2:	0f 91       	pop	r16
  d4:	ff 90       	pop	r15
  d6:	ef 90       	pop	r14
  d8:	08 95       	ret

Disassembly of section .text._ZN7Stepper7versionEv:

00000000 <_ZN7Stepper7versionEv>:
   0:	84 e0       	ldi	r24, 0x04	; 4
   2:	90 e0       	ldi	r25, 0x00	; 0
   4:	08 95       	ret

Sprite.o:     file format elf32-avr

Sections:
Idx Name          Size      VMA       LMA       File off  Algn
  0 .text         00000000  00000000  00000000  00000034  2**0
                  CONTENTS, ALLOC, LOAD, READONLY, CODE
  1 .data         00000000  00000000  00000000  00000034  2**0
                  CONTENTS, ALLOC, LOAD, DATA
  2 .bss          00000000  00000000  00000000  00000034  2**0
                  ALLOC
  3 .text._ZN6Sprite4initEhh 0000002c  00000000  00000000  00000034  2**0
                  CONTENTS, ALLOC, LOAD, RELOC, READONLY, CODE
  4 .text._ZN6SpriteC2Ehh 00000006  00000000  00000000  00000060  2**0
                  CONTENTS, ALLOC, LOAD, RELOC, READONLY, CODE
  5 .text._ZNK6Sprite5widthEv 00000006  00000000  00000000  00000066  2**0
                  CONTENTS, ALLOC, LOAD, READONLY, CODE
  6 .text._ZNK6Sprite6heightEv 00000006  00000000  00000000  0000006c  2**0
                  CONTENTS, ALLOC, LOAD, READONLY, CODE
  7 .text._ZN6Sprite5writeEhhh 00000048  00000000  00000000  00000072  2**0
                  CONTENTS, ALLOC, LOAD, RELOC, READONLY, CODE
  8 .text._ZN6SpriteC2Ehhhz 000000ec  00000000  00000000  000000ba  2**0
                  CONTENTS, ALLOC, LOAD, RELOC, READONLY, CODE
  9 .text._ZNK6Sprite4readEhh 00000036  00000000  00000000  000001a6  2**0
                  CONTENTS, ALLOC, LOAD, RELOC, READONLY, CODE

Disassembly of section .text._ZN6Sprite4initEhh:

00000000 <_ZN6Sprite4initEhh>:
   0:	cf 93       	push	r28
   2:	df 93       	push	r29
   4:	ec 01       	movw	r28, r24
   6:	69 30       	cpi	r22, 0x09	; 9
   8:	00 f0       	brcs	.+0      	; 0xa <_ZN6Sprite4initEhh+0xa>
   a:	68 e0       	ldi	r22, 0x08	; 8
   c:	68 83       	st	Y, r22
   e:	84 2f       	mov	r24, r20
  10:	49 30       	cpi	r20, 0x09	; 9
  12:	00 f0       	brcs	.+0      	; 0x14 <_ZN6Sprite4initEhh+0x14>
  14:	88 e0       	ldi	r24, 0x08	; 8
  16:	89 83       	std	Y+1, r24	; 0x01
  18:	90 e0       	ldi	r25, 0x00	; 0
  1a:	61 e0       	ldi	r22, 0x01	; 1
  1c:	70 e0       	ldi	r23, 0x00	; 0
  1e:	0e 94 00 00 	call	0	; 0x0 <_ZN6Sprite4initEhh>
  22:	8e 83       	std	Y+6, r24	; 0x06
  24:	9f 83       	std	Y+7, r25	; 0x07
  26:	df 91       	pop	r29
  28:	cf 91       	pop	r28
  2a:	08 95       	ret

Disassembly of section .text._ZN6SpriteC2Ehh:

00000000 <_ZN6SpriteC1Ehh>:
   0:	0e 94 00 00 	call	0	; 0x0 <_ZN6SpriteC1Ehh>
   4:	08 95       	ret

Disassembly of section .text._ZNK6Sprite5widthEv:

00000000 <_ZNK6Sprite5widthEv>:
   0:	fc 01       	movw	r30, r24
   2:	80 81       	ld	r24, Z
   4:	08 95       	ret

Disassembly of section .text._ZNK6Sprite6heightEv:

00000000 <_ZNK6Sprite6heightEv>:
   0:	fc 01       	movw	r30, r24
   2:	81 81       	ldd	r24, Z+1	; 0x01
   4:	08 95       	ret

Disassembly of section .text._ZN6Sprite5writeEhhh:

00000000 <_ZN6Sprite5writeEhhh>:
   0:	fc 01       	movw	r30, r24
   2:	86 81       	ldd	r24, Z+6	; 0x06
   4:	97 81       	ldd	r25, Z+7	; 0x07
   6:	00 97       	sbiw	r24, 0x00	; 0
   8:	01 f0       	breq	.+0      	; 0xa <_ZN6Sprite5writeEhhh+0xa>
   a:	30 81       	ld	r19, Z
   c:	63 17       	cp	r22, r19
   e:	00 f4       	brcc	.+0      	; 0x10 <_ZN6Sprite5writeEhhh+0x10>
  10:	31 81       	ldd	r19, Z+1	; 0x01
  12:	43 17       	cp	r20, r19
  14:	00 f4       	brcc	.+0      	; 0x16 <_ZN6Sprite5writeEhhh+0x16>
  16:	fc 01       	movw	r30, r24
  18:	e4 0f       	add	r30, r20
  1a:	f1 1d       	adc	r31, r1
  1c:	30 e0       	ldi	r19, 0x00	; 0
  1e:	21 70       	andi	r18, 0x01	; 1
  20:	30 70       	andi	r19, 0x00	; 0
  22:	06 2e       	mov	r0, r22
  24:	00 c0       	rjmp	.+0      	; 0x26 <_ZN6Sprite5writeEhhh+0x26>
  26:	22 0f       	add	r18, r18
  28:	33 1f       	adc	r19, r19
  2a:	0a 94       	dec	r0
  2c:	02 f4       	brpl	.+0      	; 0x2e <_ZN6Sprite5writeEhhh+0x2e>
  2e:	81 e0       	ldi	r24, 0x01	; 1
  30:	90 e0       	ldi	r25, 0x00	; 0
  32:	00 c0       	rjmp	.+0      	; 0x34 <_ZN6Sprite5writeEhhh+0x34>
  34:	88 0f       	add	r24, r24
  36:	99 1f       	adc	r25, r25
  38:	6a 95       	dec	r22
  3a:	02 f4       	brpl	.+0      	; 0x3c <_ZN6Sprite5writeEhhh+0x3c>
  3c:	80 95       	com	r24
  3e:	90 81       	ld	r25, Z
  40:	89 23       	and	r24, r25
  42:	82 2b       	or	r24, r18
  44:	80 83       	st	Z, r24
  46:	08 95       	ret

Disassembly of section .text._ZN6SpriteC2Ehhhz:

00000000 <_ZN6SpriteC1Ehhhz>:
   0:	2f 92       	push	r2
   2:	3f 92       	push	r3
   4:	4f 92       	push	r4
   6:	5f 92       	push	r5
   8:	6f 92       	push	r6
   a:	7f 92       	push	r7
   c:	8f 92       	push	r8
   e:	9f 92       	push	r9
  10:	af 92       	push	r10
  12:	bf 92       	push	r11
  14:	cf 92       	push	r12
  16:	df 92       	push	r13
  18:	ef 92       	push	r14
  1a:	ff 92       	push	r15
  1c:	0f 93       	push	r16
  1e:	1f 93       	push	r17
  20:	df 93       	push	r29
  22:	cf 93       	push	r28
  24:	0f 92       	push	r0
  26:	0f 92       	push	r0
  28:	cd b7       	in	r28, 0x3d	; 61
  2a:	de b7       	in	r29, 0x3e	; 62
  2c:	68 8c       	ldd	r6, Y+24	; 0x18
  2e:	79 8c       	ldd	r7, Y+25	; 0x19
  30:	4a 8c       	ldd	r4, Y+26	; 0x1a
  32:	ab 8c       	ldd	r10, Y+27	; 0x1b
  34:	3c 8c       	ldd	r3, Y+28	; 0x1c
  36:	c3 01       	movw	r24, r6
  38:	64 2d       	mov	r22, r4
  3a:	4a 2d       	mov	r20, r10
  3c:	0e 94 00 00 	call	0	; 0x0 <_ZN6SpriteC1Ehhhz>
  40:	f3 01       	movw	r30, r6
  42:	86 81       	ldd	r24, Z+6	; 0x06
  44:	97 81       	ldd	r25, Z+7	; 0x07
  46:	00 97       	sbiw	r24, 0x00	; 0
  48:	01 f0       	breq	.+0      	; 0x4a <_ZN6SpriteC1Ehhhz+0x4a>
  4a:	8d e1       	ldi	r24, 0x1D	; 29
  4c:	c8 2e       	mov	r12, r24
  4e:	d1 2c       	mov	r13, r1
  50:	cc 0e       	add	r12, r28
  52:	dd 1e       	adc	r13, r29
  54:	ee 24       	eor	r14, r14
  56:	ff 24       	eor	r15, r15
  58:	55 24       	eor	r5, r5
  5a:	c2 01       	movw	r24, r4
  5c:	01 97       	sbiw	r24, 0x01	; 1
  5e:	9a 83       	std	Y+2, r25	; 0x02
  60:	89 83       	std	Y+1, r24	; 0x01
  62:	bb 24       	eor	r11, r11
  64:	08 94       	sec
  66:	a1 08       	sbc	r10, r1
  68:	b1 08       	sbc	r11, r1
  6a:	89 80       	ldd	r8, Y+1	; 0x01
  6c:	9a 80       	ldd	r9, Y+2	; 0x02
  6e:	00 e0       	ldi	r16, 0x00	; 0
  70:	10 e0       	ldi	r17, 0x00	; 0
  72:	23 2c       	mov	r2, r3
  74:	33 24       	eor	r3, r3
  76:	04 15       	cp	r16, r4
  78:	15 05       	cpc	r17, r5
  7a:	04 f4       	brge	.+0      	; 0x7c <_ZN6SpriteC1Ehhhz+0x7c>
  7c:	08 30       	cpi	r16, 0x08	; 8
  7e:	11 05       	cpc	r17, r1
  80:	01 f0       	breq	.+0      	; 0x82 <_ZN6SpriteC1Ehhhz+0x82>
  82:	91 01       	movw	r18, r2
  84:	08 2c       	mov	r0, r8
  86:	00 c0       	rjmp	.+0      	; 0x88 <_ZN6SpriteC1Ehhhz+0x88>
  88:	35 95       	asr	r19
  8a:	27 95       	ror	r18
  8c:	0a 94       	dec	r0
  8e:	02 f4       	brpl	.+0      	; 0x90 <_ZN6SpriteC1Ehhhz+0x90>
  90:	21 70       	andi	r18, 0x01	; 1
  92:	c3 01       	movw	r24, r6
  94:	60 2f       	mov	r22, r16
  96:	4e 2d       	mov	r20, r14
  98:	0e 94 00 00 	call	0	; 0x0 <_ZN6SpriteC1Ehhhz>
  9c:	0f 5f       	subi	r16, 0xFF	; 255
  9e:	1f 4f       	sbci	r17, 0xFF	; 255
  a0:	08 94       	sec
  a2:	81 08       	sbc	r8, r1
  a4:	91 08       	sbc	r9, r1
  a6:	00 c0       	rjmp	.+0      	; 0xa8 <_ZN6SpriteC1Ehhhz+0xa8>
  a8:	f6 01       	movw	r30, r12
  aa:	30 80       	ld	r3, Z
  ac:	08 94       	sec
  ae:	e1 1c       	adc	r14, r1
  b0:	f1 1c       	adc	r15, r1
  b2:	82 e0       	ldi	r24, 0x02	; 2
  b4:	90 e0       	ldi	r25, 0x00	; 0
  b6:	c8 0e       	add	r12, r24
  b8:	d9 1e       	adc	r13, r25
  ba:	00 c0       	rjmp	.+0      	; 0xbc <_ZN6SpriteC1Ehhhz+0xbc>
  bc:	ea 14       	cp	r14, r10
  be:	fb 04       	cpc	r15, r11
  c0:	01 f4       	brne	.+0      	; 0xc2 <_ZN6SpriteC1Ehhhz+0xc2>
  c2:	0f 90       	pop	r0
  c4:	0f 90       	pop	r0
  c6:	cf 91       	pop	r28
  c8:	df 91       	pop	r29
  ca:	1f 91       	pop	r17
  cc:	0f 91       	pop	r16
  ce:	ff 90       	pop	r15
  d0:	ef 90       	pop	r14
  d2:	df 90       	pop	r13
  d4:	cf 90       	pop	r12
  d6:	bf 90       	pop	r11
  d8:	af 90       	pop	r10
  da:	9f 90       	pop	r9
  dc:	8f 90       	pop	r8
  de:	7f 90       	pop	r7
  e0:	6f 90       	pop	r6
  e2:	5f 90       	pop	r5
  e4:	4f 90       	pop	r4
  e6:	3f 90       	pop	r3
  e8:	2f 90       	pop	r2
  ea:	08 95       	ret

Disassembly of section .text._ZNK6Sprite4readEhh:

00000000 <_ZNK6Sprite4readEhh>:
   0:	fc 01       	movw	r30, r24
   2:	86 81       	ldd	r24, Z+6	; 0x06
   4:	97 81       	ldd	r25, Z+7	; 0x07
   6:	00 97       	sbiw	r24, 0x00	; 0
   8:	01 f0       	breq	.+0      	; 0xa <_ZNK6Sprite4readEhh+0xa>
   a:	20 81       	ld	r18, Z
   c:	62 17       	cp	r22, r18
   e:	00 f4       	brcc	.+0      	; 0x10 <_ZNK6Sprite4readEhh+0x10>
  10:	21 81       	ldd	r18, Z+1	; 0x01
  12:	42 17       	cp	r20, r18
  14:	00 f4       	brcc	.+0      	; 0x16 <_ZNK6Sprite4readEhh+0x16>
  16:	84 0f       	add	r24, r20
  18:	91 1d       	adc	r25, r1
  1a:	fc 01       	movw	r30, r24
  1c:	80 81       	ld	r24, Z
  1e:	90 e0       	ldi	r25, 0x00	; 0
  20:	00 c0       	rjmp	.+0      	; 0x22 <_ZNK6Sprite4readEhh+0x22>
  22:	95 95       	asr	r25
  24:	87 95       	ror	r24
  26:	6a 95       	dec	r22
  28:	02 f4       	brpl	.+0      	; 0x2a <_ZNK6Sprite4readEhh+0x2a>
  2a:	81 70       	andi	r24, 0x01	; 1
  2c:	08 95       	ret
  2e:	80 e0       	ldi	r24, 0x00	; 0
  30:	08 95       	ret
  32:	80 e0       	ldi	r24, 0x00	; 0
  34:	08 95       	ret

SoftwareSerial.o:     file format elf32-avr

Sections:
Idx Name          Size      VMA       LMA       File off  Algn
  0 .text         00000000  00000000  00000000  00000034  2**0
                  CONTENTS, ALLOC, LOAD, READONLY, CODE
  1 .data         00000000  00000000  00000000  00000034  2**0
                  CONTENTS, ALLOC, LOAD, DATA
  2 .bss          00000000  00000000  00000000  00000034  2**0
                  ALLOC
  3 .text._ZN14SoftwareSerialC2Ehh 00000010  00000000  00000000  00000034  2**0
                  CONTENTS, ALLOC, LOAD, READONLY, CODE
  4 .text._ZN14SoftwareSerial5beginEl 00000038  00000000  00000000  00000044  2**0
                  CONTENTS, ALLOC, LOAD, RELOC, READONLY, CODE
  5 .text._ZN14SoftwareSerial4readEv 0000009c  00000000  00000000  0000007c  2**0
                  CONTENTS, ALLOC, LOAD, RELOC, READONLY, CODE
  6 .text._ZN14SoftwareSerial5printEh 0000008c  00000000  00000000  00000118  2**0
                  CONTENTS, ALLOC, LOAD, RELOC, READONLY, CODE
  7 .text._ZN14SoftwareSerial5printEPKc 0000002a  00000000  00000000  000001a4  2**0
                  CONTENTS, ALLOC, LOAD, RELOC, READONLY, CODE
  8 .text._ZN14SoftwareSerial5printEc 00000006  00000000  00000000  000001ce  2**0
                  CONTENTS, ALLOC, LOAD, RELOC, READONLY, CODE
  9 .text._ZN14SoftwareSerial7printlnEv 0000001a  00000000  00000000  000001d4  2**0
                  CONTENTS, ALLOC, LOAD, RELOC, READONLY, CODE
 10 .text._ZN14SoftwareSerial7printlnEc 00000016  00000000  00000000  000001ee  2**0
                  CONTENTS, ALLOC, LOAD, RELOC, READONLY, CODE
 11 .text._ZN14SoftwareSerial7printlnEPKc 00000016  00000000  00000000  00000204  2**0
                  CONTENTS, ALLOC, LOAD, RELOC, READONLY, CODE
 12 .text._ZN14SoftwareSerial7printlnEh 00000016  00000000  00000000  0000021a  2**0
                  CONTENTS, ALLOC, LOAD, RELOC, READONLY, CODE
 13 .text._ZN14SoftwareSerial11printNumberEmh 000000ec  00000000  00000000  00000230  2**0
                  CONTENTS, ALLOC, LOAD, RELOC, READONLY, CODE
 14 .text._ZN14SoftwareSerial5printEm 00000008  00000000  00000000  0000031c  2**0
                  CONTENTS, ALLOC, LOAD, RELOC, READONLY, CODE
 15 .text._ZN14SoftwareSerial7printlnEm 00000016  00000000  00000000  00000324  2**0
                  CONTENTS, ALLOC, LOAD, RELOC, READONLY, CODE
 16 .text._ZN14SoftwareSerial5printEj 0000000c  00000000  00000000  0000033a  2**0
                  CONTENTS, ALLOC, LOAD, RELOC, READONLY, CODE
 17 .text._ZN14SoftwareSerial5printEl 00000046  00000000  00000000  00000346  2**0
                  CONTENTS, ALLOC, LOAD, RELOC, READONLY, CODE
 18 .text._ZN14SoftwareSerial7printlnEl 00000016  00000000  00000000  0000038c  2**0
                  CONTENTS, ALLOC, LOAD, RELOC, READONLY, CODE
 19 .text._ZN14SoftwareSerial5printEi 00000012  00000000  00000000  000003a2  2**0
                  CONTENTS, ALLOC, LOAD, RELOC, READONLY, CODE
 20 .text._ZN14SoftwareSerial7printlnEi 00000024  00000000  00000000  000003b4  2**0
                  CONTENTS, ALLOC, LOAD, RELOC, READONLY, CODE
 21 .text._ZN14SoftwareSerial5printEli 00000020  00000000  00000000  000003d8  2**0
                  CONTENTS, ALLOC, LOAD, RELOC, READONLY, CODE
 22 .text._ZN14SoftwareSerial7printlnEli 00000016  00000000  00000000  000003f8  2**0
                  CONTENTS, ALLOC, LOAD, RELOC, READONLY, CODE

Disassembly of section .text._ZN14SoftwareSerialC2Ehh:

00000000 <_ZN14SoftwareSerialC1Ehh>:
   0:	fc 01       	movw	r30, r24
   2:	60 83       	st	Z, r22
   4:	41 83       	std	Z+1, r20	; 0x01
   6:	12 82       	std	Z+2, r1	; 0x02
   8:	13 82       	std	Z+3, r1	; 0x03
   a:	14 82       	std	Z+4, r1	; 0x04
   c:	15 82       	std	Z+5, r1	; 0x05
   e:	08 95       	ret

Disassembly of section .text._ZN14SoftwareSerial5beginEl:

00000000 <_ZN14SoftwareSerial5beginEl>:
   0:	cf 93       	push	r28
   2:	df 93       	push	r29
   4:	ec 01       	movw	r28, r24
   6:	9a 01       	movw	r18, r20
   8:	ab 01       	movw	r20, r22
   a:	2a 83       	std	Y+2, r18	; 0x02
   c:	3b 83       	std	Y+3, r19	; 0x03
   e:	4c 83       	std	Y+4, r20	; 0x04
  10:	5d 83       	std	Y+5, r21	; 0x05
  12:	60 e4       	ldi	r22, 0x40	; 64
  14:	72 e4       	ldi	r23, 0x42	; 66
  16:	8f e0       	ldi	r24, 0x0F	; 15
  18:	90 e0       	ldi	r25, 0x00	; 0
  1a:	0e 94 00 00 	call	0	; 0x0 <_ZN14SoftwareSerial5beginEl>
  1e:	3f 83       	std	Y+7, r19	; 0x07
  20:	2e 83       	std	Y+6, r18	; 0x06
  22:	89 81       	ldd	r24, Y+1	; 0x01
  24:	61 e0       	ldi	r22, 0x01	; 1
  26:	0e 94 00 00 	call	0	; 0x0 <_ZN14SoftwareSerial5beginEl>
  2a:	8e 81       	ldd	r24, Y+6	; 0x06
  2c:	9f 81       	ldd	r25, Y+7	; 0x07
  2e:	0e 94 00 00 	call	0	; 0x0 <_ZN14SoftwareSerial5beginEl>
  32:	df 91       	pop	r29
  34:	cf 91       	pop	r28
  36:	08 95       	ret

Disassembly of section .text._ZN14SoftwareSerial4readEv:

00000000 <_ZN14SoftwareSerial4readEv>:
   0:	cf 92       	push	r12
   2:	df 92       	push	r13
   4:	ef 92       	push	r14
   6:	ff 92       	push	r15
   8:	0f 93       	push	r16
   a:	1f 93       	push	r17
   c:	cf 93       	push	r28
   e:	df 93       	push	r29
  10:	ec 01       	movw	r28, r24
  12:	0e 81       	ldd	r16, Y+6	; 0x06
  14:	1f 81       	ldd	r17, Y+7	; 0x07
  16:	88 81       	ld	r24, Y
  18:	0e 94 00 00 	call	0	; 0x0 <_ZN14SoftwareSerial4readEv>
  1c:	00 97       	sbiw	r24, 0x00	; 0
  1e:	01 f4       	brne	.+0      	; 0x20 <_ZN14SoftwareSerial4readEv+0x20>
  20:	88 81       	ld	r24, Y
  22:	0e 94 00 00 	call	0	; 0x0 <_ZN14SoftwareSerial4readEv>
  26:	00 97       	sbiw	r24, 0x00	; 0
  28:	01 f4       	brne	.+0      	; 0x2a <_ZN14SoftwareSerial4readEv+0x2a>
  2a:	8d ef       	ldi	r24, 0xFD	; 253
  2c:	c8 2e       	mov	r12, r24
  2e:	8f ef       	ldi	r24, 0xFF	; 255
  30:	d8 2e       	mov	r13, r24
  32:	c0 0e       	add	r12, r16
  34:	d1 1e       	adc	r13, r17
  36:	c6 01       	movw	r24, r12
  38:	62 e0       	ldi	r22, 0x02	; 2
  3a:	70 e0       	ldi	r23, 0x00	; 0
  3c:	0e 94 00 00 	call	0	; 0x0 <_ZN14SoftwareSerial4readEv>
  40:	cb 01       	movw	r24, r22
  42:	03 97       	sbiw	r24, 0x03	; 3
  44:	0e 94 00 00 	call	0	; 0x0 <_ZN14SoftwareSerial4readEv>
  48:	ee 24       	eor	r14, r14
  4a:	ff 24       	eor	r15, r15
  4c:	00 e0       	ldi	r16, 0x00	; 0
  4e:	10 e0       	ldi	r17, 0x00	; 0
  50:	c6 01       	movw	r24, r12
  52:	0e 94 00 00 	call	0	; 0x0 <_ZN14SoftwareSerial4readEv>
  56:	88 81       	ld	r24, Y
  58:	0e 94 00 00 	call	0	; 0x0 <_ZN14SoftwareSerial4readEv>
  5c:	0e 2c       	mov	r0, r14
  5e:	00 c0       	rjmp	.+0      	; 0x60 <_ZN14SoftwareSerial4readEv+0x60>
  60:	88 0f       	add	r24, r24
  62:	99 1f       	adc	r25, r25
  64:	0a 94       	dec	r0
  66:	02 f4       	brpl	.+0      	; 0x68 <_ZN14SoftwareSerial4readEv+0x68>
  68:	08 2b       	or	r16, r24
  6a:	19 2b       	or	r17, r25
  6c:	08 94       	sec
  6e:	e1 1c       	adc	r14, r1
  70:	f1 1c       	adc	r15, r1
  72:	88 e0       	ldi	r24, 0x08	; 8
  74:	e8 16       	cp	r14, r24
  76:	f1 04       	cpc	r15, r1
  78:	01 f4       	brne	.+0      	; 0x7a <_ZN14SoftwareSerial4readEv+0x7a>
  7a:	8e 81       	ldd	r24, Y+6	; 0x06
  7c:	9f 81       	ldd	r25, Y+7	; 0x07
  7e:	0e 94 00 00 	call	0	; 0x0 <_ZN14SoftwareSerial4readEv>
  82:	00 c0       	rjmp	.+0      	; 0x84 <_ZN14SoftwareSerial4readEv+0x84>
  84:	0f ef       	ldi	r16, 0xFF	; 255
  86:	1f ef       	ldi	r17, 0xFF	; 255
  88:	c8 01       	movw	r24, r16
  8a:	df 91       	pop	r29
  8c:	cf 91       	pop	r28
  8e:	1f 91       	pop	r17
  90:	0f 91       	pop	r16
  92:	ff 90       	pop	r15
  94:	ef 90       	pop	r14
  96:	df 90       	pop	r13
  98:	cf 90       	pop	r12
  9a:	08 95       	ret

Disassembly of section .text._ZN14SoftwareSerial5printEh:

00000000 <_ZN14SoftwareSerial5printEh>:
   0:	cf 92       	push	r12
   2:	df 92       	push	r13
   4:	ef 92       	push	r14
   6:	ff 92       	push	r15
   8:	0f 93       	push	r16
   a:	1f 93       	push	r17
   c:	cf 93       	push	r28
   e:	df 93       	push	r29
  10:	ec 01       	movw	r28, r24
  12:	c6 2e       	mov	r12, r22
  14:	8a 81       	ldd	r24, Y+2	; 0x02
  16:	9b 81       	ldd	r25, Y+3	; 0x03
  18:	ac 81       	ldd	r26, Y+4	; 0x04
  1a:	bd 81       	ldd	r27, Y+5	; 0x05
  1c:	00 97       	sbiw	r24, 0x00	; 0
  1e:	a1 05       	cpc	r26, r1
  20:	b1 05       	cpc	r27, r1
  22:	01 f0       	breq	.+0      	; 0x24 <_ZN14SoftwareSerial5printEh+0x24>
  24:	0e 81       	ldd	r16, Y+6	; 0x06
  26:	1f 81       	ldd	r17, Y+7	; 0x07
  28:	03 50       	subi	r16, 0x03	; 3
  2a:	10 40       	sbci	r17, 0x00	; 0
  2c:	89 81       	ldd	r24, Y+1	; 0x01
  2e:	60 e0       	ldi	r22, 0x00	; 0
  30:	0e 94 00 00 	call	0	; 0x0 <_ZN14SoftwareSerial5printEh>
  34:	c8 01       	movw	r24, r16
  36:	0e 94 00 00 	call	0	; 0x0 <_ZN14SoftwareSerial5printEh>
  3a:	98 e0       	ldi	r25, 0x08	; 8
  3c:	e9 2e       	mov	r14, r25
  3e:	f1 2c       	mov	r15, r1
  40:	dd 24       	eor	r13, r13
  42:	d3 94       	inc	r13
  44:	8d 2d       	mov	r24, r13
  46:	8c 21       	and	r24, r12
  48:	01 f0       	breq	.+0      	; 0x4a <_ZN14SoftwareSerial5printEh+0x4a>
  4a:	89 81       	ldd	r24, Y+1	; 0x01
  4c:	61 e0       	ldi	r22, 0x01	; 1
  4e:	00 c0       	rjmp	.+0      	; 0x50 <_ZN14SoftwareSerial5printEh+0x50>
  50:	89 81       	ldd	r24, Y+1	; 0x01
  52:	60 e0       	ldi	r22, 0x00	; 0
  54:	0e 94 00 00 	call	0	; 0x0 <_ZN14SoftwareSerial5printEh>
  58:	c8 01       	movw	r24, r16
  5a:	0e 94 00 00 	call	0	; 0x0 <_ZN14SoftwareSerial5printEh>
  5e:	dd 0c       	add	r13, r13
  60:	08 94       	sec
  62:	e1 08       	sbc	r14, r1
  64:	f1 08       	sbc	r15, r1
  66:	e1 14       	cp	r14, r1
  68:	f1 04       	cpc	r15, r1
  6a:	01 f4       	brne	.+0      	; 0x6c <_ZN14SoftwareSerial5printEh+0x6c>
  6c:	89 81       	ldd	r24, Y+1	; 0x01
  6e:	61 e0       	ldi	r22, 0x01	; 1
  70:	0e 94 00 00 	call	0	; 0x0 <_ZN14SoftwareSerial5printEh>
  74:	c8 01       	movw	r24, r16
  76:	0e 94 00 00 	call	0	; 0x0 <_ZN14SoftwareSerial5printEh>
  7a:	df 91       	pop	r29
  7c:	cf 91       	pop	r28
  7e:	1f 91       	pop	r17
  80:	0f 91       	pop	r16
  82:	ff 90       	pop	r15
  84:	ef 90       	pop	r14
  86:	df 90       	pop	r13
  88:	cf 90       	pop	r12
  8a:	08 95       	ret

Disassembly of section .text._ZN14SoftwareSerial5printEPKc:

00000000 <_ZN14SoftwareSerial5printEPKc>:
   0:	0f 93       	push	r16
   2:	1f 93       	push	r17
   4:	cf 93       	push	r28
   6:	df 93       	push	r29
   8:	ec 01       	movw	r28, r24
   a:	06 2f       	mov	r16, r22
   c:	17 2f       	mov	r17, r23
   e:	00 c0       	rjmp	.+0      	; 0x10 <_ZN14SoftwareSerial5printEPKc+0x10>
  10:	ce 01       	movw	r24, r28
  12:	0e 94 00 00 	call	0	; 0x0 <_ZN14SoftwareSerial5printEPKc>
  16:	f8 01       	movw	r30, r16
  18:	61 91       	ld	r22, Z+
  1a:	8f 01       	movw	r16, r30
  1c:	66 23       	and	r22, r22
  1e:	01 f4       	brne	.+0      	; 0x20 <_ZN14SoftwareSerial5printEPKc+0x20>
  20:	df 91       	pop	r29
  22:	cf 91       	pop	r28
  24:	1f 91       	pop	r17
  26:	0f 91       	pop	r16
  28:	08 95       	ret

Disassembly of section .text._ZN14SoftwareSerial5printEc:

00000000 <_ZN14SoftwareSerial5printEc>:
   0:	0e 94 00 00 	call	0	; 0x0 <_ZN14SoftwareSerial5printEc>
   4:	08 95       	ret

Disassembly of section .text._ZN14SoftwareSerial7printlnEv:

00000000 <_ZN14SoftwareSerial7printlnEv>:
   0:	cf 93       	push	r28
   2:	df 93       	push	r29
   4:	ec 01       	movw	r28, r24
   6:	6d e0       	ldi	r22, 0x0D	; 13
   8:	0e 94 00 00 	call	0	; 0x0 <_ZN14SoftwareSerial7printlnEv>
   c:	ce 01       	movw	r24, r28
   e:	6a e0       	ldi	r22, 0x0A	; 10
  10:	0e 94 00 00 	call	0	; 0x0 <_ZN14SoftwareSerial7printlnEv>
  14:	df 91       	pop	r29
  16:	cf 91       	pop	r28
  18:	08 95       	ret

Disassembly of section .text._ZN14SoftwareSerial7printlnEc:

00000000 <_ZN14SoftwareSerial7printlnEc>:
   0:	cf 93       	push	r28
   2:	df 93       	push	r29
   4:	ec 01       	movw	r28, r24
   6:	0e 94 00 00 	call	0	; 0x0 <_ZN14SoftwareSerial7printlnEc>
   a:	ce 01       	movw	r24, r28
   c:	0e 94 00 00 	call	0	; 0x0 <_ZN14SoftwareSerial7printlnEc>
  10:	df 91       	pop	r29
  12:	cf 91       	pop	r28
  14:	08 95       	ret

Disassembly of section .text._ZN14SoftwareSerial7printlnEPKc:

00000000 <_ZN14SoftwareSerial7printlnEPKc>:
   0:	cf 93       	push	r28
   2:	df 93       	push	r29
   4:	ec 01       	movw	r28, r24
   6:	0e 94 00 00 	call	0	; 0x0 <_ZN14SoftwareSerial7printlnEPKc>
   a:	ce 01       	movw	r24, r28
   c:	0e 94 00 00 	call	0	; 0x0 <_ZN14SoftwareSerial7printlnEPKc>
  10:	df 91       	pop	r29
  12:	cf 91       	pop	r28
  14:	08 95       	ret

Disassembly of section .text._ZN14SoftwareSerial7printlnEh:

00000000 <_ZN14SoftwareSerial7printlnEh>:
   0:	cf 93       	push	r28
   2:	df 93       	push	r29
   4:	ec 01       	movw	r28, r24
   6:	0e 94 00 00 	call	0	; 0x0 <_ZN14SoftwareSerial7printlnEh>
   a:	ce 01       	movw	r24, r28
   c:	0e 94 00 00 	call	0	; 0x0 <_ZN14SoftwareSerial7printlnEh>
  10:	df 91       	pop	r29
  12:	cf 91       	pop	r28
  14:	08 95       	ret

Disassembly of section .text._ZN14SoftwareSerial11printNumberEmh:

00000000 <_ZN14SoftwareSerial11printNumberEmh>:
   0:	6f 92       	push	r6
   2:	7f 92       	push	r7
   4:	8f 92       	push	r8
   6:	9f 92       	push	r9
   8:	af 92       	push	r10
   a:	bf 92       	push	r11
   c:	cf 92       	push	r12
   e:	df 92       	push	r13
  10:	ef 92       	push	r14
  12:	ff 92       	push	r15
  14:	0f 93       	push	r16
  16:	1f 93       	push	r17
  18:	df 93       	push	r29
  1a:	cf 93       	push	r28
  1c:	cd b7       	in	r28, 0x3d	; 61
  1e:	de b7       	in	r29, 0x3e	; 62
  20:	a0 97       	sbiw	r28, 0x20	; 32
  22:	0f b6       	in	r0, 0x3f	; 63
  24:	f8 94       	cli
  26:	de bf       	out	0x3e, r29	; 62
  28:	0f be       	out	0x3f, r0	; 63
  2a:	cd bf       	out	0x3d, r28	; 61
  2c:	5c 01       	movw	r10, r24
  2e:	cb 01       	movw	r24, r22
  30:	ba 01       	movw	r22, r20
  32:	61 15       	cp	r22, r1
  34:	71 05       	cpc	r23, r1
  36:	81 05       	cpc	r24, r1
  38:	91 05       	cpc	r25, r1
  3a:	01 f4       	brne	.+0      	; 0x3c <_ZN14SoftwareSerial11printNumberEmh+0x3c>
  3c:	c5 01       	movw	r24, r10
  3e:	60 e3       	ldi	r22, 0x30	; 48
  40:	0e 94 00 00 	call	0	; 0x0 <_ZN14SoftwareSerial11printNumberEmh>
  44:	00 c0       	rjmp	.+0      	; 0x46 <_ZN14SoftwareSerial11printNumberEmh+0x46>
  46:	8e 01       	movw	r16, r28
  48:	0f 5f       	subi	r16, 0xFF	; 255
  4a:	1f 4f       	sbci	r17, 0xFF	; 255
  4c:	cc 24       	eor	r12, r12
  4e:	dd 24       	eor	r13, r13
  50:	76 01       	movw	r14, r12
  52:	62 2e       	mov	r6, r18
  54:	77 24       	eor	r7, r7
  56:	88 24       	eor	r8, r8
  58:	99 24       	eor	r9, r9
  5a:	a4 01       	movw	r20, r8
  5c:	93 01       	movw	r18, r6
  5e:	0e 94 00 00 	call	0	; 0x0 <_ZN14SoftwareSerial11printNumberEmh>
  62:	f8 01       	movw	r30, r16
  64:	61 93       	st	Z+, r22
  66:	8f 01       	movw	r16, r30
  68:	08 94       	sec
  6a:	c1 1c       	adc	r12, r1
  6c:	d1 1c       	adc	r13, r1
  6e:	e1 1c       	adc	r14, r1
  70:	f1 1c       	adc	r15, r1
  72:	b9 01       	movw	r22, r18
  74:	ca 01       	movw	r24, r20
  76:	61 15       	cp	r22, r1
  78:	71 05       	cpc	r23, r1
  7a:	81 05       	cpc	r24, r1
  7c:	91 05       	cpc	r25, r1
  7e:	01 f4       	brne	.+0      	; 0x80 <_ZN14SoftwareSerial11printNumberEmh+0x80>
  80:	d7 01       	movw	r26, r14
  82:	c6 01       	movw	r24, r12
  84:	01 97       	sbiw	r24, 0x01	; 1
  86:	a1 09       	sbc	r26, r1
  88:	b1 09       	sbc	r27, r1
  8a:	8e 01       	movw	r16, r28
  8c:	0f 5f       	subi	r16, 0xFF	; 255
  8e:	1f 4f       	sbci	r17, 0xFF	; 255
  90:	08 0f       	add	r16, r24
  92:	19 1f       	adc	r17, r25
  94:	00 c0       	rjmp	.+0      	; 0x96 <_ZN14SoftwareSerial11printNumberEmh+0x96>
  96:	f8 01       	movw	r30, r16
  98:	60 81       	ld	r22, Z
  9a:	6a 30       	cpi	r22, 0x0A	; 10
  9c:	00 f4       	brcc	.+0      	; 0x9e <_ZN14SoftwareSerial11printNumberEmh+0x9e>
  9e:	60 5d       	subi	r22, 0xD0	; 208
  a0:	00 c0       	rjmp	.+0      	; 0xa2 <_ZN14SoftwareSerial11printNumberEmh+0xa2>
  a2:	69 5c       	subi	r22, 0xC9	; 201
  a4:	c5 01       	movw	r24, r10
  a6:	0e 94 00 00 	call	0	; 0x0 <_ZN14SoftwareSerial11printNumberEmh>
  aa:	08 94       	sec
  ac:	c1 08       	sbc	r12, r1
  ae:	d1 08       	sbc	r13, r1
  b0:	e1 08       	sbc	r14, r1
  b2:	f1 08       	sbc	r15, r1
  b4:	01 50       	subi	r16, 0x01	; 1
  b6:	10 40       	sbci	r17, 0x00	; 0
  b8:	c1 14       	cp	r12, r1
  ba:	d1 04       	cpc	r13, r1
  bc:	e1 04       	cpc	r14, r1
  be:	f1 04       	cpc	r15, r1
  c0:	01 f4       	brne	.+0      	; 0xc2 <_ZN14SoftwareSerial11printNumberEmh+0xc2>
  c2:	a0 96       	adiw	r28, 0x20	; 32
  c4:	0f b6       	in	r0, 0x3f	; 63
  c6:	f8 94       	cli
  c8:	de bf       	out	0x3e, r29	; 62
  ca:	0f be       	out	0x3f, r0	; 63
  cc:	cd bf       	out	0x3d, r28	; 61
  ce:	cf 91       	pop	r28
  d0:	df 91       	pop	r29
  d2:	1f 91       	pop	r17
  d4:	0f 91       	pop	r16
  d6:	ff 90       	pop	r15
  d8:	ef 90       	pop	r14
  da:	df 90       	pop	r13
  dc:	cf 90       	pop	r12
  de:	bf 90       	pop	r11
  e0:	af 90       	pop	r10
  e2:	9f 90       	pop	r9
  e4:	8f 90       	pop	r8
  e6:	7f 90       	pop	r7
  e8:	6f 90       	pop	r6
  ea:	08 95       	ret

Disassembly of section .text._ZN14SoftwareSerial5printEm:

00000000 <_ZN14SoftwareSerial5printEm>:
   0:	2a e0       	ldi	r18, 0x0A	; 10
   2:	0e 94 00 00 	call	0	; 0x0 <_ZN14SoftwareSerial5printEm>
   6:	08 95       	ret

Disassembly of section .text._ZN14SoftwareSerial7printlnEm:

00000000 <_ZN14SoftwareSerial7printlnEm>:
   0:	cf 93       	push	r28
   2:	df 93       	push	r29
   4:	ec 01       	movw	r28, r24
   6:	0e 94 00 00 	call	0	; 0x0 <_ZN14SoftwareSerial7printlnEm>
   a:	ce 01       	movw	r24, r28
   c:	0e 94 00 00 	call	0	; 0x0 <_ZN14SoftwareSerial7printlnEm>
  10:	df 91       	pop	r29
  12:	cf 91       	pop	r28
  14:	08 95       	ret

Disassembly of section .text._ZN14SoftwareSerial5printEj:

00000000 <_ZN14SoftwareSerial5printEj>:
   0:	ab 01       	movw	r20, r22
   2:	60 e0       	ldi	r22, 0x00	; 0
   4:	70 e0       	ldi	r23, 0x00	; 0
   6:	0e 94 00 00 	call	0	; 0x0 <_ZN14SoftwareSerial5printEj>
   a:	08 95       	ret

Disassembly of section .text._ZN14SoftwareSerial5printEl:

00000000 <_ZN14SoftwareSerial5printEl>:
   0:	ef 92       	push	r14
   2:	ff 92       	push	r15
   4:	0f 93       	push	r16
   6:	1f 93       	push	r17
   8:	cf 93       	push	r28
   a:	df 93       	push	r29
   c:	ec 01       	movw	r28, r24
   e:	7a 01       	movw	r14, r20
  10:	8b 01       	movw	r16, r22
  12:	77 ff       	sbrs	r23, 7
  14:	00 c0       	rjmp	.+0      	; 0x16 <_ZN14SoftwareSerial5printEl+0x16>
  16:	6d e2       	ldi	r22, 0x2D	; 45
  18:	0e 94 00 00 	call	0	; 0x0 <_ZN14SoftwareSerial5printEl>
  1c:	10 95       	com	r17
  1e:	00 95       	com	r16
  20:	f0 94       	com	r15
  22:	e0 94       	com	r14
  24:	e1 1c       	adc	r14, r1
  26:	f1 1c       	adc	r15, r1
  28:	01 1d       	adc	r16, r1
  2a:	11 1d       	adc	r17, r1
  2c:	ce 01       	movw	r24, r28
  2e:	b8 01       	movw	r22, r16
  30:	a7 01       	movw	r20, r14
  32:	2a e0       	ldi	r18, 0x0A	; 10
  34:	0e 94 00 00 	call	0	; 0x0 <_ZN14SoftwareSerial5printEl>
  38:	df 91       	pop	r29
  3a:	cf 91       	pop	r28
  3c:	1f 91       	pop	r17
  3e:	0f 91       	pop	r16
  40:	ff 90       	pop	r15
  42:	ef 90       	pop	r14
  44:	08 95       	ret

Disassembly of section .text._ZN14SoftwareSerial7printlnEl:

00000000 <_ZN14SoftwareSerial7printlnEl>:
   0:	cf 93       	push	r28
   2:	df 93       	push	r29
   4:	ec 01       	movw	r28, r24
   6:	0e 94 00 00 	call	0	; 0x0 <_ZN14SoftwareSerial7printlnEl>
   a:	ce 01       	movw	r24, r28
   c:	0e 94 00 00 	call	0	; 0x0 <_ZN14SoftwareSerial7printlnEl>
  10:	df 91       	pop	r29
  12:	cf 91       	pop	r28
  14:	08 95       	ret

Disassembly of section .text._ZN14SoftwareSerial5printEi:

00000000 <_ZN14SoftwareSerial5printEi>:
   0:	9b 01       	movw	r18, r22
   2:	a9 01       	movw	r20, r18
   4:	66 27       	eor	r22, r22
   6:	57 fd       	sbrc	r21, 7
   8:	60 95       	com	r22
   a:	76 2f       	mov	r23, r22
   c:	0e 94 00 00 	call	0	; 0x0 <_ZN14SoftwareSerial5printEi>
  10:	08 95       	ret

Disassembly of section .text._ZN14SoftwareSerial7printlnEi:

00000000 <_ZN14SoftwareSerial7printlnEi>:
   0:	cf 93       	push	r28
   2:	df 93       	push	r29
   4:	ec 01       	movw	r28, r24
   6:	cb 01       	movw	r24, r22
   8:	ac 01       	movw	r20, r24
   a:	66 27       	eor	r22, r22
   c:	57 fd       	sbrc	r21, 7
   e:	60 95       	com	r22
  10:	76 2f       	mov	r23, r22
  12:	ce 01       	movw	r24, r28
  14:	0e 94 00 00 	call	0	; 0x0 <_ZN14SoftwareSerial7printlnEi>
  18:	ce 01       	movw	r24, r28
  1a:	0e 94 00 00 	call	0	; 0x0 <_ZN14SoftwareSerial7printlnEi>
  1e:	df 91       	pop	r29
  20:	cf 91       	pop	r28
  22:	08 95       	ret

Disassembly of section .text._ZN14SoftwareSerial5printEli:

00000000 <_ZN14SoftwareSerial5printEli>:
   0:	21 15       	cp	r18, r1
   2:	31 05       	cpc	r19, r1
   4:	01 f4       	brne	.+0      	; 0x6 <_ZN14SoftwareSerial5printEli+0x6>
   6:	64 2f       	mov	r22, r20
   8:	0e 94 00 00 	call	0	; 0x0 <_ZN14SoftwareSerial5printEli>
   c:	08 95       	ret
   e:	2a 30       	cpi	r18, 0x0A	; 10
  10:	31 05       	cpc	r19, r1
  12:	01 f4       	brne	.+0      	; 0x14 <_ZN14SoftwareSerial5printEli+0x14>
  14:	0e 94 00 00 	call	0	; 0x0 <_ZN14SoftwareSerial5printEli>
  18:	08 95       	ret
  1a:	0e 94 00 00 	call	0	; 0x0 <_ZN14SoftwareSerial5printEli>
  1e:	08 95       	ret

Disassembly of section .text._ZN14SoftwareSerial7printlnEli:

00000000 <_ZN14SoftwareSerial7printlnEli>:
   0:	cf 93       	push	r28
   2:	df 93       	push	r29
   4:	ec 01       	movw	r28, r24
   6:	0e 94 00 00 	call	0	; 0x0 <_ZN14SoftwareSerial7printlnEli>
   a:	ce 01       	movw	r24, r28
   c:	0e 94 00 00 	call	0	; 0x0 <_ZN14SoftwareSerial7printlnEli>
  10:	df 91       	pop	r29
  12:	cf 91       	pop	r28
  14:	08 95       	ret

Servo.o:     file format elf32-avr

Sections:
Idx Name          Size      VMA       LMA       File off  Algn
  0 .text         00000000  00000000  00000000  00000034  2**0
                  CONTENTS, ALLOC, LOAD, READONLY, CODE
  1 .data         00000000  00000000  00000000  00000034  2**0
                  CONTENTS, ALLOC, LOAD, DATA
  2 .bss          00000000  00000000  00000000  00000034  2**0
                  ALLOC
  3 .text._ZL17handle_interrupts18timer16_Sequence_tPVjS1_ 0000018e  00000000  00000000  00000034  2**0
                  CONTENTS, ALLOC, LOAD, RELOC, READONLY, CODE
  4 .text.__vector_17 0000005a  00000000  00000000  000001c2  2**0
                  CONTENTS, ALLOC, LOAD, RELOC, READONLY, CODE
  5 .text.__vector_32 0000005a  00000000  00000000  0000021c  2**0
                  CONTENTS, ALLOC, LOAD, RELOC, READONLY, CODE
  6 .text.__vector_42 0000005a  00000000  00000000  00000276  2**0
                  CONTENTS, ALLOC, LOAD, RELOC, READONLY, CODE
  7 .text.__vector_47 0000005a  00000000  00000000  000002d0  2**0
                  CONTENTS, ALLOC, LOAD, RELOC, READONLY, CODE
  8 .text._ZN5ServoC2Ev 00000034  00000000  00000000  0000032a  2**0
                  CONTENTS, ALLOC, LOAD, RELOC, READONLY, CODE
  9 .text._ZN5Servo6attachEiii 0000015a  00000000  00000000  0000035e  2**0
                  CONTENTS, ALLOC, LOAD, RELOC, READONLY, CODE
 10 .text._ZN5Servo6attachEi 0000000e  00000000  00000000  000004b8  2**0
                  CONTENTS, ALLOC, LOAD, RELOC, READONLY, CODE
 11 .text._ZN5Servo6detachEv 0000001c  00000000  00000000  000004c6  2**0
                  CONTENTS, ALLOC, LOAD, RELOC, READONLY, CODE
 12 .text._ZN5Servo17writeMicrosecondsEi 0000008a  00000000  00000000  000004e2  2**0
                  CONTENTS, ALLOC, LOAD, RELOC, READONLY, CODE
 13 .text._ZN5Servo5writeEi 000000c8  00000000  00000000  0000056c  2**0
                  CONTENTS, ALLOC, LOAD, RELOC, READONLY, CODE
 14 .text._ZN5Servo16readMicrosecondsEv 0000003e  00000000  00000000  00000634  2**0
                  CONTENTS, ALLOC, LOAD, RELOC, READONLY, CODE
 15 .text._ZN5Servo4readEv 000000b2  00000000  00000000  00000672  2**0
                  CONTENTS, ALLOC, LOAD, RELOC, READONLY, CODE
 16 .text._ZN5Servo8attachedEv 00000020  00000000  00000000  00000724  2**0
                  CONTENTS, ALLOC, LOAD, RELOC, READONLY, CODE
 17 .bss.ServoCount 00000001  00000000  00000000  00000744  2**0
                  ALLOC
 18 .bss._ZL6servos 00000090  00000000  00000000  00000744  2**0
                  ALLOC
 19 .bss._ZL7Channel 00000004  00000000  00000000  00000744  2**0
                  ALLOC

Disassembly of section .text._ZL17handle_interrupts18timer16_Sequence_tPVjS1_:

00000000 <_ZL17handle_interrupts18timer16_Sequence_tPVjS1_>:
   0:	ef 92       	push	r14
   2:	ff 92       	push	r15
   4:	0f 93       	push	r16
   6:	1f 93       	push	r17
   8:	cf 93       	push	r28
   a:	df 93       	push	r29
   c:	eb 01       	movw	r28, r22
   e:	7a 01       	movw	r14, r20
  10:	08 2f       	mov	r16, r24
  12:	10 e0       	ldi	r17, 0x00	; 0
  14:	d8 01       	movw	r26, r16
  16:	a0 50       	subi	r26, 0x00	; 0
  18:	b0 40       	sbci	r27, 0x00	; 0
  1a:	8c 91       	ld	r24, X
  1c:	87 ff       	sbrs	r24, 7
  1e:	00 c0       	rjmp	.+0      	; 0x20 <_ZL17handle_interrupts18timer16_Sequence_tPVjS1_+0x20>
  20:	19 82       	std	Y+1, r1	; 0x01
  22:	18 82       	st	Y, r1
  24:	00 c0       	rjmp	.+0      	; 0x26 <_ZL17handle_interrupts18timer16_Sequence_tPVjS1_+0x26>
  26:	c8 01       	movw	r24, r16
  28:	88 0f       	add	r24, r24
  2a:	99 1f       	adc	r25, r25
  2c:	80 0f       	add	r24, r16
  2e:	91 1f       	adc	r25, r17
  30:	88 0f       	add	r24, r24
  32:	99 1f       	adc	r25, r25
  34:	88 0f       	add	r24, r24
  36:	99 1f       	adc	r25, r25
  38:	2c 91       	ld	r18, X
  3a:	33 27       	eor	r19, r19
  3c:	27 fd       	sbrc	r18, 7
  3e:	30 95       	com	r19
  40:	28 0f       	add	r18, r24
  42:	39 1f       	adc	r19, r25
  44:	40 91 00 00 	lds	r20, 0x0000
  48:	50 e0       	ldi	r21, 0x00	; 0
  4a:	24 17       	cp	r18, r20
  4c:	35 07       	cpc	r19, r21
  4e:	04 f4       	brge	.+0      	; 0x50 <_ZL17handle_interrupts18timer16_Sequence_tPVjS1_+0x50>
  50:	2c 91       	ld	r18, X
  52:	33 27       	eor	r19, r19
  54:	27 fd       	sbrc	r18, 7
  56:	30 95       	com	r19
  58:	28 0f       	add	r18, r24
  5a:	39 1f       	adc	r19, r25
  5c:	f9 01       	movw	r30, r18
  5e:	ee 0f       	add	r30, r30
  60:	ff 1f       	adc	r31, r31
  62:	e2 0f       	add	r30, r18
  64:	f3 1f       	adc	r31, r19
  66:	e0 50       	subi	r30, 0x00	; 0
  68:	f0 40       	sbci	r31, 0x00	; 0
  6a:	20 81       	ld	r18, Z
  6c:	26 ff       	sbrs	r18, 6
  6e:	00 c0       	rjmp	.+0      	; 0x70 <_ZL17handle_interrupts18timer16_Sequence_tPVjS1_+0x70>
  70:	2c 91       	ld	r18, X
  72:	33 27       	eor	r19, r19
  74:	27 fd       	sbrc	r18, 7
  76:	30 95       	com	r19
  78:	28 0f       	add	r18, r24
  7a:	39 1f       	adc	r19, r25
  7c:	f9 01       	movw	r30, r18
  7e:	ee 0f       	add	r30, r30
  80:	ff 1f       	adc	r31, r31
  82:	e2 0f       	add	r30, r18
  84:	f3 1f       	adc	r31, r19
  86:	e0 50       	subi	r30, 0x00	; 0
  88:	f0 40       	sbci	r31, 0x00	; 0
  8a:	80 81       	ld	r24, Z
  8c:	8f 73       	andi	r24, 0x3F	; 63
  8e:	60 e0       	ldi	r22, 0x00	; 0
  90:	0e 94 00 00 	call	0	; 0x0 <_ZL17handle_interrupts18timer16_Sequence_tPVjS1_>
  94:	f8 01       	movw	r30, r16
  96:	e0 50       	subi	r30, 0x00	; 0
  98:	f0 40       	sbci	r31, 0x00	; 0
  9a:	80 81       	ld	r24, Z
  9c:	8f 5f       	subi	r24, 0xFF	; 255
  9e:	80 83       	st	Z, r24
  a0:	c8 01       	movw	r24, r16
  a2:	88 0f       	add	r24, r24
  a4:	99 1f       	adc	r25, r25
  a6:	80 0f       	add	r24, r16
  a8:	91 1f       	adc	r25, r17
  aa:	88 0f       	add	r24, r24
  ac:	99 1f       	adc	r25, r25
  ae:	88 0f       	add	r24, r24
  b0:	99 1f       	adc	r25, r25
  b2:	20 81       	ld	r18, Z
  b4:	33 27       	eor	r19, r19
  b6:	27 fd       	sbrc	r18, 7
  b8:	30 95       	com	r19
  ba:	28 0f       	add	r18, r24
  bc:	39 1f       	adc	r19, r25
  be:	40 91 00 00 	lds	r20, 0x0000
  c2:	50 e0       	ldi	r21, 0x00	; 0
  c4:	24 17       	cp	r18, r20
  c6:	35 07       	cpc	r19, r21
  c8:	04 f0       	brlt	.+0      	; 0xca <_ZL17handle_interrupts18timer16_Sequence_tPVjS1_+0xca>
  ca:	00 c0       	rjmp	.+0      	; 0xcc <_ZL17handle_interrupts18timer16_Sequence_tPVjS1_+0xcc>
  cc:	20 81       	ld	r18, Z
  ce:	2c 30       	cpi	r18, 0x0C	; 12
  d0:	04 f0       	brlt	.+0      	; 0xd2 <_ZL17handle_interrupts18timer16_Sequence_tPVjS1_+0xd2>
  d2:	00 c0       	rjmp	.+0      	; 0xd4 <_ZL17handle_interrupts18timer16_Sequence_tPVjS1_+0xd4>
  d4:	48 81       	ld	r20, Y
  d6:	59 81       	ldd	r21, Y+1	; 0x01
  d8:	20 81       	ld	r18, Z
  da:	33 27       	eor	r19, r19
  dc:	27 fd       	sbrc	r18, 7
  de:	30 95       	com	r19
  e0:	28 0f       	add	r18, r24
  e2:	39 1f       	adc	r19, r25
  e4:	d9 01       	movw	r26, r18
  e6:	aa 0f       	add	r26, r26
  e8:	bb 1f       	adc	r27, r27
  ea:	a2 0f       	add	r26, r18
  ec:	b3 1f       	adc	r27, r19
  ee:	a0 50       	subi	r26, 0x00	; 0
  f0:	b0 40       	sbci	r27, 0x00	; 0
  f2:	11 96       	adiw	r26, 0x01	; 1
  f4:	2d 91       	ld	r18, X+
  f6:	3c 91       	ld	r19, X
  f8:	12 97       	sbiw	r26, 0x02	; 2
  fa:	42 0f       	add	r20, r18
  fc:	53 1f       	adc	r21, r19
  fe:	d7 01       	movw	r26, r14
 100:	11 96       	adiw	r26, 0x01	; 1
 102:	5c 93       	st	X, r21
 104:	4e 93       	st	-X, r20
 106:	20 81       	ld	r18, Z
 108:	33 27       	eor	r19, r19
 10a:	27 fd       	sbrc	r18, 7
 10c:	30 95       	com	r19
 10e:	28 0f       	add	r18, r24
 110:	39 1f       	adc	r19, r25
 112:	d9 01       	movw	r26, r18
 114:	aa 0f       	add	r26, r26
 116:	bb 1f       	adc	r27, r27
 118:	a2 0f       	add	r26, r18
 11a:	b3 1f       	adc	r27, r19
 11c:	a0 50       	subi	r26, 0x00	; 0
 11e:	b0 40       	sbci	r27, 0x00	; 0
 120:	2c 91       	ld	r18, X
 122:	26 ff       	sbrs	r18, 6
 124:	00 c0       	rjmp	.+0      	; 0x126 <_ZL17handle_interrupts18timer16_Sequence_tPVjS1_+0x126>
 126:	20 81       	ld	r18, Z
 128:	33 27       	eor	r19, r19
 12a:	27 fd       	sbrc	r18, 7
 12c:	30 95       	com	r19
 12e:	28 0f       	add	r18, r24
 130:	39 1f       	adc	r19, r25
 132:	f9 01       	movw	r30, r18
 134:	ee 0f       	add	r30, r30
 136:	ff 1f       	adc	r31, r31
 138:	e2 0f       	add	r30, r18
 13a:	f3 1f       	adc	r31, r19
 13c:	e0 50       	subi	r30, 0x00	; 0
 13e:	f0 40       	sbci	r31, 0x00	; 0
 140:	80 81       	ld	r24, Z
 142:	8f 73       	andi	r24, 0x3F	; 63
 144:	61 e0       	ldi	r22, 0x01	; 1
 146:	0e 94 00 00 	call	0	; 0x0 <_ZL17handle_interrupts18timer16_Sequence_tPVjS1_>
 14a:	00 c0       	rjmp	.+0      	; 0x14c <_ZL17handle_interrupts18timer16_Sequence_tPVjS1_+0x14c>
 14c:	80 e4       	ldi	r24, 0x40	; 64
 14e:	9c e9       	ldi	r25, 0x9C	; 156
 150:	f7 01       	movw	r30, r14
 152:	91 83       	std	Z+1, r25	; 0x01
 154:	80 83       	st	Z, r24
 156:	00 c0       	rjmp	.+0      	; 0x158 <_ZL17handle_interrupts18timer16_Sequence_tPVjS1_+0x158>
 158:	88 81       	ld	r24, Y
 15a:	99 81       	ldd	r25, Y+1	; 0x01
 15c:	04 96       	adiw	r24, 0x04	; 4
 15e:	d7 01       	movw	r26, r14
 160:	11 96       	adiw	r26, 0x01	; 1
 162:	9c 93       	st	X, r25
 164:	8e 93       	st	-X, r24
 166:	f8 01       	movw	r30, r16
 168:	e0 50       	subi	r30, 0x00	; 0
 16a:	f0 40       	sbci	r31, 0x00	; 0
 16c:	8f ef       	ldi	r24, 0xFF	; 255
 16e:	80 83       	st	Z, r24
 170:	00 c0       	rjmp	.+0      	; 0x172 <_ZL17handle_interrupts18timer16_Sequence_tPVjS1_+0x172>
 172:	88 81       	ld	r24, Y
 174:	99 81       	ldd	r25, Y+1	; 0x01
 176:	bc e9       	ldi	r27, 0x9C	; 156
 178:	84 34       	cpi	r24, 0x44	; 68
 17a:	9b 07       	cpc	r25, r27
 17c:	00 f0       	brcs	.+0      	; 0x17e <_ZL17handle_interrupts18timer16_Sequence_tPVjS1_+0x17e>
 17e:	00 c0       	rjmp	.+0      	; 0x180 <_ZL17handle_interrupts18timer16_Sequence_tPVjS1_+0x180>
 180:	df 91       	pop	r29
 182:	cf 91       	pop	r28
 184:	1f 91       	pop	r17
 186:	0f 91       	pop	r16
 188:	ff 90       	pop	r15
 18a:	ef 90       	pop	r14
 18c:	08 95       	ret

Disassembly of section .text.__vector_17:

00000000 <__vector_17>:
   0:	1f 92       	push	r1
   2:	0f 92       	push	r0
   4:	0f b6       	in	r0, 0x3f	; 63
   6:	0f 92       	push	r0
   8:	0b b6       	in	r0, 0x3b	; 59
   a:	0f 92       	push	r0
   c:	11 24       	eor	r1, r1
   e:	2f 93       	push	r18
  10:	3f 93       	push	r19
  12:	4f 93       	push	r20
  14:	5f 93       	push	r21
  16:	6f 93       	push	r22
  18:	7f 93       	push	r23
  1a:	8f 93       	push	r24
  1c:	9f 93       	push	r25
  1e:	af 93       	push	r26
  20:	bf 93       	push	r27
  22:	ef 93       	push	r30
  24:	ff 93       	push	r31
  26:	81 e0       	ldi	r24, 0x01	; 1
  28:	64 e8       	ldi	r22, 0x84	; 132
  2a:	70 e0       	ldi	r23, 0x00	; 0
  2c:	48 e8       	ldi	r20, 0x88	; 136
  2e:	50 e0       	ldi	r21, 0x00	; 0
  30:	0e 94 00 00 	call	0	; 0x0 <__vector_17>
  34:	ff 91       	pop	r31
  36:	ef 91       	pop	r30
  38:	bf 91       	pop	r27
  3a:	af 91       	pop	r26
  3c:	9f 91       	pop	r25
  3e:	8f 91       	pop	r24
  40:	7f 91       	pop	r23
  42:	6f 91       	pop	r22
  44:	5f 91       	pop	r21
  46:	4f 91       	pop	r20
  48:	3f 91       	pop	r19
  4a:	2f 91       	pop	r18
  4c:	0f 90       	pop	r0
  4e:	0b be       	out	0x3b, r0	; 59
  50:	0f 90       	pop	r0
  52:	0f be       	out	0x3f, r0	; 63
  54:	0f 90       	pop	r0
  56:	1f 90       	pop	r1
  58:	18 95       	reti

Disassembly of section .text.__vector_32:

00000000 <__vector_32>:
   0:	1f 92       	push	r1
   2:	0f 92       	push	r0
   4:	0f b6       	in	r0, 0x3f	; 63
   6:	0f 92       	push	r0
   8:	0b b6       	in	r0, 0x3b	; 59
   a:	0f 92       	push	r0
   c:	11 24       	eor	r1, r1
   e:	2f 93       	push	r18
  10:	3f 93       	push	r19
  12:	4f 93       	push	r20
  14:	5f 93       	push	r21
  16:	6f 93       	push	r22
  18:	7f 93       	push	r23
  1a:	8f 93       	push	r24
  1c:	9f 93       	push	r25
  1e:	af 93       	push	r26
  20:	bf 93       	push	r27
  22:	ef 93       	push	r30
  24:	ff 93       	push	r31
  26:	82 e0       	ldi	r24, 0x02	; 2
  28:	64 e9       	ldi	r22, 0x94	; 148
  2a:	70 e0       	ldi	r23, 0x00	; 0
  2c:	48 e9       	ldi	r20, 0x98	; 152
  2e:	50 e0       	ldi	r21, 0x00	; 0
  30:	0e 94 00 00 	call	0	; 0x0 <__vector_32>
  34:	ff 91       	pop	r31
  36:	ef 91       	pop	r30
  38:	bf 91       	pop	r27
  3a:	af 91       	pop	r26
  3c:	9f 91       	pop	r25
  3e:	8f 91       	pop	r24
  40:	7f 91       	pop	r23
  42:	6f 91       	pop	r22
  44:	5f 91       	pop	r21
  46:	4f 91       	pop	r20
  48:	3f 91       	pop	r19
  4a:	2f 91       	pop	r18
  4c:	0f 90       	pop	r0
  4e:	0b be       	out	0x3b, r0	; 59
  50:	0f 90       	pop	r0
  52:	0f be       	out	0x3f, r0	; 63
  54:	0f 90       	pop	r0
  56:	1f 90       	pop	r1
  58:	18 95       	reti

Disassembly of section .text.__vector_42:

00000000 <__vector_42>:
   0:	1f 92       	push	r1
   2:	0f 92       	push	r0
   4:	0f b6       	in	r0, 0x3f	; 63
   6:	0f 92       	push	r0
   8:	0b b6       	in	r0, 0x3b	; 59
   a:	0f 92       	push	r0
   c:	11 24       	eor	r1, r1
   e:	2f 93       	push	r18
  10:	3f 93       	push	r19
  12:	4f 93       	push	r20
  14:	5f 93       	push	r21
  16:	6f 93       	push	r22
  18:	7f 93       	push	r23
  1a:	8f 93       	push	r24
  1c:	9f 93       	push	r25
  1e:	af 93       	push	r26
  20:	bf 93       	push	r27
  22:	ef 93       	push	r30
  24:	ff 93       	push	r31
  26:	83 e0       	ldi	r24, 0x03	; 3
  28:	64 ea       	ldi	r22, 0xA4	; 164
  2a:	70 e0       	ldi	r23, 0x00	; 0
  2c:	48 ea       	ldi	r20, 0xA8	; 168
  2e:	50 e0       	ldi	r21, 0x00	; 0
  30:	0e 94 00 00 	call	0	; 0x0 <__vector_42>
  34:	ff 91       	pop	r31
  36:	ef 91       	pop	r30
  38:	bf 91       	pop	r27
  3a:	af 91       	pop	r26
  3c:	9f 91       	pop	r25
  3e:	8f 91       	pop	r24
  40:	7f 91       	pop	r23
  42:	6f 91       	pop	r22
  44:	5f 91       	pop	r21
  46:	4f 91       	pop	r20
  48:	3f 91       	pop	r19
  4a:	2f 91       	pop	r18
  4c:	0f 90       	pop	r0
  4e:	0b be       	out	0x3b, r0	; 59
  50:	0f 90       	pop	r0
  52:	0f be       	out	0x3f, r0	; 63
  54:	0f 90       	pop	r0
  56:	1f 90       	pop	r1
  58:	18 95       	reti

Disassembly of section .text.__vector_47:

00000000 <__vector_47>:
   0:	1f 92       	push	r1
   2:	0f 92       	push	r0
   4:	0f b6       	in	r0, 0x3f	; 63
   6:	0f 92       	push	r0
   8:	0b b6       	in	r0, 0x3b	; 59
   a:	0f 92       	push	r0
   c:	11 24       	eor	r1, r1
   e:	2f 93       	push	r18
  10:	3f 93       	push	r19
  12:	4f 93       	push	r20
  14:	5f 93       	push	r21
  16:	6f 93       	push	r22
  18:	7f 93       	push	r23
  1a:	8f 93       	push	r24
  1c:	9f 93       	push	r25
  1e:	af 93       	push	r26
  20:	bf 93       	push	r27
  22:	ef 93       	push	r30
  24:	ff 93       	push	r31
  26:	80 e0       	ldi	r24, 0x00	; 0
  28:	64 e2       	ldi	r22, 0x24	; 36
  2a:	71 e0       	ldi	r23, 0x01	; 1
  2c:	48 e2       	ldi	r20, 0x28	; 40
  2e:	51 e0       	ldi	r21, 0x01	; 1
  30:	0e 94 00 00 	call	0	; 0x0 <__vector_47>
  34:	ff 91       	pop	r31
  36:	ef 91       	pop	r30
  38:	bf 91       	pop	r27
  3a:	af 91       	pop	r26
  3c:	9f 91       	pop	r25
  3e:	8f 91       	pop	r24
  40:	7f 91       	pop	r23
  42:	6f 91       	pop	r22
  44:	5f 91       	pop	r21
  46:	4f 91       	pop	r20
  48:	3f 91       	pop	r19
  4a:	2f 91       	pop	r18
  4c:	0f 90       	pop	r0
  4e:	0b be       	out	0x3b, r0	; 59
  50:	0f 90       	pop	r0
  52:	0f be       	out	0x3f, r0	; 63
  54:	0f 90       	pop	r0
  56:	1f 90       	pop	r1
  58:	18 95       	reti

Disassembly of section .text._ZN5ServoC2Ev:

00000000 <_ZN5ServoC1Ev>:
   0:	fc 01       	movw	r30, r24
   2:	80 91 00 00 	lds	r24, 0x0000
   6:	80 33       	cpi	r24, 0x30	; 48
   8:	00 f4       	brcc	.+0      	; 0xa <_ZN5ServoC1Ev+0xa>
   a:	80 83       	st	Z, r24
   c:	8f 5f       	subi	r24, 0xFF	; 255
   e:	80 93 00 00 	sts	0x0000, r24
  12:	80 81       	ld	r24, Z
  14:	90 e0       	ldi	r25, 0x00	; 0
  16:	fc 01       	movw	r30, r24
  18:	ee 0f       	add	r30, r30
  1a:	ff 1f       	adc	r31, r31
  1c:	e8 0f       	add	r30, r24
  1e:	f9 1f       	adc	r31, r25
  20:	e0 50       	subi	r30, 0x00	; 0
  22:	f0 40       	sbci	r31, 0x00	; 0
  24:	88 eb       	ldi	r24, 0xB8	; 184
  26:	9b e0       	ldi	r25, 0x0B	; 11
  28:	92 83       	std	Z+2, r25	; 0x02
  2a:	81 83       	std	Z+1, r24	; 0x01
  2c:	08 95       	ret
  2e:	8f ef       	ldi	r24, 0xFF	; 255
  30:	80 83       	st	Z, r24
  32:	08 95       	ret

Disassembly of section .text._ZN5Servo6attachEiii:

00000000 <_ZN5Servo6attachEiii>:
   0:	df 92       	push	r13
   2:	ef 92       	push	r14
   4:	ff 92       	push	r15
   6:	0f 93       	push	r16
   8:	1f 93       	push	r17
   a:	cf 93       	push	r28
   c:	df 93       	push	r29
   e:	ec 01       	movw	r28, r24
  10:	d6 2e       	mov	r13, r22
  12:	8a 01       	movw	r16, r20
  14:	79 01       	movw	r14, r18
  16:	88 81       	ld	r24, Y
  18:	80 33       	cpi	r24, 0x30	; 48
  1a:	00 f0       	brcs	.+0      	; 0x1c <_ZN5Servo6attachEiii+0x1c>
  1c:	00 c0       	rjmp	.+0      	; 0x1e <_ZN5Servo6attachEiii+0x1e>
  1e:	86 2f       	mov	r24, r22
  20:	61 e0       	ldi	r22, 0x01	; 1
  22:	0e 94 00 00 	call	0	; 0x0 <_ZN5Servo6attachEiii>
  26:	48 81       	ld	r20, Y
  28:	84 2f       	mov	r24, r20
  2a:	90 e0       	ldi	r25, 0x00	; 0
  2c:	fc 01       	movw	r30, r24
  2e:	ee 0f       	add	r30, r30
  30:	ff 1f       	adc	r31, r31
  32:	e8 0f       	add	r30, r24
  34:	f9 1f       	adc	r31, r25
  36:	e0 50       	subi	r30, 0x00	; 0
  38:	f0 40       	sbci	r31, 0x00	; 0
  3a:	9d 2d       	mov	r25, r13
  3c:	9f 73       	andi	r25, 0x3F	; 63
  3e:	80 81       	ld	r24, Z
  40:	80 7c       	andi	r24, 0xC0	; 192
  42:	89 2b       	or	r24, r25
  44:	80 83       	st	Z, r24
  46:	80 e2       	ldi	r24, 0x20	; 32
  48:	92 e0       	ldi	r25, 0x02	; 2
  4a:	80 1b       	sub	r24, r16
  4c:	91 0b       	sbc	r25, r17
  4e:	24 e0       	ldi	r18, 0x04	; 4
  50:	30 e0       	ldi	r19, 0x00	; 0
  52:	b9 01       	movw	r22, r18
  54:	0e 94 00 00 	call	0	; 0x0 <_ZN5Servo6attachEiii>
  58:	69 83       	std	Y+1, r22	; 0x01
  5a:	80 e6       	ldi	r24, 0x60	; 96
  5c:	99 e0       	ldi	r25, 0x09	; 9
  5e:	8e 19       	sub	r24, r14
  60:	9f 09       	sbc	r25, r15
  62:	b9 01       	movw	r22, r18
  64:	0e 94 00 00 	call	0	; 0x0 <_ZN5Servo6attachEiii>
  68:	6a 83       	std	Y+2, r22	; 0x02
  6a:	84 2f       	mov	r24, r20
  6c:	6c e0       	ldi	r22, 0x0C	; 12
  6e:	0e 94 00 00 	call	0	; 0x0 <_ZN5Servo6attachEiii>
  72:	48 2f       	mov	r20, r24
  74:	50 e0       	ldi	r21, 0x00	; 0
  76:	9a 01       	movw	r18, r20
  78:	22 0f       	add	r18, r18
  7a:	33 1f       	adc	r19, r19
  7c:	24 0f       	add	r18, r20
  7e:	35 1f       	adc	r19, r21
  80:	22 0f       	add	r18, r18
  82:	33 1f       	adc	r19, r19
  84:	22 0f       	add	r18, r18
  86:	33 1f       	adc	r19, r19
  88:	40 e0       	ldi	r20, 0x00	; 0
  8a:	50 e0       	ldi	r21, 0x00	; 0
  8c:	ba 01       	movw	r22, r20
  8e:	62 0f       	add	r22, r18
  90:	73 1f       	adc	r23, r19
  92:	fb 01       	movw	r30, r22
  94:	ee 0f       	add	r30, r30
  96:	ff 1f       	adc	r31, r31
  98:	e6 0f       	add	r30, r22
  9a:	f7 1f       	adc	r31, r23
  9c:	e0 50       	subi	r30, 0x00	; 0
  9e:	f0 40       	sbci	r31, 0x00	; 0
  a0:	90 81       	ld	r25, Z
  a2:	96 fd       	sbrc	r25, 6
  a4:	00 c0       	rjmp	.+0      	; 0xa6 <_ZN5Servo6attachEiii+0xa6>
  a6:	4f 5f       	subi	r20, 0xFF	; 255
  a8:	5f 4f       	sbci	r21, 0xFF	; 255
  aa:	4c 30       	cpi	r20, 0x0C	; 12
  ac:	51 05       	cpc	r21, r1
  ae:	01 f4       	brne	.+0      	; 0xb0 <_ZN5Servo6attachEiii+0xb0>
  b0:	00 c0       	rjmp	.+0      	; 0xb2 <_ZN5Servo6attachEiii+0xb2>
  b2:	10 92 80 00 	sts	0x0080, r1
  b6:	82 e0       	ldi	r24, 0x02	; 2
  b8:	80 93 81 00 	sts	0x0081, r24
  bc:	10 92 85 00 	sts	0x0085, r1
  c0:	10 92 84 00 	sts	0x0084, r1
  c4:	b1 9a       	sbi	0x16, 1	; 22
  c6:	80 91 6f 00 	lds	r24, 0x006F
  ca:	82 60       	ori	r24, 0x02	; 2
  cc:	80 93 6f 00 	sts	0x006F, r24
  d0:	00 c0       	rjmp	.+0      	; 0xd2 <_ZN5Servo6attachEiii+0xd2>
  d2:	82 30       	cpi	r24, 0x02	; 2
  d4:	01 f4       	brne	.+0      	; 0xd6 <_ZN5Servo6attachEiii+0xd6>
  d6:	10 92 90 00 	sts	0x0090, r1
  da:	80 93 91 00 	sts	0x0091, r24
  de:	10 92 95 00 	sts	0x0095, r1
  e2:	10 92 94 00 	sts	0x0094, r1
  e6:	88 bb       	out	0x18, r24	; 24
  e8:	80 93 71 00 	sts	0x0071, r24
  ec:	00 c0       	rjmp	.+0      	; 0xee <_ZN5Servo6attachEiii+0xee>
  ee:	83 30       	cpi	r24, 0x03	; 3
  f0:	01 f4       	brne	.+0      	; 0xf2 <_ZN5Servo6attachEiii+0xf2>
  f2:	10 92 a0 00 	sts	0x00A0, r1
  f6:	82 e0       	ldi	r24, 0x02	; 2
  f8:	80 93 a1 00 	sts	0x00A1, r24
  fc:	10 92 a5 00 	sts	0x00A5, r1
 100:	10 92 a4 00 	sts	0x00A4, r1
 104:	89 bb       	out	0x19, r24	; 25
 106:	80 93 72 00 	sts	0x0072, r24
 10a:	00 c0       	rjmp	.+0      	; 0x10c <_ZN5Servo6attachEiii+0x10c>
 10c:	88 23       	and	r24, r24
 10e:	01 f4       	brne	.+0      	; 0x110 <_ZN5Servo6attachEiii+0x110>
 110:	10 92 20 01 	sts	0x0120, r1
 114:	82 e0       	ldi	r24, 0x02	; 2
 116:	80 93 21 01 	sts	0x0121, r24
 11a:	10 92 25 01 	sts	0x0125, r1
 11e:	10 92 24 01 	sts	0x0124, r1
 122:	8a bb       	out	0x1a, r24	; 26
 124:	80 93 73 00 	sts	0x0073, r24
 128:	88 81       	ld	r24, Y
 12a:	90 e0       	ldi	r25, 0x00	; 0
 12c:	fc 01       	movw	r30, r24
 12e:	ee 0f       	add	r30, r30
 130:	ff 1f       	adc	r31, r31
 132:	e8 0f       	add	r30, r24
 134:	f9 1f       	adc	r31, r25
 136:	e0 50       	subi	r30, 0x00	; 0
 138:	f0 40       	sbci	r31, 0x00	; 0
 13a:	80 81       	ld	r24, Z
 13c:	80 64       	ori	r24, 0x40	; 64
 13e:	80 83       	st	Z, r24
 140:	88 81       	ld	r24, Y
 142:	df 91       	pop	r29
 144:	cf 91       	pop	r28
 146:	1f 91       	pop	r17
 148:	0f 91       	pop	r16
 14a:	ff 90       	pop	r15
 14c:	ef 90       	pop	r14
 14e:	df 90       	pop	r13
 150:	08 95       	ret
 152:	81 30       	cpi	r24, 0x01	; 1
 154:	01 f0       	breq	.+0      	; 0x156 <_ZN5Servo6attachEiii+0x156>
 156:	00 c0       	rjmp	.+0      	; 0x158 <_ZN5Servo6attachEiii+0x158>
 158:	00 c0       	rjmp	.+0      	; 0x15a <__SREG__+0x11b>

Disassembly of section .text._ZN5Servo6attachEi:

00000000 <_ZN5Servo6attachEi>:
   0:	40 e2       	ldi	r20, 0x20	; 32
   2:	52 e0       	ldi	r21, 0x02	; 2
   4:	20 e6       	ldi	r18, 0x60	; 96
   6:	39 e0       	ldi	r19, 0x09	; 9
   8:	0e 94 00 00 	call	0	; 0x0 <_ZN5Servo6attachEi>
   c:	08 95       	ret

Disassembly of section .text._ZN5Servo6detachEv:

00000000 <_ZN5Servo6detachEv>:
   0:	fc 01       	movw	r30, r24
   2:	80 81       	ld	r24, Z
   4:	90 e0       	ldi	r25, 0x00	; 0
   6:	fc 01       	movw	r30, r24
   8:	ee 0f       	add	r30, r30
   a:	ff 1f       	adc	r31, r31
   c:	e8 0f       	add	r30, r24
   e:	f9 1f       	adc	r31, r25
  10:	e0 50       	subi	r30, 0x00	; 0
  12:	f0 40       	sbci	r31, 0x00	; 0
  14:	80 81       	ld	r24, Z
  16:	8f 7b       	andi	r24, 0xBF	; 191
  18:	80 83       	st	Z, r24
  1a:	08 95       	ret

Disassembly of section .text._ZN5Servo17writeMicrosecondsEi:

00000000 <_ZN5Servo17writeMicrosecondsEi>:
   0:	fc 01       	movw	r30, r24
   2:	20 81       	ld	r18, Z
   4:	20 33       	cpi	r18, 0x30	; 48
   6:	00 f0       	brcs	.+0      	; 0x8 <_ZN5Servo17writeMicrosecondsEi+0x8>
   8:	00 c0       	rjmp	.+0      	; 0xa <_ZN5Servo17writeMicrosecondsEi+0xa>
   a:	41 81       	ldd	r20, Z+1	; 0x01
   c:	55 27       	eor	r21, r21
   e:	47 fd       	sbrc	r20, 7
  10:	50 95       	com	r21
  12:	88 e8       	ldi	r24, 0x88	; 136
  14:	90 e0       	ldi	r25, 0x00	; 0
  16:	84 1b       	sub	r24, r20
  18:	95 0b       	sbc	r25, r21
  1a:	88 0f       	add	r24, r24
  1c:	99 1f       	adc	r25, r25
  1e:	88 0f       	add	r24, r24
  20:	99 1f       	adc	r25, r25
  22:	68 17       	cp	r22, r24
  24:	79 07       	cpc	r23, r25
  26:	04 f0       	brlt	.+0      	; 0x28 <_ZN5Servo17writeMicrosecondsEi+0x28>
  28:	42 81       	ldd	r20, Z+2	; 0x02
  2a:	55 27       	eor	r21, r21
  2c:	47 fd       	sbrc	r20, 7
  2e:	50 95       	com	r21
  30:	88 e5       	ldi	r24, 0x58	; 88
  32:	92 e0       	ldi	r25, 0x02	; 2
  34:	84 1b       	sub	r24, r20
  36:	95 0b       	sbc	r25, r21
  38:	88 0f       	add	r24, r24
  3a:	99 1f       	adc	r25, r25
  3c:	88 0f       	add	r24, r24
  3e:	99 1f       	adc	r25, r25
  40:	68 17       	cp	r22, r24
  42:	79 07       	cpc	r23, r25
  44:	04 f4       	brge	.+0      	; 0x46 <_ZN5Servo17writeMicrosecondsEi+0x46>
  46:	cb 01       	movw	r24, r22
  48:	02 97       	sbiw	r24, 0x02	; 2
  4a:	aa 27       	eor	r26, r26
  4c:	97 fd       	sbrc	r25, 7
  4e:	a0 95       	com	r26
  50:	ba 2f       	mov	r27, r26
  52:	74 e0       	ldi	r23, 0x04	; 4
  54:	88 0f       	add	r24, r24
  56:	99 1f       	adc	r25, r25
  58:	aa 1f       	adc	r26, r26
  5a:	bb 1f       	adc	r27, r27
  5c:	7a 95       	dec	r23
  5e:	01 f4       	brne	.+0      	; 0x60 <_ZN5Servo17writeMicrosecondsEi+0x60>
  60:	63 e0       	ldi	r22, 0x03	; 3
  62:	b6 95       	lsr	r27
  64:	a7 95       	ror	r26
  66:	97 95       	ror	r25
  68:	87 95       	ror	r24
  6a:	6a 95       	dec	r22
  6c:	01 f4       	brne	.+0      	; 0x6e <_ZN5Servo17writeMicrosecondsEi+0x6e>
  6e:	4f b7       	in	r20, 0x3f	; 63
  70:	f8 94       	cli
  72:	30 e0       	ldi	r19, 0x00	; 0
  74:	f9 01       	movw	r30, r18
  76:	ee 0f       	add	r30, r30
  78:	ff 1f       	adc	r31, r31
  7a:	e2 0f       	add	r30, r18
  7c:	f3 1f       	adc	r31, r19
  7e:	e0 50       	subi	r30, 0x00	; 0
  80:	f0 40       	sbci	r31, 0x00	; 0
  82:	92 83       	std	Z+2, r25	; 0x02
  84:	81 83       	std	Z+1, r24	; 0x01
  86:	4f bf       	out	0x3f, r20	; 63
  88:	08 95       	ret

Disassembly of section .text._ZN5Servo5writeEi:

00000000 <_ZN5Servo5writeEi>:
   0:	af 92       	push	r10
   2:	bf 92       	push	r11
   4:	cf 92       	push	r12
   6:	df 92       	push	r13
   8:	ef 92       	push	r14
   a:	ff 92       	push	r15
   c:	0f 93       	push	r16
   e:	1f 93       	push	r17
  10:	cf 93       	push	r28
  12:	df 93       	push	r29
  14:	ec 01       	movw	r28, r24
  16:	82 e0       	ldi	r24, 0x02	; 2
  18:	60 32       	cpi	r22, 0x20	; 32
  1a:	78 07       	cpc	r23, r24
  1c:	04 f0       	brlt	.+0      	; 0x1e <_ZN5Servo5writeEi+0x1e>
  1e:	00 c0       	rjmp	.+0      	; 0x20 <_ZN5Servo5writeEi+0x20>
  20:	77 fd       	sbrc	r23, 7
  22:	00 c0       	rjmp	.+0      	; 0x24 <_ZN5Servo5writeEi+0x24>
  24:	65 3b       	cpi	r22, 0xB5	; 181
  26:	71 05       	cpc	r23, r1
  28:	04 f4       	brge	.+0      	; 0x2a <_ZN5Servo5writeEi+0x2a>
  2a:	00 c0       	rjmp	.+0      	; 0x2c <_ZN5Servo5writeEi+0x2c>
  2c:	60 e0       	ldi	r22, 0x00	; 0
  2e:	70 e0       	ldi	r23, 0x00	; 0
  30:	00 c0       	rjmp	.+0      	; 0x32 <_ZN5Servo5writeEi+0x32>
  32:	64 eb       	ldi	r22, 0xB4	; 180
  34:	70 e0       	ldi	r23, 0x00	; 0
  36:	00 d0       	rcall	.+0      	; 0x38 <_ZN5Servo5writeEi+0x38>
  38:	0f 92       	push	r0
  3a:	88 27       	eor	r24, r24
  3c:	77 fd       	sbrc	r23, 7
  3e:	80 95       	com	r24
  40:	98 2f       	mov	r25, r24
  42:	49 81       	ldd	r20, Y+1	; 0x01
  44:	55 27       	eor	r21, r21
  46:	47 fd       	sbrc	r20, 7
  48:	50 95       	com	r21
  4a:	28 e8       	ldi	r18, 0x88	; 136
  4c:	30 e0       	ldi	r19, 0x00	; 0
  4e:	24 1b       	sub	r18, r20
  50:	35 0b       	sbc	r19, r21
  52:	22 0f       	add	r18, r18
  54:	33 1f       	adc	r19, r19
  56:	22 0f       	add	r18, r18
  58:	33 1f       	adc	r19, r19
  5a:	59 01       	movw	r10, r18
  5c:	cc 24       	eor	r12, r12
  5e:	b7 fc       	sbrc	r11, 7
  60:	c0 94       	com	r12
  62:	dc 2c       	mov	r13, r12
  64:	4a 81       	ldd	r20, Y+2	; 0x02
  66:	55 27       	eor	r21, r21
  68:	47 fd       	sbrc	r20, 7
  6a:	50 95       	com	r21
  6c:	28 e5       	ldi	r18, 0x58	; 88
  6e:	32 e0       	ldi	r19, 0x02	; 2
  70:	24 1b       	sub	r18, r20
  72:	35 0b       	sbc	r19, r21
  74:	22 0f       	add	r18, r18
  76:	33 1f       	adc	r19, r19
  78:	22 0f       	add	r18, r18
  7a:	33 1f       	adc	r19, r19
  7c:	44 27       	eor	r20, r20
  7e:	37 fd       	sbrc	r19, 7
  80:	40 95       	com	r20
  82:	54 2f       	mov	r21, r20
  84:	ed b7       	in	r30, 0x3d	; 61
  86:	fe b7       	in	r31, 0x3e	; 62
  88:	21 83       	std	Z+1, r18	; 0x01
  8a:	32 83       	std	Z+2, r19	; 0x02
  8c:	43 83       	std	Z+3, r20	; 0x03
  8e:	54 83       	std	Z+4, r21	; 0x04
  90:	20 e0       	ldi	r18, 0x00	; 0
  92:	30 e0       	ldi	r19, 0x00	; 0
  94:	a9 01       	movw	r20, r18
  96:	b4 eb       	ldi	r27, 0xB4	; 180
  98:	eb 2e       	mov	r14, r27
  9a:	f1 2c       	mov	r15, r1
  9c:	01 2d       	mov	r16, r1
  9e:	11 2d       	mov	r17, r1
  a0:	0e 94 00 00 	call	0	; 0x0 <_ZN5Servo5writeEi>
  a4:	0f 90       	pop	r0
  a6:	0f 90       	pop	r0
  a8:	0f 90       	pop	r0
  aa:	0f 90       	pop	r0
  ac:	ce 01       	movw	r24, r28
  ae:	0e 94 00 00 	call	0	; 0x0 <_ZN5Servo5writeEi>
  b2:	df 91       	pop	r29
  b4:	cf 91       	pop	r28
  b6:	1f 91       	pop	r17
  b8:	0f 91       	pop	r16
  ba:	ff 90       	pop	r15
  bc:	ef 90       	pop	r14
  be:	df 90       	pop	r13
  c0:	cf 90       	pop	r12
  c2:	bf 90       	pop	r11
  c4:	af 90       	pop	r10
  c6:	08 95       	ret

Disassembly of section .text._ZN5Servo16readMicrosecondsEv:

00000000 <_ZN5Servo16readMicrosecondsEv>:
   0:	fc 01       	movw	r30, r24
   2:	80 81       	ld	r24, Z
   4:	8f 3f       	cpi	r24, 0xFF	; 255
   6:	01 f0       	breq	.+0      	; 0x8 <_ZN5Servo16readMicrosecondsEv+0x8>
   8:	90 e0       	ldi	r25, 0x00	; 0
   a:	fc 01       	movw	r30, r24
   c:	ee 0f       	add	r30, r30
   e:	ff 1f       	adc	r31, r31
  10:	e8 0f       	add	r30, r24
  12:	f9 1f       	adc	r31, r25
  14:	e0 50       	subi	r30, 0x00	; 0
  16:	f0 40       	sbci	r31, 0x00	; 0
  18:	21 81       	ldd	r18, Z+1	; 0x01
  1a:	32 81       	ldd	r19, Z+2	; 0x02
  1c:	93 e0       	ldi	r25, 0x03	; 3
  1e:	22 0f       	add	r18, r18
  20:	33 1f       	adc	r19, r19
  22:	9a 95       	dec	r25
  24:	01 f4       	brne	.+0      	; 0x26 <_ZN5Servo16readMicrosecondsEv+0x26>
  26:	84 e0       	ldi	r24, 0x04	; 4
  28:	36 95       	lsr	r19
  2a:	27 95       	ror	r18
  2c:	8a 95       	dec	r24
  2e:	01 f4       	brne	.+0      	; 0x30 <_ZN5Servo16readMicrosecondsEv+0x30>
  30:	2e 5f       	subi	r18, 0xFE	; 254
  32:	3f 4f       	sbci	r19, 0xFF	; 255
  34:	00 c0       	rjmp	.+0      	; 0x36 <_ZN5Servo16readMicrosecondsEv+0x36>
  36:	20 e0       	ldi	r18, 0x00	; 0
  38:	30 e0       	ldi	r19, 0x00	; 0
  3a:	c9 01       	movw	r24, r18
  3c:	08 95       	ret

Disassembly of section .text._ZN5Servo4readEv:

00000000 <_ZN5Servo4readEv>:
   0:	af 92       	push	r10
   2:	bf 92       	push	r11
   4:	cf 92       	push	r12
   6:	df 92       	push	r13
   8:	ef 92       	push	r14
   a:	ff 92       	push	r15
   c:	0f 93       	push	r16
   e:	1f 93       	push	r17
  10:	cf 93       	push	r28
  12:	df 93       	push	r29
  14:	ec 01       	movw	r28, r24
  16:	0e 94 00 00 	call	0	; 0x0 <_ZN5Servo4readEv>
  1a:	00 d0       	rcall	.+0      	; 0x1c <_ZN5Servo4readEv+0x1c>
  1c:	0f 92       	push	r0
  1e:	bc 01       	movw	r22, r24
  20:	6f 5f       	subi	r22, 0xFF	; 255
  22:	7f 4f       	sbci	r23, 0xFF	; 255
  24:	88 27       	eor	r24, r24
  26:	77 fd       	sbrc	r23, 7
  28:	80 95       	com	r24
  2a:	98 2f       	mov	r25, r24
  2c:	49 81       	ldd	r20, Y+1	; 0x01
  2e:	55 27       	eor	r21, r21
  30:	47 fd       	sbrc	r20, 7
  32:	50 95       	com	r21
  34:	28 e8       	ldi	r18, 0x88	; 136
  36:	30 e0       	ldi	r19, 0x00	; 0
  38:	24 1b       	sub	r18, r20
  3a:	35 0b       	sbc	r19, r21
  3c:	22 0f       	add	r18, r18
  3e:	33 1f       	adc	r19, r19
  40:	22 0f       	add	r18, r18
  42:	33 1f       	adc	r19, r19
  44:	44 27       	eor	r20, r20
  46:	37 fd       	sbrc	r19, 7
  48:	40 95       	com	r20
  4a:	54 2f       	mov	r21, r20
  4c:	aa 81       	ldd	r26, Y+2	; 0x02
  4e:	bb 27       	eor	r27, r27
  50:	a7 fd       	sbrc	r26, 7
  52:	b0 95       	com	r27
  54:	e8 e5       	ldi	r30, 0x58	; 88
  56:	f2 e0       	ldi	r31, 0x02	; 2
  58:	ea 1b       	sub	r30, r26
  5a:	fb 0b       	sbc	r31, r27
  5c:	ee 0f       	add	r30, r30
  5e:	ff 1f       	adc	r31, r31
  60:	ee 0f       	add	r30, r30
  62:	ff 1f       	adc	r31, r31
  64:	5f 01       	movw	r10, r30
  66:	cc 24       	eor	r12, r12
  68:	b7 fc       	sbrc	r11, 7
  6a:	c0 94       	com	r12
  6c:	dc 2c       	mov	r13, r12
  6e:	e4 eb       	ldi	r30, 0xB4	; 180
  70:	ee 2e       	mov	r14, r30
  72:	f1 2c       	mov	r15, r1
  74:	01 2d       	mov	r16, r1
  76:	11 2d       	mov	r17, r1
  78:	ed b7       	in	r30, 0x3d	; 61
  7a:	fe b7       	in	r31, 0x3e	; 62
  7c:	e1 82       	std	Z+1, r14	; 0x01
  7e:	f2 82       	std	Z+2, r15	; 0x02
  80:	03 83       	std	Z+3, r16	; 0x03
  82:	14 83       	std	Z+4, r17	; 0x04
  84:	86 01       	movw	r16, r12
  86:	75 01       	movw	r14, r10
  88:	aa 24       	eor	r10, r10
  8a:	bb 24       	eor	r11, r11
  8c:	65 01       	movw	r12, r10
  8e:	0e 94 00 00 	call	0	; 0x0 <_ZN5Servo4readEv>
  92:	0f 90       	pop	r0
  94:	0f 90       	pop	r0
  96:	0f 90       	pop	r0
  98:	0f 90       	pop	r0
  9a:	cb 01       	movw	r24, r22
  9c:	df 91       	pop	r29
  9e:	cf 91       	pop	r28
  a0:	1f 91       	pop	r17
  a2:	0f 91       	pop	r16
  a4:	ff 90       	pop	r15
  a6:	ef 90       	pop	r14
  a8:	df 90       	pop	r13
  aa:	cf 90       	pop	r12
  ac:	bf 90       	pop	r11
  ae:	af 90       	pop	r10
  b0:	08 95       	ret

Disassembly of section .text._ZN5Servo8attachedEv:

00000000 <_ZN5Servo8attachedEv>:
   0:	fc 01       	movw	r30, r24
   2:	80 81       	ld	r24, Z
   4:	90 e0       	ldi	r25, 0x00	; 0
   6:	fc 01       	movw	r30, r24
   8:	ee 0f       	add	r30, r30
   a:	ff 1f       	adc	r31, r31
   c:	e8 0f       	add	r30, r24
   e:	f9 1f       	adc	r31, r25
  10:	e0 50       	subi	r30, 0x00	; 0
  12:	f0 40       	sbci	r31, 0x00	; 0
  14:	80 81       	ld	r24, Z
  16:	82 95       	swap	r24
  18:	86 95       	lsr	r24
  1a:	86 95       	lsr	r24
  1c:	81 70       	andi	r24, 0x01	; 1
  1e:	08 95       	ret

SPI.o:     file format elf32-avr

Sections:
Idx Name          Size      VMA       LMA       File off  Algn
  0 .text         00000000  00000000  00000000  00000034  2**0
                  CONTENTS, ALLOC, LOAD, READONLY, CODE
  1 .data         00000000  00000000  00000000  00000034  2**0
                  CONTENTS, ALLOC, LOAD, DATA
  2 .bss          00000000  00000000  00000000  00000034  2**0
                  ALLOC
  3 .text._ZN8SPIClass5beginEv 0000003e  00000000  00000000  00000034  2**0
                  CONTENTS, ALLOC, LOAD, RELOC, READONLY, CODE
  4 .text._ZN8SPIClass3endEv 00000008  00000000  00000000  00000072  2**0
                  CONTENTS, ALLOC, LOAD, READONLY, CODE
  5 .text._ZN8SPIClass11setBitOrderEh 00000012  00000000  00000000  0000007a  2**0
                  CONTENTS, ALLOC, LOAD, RELOC, READONLY, CODE
  6 .text._ZN8SPIClass11setDataModeEh 0000000a  00000000  00000000  0000008c  2**0
                  CONTENTS, ALLOC, LOAD, READONLY, CODE
  7 .text._ZN8SPIClass15setClockDividerEh 00000018  00000000  00000000  00000096  2**0
                  CONTENTS, ALLOC, LOAD, READONLY, CODE
  8 .bss.SPI      00000001  00000000  00000000  000000ae  2**0
                  ALLOC

Disassembly of section .text._ZN8SPIClass5beginEv:

00000000 <_ZN8SPIClass5beginEv>:
   0:	84 e3       	ldi	r24, 0x34	; 52
   2:	61 e0       	ldi	r22, 0x01	; 1
   4:	0e 94 00 00 	call	0	; 0x0 <_ZN8SPIClass5beginEv>
   8:	83 e3       	ldi	r24, 0x33	; 51
   a:	61 e0       	ldi	r22, 0x01	; 1
   c:	0e 94 00 00 	call	0	; 0x0 <_ZN8SPIClass5beginEv>
  10:	85 e3       	ldi	r24, 0x35	; 53
  12:	61 e0       	ldi	r22, 0x01	; 1
  14:	0e 94 00 00 	call	0	; 0x0 <_ZN8SPIClass5beginEv>
  18:	84 e3       	ldi	r24, 0x34	; 52
  1a:	60 e0       	ldi	r22, 0x00	; 0
  1c:	0e 94 00 00 	call	0	; 0x0 <_ZN8SPIClass5beginEv>
  20:	83 e3       	ldi	r24, 0x33	; 51
  22:	60 e0       	ldi	r22, 0x00	; 0
  24:	0e 94 00 00 	call	0	; 0x0 <_ZN8SPIClass5beginEv>
  28:	85 e3       	ldi	r24, 0x35	; 53
  2a:	61 e0       	ldi	r22, 0x01	; 1
  2c:	0e 94 00 00 	call	0	; 0x0 <_ZN8SPIClass5beginEv>
  30:	8c b5       	in	r24, 0x2c	; 44
  32:	80 61       	ori	r24, 0x10	; 16
  34:	8c bd       	out	0x2c, r24	; 44
  36:	8c b5       	in	r24, 0x2c	; 44
  38:	80 64       	ori	r24, 0x40	; 64
  3a:	8c bd       	out	0x2c, r24	; 44
  3c:	08 95       	ret

Disassembly of section .text._ZN8SPIClass3endEv:

00000000 <_ZN8SPIClass3endEv>:
   0:	8c b5       	in	r24, 0x2c	; 44
   2:	8f 7b       	andi	r24, 0xBF	; 191
   4:	8c bd       	out	0x2c, r24	; 44
   6:	08 95       	ret

Disassembly of section .text._ZN8SPIClass11setBitOrderEh:

00000000 <_ZN8SPIClass11setBitOrderEh>:
   0:	88 23       	and	r24, r24
   2:	01 f4       	brne	.+0      	; 0x4 <_ZN8SPIClass11setBitOrderEh+0x4>
   4:	8c b5       	in	r24, 0x2c	; 44
   6:	80 62       	ori	r24, 0x20	; 32
   8:	00 c0       	rjmp	.+0      	; 0xa <_ZN8SPIClass11setBitOrderEh+0xa>
   a:	8c b5       	in	r24, 0x2c	; 44
   c:	8f 7d       	andi	r24, 0xDF	; 223
   e:	8c bd       	out	0x2c, r24	; 44
  10:	08 95       	ret

Disassembly of section .text._ZN8SPIClass11setDataModeEh:

00000000 <_ZN8SPIClass11setDataModeEh>:
   0:	9c b5       	in	r25, 0x2c	; 44
   2:	93 7f       	andi	r25, 0xF3	; 243
   4:	98 2b       	or	r25, r24
   6:	9c bd       	out	0x2c, r25	; 44
   8:	08 95       	ret

Disassembly of section .text._ZN8SPIClass15setClockDividerEh:

00000000 <_ZN8SPIClass15setClockDividerEh>:
   0:	2c b5       	in	r18, 0x2c	; 44
   2:	98 2f       	mov	r25, r24
   4:	93 70       	andi	r25, 0x03	; 3
   6:	2c 7f       	andi	r18, 0xFC	; 252
   8:	92 2b       	or	r25, r18
   a:	9c bd       	out	0x2c, r25	; 44
   c:	9d b5       	in	r25, 0x2d	; 45
   e:	81 70       	andi	r24, 0x01	; 1
  10:	9e 7f       	andi	r25, 0xFE	; 254
  12:	89 2b       	or	r24, r25
  14:	8d bd       	out	0x2d, r24	; 45
  16:	08 95       	ret

LiquidCrystal.o:     file format elf32-avr

Sections:
Idx Name          Size      VMA       LMA       File off  Algn
  0 .text         00000000  00000000  00000000  00000034  2**0
                  CONTENTS, ALLOC, LOAD, READONLY, CODE
  1 .data         00000000  00000000  00000000  00000034  2**0
                  CONTENTS, ALLOC, LOAD, DATA
  2 .bss          00000000  00000000  00000000  00000034  2**0
                  ALLOC
  3 .text._ZN13LiquidCrystal11pulseEnableEv 0000003c  00000000  00000000  00000034  2**0
                  CONTENTS, ALLOC, LOAD, RELOC, READONLY, CODE
  4 .text._ZN13LiquidCrystal10write4bitsEh 0000006e  00000000  00000000  00000070  2**0
                  CONTENTS, ALLOC, LOAD, RELOC, READONLY, CODE
  5 .text._ZN13LiquidCrystal10write8bitsEh 0000006e  00000000  00000000  000000de  2**0
                  CONTENTS, ALLOC, LOAD, RELOC, READONLY, CODE
  6 .text._ZN13LiquidCrystal4sendEhh 00000054  00000000  00000000  0000014c  2**0
                  CONTENTS, ALLOC, LOAD, RELOC, READONLY, CODE
  7 .text._ZN13LiquidCrystal5writeEh 00000008  00000000  00000000  000001a0  2**0
                  CONTENTS, ALLOC, LOAD, RELOC, READONLY, CODE
  8 .text._ZN13LiquidCrystal7commandEh 00000008  00000000  00000000  000001a8  2**0
                  CONTENTS, ALLOC, LOAD, RELOC, READONLY, CODE
  9 .text._ZN13LiquidCrystal10createCharEhPh 0000006e  00000000  00000000  000001b0  2**0
                  CONTENTS, ALLOC, LOAD, RELOC, READONLY, CODE
 10 .text._ZN13LiquidCrystal12noAutoscrollEv 00000010  00000000  00000000  0000021e  2**0
                  CONTENTS, ALLOC, LOAD, RELOC, READONLY, CODE
 11 .text._ZN13LiquidCrystal10autoscrollEv 00000012  00000000  00000000  0000022e  2**0
                  CONTENTS, ALLOC, LOAD, RELOC, READONLY, CODE
 12 .text._ZN13LiquidCrystal11rightToLeftEv 00000010  00000000  00000000  00000240  2**0
                  CONTENTS, ALLOC, LOAD, RELOC, READONLY, CODE
 13 .text._ZN13LiquidCrystal11leftToRightEv 00000012  00000000  00000000  00000250  2**0
                  CONTENTS, ALLOC, LOAD, RELOC, READONLY, CODE
 14 .text._ZN13LiquidCrystal18scrollDisplayRightEv 00000008  00000000  00000000  00000262  2**0
                  CONTENTS, ALLOC, LOAD, RELOC, READONLY, CODE
 15 .text._ZN13LiquidCrystal17scrollDisplayLeftEv 00000008  00000000  00000000  0000026a  2**0
                  CONTENTS, ALLOC, LOAD, RELOC, READONLY, CODE
 16 .text._ZN13LiquidCrystal5blinkEv 00000012  00000000  00000000  00000272  2**0
                  CONTENTS, ALLOC, LOAD, RELOC, READONLY, CODE
 17 .text._ZN13LiquidCrystal7noBlinkEv 00000010  00000000  00000000  00000284  2**0
                  CONTENTS, ALLOC, LOAD, RELOC, READONLY, CODE
 18 .text._ZN13LiquidCrystal6cursorEv 00000012  00000000  00000000  00000294  2**0
                  CONTENTS, ALLOC, LOAD, RELOC, READONLY, CODE
 19 .text._ZN13LiquidCrystal8noCursorEv 00000010  00000000  00000000  000002a6  2**0
                  CONTENTS, ALLOC, LOAD, RELOC, READONLY, CODE
 20 .text._ZN13LiquidCrystal7displayEv 00000012  00000000  00000000  000002b6  2**0
                  CONTENTS, ALLOC, LOAD, RELOC, READONLY, CODE
 21 .text._ZN13LiquidCrystal9noDisplayEv 00000010  00000000  00000000  000002c8  2**0
                  CONTENTS, ALLOC, LOAD, RELOC, READONLY, CODE
 22 .text._ZN13LiquidCrystal9setCursorEhh 0000005c  00000000  00000000  000002d8  2**0
                  CONTENTS, ALLOC, LOAD, RELOC, READONLY, CODE
 23 .text._ZN13LiquidCrystal4homeEv 00000010  00000000  00000000  00000334  2**0
                  CONTENTS, ALLOC, LOAD, RELOC, READONLY, CODE
 24 .text._ZN13LiquidCrystal5clearEv 00000010  00000000  00000000  00000344  2**0
                  CONTENTS, ALLOC, LOAD, RELOC, READONLY, CODE
 25 .text._ZN13LiquidCrystal5beginEhhh 000000de  00000000  00000000  00000354  2**0
                  CONTENTS, ALLOC, LOAD, RELOC, READONLY, CODE
 26 .text._ZN13LiquidCrystal4initEhhhhhhhhhhhh 0000008e  00000000  00000000  00000432  2**0
                  CONTENTS, ALLOC, LOAD, RELOC, READONLY, CODE
 27 .text._ZN13LiquidCrystalC2Ehhhhhh 00000062  00000000  00000000  000004c0  2**0
                  CONTENTS, ALLOC, LOAD, RELOC, READONLY, CODE
 28 .text._ZN13LiquidCrystalC2Ehhhhhhh 0000006c  00000000  00000000  00000522  2**0
                  CONTENTS, ALLOC, LOAD, RELOC, READONLY, CODE
 29 .text._ZN13LiquidCrystalC2Ehhhhhhhhhh 00000086  00000000  00000000  0000058e  2**0
                  CONTENTS, ALLOC, LOAD, RELOC, READONLY, CODE
 30 .text._ZN13LiquidCrystalC2Ehhhhhhhhhhh 00000082  00000000  00000000  00000614  2**0
                  CONTENTS, ALLOC, LOAD, RELOC, READONLY, CODE
 31 .rodata._ZTV13LiquidCrystal 0000000a  00000000  00000000  00000696  2**0
                  CONTENTS, ALLOC, LOAD, RELOC, READONLY, DATA
 32 .rodata._ZZN13LiquidCrystal9setCursorEhhE3C.1 00000008  00000000  00000000  000006a0  2**0
                  CONTENTS, ALLOC, LOAD, READONLY, DATA

Disassembly of section .text._ZN13LiquidCrystal11pulseEnableEv:

00000000 <_ZN13LiquidCrystal11pulseEnableEv>:
   0:	cf 93       	push	r28
   2:	df 93       	push	r29
   4:	ec 01       	movw	r28, r24
   6:	8c 81       	ldd	r24, Y+4	; 0x04
   8:	60 e0       	ldi	r22, 0x00	; 0
   a:	0e 94 00 00 	call	0	; 0x0 <_ZN13LiquidCrystal11pulseEnableEv>
   e:	81 e0       	ldi	r24, 0x01	; 1
  10:	90 e0       	ldi	r25, 0x00	; 0
  12:	0e 94 00 00 	call	0	; 0x0 <_ZN13LiquidCrystal11pulseEnableEv>
  16:	8c 81       	ldd	r24, Y+4	; 0x04
  18:	61 e0       	ldi	r22, 0x01	; 1
  1a:	0e 94 00 00 	call	0	; 0x0 <_ZN13LiquidCrystal11pulseEnableEv>
  1e:	81 e0       	ldi	r24, 0x01	; 1
  20:	90 e0       	ldi	r25, 0x00	; 0
  22:	0e 94 00 00 	call	0	; 0x0 <_ZN13LiquidCrystal11pulseEnableEv>
  26:	8c 81       	ldd	r24, Y+4	; 0x04
  28:	60 e0       	ldi	r22, 0x00	; 0
  2a:	0e 94 00 00 	call	0	; 0x0 <_ZN13LiquidCrystal11pulseEnableEv>
  2e:	84 e6       	ldi	r24, 0x64	; 100
  30:	90 e0       	ldi	r25, 0x00	; 0
  32:	0e 94 00 00 	call	0	; 0x0 <_ZN13LiquidCrystal11pulseEnableEv>
  36:	df 91       	pop	r29
  38:	cf 91       	pop	r28
  3a:	08 95       	ret

Disassembly of section .text._ZN13LiquidCrystal10write4bitsEh:

00000000 <_ZN13LiquidCrystal10write4bitsEh>:
   0:	af 92       	push	r10
   2:	bf 92       	push	r11
   4:	cf 92       	push	r12
   6:	df 92       	push	r13
   8:	ef 92       	push	r14
   a:	ff 92       	push	r15
   c:	0f 93       	push	r16
   e:	1f 93       	push	r17
  10:	cf 93       	push	r28
  12:	df 93       	push	r29
  14:	7c 01       	movw	r14, r24
  16:	8c 01       	movw	r16, r24
  18:	0b 5f       	subi	r16, 0xFB	; 251
  1a:	1f 4f       	sbci	r17, 0xFF	; 255
  1c:	c0 e0       	ldi	r28, 0x00	; 0
  1e:	d0 e0       	ldi	r29, 0x00	; 0
  20:	a6 2e       	mov	r10, r22
  22:	bb 24       	eor	r11, r11
  24:	68 01       	movw	r12, r16
  26:	f8 01       	movw	r30, r16
  28:	81 91       	ld	r24, Z+
  2a:	8f 01       	movw	r16, r30
  2c:	61 e0       	ldi	r22, 0x01	; 1
  2e:	0e 94 00 00 	call	0	; 0x0 <_ZN13LiquidCrystal10write4bitsEh>
  32:	b5 01       	movw	r22, r10
  34:	0c 2e       	mov	r0, r28
  36:	00 c0       	rjmp	.+0      	; 0x38 <_ZN13LiquidCrystal10write4bitsEh+0x38>
  38:	75 95       	asr	r23
  3a:	67 95       	ror	r22
  3c:	0a 94       	dec	r0
  3e:	02 f4       	brpl	.+0      	; 0x40 <_ZN13LiquidCrystal10write4bitsEh+0x40>
  40:	61 70       	andi	r22, 0x01	; 1
  42:	f6 01       	movw	r30, r12
  44:	80 81       	ld	r24, Z
  46:	0e 94 00 00 	call	0	; 0x0 <_ZN13LiquidCrystal10write4bitsEh>
  4a:	21 96       	adiw	r28, 0x01	; 1
  4c:	c4 30       	cpi	r28, 0x04	; 4
  4e:	d1 05       	cpc	r29, r1
  50:	01 f4       	brne	.+0      	; 0x52 <_ZN13LiquidCrystal10write4bitsEh+0x52>
  52:	c7 01       	movw	r24, r14
  54:	0e 94 00 00 	call	0	; 0x0 <_ZN13LiquidCrystal10write4bitsEh>
  58:	df 91       	pop	r29
  5a:	cf 91       	pop	r28
  5c:	1f 91       	pop	r17
  5e:	0f 91       	pop	r16
  60:	ff 90       	pop	r15
  62:	ef 90       	pop	r14
  64:	df 90       	pop	r13
  66:	cf 90       	pop	r12
  68:	bf 90       	pop	r11
  6a:	af 90       	pop	r10
  6c:	08 95       	ret

Disassembly of section .text._ZN13LiquidCrystal10write8bitsEh:

00000000 <_ZN13LiquidCrystal10write8bitsEh>:
   0:	af 92       	push	r10
   2:	bf 92       	push	r11
   4:	cf 92       	push	r12
   6:	df 92       	push	r13
   8:	ef 92       	push	r14
   a:	ff 92       	push	r15
   c:	0f 93       	push	r16
   e:	1f 93       	push	r17
  10:	cf 93       	push	r28
  12:	df 93       	push	r29
  14:	7c 01       	movw	r14, r24
  16:	8c 01       	movw	r16, r24
  18:	0b 5f       	subi	r16, 0xFB	; 251
  1a:	1f 4f       	sbci	r17, 0xFF	; 255
  1c:	c0 e0       	ldi	r28, 0x00	; 0
  1e:	d0 e0       	ldi	r29, 0x00	; 0
  20:	a6 2e       	mov	r10, r22
  22:	bb 24       	eor	r11, r11
  24:	68 01       	movw	r12, r16
  26:	f8 01       	movw	r30, r16
  28:	81 91       	ld	r24, Z+
  2a:	8f 01       	movw	r16, r30
  2c:	61 e0       	ldi	r22, 0x01	; 1
  2e:	0e 94 00 00 	call	0	; 0x0 <_ZN13LiquidCrystal10write8bitsEh>
  32:	b5 01       	movw	r22, r10
  34:	0c 2e       	mov	r0, r28
  36:	00 c0       	rjmp	.+0      	; 0x38 <_ZN13LiquidCrystal10write8bitsEh+0x38>
  38:	75 95       	asr	r23
  3a:	67 95       	ror	r22
  3c:	0a 94       	dec	r0
  3e:	02 f4       	brpl	.+0      	; 0x40 <_ZN13LiquidCrystal10write8bitsEh+0x40>
  40:	61 70       	andi	r22, 0x01	; 1
  42:	f6 01       	movw	r30, r12
  44:	80 81       	ld	r24, Z
  46:	0e 94 00 00 	call	0	; 0x0 <_ZN13LiquidCrystal10write8bitsEh>
  4a:	21 96       	adiw	r28, 0x01	; 1
  4c:	c8 30       	cpi	r28, 0x08	; 8
  4e:	d1 05       	cpc	r29, r1
  50:	01 f4       	brne	.+0      	; 0x52 <_ZN13LiquidCrystal10write8bitsEh+0x52>
  52:	c7 01       	movw	r24, r14
  54:	0e 94 00 00 	call	0	; 0x0 <_ZN13LiquidCrystal10write8bitsEh>
  58:	df 91       	pop	r29
  5a:	cf 91       	pop	r28
  5c:	1f 91       	pop	r17
  5e:	0f 91       	pop	r16
  60:	ff 90       	pop	r15
  62:	ef 90       	pop	r14
  64:	df 90       	pop	r13
  66:	cf 90       	pop	r12
  68:	bf 90       	pop	r11
  6a:	af 90       	pop	r10
  6c:	08 95       	ret

Disassembly of section .text._ZN13LiquidCrystal4sendEhh:

00000000 <_ZN13LiquidCrystal4sendEhh>:
   0:	1f 93       	push	r17
   2:	cf 93       	push	r28
   4:	df 93       	push	r29
   6:	ec 01       	movw	r28, r24
   8:	16 2f       	mov	r17, r22
   a:	8a 81       	ldd	r24, Y+2	; 0x02
   c:	64 2f       	mov	r22, r20
   e:	0e 94 00 00 	call	0	; 0x0 <_ZN13LiquidCrystal4sendEhh>
  12:	8b 81       	ldd	r24, Y+3	; 0x03
  14:	8f 3f       	cpi	r24, 0xFF	; 255
  16:	01 f0       	breq	.+0      	; 0x18 <_ZN13LiquidCrystal4sendEhh+0x18>
  18:	60 e0       	ldi	r22, 0x00	; 0
  1a:	0e 94 00 00 	call	0	; 0x0 <_ZN13LiquidCrystal4sendEhh>
  1e:	8d 85       	ldd	r24, Y+13	; 0x0d
  20:	84 ff       	sbrs	r24, 4
  22:	00 c0       	rjmp	.+0      	; 0x24 <_ZN13LiquidCrystal4sendEhh+0x24>
  24:	ce 01       	movw	r24, r28
  26:	61 2f       	mov	r22, r17
  28:	0e 94 00 00 	call	0	; 0x0 <_ZN13LiquidCrystal4sendEhh>
  2c:	00 c0       	rjmp	.+0      	; 0x2e <_ZN13LiquidCrystal4sendEhh+0x2e>
  2e:	21 2f       	mov	r18, r17
  30:	30 e0       	ldi	r19, 0x00	; 0
  32:	84 e0       	ldi	r24, 0x04	; 4
  34:	35 95       	asr	r19
  36:	27 95       	ror	r18
  38:	8a 95       	dec	r24
  3a:	01 f4       	brne	.+0      	; 0x3c <_ZN13LiquidCrystal4sendEhh+0x3c>
  3c:	ce 01       	movw	r24, r28
  3e:	62 2f       	mov	r22, r18
  40:	0e 94 00 00 	call	0	; 0x0 <_ZN13LiquidCrystal4sendEhh>
  44:	ce 01       	movw	r24, r28
  46:	61 2f       	mov	r22, r17
  48:	0e 94 00 00 	call	0	; 0x0 <_ZN13LiquidCrystal4sendEhh>
  4c:	df 91       	pop	r29
  4e:	cf 91       	pop	r28
  50:	1f 91       	pop	r17
  52:	08 95       	ret

Disassembly of section .text._ZN13LiquidCrystal5writeEh:

00000000 <_ZN13LiquidCrystal5writeEh>:
   0:	41 e0       	ldi	r20, 0x01	; 1
   2:	0e 94 00 00 	call	0	; 0x0 <_ZN13LiquidCrystal5writeEh>
   6:	08 95       	ret

Disassembly of section .text._ZN13LiquidCrystal7commandEh:

00000000 <_ZN13LiquidCrystal7commandEh>:
   0:	40 e0       	ldi	r20, 0x00	; 0
   2:	0e 94 00 00 	call	0	; 0x0 <_ZN13LiquidCrystal7commandEh>
   6:	08 95       	ret

Disassembly of section .text._ZN13LiquidCrystal10createCharEhPh:

00000000 <_ZN13LiquidCrystal10createCharEhPh>:
   0:	cf 92       	push	r12
   2:	df 92       	push	r13
   4:	ef 92       	push	r14
   6:	ff 92       	push	r15
   8:	0f 93       	push	r16
   a:	1f 93       	push	r17
   c:	df 93       	push	r29
   e:	cf 93       	push	r28
  10:	0f 92       	push	r0
  12:	0f 92       	push	r0
  14:	cd b7       	in	r28, 0x3d	; 61
  16:	de b7       	in	r29, 0x3e	; 62
  18:	6c 01       	movw	r12, r24
  1a:	67 70       	andi	r22, 0x07	; 7
  1c:	66 0f       	add	r22, r22
  1e:	66 0f       	add	r22, r22
  20:	66 0f       	add	r22, r22
  22:	60 64       	ori	r22, 0x40	; 64
  24:	49 83       	std	Y+1, r20	; 0x01
  26:	5a 83       	std	Y+2, r21	; 0x02
  28:	0e 94 00 00 	call	0	; 0x0 <_ZN13LiquidCrystal10createCharEhPh>
  2c:	49 81       	ldd	r20, Y+1	; 0x01
  2e:	5a 81       	ldd	r21, Y+2	; 0x02
  30:	e4 2e       	mov	r14, r20
  32:	f5 2e       	mov	r15, r21
  34:	00 e0       	ldi	r16, 0x00	; 0
  36:	10 e0       	ldi	r17, 0x00	; 0
  38:	d7 01       	movw	r26, r14
  3a:	6d 91       	ld	r22, X+
  3c:	7d 01       	movw	r14, r26
  3e:	d6 01       	movw	r26, r12
  40:	ed 91       	ld	r30, X+
  42:	fc 91       	ld	r31, X
  44:	01 90       	ld	r0, Z+
  46:	f0 81       	ld	r31, Z
  48:	e0 2d       	mov	r30, r0
  4a:	c6 01       	movw	r24, r12
  4c:	19 95       	eicall
  4e:	0f 5f       	subi	r16, 0xFF	; 255
  50:	1f 4f       	sbci	r17, 0xFF	; 255
  52:	08 30       	cpi	r16, 0x08	; 8
  54:	11 05       	cpc	r17, r1
  56:	01 f4       	brne	.+0      	; 0x58 <_ZN13LiquidCrystal10createCharEhPh+0x58>
  58:	0f 90       	pop	r0
  5a:	0f 90       	pop	r0
  5c:	cf 91       	pop	r28
  5e:	df 91       	pop	r29
  60:	1f 91       	pop	r17
  62:	0f 91       	pop	r16
  64:	ff 90       	pop	r15
  66:	ef 90       	pop	r14
  68:	df 90       	pop	r13
  6a:	cf 90       	pop	r12
  6c:	08 95       	ret

Disassembly of section .text._ZN13LiquidCrystal12noAutoscrollEv:

00000000 <_ZN13LiquidCrystal12noAutoscrollEv>:
   0:	fc 01       	movw	r30, r24
   2:	67 85       	ldd	r22, Z+15	; 0x0f
   4:	6e 7f       	andi	r22, 0xFE	; 254
   6:	67 87       	std	Z+15, r22	; 0x0f
   8:	64 60       	ori	r22, 0x04	; 4
   a:	0e 94 00 00 	call	0	; 0x0 <_ZN13LiquidCrystal12noAutoscrollEv>
   e:	08 95       	ret

Disassembly of section .text._ZN13LiquidCrystal10autoscrollEv:

00000000 <_ZN13LiquidCrystal10autoscrollEv>:
   0:	fc 01       	movw	r30, r24
   2:	67 85       	ldd	r22, Z+15	; 0x0f
   4:	26 2f       	mov	r18, r22
   6:	21 60       	ori	r18, 0x01	; 1
   8:	27 87       	std	Z+15, r18	; 0x0f
   a:	65 60       	ori	r22, 0x05	; 5
   c:	0e 94 00 00 	call	0	; 0x0 <_ZN13LiquidCrystal10autoscrollEv>
  10:	08 95       	ret

Disassembly of section .text._ZN13LiquidCrystal11rightToLeftEv:

00000000 <_ZN13LiquidCrystal11rightToLeftEv>:
   0:	fc 01       	movw	r30, r24
   2:	67 85       	ldd	r22, Z+15	; 0x0f
   4:	6d 7f       	andi	r22, 0xFD	; 253
   6:	67 87       	std	Z+15, r22	; 0x0f
   8:	64 60       	ori	r22, 0x04	; 4
   a:	0e 94 00 00 	call	0	; 0x0 <_ZN13LiquidCrystal11rightToLeftEv>
   e:	08 95       	ret

Disassembly of section .text._ZN13LiquidCrystal11leftToRightEv:

00000000 <_ZN13LiquidCrystal11leftToRightEv>:
   0:	fc 01       	movw	r30, r24
   2:	67 85       	ldd	r22, Z+15	; 0x0f
   4:	26 2f       	mov	r18, r22
   6:	22 60       	ori	r18, 0x02	; 2
   8:	27 87       	std	Z+15, r18	; 0x0f
   a:	66 60       	ori	r22, 0x06	; 6
   c:	0e 94 00 00 	call	0	; 0x0 <_ZN13LiquidCrystal11leftToRightEv>
  10:	08 95       	ret

Disassembly of section .text._ZN13LiquidCrystal18scrollDisplayRightEv:

00000000 <_ZN13LiquidCrystal18scrollDisplayRightEv>:
   0:	6c e1       	ldi	r22, 0x1C	; 28
   2:	0e 94 00 00 	call	0	; 0x0 <_ZN13LiquidCrystal18scrollDisplayRightEv>
   6:	08 95       	ret

Disassembly of section .text._ZN13LiquidCrystal17scrollDisplayLeftEv:

00000000 <_ZN13LiquidCrystal17scrollDisplayLeftEv>:
   0:	68 e1       	ldi	r22, 0x18	; 24
   2:	0e 94 00 00 	call	0	; 0x0 <_ZN13LiquidCrystal17scrollDisplayLeftEv>
   6:	08 95       	ret

Disassembly of section .text._ZN13LiquidCrystal5blinkEv:

00000000 <_ZN13LiquidCrystal5blinkEv>:
   0:	fc 01       	movw	r30, r24
   2:	66 85       	ldd	r22, Z+14	; 0x0e
   4:	26 2f       	mov	r18, r22
   6:	21 60       	ori	r18, 0x01	; 1
   8:	26 87       	std	Z+14, r18	; 0x0e
   a:	69 60       	ori	r22, 0x09	; 9
   c:	0e 94 00 00 	call	0	; 0x0 <_ZN13LiquidCrystal5blinkEv>
  10:	08 95       	ret

Disassembly of section .text._ZN13LiquidCrystal7noBlinkEv:

00000000 <_ZN13LiquidCrystal7noBlinkEv>:
   0:	fc 01       	movw	r30, r24
   2:	66 85       	ldd	r22, Z+14	; 0x0e
   4:	6e 7f       	andi	r22, 0xFE	; 254
   6:	66 87       	std	Z+14, r22	; 0x0e
   8:	68 60       	ori	r22, 0x08	; 8
   a:	0e 94 00 00 	call	0	; 0x0 <_ZN13LiquidCrystal7noBlinkEv>
   e:	08 95       	ret

Disassembly of section .text._ZN13LiquidCrystal6cursorEv:

00000000 <_ZN13LiquidCrystal6cursorEv>:
   0:	fc 01       	movw	r30, r24
   2:	66 85       	ldd	r22, Z+14	; 0x0e
   4:	26 2f       	mov	r18, r22
   6:	22 60       	ori	r18, 0x02	; 2
   8:	26 87       	std	Z+14, r18	; 0x0e
   a:	6a 60       	ori	r22, 0x0A	; 10
   c:	0e 94 00 00 	call	0	; 0x0 <_ZN13LiquidCrystal6cursorEv>
  10:	08 95       	ret

Disassembly of section .text._ZN13LiquidCrystal8noCursorEv:

00000000 <_ZN13LiquidCrystal8noCursorEv>:
   0:	fc 01       	movw	r30, r24
   2:	66 85       	ldd	r22, Z+14	; 0x0e
   4:	6d 7f       	andi	r22, 0xFD	; 253
   6:	66 87       	std	Z+14, r22	; 0x0e
   8:	68 60       	ori	r22, 0x08	; 8
   a:	0e 94 00 00 	call	0	; 0x0 <_ZN13LiquidCrystal8noCursorEv>
   e:	08 95       	ret

Disassembly of section .text._ZN13LiquidCrystal7displayEv:

00000000 <_ZN13LiquidCrystal7displayEv>:
   0:	fc 01       	movw	r30, r24
   2:	66 85       	ldd	r22, Z+14	; 0x0e
   4:	26 2f       	mov	r18, r22
   6:	24 60       	ori	r18, 0x04	; 4
   8:	26 87       	std	Z+14, r18	; 0x0e
   a:	6c 60       	ori	r22, 0x0C	; 12
   c:	0e 94 00 00 	call	0	; 0x0 <_ZN13LiquidCrystal7displayEv>
  10:	08 95       	ret

Disassembly of section .text._ZN13LiquidCrystal9noDisplayEv:

00000000 <_ZN13LiquidCrystal9noDisplayEv>:
   0:	fc 01       	movw	r30, r24
   2:	66 85       	ldd	r22, Z+14	; 0x0e
   4:	6b 7f       	andi	r22, 0xFB	; 251
   6:	66 87       	std	Z+14, r22	; 0x0e
   8:	68 60       	ori	r22, 0x08	; 8
   a:	0e 94 00 00 	call	0	; 0x0 <_ZN13LiquidCrystal9noDisplayEv>
   e:	08 95       	ret

Disassembly of section .text._ZN13LiquidCrystal9setCursorEhh:

00000000 <_ZN13LiquidCrystal9setCursorEhh>:
   0:	df 93       	push	r29
   2:	cf 93       	push	r28
   4:	cd b7       	in	r28, 0x3d	; 61
   6:	de b7       	in	r29, 0x3e	; 62
   8:	28 97       	sbiw	r28, 0x08	; 8
   a:	0f b6       	in	r0, 0x3f	; 63
   c:	f8 94       	cli
   e:	de bf       	out	0x3e, r29	; 62
  10:	0f be       	out	0x3f, r0	; 63
  12:	cd bf       	out	0x3d, r28	; 61
  14:	fe 01       	movw	r30, r28
  16:	31 96       	adiw	r30, 0x01	; 1
  18:	a0 e0       	ldi	r26, 0x00	; 0
  1a:	b0 e0       	ldi	r27, 0x00	; 0
  1c:	28 e0       	ldi	r18, 0x08	; 8
  1e:	0d 90       	ld	r0, X+
  20:	01 92       	st	Z+, r0
  22:	21 50       	subi	r18, 0x01	; 1
  24:	01 f4       	brne	.+0      	; 0x26 <_ZN13LiquidCrystal9setCursorEhh+0x26>
  26:	fc 01       	movw	r30, r24
  28:	21 89       	ldd	r18, Z+17	; 0x11
  2a:	24 17       	cp	r18, r20
  2c:	00 f4       	brcc	.+0      	; 0x2e <_ZN13LiquidCrystal9setCursorEhh+0x2e>
  2e:	42 2f       	mov	r20, r18
  30:	41 50       	subi	r20, 0x01	; 1
  32:	e4 2f       	mov	r30, r20
  34:	f0 e0       	ldi	r31, 0x00	; 0
  36:	ee 0f       	add	r30, r30
  38:	ff 1f       	adc	r31, r31
  3a:	ec 0f       	add	r30, r28
  3c:	fd 1f       	adc	r31, r29
  3e:	21 81       	ldd	r18, Z+1	; 0x01
  40:	26 0f       	add	r18, r22
  42:	20 68       	ori	r18, 0x80	; 128
  44:	62 2f       	mov	r22, r18
  46:	0e 94 00 00 	call	0	; 0x0 <_ZN13LiquidCrystal9setCursorEhh>
  4a:	28 96       	adiw	r28, 0x08	; 8
  4c:	0f b6       	in	r0, 0x3f	; 63
  4e:	f8 94       	cli
  50:	de bf       	out	0x3e, r29	; 62
  52:	0f be       	out	0x3f, r0	; 63
  54:	cd bf       	out	0x3d, r28	; 61
  56:	cf 91       	pop	r28
  58:	df 91       	pop	r29
  5a:	08 95       	ret

Disassembly of section .text._ZN13LiquidCrystal4homeEv:

00000000 <_ZN13LiquidCrystal4homeEv>:
   0:	62 e0       	ldi	r22, 0x02	; 2
   2:	0e 94 00 00 	call	0	; 0x0 <_ZN13LiquidCrystal4homeEv>
   6:	80 ed       	ldi	r24, 0xD0	; 208
   8:	97 e0       	ldi	r25, 0x07	; 7
   a:	0e 94 00 00 	call	0	; 0x0 <_ZN13LiquidCrystal4homeEv>
   e:	08 95       	ret

Disassembly of section .text._ZN13LiquidCrystal5clearEv:

00000000 <_ZN13LiquidCrystal5clearEv>:
   0:	61 e0       	ldi	r22, 0x01	; 1
   2:	0e 94 00 00 	call	0	; 0x0 <_ZN13LiquidCrystal5clearEv>
   6:	80 ed       	ldi	r24, 0xD0	; 208
   8:	97 e0       	ldi	r25, 0x07	; 7
   a:	0e 94 00 00 	call	0	; 0x0 <_ZN13LiquidCrystal5clearEv>
   e:	08 95       	ret

Disassembly of section .text._ZN13LiquidCrystal5beginEhhh:

00000000 <_ZN13LiquidCrystal5beginEhhh>:
   0:	cf 93       	push	r28
   2:	df 93       	push	r29
   4:	ec 01       	movw	r28, r24
   6:	42 30       	cpi	r20, 0x02	; 2
   8:	00 f0       	brcs	.+0      	; 0xa <_ZN13LiquidCrystal5beginEhhh+0xa>
   a:	8d 85       	ldd	r24, Y+13	; 0x0d
   c:	88 60       	ori	r24, 0x08	; 8
   e:	8d 87       	std	Y+13, r24	; 0x0d
  10:	49 8b       	std	Y+17, r20	; 0x11
  12:	1a 8a       	std	Y+18, r1	; 0x12
  14:	22 23       	and	r18, r18
  16:	01 f0       	breq	.+0      	; 0x18 <_ZN13LiquidCrystal5beginEhhh+0x18>
  18:	41 30       	cpi	r20, 0x01	; 1
  1a:	01 f4       	brne	.+0      	; 0x1c <_ZN13LiquidCrystal5beginEhhh+0x1c>
  1c:	8d 85       	ldd	r24, Y+13	; 0x0d
  1e:	84 60       	ori	r24, 0x04	; 4
  20:	8d 87       	std	Y+13, r24	; 0x0d
  22:	80 e5       	ldi	r24, 0x50	; 80
  24:	93 ec       	ldi	r25, 0xC3	; 195
  26:	0e 94 00 00 	call	0	; 0x0 <_ZN13LiquidCrystal5beginEhhh>
  2a:	8a 81       	ldd	r24, Y+2	; 0x02
  2c:	60 e0       	ldi	r22, 0x00	; 0
  2e:	0e 94 00 00 	call	0	; 0x0 <_ZN13LiquidCrystal5beginEhhh>
  32:	8c 81       	ldd	r24, Y+4	; 0x04
  34:	60 e0       	ldi	r22, 0x00	; 0
  36:	0e 94 00 00 	call	0	; 0x0 <_ZN13LiquidCrystal5beginEhhh>
  3a:	8b 81       	ldd	r24, Y+3	; 0x03
  3c:	8f 3f       	cpi	r24, 0xFF	; 255
  3e:	01 f0       	breq	.+0      	; 0x40 <_ZN13LiquidCrystal5beginEhhh+0x40>
  40:	60 e0       	ldi	r22, 0x00	; 0
  42:	0e 94 00 00 	call	0	; 0x0 <_ZN13LiquidCrystal5beginEhhh>
  46:	6d 85       	ldd	r22, Y+13	; 0x0d
  48:	64 fd       	sbrc	r22, 4
  4a:	00 c0       	rjmp	.+0      	; 0x4c <_ZN13LiquidCrystal5beginEhhh+0x4c>
  4c:	ce 01       	movw	r24, r28
  4e:	63 e0       	ldi	r22, 0x03	; 3
  50:	0e 94 00 00 	call	0	; 0x0 <_ZN13LiquidCrystal5beginEhhh>
  54:	84 e9       	ldi	r24, 0x94	; 148
  56:	91 e1       	ldi	r25, 0x11	; 17
  58:	0e 94 00 00 	call	0	; 0x0 <_ZN13LiquidCrystal5beginEhhh>
  5c:	ce 01       	movw	r24, r28
  5e:	63 e0       	ldi	r22, 0x03	; 3
  60:	0e 94 00 00 	call	0	; 0x0 <_ZN13LiquidCrystal5beginEhhh>
  64:	84 e9       	ldi	r24, 0x94	; 148
  66:	91 e1       	ldi	r25, 0x11	; 17
  68:	0e 94 00 00 	call	0	; 0x0 <_ZN13LiquidCrystal5beginEhhh>
  6c:	ce 01       	movw	r24, r28
  6e:	63 e0       	ldi	r22, 0x03	; 3
  70:	0e 94 00 00 	call	0	; 0x0 <_ZN13LiquidCrystal5beginEhhh>
  74:	86 e9       	ldi	r24, 0x96	; 150
  76:	90 e0       	ldi	r25, 0x00	; 0
  78:	0e 94 00 00 	call	0	; 0x0 <_ZN13LiquidCrystal5beginEhhh>
  7c:	ce 01       	movw	r24, r28
  7e:	62 e0       	ldi	r22, 0x02	; 2
  80:	0e 94 00 00 	call	0	; 0x0 <_ZN13LiquidCrystal5beginEhhh>
  84:	00 c0       	rjmp	.+0      	; 0x86 <_ZN13LiquidCrystal5beginEhhh+0x86>
  86:	60 62       	ori	r22, 0x20	; 32
  88:	ce 01       	movw	r24, r28
  8a:	0e 94 00 00 	call	0	; 0x0 <_ZN13LiquidCrystal5beginEhhh>
  8e:	84 e9       	ldi	r24, 0x94	; 148
  90:	91 e1       	ldi	r25, 0x11	; 17
  92:	0e 94 00 00 	call	0	; 0x0 <_ZN13LiquidCrystal5beginEhhh>
  96:	6d 85       	ldd	r22, Y+13	; 0x0d
  98:	60 62       	ori	r22, 0x20	; 32
  9a:	ce 01       	movw	r24, r28
  9c:	0e 94 00 00 	call	0	; 0x0 <_ZN13LiquidCrystal5beginEhhh>
  a0:	86 e9       	ldi	r24, 0x96	; 150
  a2:	90 e0       	ldi	r25, 0x00	; 0
  a4:	0e 94 00 00 	call	0	; 0x0 <_ZN13LiquidCrystal5beginEhhh>
  a8:	6d 85       	ldd	r22, Y+13	; 0x0d
  aa:	60 62       	ori	r22, 0x20	; 32
  ac:	ce 01       	movw	r24, r28
  ae:	0e 94 00 00 	call	0	; 0x0 <_ZN13LiquidCrystal5beginEhhh>
  b2:	6d 85       	ldd	r22, Y+13	; 0x0d
  b4:	60 62       	ori	r22, 0x20	; 32
  b6:	ce 01       	movw	r24, r28
  b8:	0e 94 00 00 	call	0	; 0x0 <_ZN13LiquidCrystal5beginEhhh>
  bc:	84 e0       	ldi	r24, 0x04	; 4
  be:	8e 87       	std	Y+14, r24	; 0x0e
  c0:	ce 01       	movw	r24, r28
  c2:	0e 94 00 00 	call	0	; 0x0 <_ZN13LiquidCrystal5beginEhhh>
  c6:	ce 01       	movw	r24, r28
  c8:	0e 94 00 00 	call	0	; 0x0 <_ZN13LiquidCrystal5beginEhhh>
  cc:	82 e0       	ldi	r24, 0x02	; 2
  ce:	8f 87       	std	Y+15, r24	; 0x0f
  d0:	ce 01       	movw	r24, r28
  d2:	66 e0       	ldi	r22, 0x06	; 6
  d4:	0e 94 00 00 	call	0	; 0x0 <_ZN13LiquidCrystal5beginEhhh>
  d8:	df 91       	pop	r29
  da:	cf 91       	pop	r28
  dc:	08 95       	ret

Disassembly of section .text._ZN13LiquidCrystal4initEhhhhhhhhhhhh:

00000000 <_ZN13LiquidCrystal4initEhhhhhhhhhhhh>:
   0:	6f 92       	push	r6
   2:	7f 92       	push	r7
   4:	8f 92       	push	r8
   6:	af 92       	push	r10
   8:	cf 92       	push	r12
   a:	ef 92       	push	r14
   c:	0f 93       	push	r16
   e:	1f 93       	push	r17
  10:	df 93       	push	r29
  12:	cf 93       	push	r28
  14:	cd b7       	in	r28, 0x3d	; 61
  16:	de b7       	in	r29, 0x3e	; 62
  18:	3c 01       	movw	r6, r24
  1a:	16 2f       	mov	r17, r22
  1c:	84 2f       	mov	r24, r20
  1e:	f3 01       	movw	r30, r6
  20:	42 83       	std	Z+2, r20	; 0x02
  22:	23 83       	std	Z+3, r18	; 0x03
  24:	04 83       	std	Z+4, r16	; 0x04
  26:	e5 82       	std	Z+5, r14	; 0x05
  28:	c6 82       	std	Z+6, r12	; 0x06
  2a:	a7 82       	std	Z+7, r10	; 0x07
  2c:	80 86       	std	Z+8, r8	; 0x08
  2e:	9e 85       	ldd	r25, Y+14	; 0x0e
  30:	91 87       	std	Z+9, r25	; 0x09
  32:	9f 85       	ldd	r25, Y+15	; 0x0f
  34:	92 87       	std	Z+10, r25	; 0x0a
  36:	98 89       	ldd	r25, Y+16	; 0x10
  38:	93 87       	std	Z+11, r25	; 0x0b
  3a:	99 89       	ldd	r25, Y+17	; 0x11
  3c:	94 87       	std	Z+12, r25	; 0x0c
  3e:	61 e0       	ldi	r22, 0x01	; 1
  40:	0e 94 00 00 	call	0	; 0x0 <_ZN13LiquidCrystal4initEhhhhhhhhhhhh>
  44:	f3 01       	movw	r30, r6
  46:	83 81       	ldd	r24, Z+3	; 0x03
  48:	8f 3f       	cpi	r24, 0xFF	; 255
  4a:	01 f0       	breq	.+0      	; 0x4c <_ZN13LiquidCrystal4initEhhhhhhhhhhhh+0x4c>
  4c:	61 e0       	ldi	r22, 0x01	; 1
  4e:	0e 94 00 00 	call	0	; 0x0 <_ZN13LiquidCrystal4initEhhhhhhhhhhhh>
  52:	f3 01       	movw	r30, r6
  54:	84 81       	ldd	r24, Z+4	; 0x04
  56:	61 e0       	ldi	r22, 0x01	; 1
  58:	0e 94 00 00 	call	0	; 0x0 <_ZN13LiquidCrystal4initEhhhhhhhhhhhh>
  5c:	11 23       	and	r17, r17
  5e:	01 f0       	breq	.+0      	; 0x60 <_ZN13LiquidCrystal4initEhhhhhhhhhhhh+0x60>
  60:	f3 01       	movw	r30, r6
  62:	15 86       	std	Z+13, r1	; 0x0d
  64:	00 c0       	rjmp	.+0      	; 0x66 <_ZN13LiquidCrystal4initEhhhhhhhhhhhh+0x66>
  66:	80 e1       	ldi	r24, 0x10	; 16
  68:	f3 01       	movw	r30, r6
  6a:	85 87       	std	Z+13, r24	; 0x0d
  6c:	c3 01       	movw	r24, r6
  6e:	60 e1       	ldi	r22, 0x10	; 16
  70:	41 e0       	ldi	r20, 0x01	; 1
  72:	20 e0       	ldi	r18, 0x00	; 0
  74:	0e 94 00 00 	call	0	; 0x0 <_ZN13LiquidCrystal4initEhhhhhhhhhhhh>
  78:	cf 91       	pop	r28
  7a:	df 91       	pop	r29
  7c:	1f 91       	pop	r17
  7e:	0f 91       	pop	r16
  80:	ef 90       	pop	r14
  82:	cf 90       	pop	r12
  84:	af 90       	pop	r10
  86:	8f 90       	pop	r8
  88:	7f 90       	pop	r7
  8a:	6f 90       	pop	r6
  8c:	08 95       	ret

Disassembly of section .text._ZN13LiquidCrystalC2Ehhhhhh:

00000000 <_ZN13LiquidCrystalC1Ehhhhhh>:
   0:	8f 92       	push	r8
   2:	af 92       	push	r10
   4:	cf 92       	push	r12
   6:	ef 92       	push	r14
   8:	0f 93       	push	r16
   a:	cf 93       	push	r28
   c:	df 93       	push	r29
   e:	a6 2f       	mov	r26, r22
  10:	74 2f       	mov	r23, r20
  12:	52 2f       	mov	r21, r18
  14:	30 2f       	mov	r19, r16
  16:	ae 2c       	mov	r10, r14
  18:	8c 2c       	mov	r8, r12
  1a:	e0 e0       	ldi	r30, 0x00	; 0
  1c:	f0 e0       	ldi	r31, 0x00	; 0
  1e:	ec 01       	movw	r28, r24
  20:	f9 83       	std	Y+1, r31	; 0x01
  22:	e8 83       	st	Y, r30
  24:	00 d0       	rcall	.+0      	; 0x26 <_ZN13LiquidCrystalC1Ehhhhhh+0x26>
  26:	0f 92       	push	r0
  28:	ed b7       	in	r30, 0x3d	; 61
  2a:	fe b7       	in	r31, 0x3e	; 62
  2c:	31 96       	adiw	r30, 0x01	; 1
  2e:	cd b7       	in	r28, 0x3d	; 61
  30:	de b7       	in	r29, 0x3e	; 62
  32:	19 82       	std	Y+1, r1	; 0x01
  34:	11 82       	std	Z+1, r1	; 0x01
  36:	12 82       	std	Z+2, r1	; 0x02
  38:	13 82       	std	Z+3, r1	; 0x03
  3a:	61 e0       	ldi	r22, 0x01	; 1
  3c:	4a 2f       	mov	r20, r26
  3e:	2f ef       	ldi	r18, 0xFF	; 255
  40:	07 2f       	mov	r16, r23
  42:	e5 2e       	mov	r14, r21
  44:	c3 2e       	mov	r12, r19
  46:	0e 94 00 00 	call	0	; 0x0 <_ZN13LiquidCrystalC1Ehhhhhh>
  4a:	0f 90       	pop	r0
  4c:	0f 90       	pop	r0
  4e:	0f 90       	pop	r0
  50:	0f 90       	pop	r0
  52:	df 91       	pop	r29
  54:	cf 91       	pop	r28
  56:	0f 91       	pop	r16
  58:	ef 90       	pop	r14
  5a:	cf 90       	pop	r12
  5c:	af 90       	pop	r10
  5e:	8f 90       	pop	r8
  60:	08 95       	ret

Disassembly of section .text._ZN13LiquidCrystalC2Ehhhhhhh:

00000000 <_ZN13LiquidCrystalC1Ehhhhhhh>:
   0:	8f 92       	push	r8
   2:	af 92       	push	r10
   4:	cf 92       	push	r12
   6:	ef 92       	push	r14
   8:	0f 93       	push	r16
   a:	1f 93       	push	r17
   c:	cf 93       	push	r28
   e:	df 93       	push	r29
  10:	16 2f       	mov	r17, r22
  12:	f4 2f       	mov	r31, r20
  14:	e2 2f       	mov	r30, r18
  16:	70 2f       	mov	r23, r16
  18:	5e 2d       	mov	r21, r14
  1a:	3c 2d       	mov	r19, r12
  1c:	8a 2c       	mov	r8, r10
  1e:	c0 e0       	ldi	r28, 0x00	; 0
  20:	d0 e0       	ldi	r29, 0x00	; 0
  22:	dc 01       	movw	r26, r24
  24:	cd 93       	st	X+, r28
  26:	dc 93       	st	X, r29
  28:	00 d0       	rcall	.+0      	; 0x2a <_ZN13LiquidCrystalC1Ehhhhhhh+0x2a>
  2a:	0f 92       	push	r0
  2c:	cd b7       	in	r28, 0x3d	; 61
  2e:	de b7       	in	r29, 0x3e	; 62
  30:	21 96       	adiw	r28, 0x01	; 1
  32:	ad b7       	in	r26, 0x3d	; 61
  34:	be b7       	in	r27, 0x3e	; 62
  36:	11 96       	adiw	r26, 0x01	; 1
  38:	1c 92       	st	X, r1
  3a:	19 82       	std	Y+1, r1	; 0x01
  3c:	1a 82       	std	Y+2, r1	; 0x02
  3e:	1b 82       	std	Y+3, r1	; 0x03
  40:	61 e0       	ldi	r22, 0x01	; 1
  42:	41 2f       	mov	r20, r17
  44:	2f 2f       	mov	r18, r31
  46:	0e 2f       	mov	r16, r30
  48:	e7 2e       	mov	r14, r23
  4a:	c5 2e       	mov	r12, r21
  4c:	a3 2e       	mov	r10, r19
  4e:	0e 94 00 00 	call	0	; 0x0 <_ZN13LiquidCrystalC1Ehhhhhhh>
  52:	0f 90       	pop	r0
  54:	0f 90       	pop	r0
  56:	0f 90       	pop	r0
  58:	0f 90       	pop	r0
  5a:	df 91       	pop	r29
  5c:	cf 91       	pop	r28
  5e:	1f 91       	pop	r17
  60:	0f 91       	pop	r16
  62:	ef 90       	pop	r14
  64:	cf 90       	pop	r12
  66:	af 90       	pop	r10
  68:	8f 90       	pop	r8
  6a:	08 95       	ret

Disassembly of section .text._ZN13LiquidCrystalC2Ehhhhhhhhhh:

00000000 <_ZN13LiquidCrystalC1Ehhhhhhhhhh>:
   0:	8f 92       	push	r8
   2:	af 92       	push	r10
   4:	cf 92       	push	r12
   6:	ef 92       	push	r14
   8:	ff 92       	push	r15
   a:	0f 93       	push	r16
   c:	1f 93       	push	r17
   e:	df 93       	push	r29
  10:	cf 93       	push	r28
  12:	cd b7       	in	r28, 0x3d	; 61
  14:	de b7       	in	r29, 0x3e	; 62
  16:	f6 2e       	mov	r15, r22
  18:	f4 2f       	mov	r31, r20
  1a:	e2 2f       	mov	r30, r18
  1c:	70 2f       	mov	r23, r16
  1e:	5e 2d       	mov	r21, r14
  20:	3c 2d       	mov	r19, r12
  22:	00 e0       	ldi	r16, 0x00	; 0
  24:	10 e0       	ldi	r17, 0x00	; 0
  26:	dc 01       	movw	r26, r24
  28:	0d 93       	st	X+, r16
  2a:	1c 93       	st	X, r17
  2c:	00 d0       	rcall	.+0      	; 0x2e <_ZN13LiquidCrystalC1Ehhhhhhhhhh+0x2e>
  2e:	0f 92       	push	r0
  30:	0d b7       	in	r16, 0x3d	; 61
  32:	1e b7       	in	r17, 0x3e	; 62
  34:	0f 5f       	subi	r16, 0xFF	; 255
  36:	1f 4f       	sbci	r17, 0xFF	; 255
  38:	ad b7       	in	r26, 0x3d	; 61
  3a:	be b7       	in	r27, 0x3e	; 62
  3c:	11 96       	adiw	r26, 0x01	; 1
  3e:	ac 92       	st	X, r10
  40:	d8 01       	movw	r26, r16
  42:	11 96       	adiw	r26, 0x01	; 1
  44:	8c 92       	st	X, r8
  46:	11 97       	sbiw	r26, 0x01	; 1
  48:	2d 85       	ldd	r18, Y+13	; 0x0d
  4a:	12 96       	adiw	r26, 0x02	; 2
  4c:	2c 93       	st	X, r18
  4e:	12 97       	sbiw	r26, 0x02	; 2
  50:	2e 85       	ldd	r18, Y+14	; 0x0e
  52:	13 96       	adiw	r26, 0x03	; 3
  54:	2c 93       	st	X, r18
  56:	60 e0       	ldi	r22, 0x00	; 0
  58:	4f 2d       	mov	r20, r15
  5a:	2f ef       	ldi	r18, 0xFF	; 255
  5c:	0f 2f       	mov	r16, r31
  5e:	ee 2e       	mov	r14, r30
  60:	c7 2e       	mov	r12, r23
  62:	a5 2e       	mov	r10, r21
  64:	83 2e       	mov	r8, r19
  66:	0e 94 00 00 	call	0	; 0x0 <_ZN13LiquidCrystalC1Ehhhhhhhhhh>
  6a:	0f 90       	pop	r0
  6c:	0f 90       	pop	r0
  6e:	0f 90       	pop	r0
  70:	0f 90       	pop	r0
  72:	cf 91       	pop	r28
  74:	df 91       	pop	r29
  76:	1f 91       	pop	r17
  78:	0f 91       	pop	r16
  7a:	ff 90       	pop	r15
  7c:	ef 90       	pop	r14
  7e:	cf 90       	pop	r12
  80:	af 90       	pop	r10
  82:	8f 90       	pop	r8
  84:	08 95       	ret

Disassembly of section .text._ZN13LiquidCrystalC2Ehhhhhhhhhhh:

00000000 <_ZN13LiquidCrystalC1Ehhhhhhhhhhh>:
   0:	8f 92       	push	r8
   2:	af 92       	push	r10
   4:	cf 92       	push	r12
   6:	df 92       	push	r13
   8:	ef 92       	push	r14
   a:	ff 92       	push	r15
   c:	0f 93       	push	r16
   e:	1f 93       	push	r17
  10:	df 93       	push	r29
  12:	cf 93       	push	r28
  14:	cd b7       	in	r28, 0x3d	; 61
  16:	de b7       	in	r29, 0x3e	; 62
  18:	a6 2f       	mov	r26, r22
  1a:	f4 2e       	mov	r15, r20
  1c:	d2 2e       	mov	r13, r18
  1e:	70 2f       	mov	r23, r16
  20:	5e 2d       	mov	r21, r14
  22:	3c 2d       	mov	r19, r12
  24:	ba 2d       	mov	r27, r10
  26:	00 e0       	ldi	r16, 0x00	; 0
  28:	10 e0       	ldi	r17, 0x00	; 0
  2a:	fc 01       	movw	r30, r24
  2c:	11 83       	std	Z+1, r17	; 0x01
  2e:	00 83       	st	Z, r16
  30:	00 d0       	rcall	.+0      	; 0x32 <_ZN13LiquidCrystalC1Ehhhhhhhhhhh+0x32>
  32:	0f 92       	push	r0
  34:	0d b7       	in	r16, 0x3d	; 61
  36:	1e b7       	in	r17, 0x3e	; 62
  38:	0f 5f       	subi	r16, 0xFF	; 255
  3a:	1f 4f       	sbci	r17, 0xFF	; 255
  3c:	ed b7       	in	r30, 0x3d	; 61
  3e:	fe b7       	in	r31, 0x3e	; 62
  40:	81 82       	std	Z+1, r8	; 0x01
  42:	2e 85       	ldd	r18, Y+14	; 0x0e
  44:	f8 01       	movw	r30, r16
  46:	21 83       	std	Z+1, r18	; 0x01
  48:	2f 85       	ldd	r18, Y+15	; 0x0f
  4a:	22 83       	std	Z+2, r18	; 0x02
  4c:	28 89       	ldd	r18, Y+16	; 0x10
  4e:	23 83       	std	Z+3, r18	; 0x03
  50:	60 e0       	ldi	r22, 0x00	; 0
  52:	4a 2f       	mov	r20, r26
  54:	2f 2d       	mov	r18, r15
  56:	0d 2d       	mov	r16, r13
  58:	e7 2e       	mov	r14, r23
  5a:	c5 2e       	mov	r12, r21
  5c:	a3 2e       	mov	r10, r19
  5e:	8b 2e       	mov	r8, r27
  60:	0e 94 00 00 	call	0	; 0x0 <_ZN13LiquidCrystalC1Ehhhhhhhhhhh>
  64:	0f 90       	pop	r0
  66:	0f 90       	pop	r0
  68:	0f 90       	pop	r0
  6a:	0f 90       	pop	r0
  6c:	cf 91       	pop	r28
  6e:	df 91       	pop	r29
  70:	1f 91       	pop	r17
  72:	0f 91       	pop	r16
  74:	ff 90       	pop	r15
  76:	ef 90       	pop	r14
  78:	df 90       	pop	r13
  7a:	cf 90       	pop	r12
  7c:	af 90       	pop	r10
  7e:	8f 90       	pop	r8
  80:	08 95       	ret

Firmata.o:     file format elf32-avr

Sections:
Idx Name          Size      VMA       LMA       File off  Algn
  0 .text         00000000  00000000  00000000  00000034  2**0
                  CONTENTS, ALLOC, LOAD, READONLY, CODE
  1 .data         00000005  00000000  00000000  00000034  2**0
                  CONTENTS, ALLOC, LOAD, DATA
  2 .bss          00000000  00000000  00000000  00000039  2**0
                  ALLOC
  3 .text._Z23sendValueAsTwo7bitBytesi 00000040  00000000  00000000  00000039  2**0
                  CONTENTS, ALLOC, LOAD, RELOC, READONLY, CODE
  4 .text._Z10startSysexv 00000012  00000000  00000000  00000079  2**0
                  CONTENTS, ALLOC, LOAD, RELOC, READONLY, CODE
  5 .text._Z8endSysexv 00000012  00000000  00000000  0000008b  2**0
                  CONTENTS, ALLOC, LOAD, RELOC, READONLY, CODE
  6 .text._ZN12FirmataClass12printVersionEv 00000038  00000000  00000000  0000009d  2**0
                  CONTENTS, ALLOC, LOAD, RELOC, READONLY, CODE
  7 .text._ZN12FirmataClass20printFirmwareVersionEv 0000006e  00000000  00000000  000000d5  2**0
                  CONTENTS, ALLOC, LOAD, RELOC, READONLY, CODE
  8 .text._ZN12FirmataClass25setFirmwareNameAndVersionEPKchh 000000ac  00000000  00000000  00000143  2**0
                  CONTENTS, ALLOC, LOAD, RELOC, READONLY, CODE
  9 .text._ZN12FirmataClass9availableEv 0000000a  00000000  00000000  000001ef  2**0
                  CONTENTS, ALLOC, LOAD, RELOC, READONLY, CODE
 10 .text._ZN12FirmataClass19processSysexMessageEv 0000009c  00000000  00000000  000001f9  2**0
                  CONTENTS, ALLOC, LOAD, RELOC, READONLY, CODE
 11 .text._ZN12FirmataClass10sendAnalogEhi 00000026  00000000  00000000  00000295  2**0
                  CONTENTS, ALLOC, LOAD, RELOC, READONLY, CODE
 12 .text._ZN12FirmataClass11sendDigitalEhi 00000002  00000000  00000000  000002bb  2**0
                  CONTENTS, ALLOC, LOAD, READONLY, CODE
 13 .text._ZN12FirmataClass15sendDigitalPortEhi 00000050  00000000  00000000  000002bd  2**0
                  CONTENTS, ALLOC, LOAD, RELOC, READONLY, CODE
 14 .text._ZN12FirmataClass9sendSysexEhhPh 00000062  00000000  00000000  0000030d  2**0
                  CONTENTS, ALLOC, LOAD, RELOC, READONLY, CODE
 15 .text._ZN12FirmataClass10sendStringEhPKc 00000018  00000000  00000000  0000036f  2**0
                  CONTENTS, ALLOC, LOAD, RELOC, READONLY, CODE
 16 .text._ZN12FirmataClass10sendStringEPKc 0000000a  00000000  00000000  00000387  2**0
                  CONTENTS, ALLOC, LOAD, RELOC, READONLY, CODE
 17 .text._ZN12FirmataClass6attachEhPFvhiE 0000003c  00000000  00000000  00000391  2**0
                  CONTENTS, ALLOC, LOAD, RELOC, READONLY, CODE
 18 .text._ZN12FirmataClass6attachEhPFvvE 0000000c  00000000  00000000  000003cd  2**0
                  CONTENTS, ALLOC, LOAD, RELOC, READONLY, CODE
 19 .text._ZN12FirmataClass6attachEhPFvPcE 0000000c  00000000  00000000  000003d9  2**0
                  CONTENTS, ALLOC, LOAD, RELOC, READONLY, CODE
 20 .text._ZN12FirmataClass6attachEhPFvhhPhE 00000008  00000000  00000000  000003e5  2**0
                  CONTENTS, ALLOC, LOAD, READONLY, CODE
 21 .text._ZN12FirmataClass6detachEh 00000030  00000000  00000000  000003ed  2**0
                  CONTENTS, ALLOC, LOAD, RELOC, READONLY, CODE
 22 .text._ZN12FirmataClass11systemResetEv 00000028  00000000  00000000  0000041d  2**0
                  CONTENTS, ALLOC, LOAD, RELOC, READONLY, CODE
 23 .text._ZN12FirmataClass12processInputEv 00000150  00000000  00000000  00000445  2**0
                  CONTENTS, ALLOC, LOAD, RELOC, READONLY, CODE
 24 .text._ZN12FirmataClassC2Ev 0000000a  00000000  00000000  00000595  2**0
                  CONTENTS, ALLOC, LOAD, RELOC, READONLY, CODE
 25 .text._ZN12FirmataClass11pin13strobeEiii 0000007c  00000000  00000000  0000059f  2**0
                  CONTENTS, ALLOC, LOAD, RELOC, READONLY, CODE
 26 .text._ZN12FirmataClass12blinkVersionEv 00000062  00000000  00000000  0000061b  2**0
                  CONTENTS, ALLOC, LOAD, RELOC, READONLY, CODE
 27 .text._ZN12FirmataClass5beginEl 00000032  00000000  00000000  0000067d  2**0
                  CONTENTS, ALLOC, LOAD, RELOC, READONLY, CODE
 28 .text._ZN12FirmataClass5beginEv 0000000e  00000000  00000000  000006af  2**0
                  CONTENTS, ALLOC, LOAD, RELOC, READONLY, CODE
 29 .text._GLOBAL__I__Z23sendValueAsTwo7bitBytesi 0000000e  00000000  00000000  000006bd  2**0
                  CONTENTS, ALLOC, LOAD, RELOC, READONLY, CODE
 30 .ctors        00000002  00000000  00000000  000006cb  2**0
                  CONTENTS, ALLOC, LOAD, RELOC, READONLY, DATA
 31 .bss.Firmata  00000039  00000000  00000000  000006cd  2**0
                  ALLOC

Disassembly of section .text._Z23sendValueAsTwo7bitBytesi:

00000000 <_Z23sendValueAsTwo7bitBytesi>:
   0:	0f 93       	push	r16
   2:	1f 93       	push	r17
   4:	cf 93       	push	r28
   6:	df 93       	push	r29
   8:	ec 01       	movw	r28, r24
   a:	00 e0       	ldi	r16, 0x00	; 0
   c:	10 e0       	ldi	r17, 0x00	; 0
   e:	bc 01       	movw	r22, r24
  10:	6f 77       	andi	r22, 0x7F	; 127
  12:	70 70       	andi	r23, 0x00	; 0
  14:	c8 01       	movw	r24, r16
  16:	40 e0       	ldi	r20, 0x00	; 0
  18:	50 e0       	ldi	r21, 0x00	; 0
  1a:	0e 94 00 00 	call	0	; 0x0 <_Z23sendValueAsTwo7bitBytesi>
  1e:	be 01       	movw	r22, r28
  20:	66 0f       	add	r22, r22
  22:	67 2f       	mov	r22, r23
  24:	66 1f       	adc	r22, r22
  26:	77 0b       	sbc	r23, r23
  28:	6f 77       	andi	r22, 0x7F	; 127
  2a:	70 70       	andi	r23, 0x00	; 0
  2c:	c8 01       	movw	r24, r16
  2e:	40 e0       	ldi	r20, 0x00	; 0
  30:	50 e0       	ldi	r21, 0x00	; 0
  32:	0e 94 00 00 	call	0	; 0x0 <_Z23sendValueAsTwo7bitBytesi>
  36:	df 91       	pop	r29
  38:	cf 91       	pop	r28
  3a:	1f 91       	pop	r17
  3c:	0f 91       	pop	r16
  3e:	08 95       	ret

Disassembly of section .text._Z10startSysexv:

00000000 <_Z10startSysexv>:
   0:	80 e0       	ldi	r24, 0x00	; 0
   2:	90 e0       	ldi	r25, 0x00	; 0
   4:	60 ef       	ldi	r22, 0xF0	; 240
   6:	70 e0       	ldi	r23, 0x00	; 0
   8:	40 e0       	ldi	r20, 0x00	; 0
   a:	50 e0       	ldi	r21, 0x00	; 0
   c:	0e 94 00 00 	call	0	; 0x0 <_Z10startSysexv>
  10:	08 95       	ret

Disassembly of section .text._Z8endSysexv:

00000000 <_Z8endSysexv>:
   0:	80 e0       	ldi	r24, 0x00	; 0
   2:	90 e0       	ldi	r25, 0x00	; 0
   4:	67 ef       	ldi	r22, 0xF7	; 247
   6:	70 e0       	ldi	r23, 0x00	; 0
   8:	40 e0       	ldi	r20, 0x00	; 0
   a:	50 e0       	ldi	r21, 0x00	; 0
   c:	0e 94 00 00 	call	0	; 0x0 <_Z8endSysexv>
  10:	08 95       	ret

Disassembly of section .text._ZN12FirmataClass12printVersionEv:

00000000 <_ZN12FirmataClass12printVersionEv>:
   0:	cf 93       	push	r28
   2:	df 93       	push	r29
   4:	c0 e0       	ldi	r28, 0x00	; 0
   6:	d0 e0       	ldi	r29, 0x00	; 0
   8:	ce 01       	movw	r24, r28
   a:	69 ef       	ldi	r22, 0xF9	; 249
   c:	70 e0       	ldi	r23, 0x00	; 0
   e:	40 e0       	ldi	r20, 0x00	; 0
  10:	50 e0       	ldi	r21, 0x00	; 0
  12:	0e 94 00 00 	call	0	; 0x0 <_ZN12FirmataClass12printVersionEv>
  16:	ce 01       	movw	r24, r28
  18:	62 e0       	ldi	r22, 0x02	; 2
  1a:	70 e0       	ldi	r23, 0x00	; 0
  1c:	40 e0       	ldi	r20, 0x00	; 0
  1e:	50 e0       	ldi	r21, 0x00	; 0
  20:	0e 94 00 00 	call	0	; 0x0 <_ZN12FirmataClass12printVersionEv>
  24:	ce 01       	movw	r24, r28
  26:	62 e0       	ldi	r22, 0x02	; 2
  28:	70 e0       	ldi	r23, 0x00	; 0
  2a:	40 e0       	ldi	r20, 0x00	; 0
  2c:	50 e0       	ldi	r21, 0x00	; 0
  2e:	0e 94 00 00 	call	0	; 0x0 <_ZN12FirmataClass12printVersionEv>
  32:	df 91       	pop	r29
  34:	cf 91       	pop	r28
  36:	08 95       	ret

Disassembly of section .text._ZN12FirmataClass20printFirmwareVersionEv:

00000000 <_ZN12FirmataClass20printFirmwareVersionEv>:
   0:	1f 93       	push	r17
   2:	cf 93       	push	r28
   4:	df 93       	push	r29
   6:	ec 01       	movw	r28, r24
   8:	88 81       	ld	r24, Y
   a:	88 23       	and	r24, r24
   c:	01 f0       	breq	.+0      	; 0xe <_ZN12FirmataClass20printFirmwareVersionEv+0xe>
   e:	0e 94 00 00 	call	0	; 0x0 <_ZN12FirmataClass20printFirmwareVersionEv>
  12:	80 e0       	ldi	r24, 0x00	; 0
  14:	90 e0       	ldi	r25, 0x00	; 0
  16:	69 e7       	ldi	r22, 0x79	; 121
  18:	70 e0       	ldi	r23, 0x00	; 0
  1a:	40 e0       	ldi	r20, 0x00	; 0
  1c:	50 e0       	ldi	r21, 0x00	; 0
  1e:	0e 94 00 00 	call	0	; 0x0 <_ZN12FirmataClass20printFirmwareVersionEv>
  22:	e9 81       	ldd	r30, Y+1	; 0x01
  24:	fa 81       	ldd	r31, Y+2	; 0x02
  26:	80 e0       	ldi	r24, 0x00	; 0
  28:	90 e0       	ldi	r25, 0x00	; 0
  2a:	60 81       	ld	r22, Z
  2c:	40 e0       	ldi	r20, 0x00	; 0
  2e:	50 e0       	ldi	r21, 0x00	; 0
  30:	0e 94 00 00 	call	0	; 0x0 <_ZN12FirmataClass20printFirmwareVersionEv>
  34:	e9 81       	ldd	r30, Y+1	; 0x01
  36:	fa 81       	ldd	r31, Y+2	; 0x02
  38:	80 e0       	ldi	r24, 0x00	; 0
  3a:	90 e0       	ldi	r25, 0x00	; 0
  3c:	61 81       	ldd	r22, Z+1	; 0x01
  3e:	40 e0       	ldi	r20, 0x00	; 0
  40:	50 e0       	ldi	r21, 0x00	; 0
  42:	0e 94 00 00 	call	0	; 0x0 <_ZN12FirmataClass20printFirmwareVersionEv>
  46:	12 e0       	ldi	r17, 0x02	; 2
  48:	00 c0       	rjmp	.+0      	; 0x4a <_ZN12FirmataClass20printFirmwareVersionEv+0x4a>
  4a:	e9 81       	ldd	r30, Y+1	; 0x01
  4c:	fa 81       	ldd	r31, Y+2	; 0x02
  4e:	e1 0f       	add	r30, r17
  50:	f1 1d       	adc	r31, r1
  52:	80 81       	ld	r24, Z
  54:	90 e0       	ldi	r25, 0x00	; 0
  56:	0e 94 00 00 	call	0	; 0x0 <_ZN12FirmataClass20printFirmwareVersionEv>
  5a:	1f 5f       	subi	r17, 0xFF	; 255
  5c:	88 81       	ld	r24, Y
  5e:	18 17       	cp	r17, r24
  60:	00 f0       	brcs	.+0      	; 0x62 <_ZN12FirmataClass20printFirmwareVersionEv+0x62>
  62:	0e 94 00 00 	call	0	; 0x0 <_ZN12FirmataClass20printFirmwareVersionEv>
  66:	df 91       	pop	r29
  68:	cf 91       	pop	r28
  6a:	1f 91       	pop	r17
  6c:	08 95       	ret

Disassembly of section .text._ZN12FirmataClass25setFirmwareNameAndVersionEPKchh:

00000000 <_ZN12FirmataClass25setFirmwareNameAndVersionEPKchh>:
   0:	af 92       	push	r10
   2:	bf 92       	push	r11
   4:	cf 92       	push	r12
   6:	df 92       	push	r13
   8:	ef 92       	push	r14
   a:	ff 92       	push	r15
   c:	0f 93       	push	r16
   e:	1f 93       	push	r17
  10:	cf 93       	push	r28
  12:	df 93       	push	r29
  14:	ec 01       	movw	r28, r24
  16:	6b 01       	movw	r12, r22
  18:	b4 2e       	mov	r11, r20
  1a:	a2 2e       	mov	r10, r18
  1c:	cb 01       	movw	r24, r22
  1e:	60 e0       	ldi	r22, 0x00	; 0
  20:	70 e0       	ldi	r23, 0x00	; 0
  22:	0e 94 00 00 	call	0	; 0x0 <_ZN12FirmataClass25setFirmwareNameAndVersionEPKchh>
  26:	8c 01       	movw	r16, r24
  28:	c6 01       	movw	r24, r12
  2a:	6f e2       	ldi	r22, 0x2F	; 47
  2c:	70 e0       	ldi	r23, 0x00	; 0
  2e:	0e 94 00 00 	call	0	; 0x0 <_ZN12FirmataClass25setFirmwareNameAndVersionEPKchh>
  32:	01 15       	cp	r16, r1
  34:	11 05       	cpc	r17, r1
  36:	01 f0       	breq	.+0      	; 0x38 <_ZN12FirmataClass25setFirmwareNameAndVersionEPKchh+0x38>
  38:	7c 01       	movw	r14, r24
  3a:	08 94       	sec
  3c:	e1 1c       	adc	r14, r1
  3e:	f1 1c       	adc	r15, r1
  40:	e1 14       	cp	r14, r1
  42:	f1 04       	cpc	r15, r1
  44:	01 f0       	breq	.+0      	; 0x46 <_ZN12FirmataClass25setFirmwareNameAndVersionEPKchh+0x46>
  46:	0e 5f       	subi	r16, 0xFE	; 254
  48:	0e 19       	sub	r16, r14
  4a:	08 83       	st	Y, r16
  4c:	00 c0       	rjmp	.+0      	; 0x4e <_ZN12FirmataClass25setFirmwareNameAndVersionEPKchh+0x4e>
  4e:	d6 01       	movw	r26, r12
  50:	0d 90       	ld	r0, X+
  52:	00 20       	and	r0, r0
  54:	01 f4       	brne	.+0      	; 0x56 <_ZN12FirmataClass25setFirmwareNameAndVersionEPKchh+0x56>
  56:	ac 19       	sub	r26, r12
  58:	af 5f       	subi	r26, 0xFF	; 255
  5a:	a8 83       	st	Y, r26
  5c:	ec 2c       	mov	r14, r12
  5e:	fd 2c       	mov	r15, r13
  60:	08 81       	ld	r16, Y
  62:	10 e0       	ldi	r17, 0x00	; 0
  64:	c8 01       	movw	r24, r16
  66:	0e 94 00 00 	call	0	; 0x0 <_ZN12FirmataClass25setFirmwareNameAndVersionEPKchh>
  6a:	9a 83       	std	Y+2, r25	; 0x02
  6c:	89 83       	std	Y+1, r24	; 0x01
  6e:	08 0f       	add	r16, r24
  70:	19 1f       	adc	r17, r25
  72:	f8 01       	movw	r30, r16
  74:	10 82       	st	Z, r1
  76:	e9 81       	ldd	r30, Y+1	; 0x01
  78:	fa 81       	ldd	r31, Y+2	; 0x02
  7a:	b0 82       	st	Z, r11
  7c:	e9 81       	ldd	r30, Y+1	; 0x01
  7e:	fa 81       	ldd	r31, Y+2	; 0x02
  80:	a1 82       	std	Z+1, r10	; 0x01
  82:	89 81       	ldd	r24, Y+1	; 0x01
  84:	9a 81       	ldd	r25, Y+2	; 0x02
  86:	48 81       	ld	r20, Y
  88:	50 e0       	ldi	r21, 0x00	; 0
  8a:	42 50       	subi	r20, 0x02	; 2
  8c:	50 40       	sbci	r21, 0x00	; 0
  8e:	02 96       	adiw	r24, 0x02	; 2
  90:	b7 01       	movw	r22, r14
  92:	0e 94 00 00 	call	0	; 0x0 <_ZN12FirmataClass25setFirmwareNameAndVersionEPKchh>
  96:	df 91       	pop	r29
  98:	cf 91       	pop	r28
  9a:	1f 91       	pop	r17
  9c:	0f 91       	pop	r16
  9e:	ff 90       	pop	r15
  a0:	ef 90       	pop	r14
  a2:	df 90       	pop	r13
  a4:	cf 90       	pop	r12
  a6:	bf 90       	pop	r11
  a8:	af 90       	pop	r10
  aa:	08 95       	ret

Disassembly of section .text._ZN12FirmataClass9availableEv:

00000000 <_ZN12FirmataClass9availableEv>:
   0:	80 e0       	ldi	r24, 0x00	; 0
   2:	90 e0       	ldi	r25, 0x00	; 0
   4:	0e 94 00 00 	call	0	; 0x0 <_ZN12FirmataClass9availableEv>
   8:	08 95       	ret

Disassembly of section .text._ZN12FirmataClass19processSysexMessageEv:

00000000 <_ZN12FirmataClass19processSysexMessageEv>:
   0:	0f 93       	push	r16
   2:	1f 93       	push	r17
   4:	cf 93       	push	r28
   6:	df 93       	push	r29
   8:	ec 01       	movw	r28, r24
   a:	8e 81       	ldd	r24, Y+6	; 0x06
   c:	81 37       	cpi	r24, 0x71	; 113
   e:	01 f0       	breq	.+0      	; 0x10 <_ZN12FirmataClass19processSysexMessageEv+0x10>
  10:	89 37       	cpi	r24, 0x79	; 121
  12:	01 f4       	brne	.+0      	; 0x14 <_ZN12FirmataClass19processSysexMessageEv+0x14>
  14:	ce 01       	movw	r24, r28
  16:	0e 94 00 00 	call	0	; 0x0 <_ZN12FirmataClass19processSysexMessageEv>
  1a:	00 c0       	rjmp	.+0      	; 0x1c <_ZN12FirmataClass19processSysexMessageEv+0x1c>
  1c:	8d a9       	ldd	r24, Y+53	; 0x35
  1e:	9e a9       	ldd	r25, Y+54	; 0x36
  20:	00 97       	sbiw	r24, 0x00	; 0
  22:	01 f0       	breq	.+0      	; 0x24 <_ZN12FirmataClass19processSysexMessageEv+0x24>
  24:	8f a1       	ldd	r24, Y+39	; 0x27
  26:	98 a5       	ldd	r25, Y+40	; 0x28
  28:	01 97       	sbiw	r24, 0x01	; 1
  2a:	62 e0       	ldi	r22, 0x02	; 2
  2c:	70 e0       	ldi	r23, 0x00	; 0
  2e:	0e 94 00 00 	call	0	; 0x0 <_ZN12FirmataClass19processSysexMessageEv>
  32:	06 2f       	mov	r16, r22
  34:	10 e0       	ldi	r17, 0x00	; 0
  36:	c8 01       	movw	r24, r16
  38:	0e 94 00 00 	call	0	; 0x0 <_ZN12FirmataClass19processSysexMessageEv>
  3c:	e8 2f       	mov	r30, r24
  3e:	f9 2f       	mov	r31, r25
  40:	0e 0f       	add	r16, r30
  42:	1f 1f       	adc	r17, r31
  44:	31 e0       	ldi	r19, 0x01	; 1
  46:	00 c0       	rjmp	.+0      	; 0x48 <_ZN12FirmataClass19processSysexMessageEv+0x48>
  48:	de 01       	movw	r26, r28
  4a:	a3 0f       	add	r26, r19
  4c:	b1 1d       	adc	r27, r1
  4e:	16 96       	adiw	r26, 0x06	; 6
  50:	4c 91       	ld	r20, X
  52:	40 83       	st	Z, r20
  54:	23 2f       	mov	r18, r19
  56:	2f 5f       	subi	r18, 0xFF	; 255
  58:	de 01       	movw	r26, r28
  5a:	a2 0f       	add	r26, r18
  5c:	b1 1d       	adc	r27, r1
  5e:	16 96       	adiw	r26, 0x06	; 6
  60:	2c 91       	ld	r18, X
  62:	16 97       	sbiw	r26, 0x06	; 6
  64:	27 95       	ror	r18
  66:	22 27       	eor	r18, r18
  68:	27 95       	ror	r18
  6a:	24 0f       	add	r18, r20
  6c:	21 93       	st	Z+, r18
  6e:	3e 5f       	subi	r19, 0xFE	; 254
  70:	e0 17       	cp	r30, r16
  72:	f1 07       	cpc	r31, r17
  74:	01 f4       	brne	.+0      	; 0x76 <_ZN12FirmataClass19processSysexMessageEv+0x76>
  76:	ed a9       	ldd	r30, Y+53	; 0x35
  78:	fe a9       	ldd	r31, Y+54	; 0x36
  7a:	19 95       	eicall
  7c:	00 c0       	rjmp	.+0      	; 0x7e <_ZN12FirmataClass19processSysexMessageEv+0x7e>
  7e:	ef a9       	ldd	r30, Y+55	; 0x37
  80:	f8 ad       	ldd	r31, Y+56	; 0x38
  82:	30 97       	sbiw	r30, 0x00	; 0
  84:	01 f0       	breq	.+0      	; 0x86 <_ZN12FirmataClass19processSysexMessageEv+0x86>
  86:	6f a1       	ldd	r22, Y+39	; 0x27
  88:	61 50       	subi	r22, 0x01	; 1
  8a:	ae 01       	movw	r20, r28
  8c:	49 5f       	subi	r20, 0xF9	; 249
  8e:	5f 4f       	sbci	r21, 0xFF	; 255
  90:	19 95       	eicall
  92:	df 91       	pop	r29
  94:	cf 91       	pop	r28
  96:	1f 91       	pop	r17
  98:	0f 91       	pop	r16
  9a:	08 95       	ret

Disassembly of section .text._ZN12FirmataClass10sendAnalogEhi:

00000000 <_ZN12FirmataClass10sendAnalogEhi>:
   0:	cf 93       	push	r28
   2:	df 93       	push	r29
   4:	ea 01       	movw	r28, r20
   6:	70 e0       	ldi	r23, 0x00	; 0
   8:	6f 70       	andi	r22, 0x0F	; 15
   a:	70 70       	andi	r23, 0x00	; 0
   c:	60 6e       	ori	r22, 0xE0	; 224
   e:	80 e0       	ldi	r24, 0x00	; 0
  10:	90 e0       	ldi	r25, 0x00	; 0
  12:	40 e0       	ldi	r20, 0x00	; 0
  14:	50 e0       	ldi	r21, 0x00	; 0
  16:	0e 94 00 00 	call	0	; 0x0 <_ZN12FirmataClass10sendAnalogEhi>
  1a:	ce 01       	movw	r24, r28
  1c:	0e 94 00 00 	call	0	; 0x0 <_ZN12FirmataClass10sendAnalogEhi>
  20:	df 91       	pop	r29
  22:	cf 91       	pop	r28
  24:	08 95       	ret

Disassembly of section .text._ZN12FirmataClass11sendDigitalEhi:

00000000 <_ZN12FirmataClass11sendDigitalEhi>:
   0:	08 95       	ret

Disassembly of section .text._ZN12FirmataClass15sendDigitalPortEhi:

00000000 <_ZN12FirmataClass15sendDigitalPortEhi>:
   0:	0f 93       	push	r16
   2:	1f 93       	push	r17
   4:	cf 93       	push	r28
   6:	df 93       	push	r29
   8:	8a 01       	movw	r16, r20
   a:	c0 e0       	ldi	r28, 0x00	; 0
   c:	d0 e0       	ldi	r29, 0x00	; 0
   e:	70 e0       	ldi	r23, 0x00	; 0
  10:	6f 70       	andi	r22, 0x0F	; 15
  12:	70 70       	andi	r23, 0x00	; 0
  14:	60 69       	ori	r22, 0x90	; 144
  16:	ce 01       	movw	r24, r28
  18:	40 e0       	ldi	r20, 0x00	; 0
  1a:	50 e0       	ldi	r21, 0x00	; 0
  1c:	0e 94 00 00 	call	0	; 0x0 <_ZN12FirmataClass15sendDigitalPortEhi>
  20:	60 2f       	mov	r22, r16
  22:	70 e0       	ldi	r23, 0x00	; 0
  24:	6f 77       	andi	r22, 0x7F	; 127
  26:	70 70       	andi	r23, 0x00	; 0
  28:	ce 01       	movw	r24, r28
  2a:	40 e0       	ldi	r20, 0x00	; 0
  2c:	50 e0       	ldi	r21, 0x00	; 0
  2e:	0e 94 00 00 	call	0	; 0x0 <_ZN12FirmataClass15sendDigitalPortEhi>
  32:	b8 01       	movw	r22, r16
  34:	66 0f       	add	r22, r22
  36:	67 2f       	mov	r22, r23
  38:	66 1f       	adc	r22, r22
  3a:	77 0b       	sbc	r23, r23
  3c:	ce 01       	movw	r24, r28
  3e:	40 e0       	ldi	r20, 0x00	; 0
  40:	50 e0       	ldi	r21, 0x00	; 0
  42:	0e 94 00 00 	call	0	; 0x0 <_ZN12FirmataClass15sendDigitalPortEhi>
  46:	df 91       	pop	r29
  48:	cf 91       	pop	r28
  4a:	1f 91       	pop	r17
  4c:	0f 91       	pop	r16
  4e:	08 95       	ret

Disassembly of section .text._ZN12FirmataClass9sendSysexEhhPh:

00000000 <_ZN12FirmataClass9sendSysexEhhPh>:
   0:	ef 92       	push	r14
   2:	ff 92       	push	r15
   4:	0f 93       	push	r16
   6:	1f 93       	push	r17
   8:	df 93       	push	r29
   a:	cf 93       	push	r28
   c:	0f 92       	push	r0
   e:	0f 92       	push	r0
  10:	cd b7       	in	r28, 0x3d	; 61
  12:	de b7       	in	r29, 0x3e	; 62
  14:	14 2f       	mov	r17, r20
  16:	02 2f       	mov	r16, r18
  18:	3a 83       	std	Y+2, r19	; 0x02
  1a:	69 83       	std	Y+1, r22	; 0x01
  1c:	0e 94 00 00 	call	0	; 0x0 <_ZN12FirmataClass9sendSysexEhhPh>
  20:	80 e0       	ldi	r24, 0x00	; 0
  22:	90 e0       	ldi	r25, 0x00	; 0
  24:	69 81       	ldd	r22, Y+1	; 0x01
  26:	40 e0       	ldi	r20, 0x00	; 0
  28:	50 e0       	ldi	r21, 0x00	; 0
  2a:	0e 94 00 00 	call	0	; 0x0 <_ZN12FirmataClass9sendSysexEhhPh>
  2e:	3a 81       	ldd	r19, Y+2	; 0x02
  30:	40 2f       	mov	r20, r16
  32:	53 2f       	mov	r21, r19
  34:	7a 01       	movw	r14, r20
  36:	00 c0       	rjmp	.+0      	; 0x38 <_ZN12FirmataClass9sendSysexEhhPh+0x38>
  38:	f7 01       	movw	r30, r14
  3a:	81 91       	ld	r24, Z+
  3c:	7f 01       	movw	r14, r30
  3e:	90 e0       	ldi	r25, 0x00	; 0
  40:	0e 94 00 00 	call	0	; 0x0 <_ZN12FirmataClass9sendSysexEhhPh>
  44:	8e 2d       	mov	r24, r14
  46:	80 1b       	sub	r24, r16
  48:	81 17       	cp	r24, r17
  4a:	00 f0       	brcs	.+0      	; 0x4c <_ZN12FirmataClass9sendSysexEhhPh+0x4c>
  4c:	0e 94 00 00 	call	0	; 0x0 <_ZN12FirmataClass9sendSysexEhhPh>
  50:	0f 90       	pop	r0
  52:	0f 90       	pop	r0
  54:	cf 91       	pop	r28
  56:	df 91       	pop	r29
  58:	1f 91       	pop	r17
  5a:	0f 91       	pop	r16
  5c:	ff 90       	pop	r15
  5e:	ef 90       	pop	r14
  60:	08 95       	ret

Disassembly of section .text._ZN12FirmataClass10sendStringEhPKc:

00000000 <_ZN12FirmataClass10sendStringEhPKc>:
   0:	9a 01       	movw	r18, r20
   2:	fa 01       	movw	r30, r20
   4:	01 90       	ld	r0, Z+
   6:	00 20       	and	r0, r0
   8:	01 f4       	brne	.+0      	; 0xa <_ZN12FirmataClass10sendStringEhPKc+0xa>
   a:	31 97       	sbiw	r30, 0x01	; 1
   c:	e4 1b       	sub	r30, r20
   e:	f5 0b       	sbc	r31, r21
  10:	4e 2f       	mov	r20, r30
  12:	0e 94 00 00 	call	0	; 0x0 <_ZN12FirmataClass10sendStringEhPKc>
  16:	08 95       	ret

Disassembly of section .text._ZN12FirmataClass10sendStringEPKc:

00000000 <_ZN12FirmataClass10sendStringEPKc>:
   0:	ab 01       	movw	r20, r22
   2:	61 e7       	ldi	r22, 0x71	; 113
   4:	0e 94 00 00 	call	0	; 0x0 <_ZN12FirmataClass10sendStringEPKc>
   8:	08 95       	ret

Disassembly of section .text._ZN12FirmataClass6attachEhPFvhiE:

00000000 <_ZN12FirmataClass6attachEhPFvhiE>:
   0:	fc 01       	movw	r30, r24
   2:	60 3d       	cpi	r22, 0xD0	; 208
   4:	01 f0       	breq	.+0      	; 0x6 <_ZN12FirmataClass6attachEhPFvhiE+0x6>
   6:	61 3d       	cpi	r22, 0xD1	; 209
   8:	00 f4       	brcc	.+0      	; 0xa <_ZN12FirmataClass6attachEhPFvhiE+0xa>
   a:	60 39       	cpi	r22, 0x90	; 144
   c:	01 f0       	breq	.+0      	; 0xe <_ZN12FirmataClass6attachEhPFvhiE+0xe>
   e:	60 3c       	cpi	r22, 0xC0	; 192
  10:	01 f4       	brne	.+0      	; 0x12 <_ZN12FirmataClass6attachEhPFvhiE+0x12>
  12:	00 c0       	rjmp	.+0      	; 0x14 <_ZN12FirmataClass6attachEhPFvhiE+0x14>
  14:	60 3e       	cpi	r22, 0xE0	; 224
  16:	01 f0       	breq	.+0      	; 0x18 <_ZN12FirmataClass6attachEhPFvhiE+0x18>
  18:	64 3f       	cpi	r22, 0xF4	; 244
  1a:	01 f4       	brne	.+0      	; 0x1c <_ZN12FirmataClass6attachEhPFvhiE+0x1c>
  1c:	00 c0       	rjmp	.+0      	; 0x1e <_ZN12FirmataClass6attachEhPFvhiE+0x1e>
  1e:	52 a7       	std	Z+42, r21	; 0x2a
  20:	41 a7       	std	Z+41, r20	; 0x29
  22:	08 95       	ret
  24:	54 a7       	std	Z+44, r21	; 0x2c
  26:	43 a7       	std	Z+43, r20	; 0x2b
  28:	08 95       	ret
  2a:	56 a7       	std	Z+46, r21	; 0x2e
  2c:	45 a7       	std	Z+45, r20	; 0x2d
  2e:	08 95       	ret
  30:	50 ab       	std	Z+48, r21	; 0x30
  32:	47 a7       	std	Z+47, r20	; 0x2f
  34:	08 95       	ret
  36:	52 ab       	std	Z+50, r21	; 0x32
  38:	41 ab       	std	Z+49, r20	; 0x31
  3a:	08 95       	ret

Disassembly of section .text._ZN12FirmataClass6attachEhPFvvE:

00000000 <_ZN12FirmataClass6attachEhPFvvE>:
   0:	6f 3f       	cpi	r22, 0xFF	; 255
   2:	01 f4       	brne	.+0      	; 0x4 <_ZN12FirmataClass6attachEhPFvvE+0x4>
   4:	fc 01       	movw	r30, r24
   6:	54 ab       	std	Z+52, r21	; 0x34
   8:	43 ab       	std	Z+51, r20	; 0x33
   a:	08 95       	ret

Disassembly of section .text._ZN12FirmataClass6attachEhPFvPcE:

00000000 <_ZN12FirmataClass6attachEhPFvPcE>:
   0:	61 37       	cpi	r22, 0x71	; 113
   2:	01 f4       	brne	.+0      	; 0x4 <_ZN12FirmataClass6attachEhPFvPcE+0x4>
   4:	fc 01       	movw	r30, r24
   6:	56 ab       	std	Z+54, r21	; 0x36
   8:	45 ab       	std	Z+53, r20	; 0x35
   a:	08 95       	ret

Disassembly of section .text._ZN12FirmataClass6attachEhPFvhhPhE:

00000000 <_ZN12FirmataClass6attachEhPFvhhPhE>:
   0:	fc 01       	movw	r30, r24
   2:	50 af       	std	Z+56, r21	; 0x38
   4:	47 ab       	std	Z+55, r20	; 0x37
   6:	08 95       	ret

Disassembly of section .text._ZN12FirmataClass6detachEh:

00000000 <_ZN12FirmataClass6detachEh>:
   0:	60 3f       	cpi	r22, 0xF0	; 240
   2:	01 f0       	breq	.+0      	; 0x4 <_ZN12FirmataClass6detachEh+0x4>
   4:	6f 3f       	cpi	r22, 0xFF	; 255
   6:	01 f0       	breq	.+0      	; 0x8 <_ZN12FirmataClass6detachEh+0x8>
   8:	61 37       	cpi	r22, 0x71	; 113
   a:	01 f4       	brne	.+0      	; 0xc <_ZN12FirmataClass6detachEh+0xc>
   c:	00 c0       	rjmp	.+0      	; 0xe <_ZN12FirmataClass6detachEh+0xe>
   e:	fc 01       	movw	r30, r24
  10:	14 aa       	std	Z+52, r1	; 0x34
  12:	13 aa       	std	Z+51, r1	; 0x33
  14:	08 95       	ret
  16:	fc 01       	movw	r30, r24
  18:	16 aa       	std	Z+54, r1	; 0x36
  1a:	15 aa       	std	Z+53, r1	; 0x35
  1c:	08 95       	ret
  1e:	fc 01       	movw	r30, r24
  20:	10 ae       	std	Z+56, r1	; 0x38
  22:	17 aa       	std	Z+55, r1	; 0x37
  24:	08 95       	ret
  26:	40 e0       	ldi	r20, 0x00	; 0
  28:	50 e0       	ldi	r21, 0x00	; 0
  2a:	0e 94 00 00 	call	0	; 0x0 <_ZN12FirmataClass6detachEh>
  2e:	08 95       	ret

Disassembly of section .text._ZN12FirmataClass11systemResetEv:

00000000 <_ZN12FirmataClass11systemResetEv>:
   0:	fc 01       	movw	r30, r24
   2:	13 82       	std	Z+3, r1	; 0x03
   4:	14 82       	std	Z+4, r1	; 0x04
   6:	15 82       	std	Z+5, r1	; 0x05
   8:	dc 01       	movw	r26, r24
   a:	16 96       	adiw	r26, 0x06	; 6
   c:	80 e2       	ldi	r24, 0x20	; 32
   e:	1d 92       	st	X+, r1
  10:	81 50       	subi	r24, 0x01	; 1
  12:	01 f4       	brne	.+0      	; 0x14 <_ZN12FirmataClass11systemResetEv+0x14>
  14:	16 a2       	std	Z+38, r1	; 0x26
  16:	10 a6       	std	Z+40, r1	; 0x28
  18:	17 a2       	std	Z+39, r1	; 0x27
  1a:	03 a8       	ldd	r0, Z+51	; 0x33
  1c:	f4 a9       	ldd	r31, Z+52	; 0x34
  1e:	e0 2d       	mov	r30, r0
  20:	30 97       	sbiw	r30, 0x00	; 0
  22:	01 f0       	breq	.+0      	; 0x24 <_ZN12FirmataClass11systemResetEv+0x24>
  24:	19 95       	eicall
  26:	08 95       	ret

Disassembly of section .text._ZN12FirmataClass12processInputEv:

00000000 <_ZN12FirmataClass12processInputEv>:
   0:	cf 93       	push	r28
   2:	df 93       	push	r29
   4:	ec 01       	movw	r28, r24
   6:	80 e0       	ldi	r24, 0x00	; 0
   8:	90 e0       	ldi	r25, 0x00	; 0
   a:	0e 94 00 00 	call	0	; 0x0 <_ZN12FirmataClass12processInputEv>
   e:	2e a1       	ldd	r18, Y+38	; 0x26
  10:	22 23       	and	r18, r18
  12:	01 f0       	breq	.+0      	; 0x14 <_ZN12FirmataClass12processInputEv+0x14>
  14:	87 3f       	cpi	r24, 0xF7	; 247
  16:	91 05       	cpc	r25, r1
  18:	01 f4       	brne	.+0      	; 0x1a <_ZN12FirmataClass12processInputEv+0x1a>
  1a:	1e a2       	std	Y+38, r1	; 0x26
  1c:	ce 01       	movw	r24, r28
  1e:	0e 94 00 00 	call	0	; 0x0 <_ZN12FirmataClass12processInputEv>
  22:	00 c0       	rjmp	.+0      	; 0x24 <_ZN12FirmataClass12processInputEv+0x24>
  24:	2f a1       	ldd	r18, Y+39	; 0x27
  26:	38 a5       	ldd	r19, Y+40	; 0x28
  28:	fe 01       	movw	r30, r28
  2a:	e2 0f       	add	r30, r18
  2c:	f3 1f       	adc	r31, r19
  2e:	86 83       	std	Z+6, r24	; 0x06
  30:	2f 5f       	subi	r18, 0xFF	; 255
  32:	3f 4f       	sbci	r19, 0xFF	; 255
  34:	38 a7       	std	Y+40, r19	; 0x28
  36:	2f a3       	std	Y+39, r18	; 0x27
  38:	00 c0       	rjmp	.+0      	; 0x3a <_ZN12FirmataClass12processInputEv+0x3a>
  3a:	2b 81       	ldd	r18, Y+3	; 0x03
  3c:	22 23       	and	r18, r18
  3e:	01 f4       	brne	.+0      	; 0x40 <_ZN12FirmataClass12processInputEv+0x40>
  40:	00 c0       	rjmp	.+0      	; 0x42 <_ZN12FirmataClass12processInputEv+0x42>
  42:	80 38       	cpi	r24, 0x80	; 128
  44:	91 05       	cpc	r25, r1
  46:	04 f0       	brlt	.+0      	; 0x48 <_ZN12FirmataClass12processInputEv+0x48>
  48:	00 c0       	rjmp	.+0      	; 0x4a <_ZN12FirmataClass12processInputEv+0x4a>
  4a:	21 50       	subi	r18, 0x01	; 1
  4c:	2b 83       	std	Y+3, r18	; 0x03
  4e:	fe 01       	movw	r30, r28
  50:	e2 0f       	add	r30, r18
  52:	f1 1d       	adc	r31, r1
  54:	86 83       	std	Z+6, r24	; 0x06
  56:	22 23       	and	r18, r18
  58:	01 f0       	breq	.+0      	; 0x5a <_ZN12FirmataClass12processInputEv+0x5a>
  5a:	00 c0       	rjmp	.+0      	; 0x5c <_ZN12FirmataClass12processInputEv+0x5c>
  5c:	8c 81       	ldd	r24, Y+4	; 0x04
  5e:	88 23       	and	r24, r24
  60:	01 f4       	brne	.+0      	; 0x62 <_ZN12FirmataClass12processInputEv+0x62>
  62:	00 c0       	rjmp	.+0      	; 0x64 <_ZN12FirmataClass12processInputEv+0x64>
  64:	80 3d       	cpi	r24, 0xD0	; 208
  66:	01 f0       	breq	.+0      	; 0x68 <_ZN12FirmataClass12processInputEv+0x68>
  68:	81 3d       	cpi	r24, 0xD1	; 209
  6a:	00 f4       	brcc	.+0      	; 0x6c <_ZN12FirmataClass12processInputEv+0x6c>
  6c:	80 39       	cpi	r24, 0x90	; 144
  6e:	01 f0       	breq	.+0      	; 0x70 <_ZN12FirmataClass12processInputEv+0x70>
  70:	80 3c       	cpi	r24, 0xC0	; 192
  72:	01 f4       	brne	.+0      	; 0x74 <_ZN12FirmataClass12processInputEv+0x74>
  74:	00 c0       	rjmp	.+0      	; 0x76 <_ZN12FirmataClass12processInputEv+0x76>
  76:	80 3e       	cpi	r24, 0xE0	; 224
  78:	01 f0       	breq	.+0      	; 0x7a <_ZN12FirmataClass12processInputEv+0x7a>
  7a:	84 3f       	cpi	r24, 0xF4	; 244
  7c:	01 f4       	brne	.+0      	; 0x7e <_ZN12FirmataClass12processInputEv+0x7e>
  7e:	00 c0       	rjmp	.+0      	; 0x80 <_ZN12FirmataClass12processInputEv+0x80>
  80:	e9 a5       	ldd	r30, Y+41	; 0x29
  82:	fa a5       	ldd	r31, Y+42	; 0x2a
  84:	00 c0       	rjmp	.+0      	; 0x86 <_ZN12FirmataClass12processInputEv+0x86>
  86:	eb a5       	ldd	r30, Y+43	; 0x2b
  88:	fc a5       	ldd	r31, Y+44	; 0x2c
  8a:	30 97       	sbiw	r30, 0x00	; 0
  8c:	01 f0       	breq	.+0      	; 0x8e <_ZN12FirmataClass12processInputEv+0x8e>
  8e:	6e 81       	ldd	r22, Y+6	; 0x06
  90:	70 e0       	ldi	r23, 0x00	; 0
  92:	76 95       	lsr	r23
  94:	76 2f       	mov	r23, r22
  96:	66 27       	eor	r22, r22
  98:	77 95       	ror	r23
  9a:	67 95       	ror	r22
  9c:	8f 81       	ldd	r24, Y+7	; 0x07
  9e:	68 0f       	add	r22, r24
  a0:	71 1d       	adc	r23, r1
  a2:	8d 81       	ldd	r24, Y+5	; 0x05
  a4:	00 c0       	rjmp	.+0      	; 0xa6 <_ZN12FirmataClass12processInputEv+0xa6>
  a6:	e9 a9       	ldd	r30, Y+49	; 0x31
  a8:	fa a9       	ldd	r31, Y+50	; 0x32
  aa:	30 97       	sbiw	r30, 0x00	; 0
  ac:	01 f0       	breq	.+0      	; 0xae <_ZN12FirmataClass12processInputEv+0xae>
  ae:	6e 81       	ldd	r22, Y+6	; 0x06
  b0:	8f 81       	ldd	r24, Y+7	; 0x07
  b2:	00 c0       	rjmp	.+0      	; 0xb4 <_ZN12FirmataClass12processInputEv+0xb4>
  b4:	ed a5       	ldd	r30, Y+45	; 0x2d
  b6:	fe a5       	ldd	r31, Y+46	; 0x2e
  b8:	00 c0       	rjmp	.+0      	; 0xba <_ZN12FirmataClass12processInputEv+0xba>
  ba:	ef a5       	ldd	r30, Y+47	; 0x2f
  bc:	f8 a9       	ldd	r31, Y+48	; 0x30
  be:	30 97       	sbiw	r30, 0x00	; 0
  c0:	01 f0       	breq	.+0      	; 0xc2 <_ZN12FirmataClass12processInputEv+0xc2>
  c2:	6e 81       	ldd	r22, Y+6	; 0x06
  c4:	8d 81       	ldd	r24, Y+5	; 0x05
  c6:	70 e0       	ldi	r23, 0x00	; 0
  c8:	19 95       	eicall
  ca:	1c 82       	std	Y+4, r1	; 0x04
  cc:	00 c0       	rjmp	.+0      	; 0xce <_ZN12FirmataClass12processInputEv+0xce>
  ce:	80 3f       	cpi	r24, 0xF0	; 240
  d0:	91 05       	cpc	r25, r1
  d2:	04 f4       	brge	.+0      	; 0xd4 <_ZN12FirmataClass12processInputEv+0xd4>
  d4:	9c 01       	movw	r18, r24
  d6:	20 7f       	andi	r18, 0xF0	; 240
  d8:	30 70       	andi	r19, 0x00	; 0
  da:	8f 70       	andi	r24, 0x0F	; 15
  dc:	8d 83       	std	Y+5, r24	; 0x05
  de:	00 c0       	rjmp	.+0      	; 0xe0 <_ZN12FirmataClass12processInputEv+0xe0>
  e0:	9c 01       	movw	r18, r24
  e2:	20 3e       	cpi	r18, 0xE0	; 224
  e4:	31 05       	cpc	r19, r1
  e6:	01 f0       	breq	.+0      	; 0xe8 <_ZN12FirmataClass12processInputEv+0xe8>
  e8:	21 3e       	cpi	r18, 0xE1	; 225
  ea:	31 05       	cpc	r19, r1
  ec:	04 f4       	brge	.+0      	; 0xee <_ZN12FirmataClass12processInputEv+0xee>
  ee:	20 3c       	cpi	r18, 0xC0	; 192
  f0:	31 05       	cpc	r19, r1
  f2:	01 f0       	breq	.+0      	; 0xf4 <_ZN12FirmataClass12processInputEv+0xf4>
  f4:	20 3d       	cpi	r18, 0xD0	; 208
  f6:	31 05       	cpc	r19, r1
  f8:	01 f0       	breq	.+0      	; 0xfa <_ZN12FirmataClass12processInputEv+0xfa>
  fa:	20 39       	cpi	r18, 0x90	; 144
  fc:	31 05       	cpc	r19, r1
  fe:	01 f4       	brne	.+0      	; 0x100 <_ZN12FirmataClass12processInputEv+0x100>
 100:	00 c0       	rjmp	.+0      	; 0x102 <_ZN12FirmataClass12processInputEv+0x102>
 102:	24 3f       	cpi	r18, 0xF4	; 244
 104:	31 05       	cpc	r19, r1
 106:	01 f0       	breq	.+0      	; 0x108 <_ZN12FirmataClass12processInputEv+0x108>
 108:	25 3f       	cpi	r18, 0xF5	; 245
 10a:	31 05       	cpc	r19, r1
 10c:	04 f4       	brge	.+0      	; 0x10e <_ZN12FirmataClass12processInputEv+0x10e>
 10e:	20 3f       	cpi	r18, 0xF0	; 240
 110:	31 05       	cpc	r19, r1
 112:	01 f4       	brne	.+0      	; 0x114 <_ZN12FirmataClass12processInputEv+0x114>
 114:	00 c0       	rjmp	.+0      	; 0x116 <_ZN12FirmataClass12processInputEv+0x116>
 116:	29 3f       	cpi	r18, 0xF9	; 249
 118:	31 05       	cpc	r19, r1
 11a:	01 f0       	breq	.+0      	; 0x11c <_ZN12FirmataClass12processInputEv+0x11c>
 11c:	2f 3f       	cpi	r18, 0xFF	; 255
 11e:	31 05       	cpc	r19, r1
 120:	01 f4       	brne	.+0      	; 0x122 <_ZN12FirmataClass12processInputEv+0x122>
 122:	00 c0       	rjmp	.+0      	; 0x124 <_ZN12FirmataClass12processInputEv+0x124>
 124:	82 e0       	ldi	r24, 0x02	; 2
 126:	00 c0       	rjmp	.+0      	; 0x128 <_ZN12FirmataClass12processInputEv+0x128>
 128:	81 e0       	ldi	r24, 0x01	; 1
 12a:	8b 83       	std	Y+3, r24	; 0x03
 12c:	2c 83       	std	Y+4, r18	; 0x04
 12e:	00 c0       	rjmp	.+0      	; 0x130 <_ZN12FirmataClass12processInputEv+0x130>
 130:	81 e0       	ldi	r24, 0x01	; 1
 132:	8e a3       	std	Y+38, r24	; 0x26
 134:	18 a6       	std	Y+40, r1	; 0x28
 136:	1f a2       	std	Y+39, r1	; 0x27
 138:	00 c0       	rjmp	.+0      	; 0x13a <_ZN12FirmataClass12processInputEv+0x13a>
 13a:	ce 01       	movw	r24, r28
 13c:	0e 94 00 00 	call	0	; 0x0 <_ZN12FirmataClass12processInputEv>
 140:	00 c0       	rjmp	.+0      	; 0x142 <_ZN12FirmataClass12processInputEv+0x142>
 142:	80 e0       	ldi	r24, 0x00	; 0
 144:	90 e0       	ldi	r25, 0x00	; 0
 146:	0e 94 00 00 	call	0	; 0x0 <_ZN12FirmataClass12processInputEv>
 14a:	df 91       	pop	r29
 14c:	cf 91       	pop	r28
 14e:	08 95       	ret

Disassembly of section .text._ZN12FirmataClassC2Ev:

00000000 <_ZN12FirmataClassC1Ev>:
   0:	fc 01       	movw	r30, r24
   2:	10 82       	st	Z, r1
   4:	0e 94 00 00 	call	0	; 0x0 <_ZN12FirmataClassC1Ev>
   8:	08 95       	ret

Disassembly of section .text._ZN12FirmataClass11pin13strobeEiii:

00000000 <_ZN12FirmataClass11pin13strobeEiii>:
   0:	9f 92       	push	r9
   2:	af 92       	push	r10
   4:	bf 92       	push	r11
   6:	cf 92       	push	r12
   8:	df 92       	push	r13
   a:	ef 92       	push	r14
   c:	ff 92       	push	r15
   e:	0f 93       	push	r16
  10:	1f 93       	push	r17
  12:	cf 93       	push	r28
  14:	df 93       	push	r29
  16:	eb 01       	movw	r28, r22
  18:	7a 01       	movw	r14, r20
  1a:	59 01       	movw	r10, r18
  1c:	8d e0       	ldi	r24, 0x0D	; 13
  1e:	61 e0       	ldi	r22, 0x01	; 1
  20:	0e 94 00 00 	call	0	; 0x0 <_ZN12FirmataClass11pin13strobeEiii>
  24:	99 24       	eor	r9, r9
  26:	cc 24       	eor	r12, r12
  28:	b7 fc       	sbrc	r11, 7
  2a:	c0 94       	com	r12
  2c:	dc 2c       	mov	r13, r12
  2e:	00 27       	eor	r16, r16
  30:	f7 fc       	sbrc	r15, 7
  32:	00 95       	com	r16
  34:	10 2f       	mov	r17, r16
  36:	00 c0       	rjmp	.+0      	; 0x38 <_ZN12FirmataClass11pin13strobeEiii+0x38>
  38:	c6 01       	movw	r24, r12
  3a:	b5 01       	movw	r22, r10
  3c:	0e 94 00 00 	call	0	; 0x0 <_ZN12FirmataClass11pin13strobeEiii>
  40:	8d e0       	ldi	r24, 0x0D	; 13
  42:	61 e0       	ldi	r22, 0x01	; 1
  44:	0e 94 00 00 	call	0	; 0x0 <_ZN12FirmataClass11pin13strobeEiii>
  48:	c8 01       	movw	r24, r16
  4a:	b7 01       	movw	r22, r14
  4c:	0e 94 00 00 	call	0	; 0x0 <_ZN12FirmataClass11pin13strobeEiii>
  50:	8d e0       	ldi	r24, 0x0D	; 13
  52:	60 e0       	ldi	r22, 0x00	; 0
  54:	0e 94 00 00 	call	0	; 0x0 <_ZN12FirmataClass11pin13strobeEiii>
  58:	93 94       	inc	r9
  5a:	89 2d       	mov	r24, r9
  5c:	90 e0       	ldi	r25, 0x00	; 0
  5e:	8c 17       	cp	r24, r28
  60:	9d 07       	cpc	r25, r29
  62:	04 f0       	brlt	.+0      	; 0x64 <_ZN12FirmataClass11pin13strobeEiii+0x64>
  64:	df 91       	pop	r29
  66:	cf 91       	pop	r28
  68:	1f 91       	pop	r17
  6a:	0f 91       	pop	r16
  6c:	ff 90       	pop	r15
  6e:	ef 90       	pop	r14
  70:	df 90       	pop	r13
  72:	cf 90       	pop	r12
  74:	bf 90       	pop	r11
  76:	af 90       	pop	r10
  78:	9f 90       	pop	r9
  7a:	08 95       	ret

Disassembly of section .text._ZN12FirmataClass12blinkVersionEv:

00000000 <_ZN12FirmataClass12blinkVersionEv>:
   0:	cf 93       	push	r28
   2:	df 93       	push	r29
   4:	ec 01       	movw	r28, r24
   6:	8d e0       	ldi	r24, 0x0D	; 13
   8:	61 e0       	ldi	r22, 0x01	; 1
   a:	0e 94 00 00 	call	0	; 0x0 <_ZN12FirmataClass12blinkVersionEv>
   e:	ce 01       	movw	r24, r28
  10:	62 e0       	ldi	r22, 0x02	; 2
  12:	70 e0       	ldi	r23, 0x00	; 0
  14:	48 ec       	ldi	r20, 0xC8	; 200
  16:	50 e0       	ldi	r21, 0x00	; 0
  18:	20 e9       	ldi	r18, 0x90	; 144
  1a:	31 e0       	ldi	r19, 0x01	; 1
  1c:	0e 94 00 00 	call	0	; 0x0 <_ZN12FirmataClass12blinkVersionEv>
  20:	6c e2       	ldi	r22, 0x2C	; 44
  22:	71 e0       	ldi	r23, 0x01	; 1
  24:	80 e0       	ldi	r24, 0x00	; 0
  26:	90 e0       	ldi	r25, 0x00	; 0
  28:	0e 94 00 00 	call	0	; 0x0 <_ZN12FirmataClass12blinkVersionEv>
  2c:	ce 01       	movw	r24, r28
  2e:	62 e0       	ldi	r22, 0x02	; 2
  30:	70 e0       	ldi	r23, 0x00	; 0
  32:	41 e0       	ldi	r20, 0x01	; 1
  34:	50 e0       	ldi	r21, 0x00	; 0
  36:	24 e0       	ldi	r18, 0x04	; 4
  38:	30 e0       	ldi	r19, 0x00	; 0
  3a:	0e 94 00 00 	call	0	; 0x0 <_ZN12FirmataClass12blinkVersionEv>
  3e:	6c e2       	ldi	r22, 0x2C	; 44
  40:	71 e0       	ldi	r23, 0x01	; 1
  42:	80 e0       	ldi	r24, 0x00	; 0
  44:	90 e0       	ldi	r25, 0x00	; 0
  46:	0e 94 00 00 	call	0	; 0x0 <_ZN12FirmataClass12blinkVersionEv>
  4a:	ce 01       	movw	r24, r28
  4c:	62 e0       	ldi	r22, 0x02	; 2
  4e:	70 e0       	ldi	r23, 0x00	; 0
  50:	48 ec       	ldi	r20, 0xC8	; 200
  52:	50 e0       	ldi	r21, 0x00	; 0
  54:	20 e9       	ldi	r18, 0x90	; 144
  56:	31 e0       	ldi	r19, 0x01	; 1
  58:	0e 94 00 00 	call	0	; 0x0 <_ZN12FirmataClass12blinkVersionEv>
  5c:	df 91       	pop	r29
  5e:	cf 91       	pop	r28
  60:	08 95       	ret

Disassembly of section .text._ZN12FirmataClass5beginEl:

00000000 <_ZN12FirmataClass5beginEl>:
   0:	cf 93       	push	r28
   2:	df 93       	push	r29
   4:	ec 01       	movw	r28, r24
   6:	80 e0       	ldi	r24, 0x00	; 0
   8:	90 e0       	ldi	r25, 0x00	; 0
   a:	0e 94 00 00 	call	0	; 0x0 <_ZN12FirmataClass5beginEl>
   e:	ce 01       	movw	r24, r28
  10:	0e 94 00 00 	call	0	; 0x0 <_ZN12FirmataClass5beginEl>
  14:	6c e2       	ldi	r22, 0x2C	; 44
  16:	71 e0       	ldi	r23, 0x01	; 1
  18:	80 e0       	ldi	r24, 0x00	; 0
  1a:	90 e0       	ldi	r25, 0x00	; 0
  1c:	0e 94 00 00 	call	0	; 0x0 <_ZN12FirmataClass5beginEl>
  20:	ce 01       	movw	r24, r28
  22:	0e 94 00 00 	call	0	; 0x0 <_ZN12FirmataClass5beginEl>
  26:	ce 01       	movw	r24, r28
  28:	0e 94 00 00 	call	0	; 0x0 <_ZN12FirmataClass5beginEl>
  2c:	df 91       	pop	r29
  2e:	cf 91       	pop	r28
  30:	08 95       	ret

Disassembly of section .text._ZN12FirmataClass5beginEv:

00000000 <_ZN12FirmataClass5beginEv>:
   0:	40 e0       	ldi	r20, 0x00	; 0
   2:	51 ee       	ldi	r21, 0xE1	; 225
   4:	60 e0       	ldi	r22, 0x00	; 0
   6:	70 e0       	ldi	r23, 0x00	; 0
   8:	0e 94 00 00 	call	0	; 0x0 <_ZN12FirmataClass5beginEv>
   c:	08 95       	ret

Disassembly of section .text._GLOBAL__I__Z23sendValueAsTwo7bitBytesi:

00000000 <_GLOBAL__I__Z23sendValueAsTwo7bitBytesi>:
   0:	10 92 00 00 	sts	0x0000, r1
   4:	80 e0       	ldi	r24, 0x00	; 0
   6:	90 e0       	ldi	r25, 0x00	; 0
   8:	0e 94 00 00 	call	0	; 0x0 <_GLOBAL__I__Z23sendValueAsTwo7bitBytesi>
   c:	08 95       	ret

socket.o:     file format elf32-avr

Sections:
Idx Name          Size      VMA       LMA       File off  Algn
  0 .text         00000000  00000000  00000000  00000034  2**0
                  CONTENTS, ALLOC, LOAD, READONLY, CODE
  1 .data         00000000  00000000  00000000  00000034  2**0
                  CONTENTS, ALLOC, LOAD, DATA
  2 .bss          00000000  00000000  00000000  00000034  2**0
                  ALLOC
  3 .text._ZN10W5100Class6readSnEhj 00000012  00000000  00000000  00000034  2**0
                  CONTENTS, ALLOC, LOAD, RELOC, READONLY, CODE
  4 .text._ZN10W5100Class8readSnSREh 0000000a  00000000  00000000  00000046  2**0
                  CONTENTS, ALLOC, LOAD, RELOC, READONLY, CODE
  5 .text._ZN10W5100Class8readSnIREh 0000000a  00000000  00000000  00000050  2**0
                  CONTENTS, ALLOC, LOAD, RELOC, READONLY, CODE
  6 .text._ZN10W5100Class11readSnRX_RDEh 00000034  00000000  00000000  0000005a  2**0
                  CONTENTS, ALLOC, LOAD, RELOC, READONLY, CODE
  7 .text._ZN10W5100Class8readSnMREh 0000000a  00000000  00000000  0000008e  2**0
                  CONTENTS, ALLOC, LOAD, RELOC, READONLY, CODE
  8 .text._ZN10W5100Class7writeSnEhjh 00000014  00000000  00000000  00000098  2**0
                  CONTENTS, ALLOC, LOAD, RELOC, READONLY, CODE
  9 .text._ZN10W5100Class9writeSnIREhh 0000000c  00000000  00000000  000000ac  2**0
                  CONTENTS, ALLOC, LOAD, RELOC, READONLY, CODE
 10 .text._ZN10W5100Class12writeSnRX_RDEhj 00000024  00000000  00000000  000000b8  2**0
                  CONTENTS, ALLOC, LOAD, RELOC, READONLY, CODE
 11 .text._ZN10W5100Class12writeSnDPORTEhj 00000024  00000000  00000000  000000dc  2**0
                  CONTENTS, ALLOC, LOAD, RELOC, READONLY, CODE
 12 .text._ZN10W5100Class9writeSnMREhh 0000000c  00000000  00000000  00000100  2**0
                  CONTENTS, ALLOC, LOAD, RELOC, READONLY, CODE
 13 .text._ZN10W5100Class11writeSnPORTEhj 00000024  00000000  00000000  0000010c  2**0
                  CONTENTS, ALLOC, LOAD, RELOC, READONLY, CODE
 14 .text._ZN10W5100Class7writeSnEhjPhj 00000018  00000000  00000000  00000130  2**0
                  CONTENTS, ALLOC, LOAD, RELOC, READONLY, CODE
 15 .text._ZN10W5100Class11writeSnDIPREhPh 00000010  00000000  00000000  00000148  2**0
                  CONTENTS, ALLOC, LOAD, RELOC, READONLY, CODE
 16 .text._Z5closeh 0000001c  00000000  00000000  00000158  2**0
                  CONTENTS, ALLOC, LOAD, RELOC, READONLY, CODE
 17 .text._Z6sockethhjh 0000007e  00000000  00000000  00000174  2**0
                  CONTENTS, ALLOC, LOAD, RELOC, READONLY, CODE
 18 .text._Z6listenh 00000030  00000000  00000000  000001f2  2**0
                  CONTENTS, ALLOC, LOAD, RELOC, READONLY, CODE
 19 .text._Z7connecthPhj 0000006a  00000000  00000000  00000222  2**0
                  CONTENTS, ALLOC, LOAD, RELOC, READONLY, CODE
 20 .text._Z10disconnecth 0000000e  00000000  00000000  0000028c  2**0
                  CONTENTS, ALLOC, LOAD, RELOC, READONLY, CODE
 21 .text._Z4sendhPKhj 000000a4  00000000  00000000  0000029a  2**0
                  CONTENTS, ALLOC, LOAD, RELOC, READONLY, CODE
 22 .text._Z4recvhPhj 00000048  00000000  00000000  0000033e  2**0
                  CONTENTS, ALLOC, LOAD, RELOC, READONLY, CODE
 23 .text._Z4peekhPh 0000001e  00000000  00000000  00000386  2**0
                  CONTENTS, ALLOC, LOAD, RELOC, READONLY, CODE
 24 .text._Z6sendtohPKhjPhj 000000c2  00000000  00000000  000003a4  2**0
                  CONTENTS, ALLOC, LOAD, RELOC, READONLY, CODE
 25 .text._Z8recvfromhPhjS_Pj 0000016c  00000000  00000000  00000466  2**0
                  CONTENTS, ALLOC, LOAD, RELOC, READONLY, CODE
 26 .text._Z8igmpsendhPKhj 0000007e  00000000  00000000  000005d2  2**0
                  CONTENTS, ALLOC, LOAD, RELOC, READONLY, CODE
 27 .bss._ZL10local_port 00000002  00000000  00000000  00000650  2**0
                  ALLOC

Disassembly of section .text._ZN10W5100Class6readSnEhj:

00000000 <_ZN10W5100Class6readSnEhj>:
   0:	90 e0       	ldi	r25, 0x00	; 0
   2:	04 96       	adiw	r24, 0x04	; 4
   4:	98 2f       	mov	r25, r24
   6:	88 27       	eor	r24, r24
   8:	86 0f       	add	r24, r22
   a:	97 1f       	adc	r25, r23
   c:	0e 94 00 00 	call	0	; 0x0 <_ZN10W5100Class6readSnEhj>
  10:	08 95       	ret

Disassembly of section .text._ZN10W5100Class8readSnSREh:

00000000 <_ZN10W5100Class8readSnSREh>:
   0:	63 e0       	ldi	r22, 0x03	; 3
   2:	70 e0       	ldi	r23, 0x00	; 0
   4:	0e 94 00 00 	call	0	; 0x0 <_ZN10W5100Class8readSnSREh>
   8:	08 95       	ret

Disassembly of section .text._ZN10W5100Class8readSnIREh:

00000000 <_ZN10W5100Class8readSnIREh>:
   0:	62 e0       	ldi	r22, 0x02	; 2
   2:	70 e0       	ldi	r23, 0x00	; 0
   4:	0e 94 00 00 	call	0	; 0x0 <_ZN10W5100Class8readSnIREh>
   8:	08 95       	ret

Disassembly of section .text._ZN10W5100Class11readSnRX_RDEh:

00000000 <_ZN10W5100Class11readSnRX_RDEh>:
   0:	ef 92       	push	r14
   2:	ff 92       	push	r15
   4:	1f 93       	push	r17
   6:	cf 93       	push	r28
   8:	df 93       	push	r29
   a:	18 2f       	mov	r17, r24
   c:	68 e2       	ldi	r22, 0x28	; 40
   e:	70 e0       	ldi	r23, 0x00	; 0
  10:	0e 94 00 00 	call	0	; 0x0 <_ZN10W5100Class11readSnRX_RDEh>
  14:	80 e0       	ldi	r24, 0x00	; 0
  16:	ec 01       	movw	r28, r24
  18:	81 2f       	mov	r24, r17
  1a:	69 e2       	ldi	r22, 0x29	; 41
  1c:	70 e0       	ldi	r23, 0x00	; 0
  1e:	0e 94 00 00 	call	0	; 0x0 <_ZN10W5100Class11readSnRX_RDEh>
  22:	c8 0f       	add	r28, r24
  24:	d1 1d       	adc	r29, r1
  26:	ce 01       	movw	r24, r28
  28:	df 91       	pop	r29
  2a:	cf 91       	pop	r28
  2c:	1f 91       	pop	r17
  2e:	ff 90       	pop	r15
  30:	ef 90       	pop	r14
  32:	08 95       	ret

Disassembly of section .text._ZN10W5100Class8readSnMREh:

00000000 <_ZN10W5100Class8readSnMREh>:
   0:	60 e0       	ldi	r22, 0x00	; 0
   2:	70 e0       	ldi	r23, 0x00	; 0
   4:	0e 94 00 00 	call	0	; 0x0 <_ZN10W5100Class8readSnMREh>
   8:	08 95       	ret

Disassembly of section .text._ZN10W5100Class7writeSnEhjh:

00000000 <_ZN10W5100Class7writeSnEhjh>:
   0:	90 e0       	ldi	r25, 0x00	; 0
   2:	04 96       	adiw	r24, 0x04	; 4
   4:	98 2f       	mov	r25, r24
   6:	88 27       	eor	r24, r24
   8:	86 0f       	add	r24, r22
   a:	97 1f       	adc	r25, r23
   c:	64 2f       	mov	r22, r20
   e:	0e 94 00 00 	call	0	; 0x0 <_ZN10W5100Class7writeSnEhjh>
  12:	08 95       	ret

Disassembly of section .text._ZN10W5100Class9writeSnIREhh:

00000000 <_ZN10W5100Class9writeSnIREhh>:
   0:	46 2f       	mov	r20, r22
   2:	62 e0       	ldi	r22, 0x02	; 2
   4:	70 e0       	ldi	r23, 0x00	; 0
   6:	0e 94 00 00 	call	0	; 0x0 <_ZN10W5100Class9writeSnIREhh>
   a:	08 95       	ret

Disassembly of section .text._ZN10W5100Class12writeSnRX_RDEhj:

00000000 <_ZN10W5100Class12writeSnRX_RDEhj>:
   0:	0f 93       	push	r16
   2:	1f 93       	push	r17
   4:	18 2f       	mov	r17, r24
   6:	06 2f       	mov	r16, r22
   8:	47 2f       	mov	r20, r23
   a:	68 e2       	ldi	r22, 0x28	; 40
   c:	70 e0       	ldi	r23, 0x00	; 0
   e:	0e 94 00 00 	call	0	; 0x0 <_ZN10W5100Class12writeSnRX_RDEhj>
  12:	81 2f       	mov	r24, r17
  14:	69 e2       	ldi	r22, 0x29	; 41
  16:	70 e0       	ldi	r23, 0x00	; 0
  18:	40 2f       	mov	r20, r16
  1a:	0e 94 00 00 	call	0	; 0x0 <_ZN10W5100Class12writeSnRX_RDEhj>
  1e:	1f 91       	pop	r17
  20:	0f 91       	pop	r16
  22:	08 95       	ret

Disassembly of section .text._ZN10W5100Class12writeSnDPORTEhj:

00000000 <_ZN10W5100Class12writeSnDPORTEhj>:
   0:	0f 93       	push	r16
   2:	1f 93       	push	r17
   4:	18 2f       	mov	r17, r24
   6:	06 2f       	mov	r16, r22
   8:	47 2f       	mov	r20, r23
   a:	60 e1       	ldi	r22, 0x10	; 16
   c:	70 e0       	ldi	r23, 0x00	; 0
   e:	0e 94 00 00 	call	0	; 0x0 <_ZN10W5100Class12writeSnDPORTEhj>
  12:	81 2f       	mov	r24, r17
  14:	61 e1       	ldi	r22, 0x11	; 17
  16:	70 e0       	ldi	r23, 0x00	; 0
  18:	40 2f       	mov	r20, r16
  1a:	0e 94 00 00 	call	0	; 0x0 <_ZN10W5100Class12writeSnDPORTEhj>
  1e:	1f 91       	pop	r17
  20:	0f 91       	pop	r16
  22:	08 95       	ret

Disassembly of section .text._ZN10W5100Class9writeSnMREhh:

00000000 <_ZN10W5100Class9writeSnMREhh>:
   0:	46 2f       	mov	r20, r22
   2:	60 e0       	ldi	r22, 0x00	; 0
   4:	70 e0       	ldi	r23, 0x00	; 0
   6:	0e 94 00 00 	call	0	; 0x0 <_ZN10W5100Class9writeSnMREhh>
   a:	08 95       	ret

Disassembly of section .text._ZN10W5100Class11writeSnPORTEhj:

00000000 <_ZN10W5100Class11writeSnPORTEhj>:
   0:	0f 93       	push	r16
   2:	1f 93       	push	r17
   4:	18 2f       	mov	r17, r24
   6:	06 2f       	mov	r16, r22
   8:	47 2f       	mov	r20, r23
   a:	64 e0       	ldi	r22, 0x04	; 4
   c:	70 e0       	ldi	r23, 0x00	; 0
   e:	0e 94 00 00 	call	0	; 0x0 <_ZN10W5100Class11writeSnPORTEhj>
  12:	81 2f       	mov	r24, r17
  14:	65 e0       	ldi	r22, 0x05	; 5
  16:	70 e0       	ldi	r23, 0x00	; 0
  18:	40 2f       	mov	r20, r16
  1a:	0e 94 00 00 	call	0	; 0x0 <_ZN10W5100Class11writeSnPORTEhj>
  1e:	1f 91       	pop	r17
  20:	0f 91       	pop	r16
  22:	08 95       	ret

Disassembly of section .text._ZN10W5100Class7writeSnEhjPhj:

00000000 <_ZN10W5100Class7writeSnEhjPhj>:
   0:	fb 01       	movw	r30, r22
   2:	ba 01       	movw	r22, r20
   4:	90 e0       	ldi	r25, 0x00	; 0
   6:	04 96       	adiw	r24, 0x04	; 4
   8:	98 2f       	mov	r25, r24
   a:	88 27       	eor	r24, r24
   c:	8e 0f       	add	r24, r30
   e:	9f 1f       	adc	r25, r31
  10:	a9 01       	movw	r20, r18
  12:	0e 94 00 00 	call	0	; 0x0 <_ZN10W5100Class7writeSnEhjPhj>
  16:	08 95       	ret

Disassembly of section .text._ZN10W5100Class11writeSnDIPREhPh:

00000000 <_ZN10W5100Class11writeSnDIPREhPh>:
   0:	ab 01       	movw	r20, r22
   2:	6c e0       	ldi	r22, 0x0C	; 12
   4:	70 e0       	ldi	r23, 0x00	; 0
   6:	24 e0       	ldi	r18, 0x04	; 4
   8:	30 e0       	ldi	r19, 0x00	; 0
   a:	0e 94 00 00 	call	0	; 0x0 <_ZN10W5100Class11writeSnDIPREhPh>
   e:	08 95       	ret

Disassembly of section .text._Z5closeh:

00000000 <_Z5closeh>:
   0:	1f 93       	push	r17
   2:	18 2f       	mov	r17, r24
   4:	80 e0       	ldi	r24, 0x00	; 0
   6:	90 e0       	ldi	r25, 0x00	; 0
   8:	61 2f       	mov	r22, r17
   a:	40 e1       	ldi	r20, 0x10	; 16
   c:	0e 94 00 00 	call	0	; 0x0 <_Z5closeh>
  10:	81 2f       	mov	r24, r17
  12:	6f ef       	ldi	r22, 0xFF	; 255
  14:	0e 94 00 00 	call	0	; 0x0 <_Z5closeh>
  18:	1f 91       	pop	r17
  1a:	08 95       	ret

Disassembly of section .text._Z6sockethhjh:

00000000 <_Z6sockethhjh>:
   0:	ef 92       	push	r14
   2:	ff 92       	push	r15
   4:	1f 93       	push	r17
   6:	df 93       	push	r29
   8:	cf 93       	push	r28
   a:	0f 92       	push	r0
   c:	0f 92       	push	r0
   e:	cd b7       	in	r28, 0x3d	; 61
  10:	de b7       	in	r29, 0x3e	; 62
  12:	18 2f       	mov	r17, r24
  14:	7a 01       	movw	r14, r20
  16:	86 2f       	mov	r24, r22
  18:	81 50       	subi	r24, 0x01	; 1
  1a:	85 30       	cpi	r24, 0x05	; 5
  1c:	00 f4       	brcc	.+0      	; 0x1e <_Z6sockethhjh+0x1e>
  1e:	81 2f       	mov	r24, r17
  20:	2a 83       	std	Y+2, r18	; 0x02
  22:	69 83       	std	Y+1, r22	; 0x01
  24:	0e 94 00 00 	call	0	; 0x0 <_Z6sockethhjh>
  28:	2a 81       	ldd	r18, Y+2	; 0x02
  2a:	69 81       	ldd	r22, Y+1	; 0x01
  2c:	62 2b       	or	r22, r18
  2e:	81 2f       	mov	r24, r17
  30:	0e 94 00 00 	call	0	; 0x0 <_Z6sockethhjh>
  34:	e1 14       	cp	r14, r1
  36:	f1 04       	cpc	r15, r1
  38:	01 f0       	breq	.+0      	; 0x3a <_Z6sockethhjh+0x3a>
  3a:	81 2f       	mov	r24, r17
  3c:	b7 01       	movw	r22, r14
  3e:	00 c0       	rjmp	.+0      	; 0x40 <_Z6sockethhjh+0x40>
  40:	20 91 00 00 	lds	r18, 0x0000
  44:	30 91 00 00 	lds	r19, 0x0000
  48:	2f 5f       	subi	r18, 0xFF	; 255
  4a:	3f 4f       	sbci	r19, 0xFF	; 255
  4c:	30 93 00 00 	sts	0x0000, r19
  50:	20 93 00 00 	sts	0x0000, r18
  54:	81 2f       	mov	r24, r17
  56:	b9 01       	movw	r22, r18
  58:	0e 94 00 00 	call	0	; 0x0 <_Z6sockethhjh>
  5c:	80 e0       	ldi	r24, 0x00	; 0
  5e:	90 e0       	ldi	r25, 0x00	; 0
  60:	61 2f       	mov	r22, r17
  62:	41 e0       	ldi	r20, 0x01	; 1
  64:	0e 94 00 00 	call	0	; 0x0 <_Z6sockethhjh>
  68:	81 e0       	ldi	r24, 0x01	; 1
  6a:	00 c0       	rjmp	.+0      	; 0x6c <_Z6sockethhjh+0x6c>
  6c:	80 e0       	ldi	r24, 0x00	; 0
  6e:	0f 90       	pop	r0
  70:	0f 90       	pop	r0
  72:	cf 91       	pop	r28
  74:	df 91       	pop	r29
  76:	1f 91       	pop	r17
  78:	ff 90       	pop	r15
  7a:	ef 90       	pop	r14
  7c:	08 95       	ret

Disassembly of section .text._Z6listenh:

00000000 <_Z6listenh>:
   0:	df 93       	push	r29
   2:	cf 93       	push	r28
   4:	0f 92       	push	r0
   6:	cd b7       	in	r28, 0x3d	; 61
   8:	de b7       	in	r29, 0x3e	; 62
   a:	68 2f       	mov	r22, r24
   c:	69 83       	std	Y+1, r22	; 0x01
   e:	0e 94 00 00 	call	0	; 0x0 <_Z6listenh>
  12:	69 81       	ldd	r22, Y+1	; 0x01
  14:	83 31       	cpi	r24, 0x13	; 19
  16:	01 f4       	brne	.+0      	; 0x18 <_Z6listenh+0x18>
  18:	80 e0       	ldi	r24, 0x00	; 0
  1a:	90 e0       	ldi	r25, 0x00	; 0
  1c:	42 e0       	ldi	r20, 0x02	; 2
  1e:	0e 94 00 00 	call	0	; 0x0 <_Z6listenh>
  22:	81 e0       	ldi	r24, 0x01	; 1
  24:	00 c0       	rjmp	.+0      	; 0x26 <_Z6listenh+0x26>
  26:	80 e0       	ldi	r24, 0x00	; 0
  28:	0f 90       	pop	r0
  2a:	cf 91       	pop	r28
  2c:	df 91       	pop	r29
  2e:	08 95       	ret

Disassembly of section .text._Z7connecthPhj:

00000000 <_Z7connecthPhj>:
   0:	1f 93       	push	r17
   2:	cf 93       	push	r28
   4:	df 93       	push	r29
   6:	18 2f       	mov	r17, r24
   8:	fb 01       	movw	r30, r22
   a:	ea 01       	movw	r28, r20
   c:	80 81       	ld	r24, Z
   e:	8f 3f       	cpi	r24, 0xFF	; 255
  10:	01 f4       	brne	.+0      	; 0x12 <_Z7connecthPhj+0x12>
  12:	81 81       	ldd	r24, Z+1	; 0x01
  14:	8f 3f       	cpi	r24, 0xFF	; 255
  16:	01 f4       	brne	.+0      	; 0x18 <_Z7connecthPhj+0x18>
  18:	82 81       	ldd	r24, Z+2	; 0x02
  1a:	8f 3f       	cpi	r24, 0xFF	; 255
  1c:	01 f4       	brne	.+0      	; 0x1e <_Z7connecthPhj+0x1e>
  1e:	83 81       	ldd	r24, Z+3	; 0x03
  20:	8f 3f       	cpi	r24, 0xFF	; 255
  22:	01 f4       	brne	.+0      	; 0x24 <_Z7connecthPhj+0x24>
  24:	00 c0       	rjmp	.+0      	; 0x26 <_Z7connecthPhj+0x26>
  26:	88 23       	and	r24, r24
  28:	01 f4       	brne	.+0      	; 0x2a <_Z7connecthPhj+0x2a>
  2a:	81 81       	ldd	r24, Z+1	; 0x01
  2c:	88 23       	and	r24, r24
  2e:	01 f4       	brne	.+0      	; 0x30 <_Z7connecthPhj+0x30>
  30:	82 81       	ldd	r24, Z+2	; 0x02
  32:	88 23       	and	r24, r24
  34:	01 f4       	brne	.+0      	; 0x36 <_Z7connecthPhj+0x36>
  36:	83 81       	ldd	r24, Z+3	; 0x03
  38:	88 23       	and	r24, r24
  3a:	01 f0       	breq	.+0      	; 0x3c <_Z7connecthPhj+0x3c>
  3c:	20 97       	sbiw	r28, 0x00	; 0
  3e:	01 f0       	breq	.+0      	; 0x40 <_Z7connecthPhj+0x40>
  40:	81 2f       	mov	r24, r17
  42:	bf 01       	movw	r22, r30
  44:	0e 94 00 00 	call	0	; 0x0 <_Z7connecthPhj>
  48:	81 2f       	mov	r24, r17
  4a:	be 01       	movw	r22, r28
  4c:	0e 94 00 00 	call	0	; 0x0 <_Z7connecthPhj>
  50:	80 e0       	ldi	r24, 0x00	; 0
  52:	90 e0       	ldi	r25, 0x00	; 0
  54:	61 2f       	mov	r22, r17
  56:	44 e0       	ldi	r20, 0x04	; 4
  58:	0e 94 00 00 	call	0	; 0x0 <_Z7connecthPhj>
  5c:	81 e0       	ldi	r24, 0x01	; 1
  5e:	00 c0       	rjmp	.+0      	; 0x60 <_Z7connecthPhj+0x60>
  60:	80 e0       	ldi	r24, 0x00	; 0
  62:	df 91       	pop	r29
  64:	cf 91       	pop	r28
  66:	1f 91       	pop	r17
  68:	08 95       	ret

Disassembly of section .text._Z10disconnecth:

00000000 <_Z10disconnecth>:
   0:	68 2f       	mov	r22, r24
   2:	80 e0       	ldi	r24, 0x00	; 0
   4:	90 e0       	ldi	r25, 0x00	; 0
   6:	48 e0       	ldi	r20, 0x08	; 8
   8:	0e 94 00 00 	call	0	; 0x0 <_Z10disconnecth>
   c:	08 95       	ret

Disassembly of section .text._Z4sendhPKhj:

00000000 <_Z4sendhPKhj>:
   0:	cf 92       	push	r12
   2:	df 92       	push	r13
   4:	ef 92       	push	r14
   6:	ff 92       	push	r15
   8:	1f 93       	push	r17
   a:	cf 93       	push	r28
   c:	df 93       	push	r29
   e:	18 2f       	mov	r17, r24
  10:	7b 01       	movw	r14, r22
  12:	c4 2e       	mov	r12, r20
  14:	e6 01       	movw	r28, r12
  16:	6e 01       	movw	r12, r28
  18:	d5 2e       	mov	r13, r21
  1a:	e6 01       	movw	r28, r12
  1c:	38 e0       	ldi	r19, 0x08	; 8
  1e:	c1 30       	cpi	r28, 0x01	; 1
  20:	d3 07       	cpc	r29, r19
  22:	00 f0       	brcs	.+0      	; 0x24 <_Z4sendhPKhj+0x24>
  24:	c0 e0       	ldi	r28, 0x00	; 0
  26:	d8 e0       	ldi	r29, 0x08	; 8
  28:	80 e0       	ldi	r24, 0x00	; 0
  2a:	90 e0       	ldi	r25, 0x00	; 0
  2c:	61 2f       	mov	r22, r17
  2e:	0e 94 00 00 	call	0	; 0x0 <_Z4sendhPKhj>
  32:	6c 01       	movw	r12, r24
  34:	81 2f       	mov	r24, r17
  36:	0e 94 00 00 	call	0	; 0x0 <_Z4sendhPKhj>
  3a:	87 31       	cpi	r24, 0x17	; 23
  3c:	01 f0       	breq	.+0      	; 0x3e <_Z4sendhPKhj+0x3e>
  3e:	8c 31       	cpi	r24, 0x1C	; 28
  40:	01 f4       	brne	.+0      	; 0x42 <_Z4sendhPKhj+0x42>
  42:	cc 16       	cp	r12, r28
  44:	dd 06       	cpc	r13, r29
  46:	00 f0       	brcs	.+0      	; 0x48 <_Z4sendhPKhj+0x48>
  48:	00 c0       	rjmp	.+0      	; 0x4a <_Z4sendhPKhj+0x4a>
  4a:	c0 e0       	ldi	r28, 0x00	; 0
  4c:	d0 e0       	ldi	r29, 0x00	; 0
  4e:	80 e0       	ldi	r24, 0x00	; 0
  50:	90 e0       	ldi	r25, 0x00	; 0
  52:	61 2f       	mov	r22, r17
  54:	a7 01       	movw	r20, r14
  56:	9e 01       	movw	r18, r28
  58:	0e 94 00 00 	call	0	; 0x0 <_Z4sendhPKhj>
  5c:	80 e0       	ldi	r24, 0x00	; 0
  5e:	90 e0       	ldi	r25, 0x00	; 0
  60:	61 2f       	mov	r22, r17
  62:	40 e2       	ldi	r20, 0x20	; 32
  64:	0e 94 00 00 	call	0	; 0x0 <_Z4sendhPKhj>
  68:	00 c0       	rjmp	.+0      	; 0x6a <_Z4sendhPKhj+0x6a>
  6a:	81 2f       	mov	r24, r17
  6c:	0e 94 00 00 	call	0	; 0x0 <_Z4sendhPKhj>
  70:	88 23       	and	r24, r24
  72:	01 f4       	brne	.+0      	; 0x74 <_Z4sendhPKhj+0x74>
  74:	81 2f       	mov	r24, r17
  76:	0e 94 00 00 	call	0	; 0x0 <_Z4sendhPKhj>
  7a:	c0 e0       	ldi	r28, 0x00	; 0
  7c:	d0 e0       	ldi	r29, 0x00	; 0
  7e:	00 c0       	rjmp	.+0      	; 0x80 <_Z4sendhPKhj+0x80>
  80:	81 2f       	mov	r24, r17
  82:	0e 94 00 00 	call	0	; 0x0 <_Z4sendhPKhj>
  86:	84 ff       	sbrs	r24, 4
  88:	00 c0       	rjmp	.+0      	; 0x8a <_Z4sendhPKhj+0x8a>
  8a:	81 2f       	mov	r24, r17
  8c:	60 e1       	ldi	r22, 0x10	; 16
  8e:	0e 94 00 00 	call	0	; 0x0 <_Z4sendhPKhj>
  92:	ce 01       	movw	r24, r28
  94:	df 91       	pop	r29
  96:	cf 91       	pop	r28
  98:	1f 91       	pop	r17
  9a:	ff 90       	pop	r15
  9c:	ef 90       	pop	r14
  9e:	df 90       	pop	r13
  a0:	cf 90       	pop	r12
  a2:	08 95       	ret

Disassembly of section .text._Z4recvhPhj:

00000000 <_Z4recvhPhj>:
   0:	ef 92       	push	r14
   2:	ff 92       	push	r15
   4:	0f 93       	push	r16
   6:	1f 93       	push	r17
   8:	cf 93       	push	r28
   a:	df 93       	push	r29
   c:	18 2f       	mov	r17, r24
   e:	9b 01       	movw	r18, r22
  10:	ea 01       	movw	r28, r20
  12:	20 97       	sbiw	r28, 0x00	; 0
  14:	01 f0       	breq	.+0      	; 0x16 <_Z4recvhPhj+0x16>
  16:	80 e0       	ldi	r24, 0x00	; 0
  18:	90 e0       	ldi	r25, 0x00	; 0
  1a:	61 2f       	mov	r22, r17
  1c:	a9 01       	movw	r20, r18
  1e:	9e 01       	movw	r18, r28
  20:	00 e0       	ldi	r16, 0x00	; 0
  22:	0e 94 00 00 	call	0	; 0x0 <_Z4recvhPhj>
  26:	80 e0       	ldi	r24, 0x00	; 0
  28:	90 e0       	ldi	r25, 0x00	; 0
  2a:	61 2f       	mov	r22, r17
  2c:	40 e4       	ldi	r20, 0x40	; 64
  2e:	0e 94 00 00 	call	0	; 0x0 <_Z4recvhPhj>
  32:	00 c0       	rjmp	.+0      	; 0x34 <_Z4recvhPhj+0x34>
  34:	c0 e0       	ldi	r28, 0x00	; 0
  36:	d0 e0       	ldi	r29, 0x00	; 0
  38:	ce 01       	movw	r24, r28
  3a:	df 91       	pop	r29
  3c:	cf 91       	pop	r28
  3e:	1f 91       	pop	r17
  40:	0f 91       	pop	r16
  42:	ff 90       	pop	r15
  44:	ef 90       	pop	r14
  46:	08 95       	ret

Disassembly of section .text._Z4peekhPh:

00000000 <_Z4peekhPh>:
   0:	0f 93       	push	r16
   2:	28 2f       	mov	r18, r24
   4:	ab 01       	movw	r20, r22
   6:	80 e0       	ldi	r24, 0x00	; 0
   8:	90 e0       	ldi	r25, 0x00	; 0
   a:	62 2f       	mov	r22, r18
   c:	21 e0       	ldi	r18, 0x01	; 1
   e:	30 e0       	ldi	r19, 0x00	; 0
  10:	01 e0       	ldi	r16, 0x01	; 1
  12:	0e 94 00 00 	call	0	; 0x0 <_Z4peekhPh>
  16:	81 e0       	ldi	r24, 0x01	; 1
  18:	90 e0       	ldi	r25, 0x00	; 0
  1a:	0f 91       	pop	r16
  1c:	08 95       	ret

Disassembly of section .text._Z6sendtohPKhjPhj:

00000000 <_Z6sendtohPKhjPhj>:
   0:	af 92       	push	r10
   2:	bf 92       	push	r11
   4:	cf 92       	push	r12
   6:	df 92       	push	r13
   8:	ef 92       	push	r14
   a:	ff 92       	push	r15
   c:	0f 93       	push	r16
   e:	1f 93       	push	r17
  10:	cf 93       	push	r28
  12:	df 93       	push	r29
  14:	f8 2e       	mov	r15, r24
  16:	6b 01       	movw	r12, r22
  18:	f9 01       	movw	r30, r18
  1a:	80 81       	ld	r24, Z
  1c:	88 23       	and	r24, r24
  1e:	01 f4       	brne	.+0      	; 0x20 <_Z6sendtohPKhjPhj+0x20>
  20:	81 81       	ldd	r24, Z+1	; 0x01
  22:	88 23       	and	r24, r24
  24:	01 f4       	brne	.+0      	; 0x26 <_Z6sendtohPKhjPhj+0x26>
  26:	82 81       	ldd	r24, Z+2	; 0x02
  28:	88 23       	and	r24, r24
  2a:	01 f4       	brne	.+0      	; 0x2c <_Z6sendtohPKhjPhj+0x2c>
  2c:	83 81       	ldd	r24, Z+3	; 0x03
  2e:	88 23       	and	r24, r24
  30:	01 f0       	breq	.+0      	; 0x32 <_Z6sendtohPKhjPhj+0x32>
  32:	01 15       	cp	r16, r1
  34:	11 05       	cpc	r17, r1
  36:	01 f0       	breq	.+0      	; 0x38 <_Z6sendtohPKhjPhj+0x38>
  38:	a4 2e       	mov	r10, r20
  3a:	e5 01       	movw	r28, r10
  3c:	5e 01       	movw	r10, r28
  3e:	b5 2e       	mov	r11, r21
  40:	e5 01       	movw	r28, r10
  42:	28 e0       	ldi	r18, 0x08	; 8
  44:	c1 30       	cpi	r28, 0x01	; 1
  46:	d2 07       	cpc	r29, r18
  48:	00 f0       	brcs	.+0      	; 0x4a <_Z6sendtohPKhjPhj+0x4a>
  4a:	c0 e0       	ldi	r28, 0x00	; 0
  4c:	d8 e0       	ldi	r29, 0x08	; 8
  4e:	20 97       	sbiw	r28, 0x00	; 0
  50:	01 f0       	breq	.+0      	; 0x52 <_Z6sendtohPKhjPhj+0x52>
  52:	8f 2d       	mov	r24, r15
  54:	bf 01       	movw	r22, r30
  56:	0e 94 00 00 	call	0	; 0x0 <_Z6sendtohPKhjPhj>
  5a:	8f 2d       	mov	r24, r15
  5c:	b8 01       	movw	r22, r16
  5e:	0e 94 00 00 	call	0	; 0x0 <_Z6sendtohPKhjPhj>
  62:	80 e0       	ldi	r24, 0x00	; 0
  64:	90 e0       	ldi	r25, 0x00	; 0
  66:	6f 2d       	mov	r22, r15
  68:	a6 01       	movw	r20, r12
  6a:	9e 01       	movw	r18, r28
  6c:	0e 94 00 00 	call	0	; 0x0 <_Z6sendtohPKhjPhj>
  70:	80 e0       	ldi	r24, 0x00	; 0
  72:	90 e0       	ldi	r25, 0x00	; 0
  74:	6f 2d       	mov	r22, r15
  76:	40 e2       	ldi	r20, 0x20	; 32
  78:	0e 94 00 00 	call	0	; 0x0 <_Z6sendtohPKhjPhj>
  7c:	00 c0       	rjmp	.+0      	; 0x7e <_Z6sendtohPKhjPhj+0x7e>
  7e:	8f 2d       	mov	r24, r15
  80:	0e 94 00 00 	call	0	; 0x0 <_Z6sendtohPKhjPhj>
  84:	83 ff       	sbrs	r24, 3
  86:	00 c0       	rjmp	.+0      	; 0x88 <_Z6sendtohPKhjPhj+0x88>
  88:	8f 2d       	mov	r24, r15
  8a:	68 e1       	ldi	r22, 0x18	; 24
  8c:	0e 94 00 00 	call	0	; 0x0 <_Z6sendtohPKhjPhj>
  90:	00 c0       	rjmp	.+0      	; 0x92 <_Z6sendtohPKhjPhj+0x92>
  92:	8f 2d       	mov	r24, r15
  94:	0e 94 00 00 	call	0	; 0x0 <_Z6sendtohPKhjPhj>
  98:	84 ff       	sbrs	r24, 4
  9a:	00 c0       	rjmp	.+0      	; 0x9c <_Z6sendtohPKhjPhj+0x9c>
  9c:	8f 2d       	mov	r24, r15
  9e:	60 e1       	ldi	r22, 0x10	; 16
  a0:	0e 94 00 00 	call	0	; 0x0 <_Z6sendtohPKhjPhj>
  a4:	00 c0       	rjmp	.+0      	; 0xa6 <_Z6sendtohPKhjPhj+0xa6>
  a6:	c0 e0       	ldi	r28, 0x00	; 0
  a8:	d0 e0       	ldi	r29, 0x00	; 0
  aa:	ce 01       	movw	r24, r28
  ac:	df 91       	pop	r29
  ae:	cf 91       	pop	r28
  b0:	1f 91       	pop	r17
  b2:	0f 91       	pop	r16
  b4:	ff 90       	pop	r15
  b6:	ef 90       	pop	r14
  b8:	df 90       	pop	r13
  ba:	cf 90       	pop	r12
  bc:	bf 90       	pop	r11
  be:	af 90       	pop	r10
  c0:	08 95       	ret

Disassembly of section .text._Z8recvfromhPhjS_Pj:

00000000 <_Z8recvfromhPhjS_Pj>:
   0:	6f 92       	push	r6
   2:	7f 92       	push	r7
   4:	8f 92       	push	r8
   6:	9f 92       	push	r9
   8:	af 92       	push	r10
   a:	bf 92       	push	r11
   c:	df 92       	push	r13
   e:	ef 92       	push	r14
  10:	ff 92       	push	r15
  12:	0f 93       	push	r16
  14:	1f 93       	push	r17
  16:	df 93       	push	r29
  18:	cf 93       	push	r28
  1a:	cd b7       	in	r28, 0x3d	; 61
  1c:	de b7       	in	r29, 0x3e	; 62
  1e:	28 97       	sbiw	r28, 0x08	; 8
  20:	0f b6       	in	r0, 0x3f	; 63
  22:	f8 94       	cli
  24:	de bf       	out	0x3e, r29	; 62
  26:	0f be       	out	0x3f, r0	; 63
  28:	cd bf       	out	0x3d, r28	; 61
  2a:	d8 2e       	mov	r13, r24
  2c:	4b 01       	movw	r8, r22
  2e:	79 01       	movw	r14, r18
  30:	38 01       	movw	r6, r16
  32:	41 15       	cp	r20, r1
  34:	51 05       	cpc	r21, r1
  36:	01 f4       	brne	.+0      	; 0x38 <_Z8recvfromhPhjS_Pj+0x38>
  38:	00 c0       	rjmp	.+0      	; 0x3a <_Z8recvfromhPhjS_Pj+0x3a>
  3a:	0e 94 00 00 	call	0	; 0x0 <_Z8recvfromhPhjS_Pj>
  3e:	5c 01       	movw	r10, r24
  40:	8d 2d       	mov	r24, r13
  42:	0e 94 00 00 	call	0	; 0x0 <_Z8recvfromhPhjS_Pj>
  46:	90 e0       	ldi	r25, 0x00	; 0
  48:	87 70       	andi	r24, 0x07	; 7
  4a:	90 70       	andi	r25, 0x00	; 0
  4c:	83 30       	cpi	r24, 0x03	; 3
  4e:	91 05       	cpc	r25, r1
  50:	01 f0       	breq	.+0      	; 0x52 <_Z8recvfromhPhjS_Pj+0x52>
  52:	84 30       	cpi	r24, 0x04	; 4
  54:	91 05       	cpc	r25, r1
  56:	01 f4       	brne	.+0      	; 0x58 <_Z8recvfromhPhjS_Pj+0x58>
  58:	00 c0       	rjmp	.+0      	; 0x5a <_Z8recvfromhPhjS_Pj+0x5a>
  5a:	82 30       	cpi	r24, 0x02	; 2
  5c:	91 05       	cpc	r25, r1
  5e:	01 f0       	breq	.+0      	; 0x60 <_Z8recvfromhPhjS_Pj+0x60>
  60:	00 c0       	rjmp	.+0      	; 0x62 <_Z8recvfromhPhjS_Pj+0x62>
  62:	80 e0       	ldi	r24, 0x00	; 0
  64:	90 e0       	ldi	r25, 0x00	; 0
  66:	6d 2d       	mov	r22, r13
  68:	a5 01       	movw	r20, r10
  6a:	9e 01       	movw	r18, r28
  6c:	2f 5f       	subi	r18, 0xFF	; 255
  6e:	3f 4f       	sbci	r19, 0xFF	; 255
  70:	08 e0       	ldi	r16, 0x08	; 8
  72:	10 e0       	ldi	r17, 0x00	; 0
  74:	0e 94 00 00 	call	0	; 0x0 <_Z8recvfromhPhjS_Pj>
  78:	a0 0e       	add	r10, r16
  7a:	b1 1e       	adc	r11, r17
  7c:	89 81       	ldd	r24, Y+1	; 0x01
  7e:	f7 01       	movw	r30, r14
  80:	80 83       	st	Z, r24
  82:	8a 81       	ldd	r24, Y+2	; 0x02
  84:	81 83       	std	Z+1, r24	; 0x01
  86:	8b 81       	ldd	r24, Y+3	; 0x03
  88:	82 83       	std	Z+2, r24	; 0x02
  8a:	8c 81       	ldd	r24, Y+4	; 0x04
  8c:	83 83       	std	Z+3, r24	; 0x03
  8e:	9d 81       	ldd	r25, Y+5	; 0x05
  90:	80 e0       	ldi	r24, 0x00	; 0
  92:	2e 81       	ldd	r18, Y+6	; 0x06
  94:	82 0f       	add	r24, r18
  96:	91 1d       	adc	r25, r1
  98:	f3 01       	movw	r30, r6
  9a:	91 83       	std	Z+1, r25	; 0x01
  9c:	80 83       	st	Z, r24
  9e:	9f 81       	ldd	r25, Y+7	; 0x07
  a0:	80 e0       	ldi	r24, 0x00	; 0
  a2:	28 85       	ldd	r18, Y+8	; 0x08
  a4:	00 c0       	rjmp	.+0      	; 0xa6 <_Z8recvfromhPhjS_Pj+0xa6>
  a6:	80 e0       	ldi	r24, 0x00	; 0
  a8:	90 e0       	ldi	r25, 0x00	; 0
  aa:	6d 2d       	mov	r22, r13
  ac:	a5 01       	movw	r20, r10
  ae:	9e 01       	movw	r18, r28
  b0:	2f 5f       	subi	r18, 0xFF	; 255
  b2:	3f 4f       	sbci	r19, 0xFF	; 255
  b4:	06 e0       	ldi	r16, 0x06	; 6
  b6:	10 e0       	ldi	r17, 0x00	; 0
  b8:	0e 94 00 00 	call	0	; 0x0 <_Z8recvfromhPhjS_Pj>
  bc:	a0 0e       	add	r10, r16
  be:	b1 1e       	adc	r11, r17
  c0:	89 81       	ldd	r24, Y+1	; 0x01
  c2:	f7 01       	movw	r30, r14
  c4:	80 83       	st	Z, r24
  c6:	8a 81       	ldd	r24, Y+2	; 0x02
  c8:	81 83       	std	Z+1, r24	; 0x01
  ca:	8b 81       	ldd	r24, Y+3	; 0x03
  cc:	82 83       	std	Z+2, r24	; 0x02
  ce:	8c 81       	ldd	r24, Y+4	; 0x04
  d0:	83 83       	std	Z+3, r24	; 0x03
  d2:	9d 81       	ldd	r25, Y+5	; 0x05
  d4:	80 e0       	ldi	r24, 0x00	; 0
  d6:	2e 81       	ldd	r18, Y+6	; 0x06
  d8:	7c 01       	movw	r14, r24
  da:	e2 0e       	add	r14, r18
  dc:	f1 1c       	adc	r15, r1
  de:	00 c0       	rjmp	.+0      	; 0xe0 <_Z8recvfromhPhjS_Pj+0xe0>
  e0:	80 e0       	ldi	r24, 0x00	; 0
  e2:	90 e0       	ldi	r25, 0x00	; 0
  e4:	6d 2d       	mov	r22, r13
  e6:	a5 01       	movw	r20, r10
  e8:	9e 01       	movw	r18, r28
  ea:	2f 5f       	subi	r18, 0xFF	; 255
  ec:	3f 4f       	sbci	r19, 0xFF	; 255
  ee:	02 e0       	ldi	r16, 0x02	; 2
  f0:	10 e0       	ldi	r17, 0x00	; 0
  f2:	0e 94 00 00 	call	0	; 0x0 <_Z8recvfromhPhjS_Pj>
  f6:	a0 0e       	add	r10, r16
  f8:	b1 1e       	adc	r11, r17
  fa:	99 81       	ldd	r25, Y+1	; 0x01
  fc:	80 e0       	ldi	r24, 0x00	; 0
  fe:	ea 80       	ldd	r14, Y+2	; 0x02
 100:	ff 24       	eor	r15, r15
 102:	2e ef       	ldi	r18, 0xFE	; 254
 104:	3f ef       	ldi	r19, 0xFF	; 255
 106:	e2 0e       	add	r14, r18
 108:	f3 1e       	adc	r15, r19
 10a:	e8 0e       	add	r14, r24
 10c:	f9 1e       	adc	r15, r25
 10e:	80 e0       	ldi	r24, 0x00	; 0
 110:	90 e0       	ldi	r25, 0x00	; 0
 112:	6d 2d       	mov	r22, r13
 114:	a5 01       	movw	r20, r10
 116:	94 01       	movw	r18, r8
 118:	87 01       	movw	r16, r14
 11a:	0e 94 00 00 	call	0	; 0x0 <_Z8recvfromhPhjS_Pj>
 11e:	b5 01       	movw	r22, r10
 120:	6e 0d       	add	r22, r14
 122:	7f 1d       	adc	r23, r15
 124:	8d 2d       	mov	r24, r13
 126:	0e 94 00 00 	call	0	; 0x0 <_Z8recvfromhPhjS_Pj>
 12a:	00 c0       	rjmp	.+0      	; 0x12c <_Z8recvfromhPhjS_Pj+0x12c>
 12c:	ee 24       	eor	r14, r14
 12e:	ff 24       	eor	r15, r15
 130:	80 e0       	ldi	r24, 0x00	; 0
 132:	90 e0       	ldi	r25, 0x00	; 0
 134:	6d 2d       	mov	r22, r13
 136:	40 e4       	ldi	r20, 0x40	; 64
 138:	0e 94 00 00 	call	0	; 0x0 <_Z8recvfromhPhjS_Pj>
 13c:	00 c0       	rjmp	.+0      	; 0x13e <_Z8recvfromhPhjS_Pj+0x13e>
 13e:	ee 24       	eor	r14, r14
 140:	ff 24       	eor	r15, r15
 142:	c7 01       	movw	r24, r14
 144:	28 96       	adiw	r28, 0x08	; 8
 146:	0f b6       	in	r0, 0x3f	; 63
 148:	f8 94       	cli
 14a:	de bf       	out	0x3e, r29	; 62
 14c:	0f be       	out	0x3f, r0	; 63
 14e:	cd bf       	out	0x3d, r28	; 61
 150:	cf 91       	pop	r28
 152:	df 91       	pop	r29
 154:	1f 91       	pop	r17
 156:	0f 91       	pop	r16
 158:	ff 90       	pop	r15
 15a:	ef 90       	pop	r14
 15c:	df 90       	pop	r13
 15e:	bf 90       	pop	r11
 160:	af 90       	pop	r10
 162:	9f 90       	pop	r9
 164:	8f 90       	pop	r8
 166:	7f 90       	pop	r7
 168:	6f 90       	pop	r6
 16a:	08 95       	ret

Disassembly of section .text._Z8igmpsendhPKhj:

00000000 <_Z8igmpsendhPKhj>:
   0:	ef 92       	push	r14
   2:	ff 92       	push	r15
   4:	1f 93       	push	r17
   6:	cf 93       	push	r28
   8:	df 93       	push	r29
   a:	18 2f       	mov	r17, r24
   c:	9b 01       	movw	r18, r22
   e:	88 e0       	ldi	r24, 0x08	; 8
  10:	41 30       	cpi	r20, 0x01	; 1
  12:	58 07       	cpc	r21, r24
  14:	00 f4       	brcc	.+0      	; 0x16 <_Z8igmpsendhPKhj+0x16>
  16:	41 15       	cp	r20, r1
  18:	51 05       	cpc	r21, r1
  1a:	01 f0       	breq	.+0      	; 0x1c <_Z8igmpsendhPKhj+0x1c>
  1c:	ea 01       	movw	r28, r20
  1e:	00 c0       	rjmp	.+0      	; 0x20 <_Z8igmpsendhPKhj+0x20>
  20:	c0 e0       	ldi	r28, 0x00	; 0
  22:	d8 e0       	ldi	r29, 0x08	; 8
  24:	80 e0       	ldi	r24, 0x00	; 0
  26:	90 e0       	ldi	r25, 0x00	; 0
  28:	61 2f       	mov	r22, r17
  2a:	a9 01       	movw	r20, r18
  2c:	9e 01       	movw	r18, r28
  2e:	0e 94 00 00 	call	0	; 0x0 <_Z8igmpsendhPKhj>
  32:	80 e0       	ldi	r24, 0x00	; 0
  34:	90 e0       	ldi	r25, 0x00	; 0
  36:	61 2f       	mov	r22, r17
  38:	40 e2       	ldi	r20, 0x20	; 32
  3a:	0e 94 00 00 	call	0	; 0x0 <_Z8igmpsendhPKhj>
  3e:	00 c0       	rjmp	.+0      	; 0x40 <_Z8igmpsendhPKhj+0x40>
  40:	81 2f       	mov	r24, r17
  42:	0e 94 00 00 	call	0	; 0x0 <_Z8igmpsendhPKhj>
  46:	81 2f       	mov	r24, r17
  48:	0e 94 00 00 	call	0	; 0x0 <_Z8igmpsendhPKhj>
  4c:	83 ff       	sbrs	r24, 3
  4e:	00 c0       	rjmp	.+0      	; 0x50 <_Z8igmpsendhPKhj+0x50>
  50:	81 2f       	mov	r24, r17
  52:	0e 94 00 00 	call	0	; 0x0 <_Z8igmpsendhPKhj>
  56:	00 c0       	rjmp	.+0      	; 0x58 <_Z8igmpsendhPKhj+0x58>
  58:	81 2f       	mov	r24, r17
  5a:	0e 94 00 00 	call	0	; 0x0 <_Z8igmpsendhPKhj>
  5e:	84 ff       	sbrs	r24, 4
  60:	00 c0       	rjmp	.+0      	; 0x62 <_Z8igmpsendhPKhj+0x62>
  62:	81 2f       	mov	r24, r17
  64:	60 e1       	ldi	r22, 0x10	; 16
  66:	0e 94 00 00 	call	0	; 0x0 <_Z8igmpsendhPKhj>
  6a:	00 c0       	rjmp	.+0      	; 0x6c <_Z8igmpsendhPKhj+0x6c>
  6c:	c0 e0       	ldi	r28, 0x00	; 0
  6e:	d0 e0       	ldi	r29, 0x00	; 0
  70:	ce 01       	movw	r24, r28
  72:	df 91       	pop	r29
  74:	cf 91       	pop	r28
  76:	1f 91       	pop	r17
  78:	ff 90       	pop	r15
  7a:	ef 90       	pop	r14
  7c:	08 95       	ret

w5100.o:     file format elf32-avr

Sections:
Idx Name          Size      VMA       LMA       File off  Algn
  0 .text         00000000  00000000  00000000  00000034  2**0
                  CONTENTS, ALLOC, LOAD, READONLY, CODE
  1 .data         00000000  00000000  00000000  00000034  2**0
                  CONTENTS, ALLOC, LOAD, DATA
  2 .bss          00000000  00000000  00000000  00000034  2**0
                  ALLOC
  3 .text._ZN8SPIClass8transferEh 0000000c  00000000  00000000  00000034  2**0
                  CONTENTS, ALLOC, LOAD, RELOC, READONLY, CODE
  4 .text._ZN10W5100Class6initSSEv 00000004  00000000  00000000  00000040  2**0
                  CONTENTS, ALLOC, LOAD, READONLY, CODE
  5 .text._ZN10W5100Class5setSSEv 00000004  00000000  00000000  00000044  2**0
                  CONTENTS, ALLOC, LOAD, READONLY, CODE
  6 .text._ZN10W5100Class7resetSSEv 00000004  00000000  00000000  00000048  2**0
                  CONTENTS, ALLOC, LOAD, READONLY, CODE
  7 .text._ZN10W5100Class5writeEjh 00000046  00000000  00000000  0000004c  2**0
                  CONTENTS, ALLOC, LOAD, RELOC, READONLY, CODE
  8 .text._ZN10W5100Class7writeSnEhjh 00000014  00000000  00000000  00000092  2**0
                  CONTENTS, ALLOC, LOAD, RELOC, READONLY, CODE
  9 .text._ZN10W5100Class9writeSnCREhh 0000000c  00000000  00000000  000000a6  2**0
                  CONTENTS, ALLOC, LOAD, RELOC, READONLY, CODE
 10 .text._ZN10W5100Class12writeSnRX_RDEhj 00000024  00000000  00000000  000000b2  2**0
                  CONTENTS, ALLOC, LOAD, RELOC, READONLY, CODE
 11 .text._ZN10W5100Class12writeSnTX_WREhj 00000024  00000000  00000000  000000d6  2**0
                  CONTENTS, ALLOC, LOAD, RELOC, READONLY, CODE
 12 .text._ZN10W5100Class7writeMREh 0000000c  00000000  00000000  000000fa  2**0
                  CONTENTS, ALLOC, LOAD, RELOC, READONLY, CODE
 13 .text._ZN10W5100Class9writeTMSREh 0000000c  00000000  00000000  00000106  2**0
                  CONTENTS, ALLOC, LOAD, RELOC, READONLY, CODE
 14 .text._ZN10W5100Class9writeRMSREh 0000000c  00000000  00000000  00000112  2**0
                  CONTENTS, ALLOC, LOAD, RELOC, READONLY, CODE
 15 .text._ZN10W5100Class4initEv 00000072  00000000  00000000  0000011e  2**0
                  CONTENTS, ALLOC, LOAD, RELOC, READONLY, CODE
 16 .text._ZN10W5100Class5writeEjPhj 00000066  00000000  00000000  00000190  2**0
                  CONTENTS, ALLOC, LOAD, RELOC, READONLY, CODE
 17 .text._ZN10W5100Class4readEj 00000040  00000000  00000000  000001f6  2**0
                  CONTENTS, ALLOC, LOAD, RELOC, READONLY, CODE
 18 .text._ZN10W5100Class6readSnEhj 00000012  00000000  00000000  00000236  2**0
                  CONTENTS, ALLOC, LOAD, RELOC, READONLY, CODE
 19 .text._ZN10W5100Class8readSnCREh 0000000a  00000000  00000000  00000248  2**0
                  CONTENTS, ALLOC, LOAD, RELOC, READONLY, CODE
 20 .text._ZN10W5100Class11readSnRX_RDEh 00000034  00000000  00000000  00000252  2**0
                  CONTENTS, ALLOC, LOAD, RELOC, READONLY, CODE
 21 .text._ZN10W5100Class11readSnTX_WREh 00000034  00000000  00000000  00000286  2**0
                  CONTENTS, ALLOC, LOAD, RELOC, READONLY, CODE
 22 .text._ZN10W5100Class20send_data_processingEhPhj 0000009e  00000000  00000000  000002ba  2**0
                  CONTENTS, ALLOC, LOAD, RELOC, READONLY, CODE
 23 .text._ZN10W5100Class12readSnRX_RSREh 00000034  00000000  00000000  00000358  2**0
                  CONTENTS, ALLOC, LOAD, RELOC, READONLY, CODE
 24 .text._ZN10W5100Class17getRXReceivedSizeEh 0000003c  00000000  00000000  0000038c  2**0
                  CONTENTS, ALLOC, LOAD, RELOC, READONLY, CODE
 25 .text._ZN10W5100Class12readSnTX_FSREh 00000034  00000000  00000000  000003c8  2**0
                  CONTENTS, ALLOC, LOAD, RELOC, READONLY, CODE
 26 .text._ZN10W5100Class13getTXFreeSizeEh 0000003c  00000000  00000000  000003fc  2**0
                  CONTENTS, ALLOC, LOAD, RELOC, READONLY, CODE
 27 .text._ZN10W5100Class4readEjPhj 00000068  00000000  00000000  00000438  2**0
                  CONTENTS, ALLOC, LOAD, RELOC, READONLY, CODE
 28 .text._ZN10W5100Class9read_dataEhPVhS1_j 00000076  00000000  00000000  000004a0  2**0
                  CONTENTS, ALLOC, LOAD, RELOC, READONLY, CODE
 29 .text._ZN10W5100Class20recv_data_processingEhPhjh 00000062  00000000  00000000  00000516  2**0
                  CONTENTS, ALLOC, LOAD, RELOC, READONLY, CODE
 30 .text._ZN10W5100Class9execCmdSnEh7SockCMD 0000001a  00000000  00000000  00000578  2**0
                  CONTENTS, ALLOC, LOAD, RELOC, READONLY, CODE
 31 .bss.W5100    00000010  00000000  00000000  00000592  2**0
                  ALLOC

Disassembly of section .text._ZN8SPIClass8transferEh:

00000000 <_ZN8SPIClass8transferEh>:
   0:	8e bd       	out	0x2e, r24	; 46
   2:	0d b4       	in	r0, 0x2d	; 45
   4:	07 fe       	sbrs	r0, 7
   6:	00 c0       	rjmp	.+0      	; 0x8 <_ZN8SPIClass8transferEh+0x8>
   8:	8e b5       	in	r24, 0x2e	; 46
   a:	08 95       	ret

Disassembly of section .text._ZN10W5100Class6initSSEv:

00000000 <_ZN10W5100Class6initSSEv>:
   0:	24 9a       	sbi	0x04, 4	; 4
   2:	08 95       	ret

Disassembly of section .text._ZN10W5100Class5setSSEv:

00000000 <_ZN10W5100Class5setSSEv>:
   0:	2c 98       	cbi	0x05, 4	; 5
   2:	08 95       	ret

Disassembly of section .text._ZN10W5100Class7resetSSEv:

00000000 <_ZN10W5100Class7resetSSEv>:
   0:	2c 9a       	sbi	0x05, 4	; 5
   2:	08 95       	ret

Disassembly of section .text._ZN10W5100Class5writeEjh:

00000000 <_ZN10W5100Class5writeEjh>:
   0:	1f 93       	push	r17
   2:	df 93       	push	r29
   4:	cf 93       	push	r28
   6:	0f 92       	push	r0
   8:	0f 92       	push	r0
   a:	cd b7       	in	r28, 0x3d	; 61
   c:	de b7       	in	r29, 0x3e	; 62
   e:	18 2f       	mov	r17, r24
  10:	6a 83       	std	Y+2, r22	; 0x02
  12:	99 83       	std	Y+1, r25	; 0x01
  14:	0e 94 00 00 	call	0	; 0x0 <_ZN10W5100Class5writeEjh>
  18:	80 ef       	ldi	r24, 0xF0	; 240
  1a:	0e 94 00 00 	call	0	; 0x0 <_ZN10W5100Class5writeEjh>
  1e:	99 81       	ldd	r25, Y+1	; 0x01
  20:	89 2f       	mov	r24, r25
  22:	0e 94 00 00 	call	0	; 0x0 <_ZN10W5100Class5writeEjh>
  26:	81 2f       	mov	r24, r17
  28:	0e 94 00 00 	call	0	; 0x0 <_ZN10W5100Class5writeEjh>
  2c:	6a 81       	ldd	r22, Y+2	; 0x02
  2e:	86 2f       	mov	r24, r22
  30:	0e 94 00 00 	call	0	; 0x0 <_ZN10W5100Class5writeEjh>
  34:	0e 94 00 00 	call	0	; 0x0 <_ZN10W5100Class5writeEjh>
  38:	81 e0       	ldi	r24, 0x01	; 1
  3a:	0f 90       	pop	r0
  3c:	0f 90       	pop	r0
  3e:	cf 91       	pop	r28
  40:	df 91       	pop	r29
  42:	1f 91       	pop	r17
  44:	08 95       	ret

Disassembly of section .text._ZN10W5100Class7writeSnEhjh:

00000000 <_ZN10W5100Class7writeSnEhjh>:
   0:	90 e0       	ldi	r25, 0x00	; 0
   2:	04 96       	adiw	r24, 0x04	; 4
   4:	98 2f       	mov	r25, r24
   6:	88 27       	eor	r24, r24
   8:	86 0f       	add	r24, r22
   a:	97 1f       	adc	r25, r23
   c:	64 2f       	mov	r22, r20
   e:	0e 94 00 00 	call	0	; 0x0 <_ZN10W5100Class7writeSnEhjh>
  12:	08 95       	ret

Disassembly of section .text._ZN10W5100Class9writeSnCREhh:

00000000 <_ZN10W5100Class9writeSnCREhh>:
   0:	46 2f       	mov	r20, r22
   2:	61 e0       	ldi	r22, 0x01	; 1
   4:	70 e0       	ldi	r23, 0x00	; 0
   6:	0e 94 00 00 	call	0	; 0x0 <_ZN10W5100Class9writeSnCREhh>
   a:	08 95       	ret

Disassembly of section .text._ZN10W5100Class12writeSnRX_RDEhj:

00000000 <_ZN10W5100Class12writeSnRX_RDEhj>:
   0:	0f 93       	push	r16
   2:	1f 93       	push	r17
   4:	18 2f       	mov	r17, r24
   6:	06 2f       	mov	r16, r22
   8:	47 2f       	mov	r20, r23
   a:	68 e2       	ldi	r22, 0x28	; 40
   c:	70 e0       	ldi	r23, 0x00	; 0
   e:	0e 94 00 00 	call	0	; 0x0 <_ZN10W5100Class12writeSnRX_RDEhj>
  12:	81 2f       	mov	r24, r17
  14:	69 e2       	ldi	r22, 0x29	; 41
  16:	70 e0       	ldi	r23, 0x00	; 0
  18:	40 2f       	mov	r20, r16
  1a:	0e 94 00 00 	call	0	; 0x0 <_ZN10W5100Class12writeSnRX_RDEhj>
  1e:	1f 91       	pop	r17
  20:	0f 91       	pop	r16
  22:	08 95       	ret

Disassembly of section .text._ZN10W5100Class12writeSnTX_WREhj:

00000000 <_ZN10W5100Class12writeSnTX_WREhj>:
   0:	0f 93       	push	r16
   2:	1f 93       	push	r17
   4:	18 2f       	mov	r17, r24
   6:	06 2f       	mov	r16, r22
   8:	47 2f       	mov	r20, r23
   a:	64 e2       	ldi	r22, 0x24	; 36
   c:	70 e0       	ldi	r23, 0x00	; 0
   e:	0e 94 00 00 	call	0	; 0x0 <_ZN10W5100Class12writeSnTX_WREhj>
  12:	81 2f       	mov	r24, r17
  14:	65 e2       	ldi	r22, 0x25	; 37
  16:	70 e0       	ldi	r23, 0x00	; 0
  18:	40 2f       	mov	r20, r16
  1a:	0e 94 00 00 	call	0	; 0x0 <_ZN10W5100Class12writeSnTX_WREhj>
  1e:	1f 91       	pop	r17
  20:	0f 91       	pop	r16
  22:	08 95       	ret

Disassembly of section .text._ZN10W5100Class7writeMREh:

00000000 <_ZN10W5100Class7writeMREh>:
   0:	68 2f       	mov	r22, r24
   2:	80 e0       	ldi	r24, 0x00	; 0
   4:	90 e0       	ldi	r25, 0x00	; 0
   6:	0e 94 00 00 	call	0	; 0x0 <_ZN10W5100Class7writeMREh>
   a:	08 95       	ret

Disassembly of section .text._ZN10W5100Class9writeTMSREh:

00000000 <_ZN10W5100Class9writeTMSREh>:
   0:	68 2f       	mov	r22, r24
   2:	8b e1       	ldi	r24, 0x1B	; 27
   4:	90 e0       	ldi	r25, 0x00	; 0
   6:	0e 94 00 00 	call	0	; 0x0 <_ZN10W5100Class9writeTMSREh>
   a:	08 95       	ret

Disassembly of section .text._ZN10W5100Class9writeRMSREh:

00000000 <_ZN10W5100Class9writeRMSREh>:
   0:	68 2f       	mov	r22, r24
   2:	8a e1       	ldi	r24, 0x1A	; 26
   4:	90 e0       	ldi	r25, 0x00	; 0
   6:	0e 94 00 00 	call	0	; 0x0 <_ZN10W5100Class9writeRMSREh>
   a:	08 95       	ret

Disassembly of section .text._ZN10W5100Class4initEv:

00000000 <_ZN10W5100Class4initEv>:
   0:	cf 93       	push	r28
   2:	df 93       	push	r29
   4:	ec 01       	movw	r28, r24
   6:	6c e2       	ldi	r22, 0x2C	; 44
   8:	71 e0       	ldi	r23, 0x01	; 1
   a:	80 e0       	ldi	r24, 0x00	; 0
   c:	90 e0       	ldi	r25, 0x00	; 0
   e:	0e 94 00 00 	call	0	; 0x0 <_ZN10W5100Class4initEv>
  12:	0e 94 00 00 	call	0	; 0x0 <_ZN10W5100Class4initEv>
  16:	0e 94 00 00 	call	0	; 0x0 <_ZN10W5100Class4initEv>
  1a:	80 e8       	ldi	r24, 0x80	; 128
  1c:	0e 94 00 00 	call	0	; 0x0 <_ZN10W5100Class4initEv>
  20:	85 e5       	ldi	r24, 0x55	; 85
  22:	0e 94 00 00 	call	0	; 0x0 <_ZN10W5100Class4initEv>
  26:	85 e5       	ldi	r24, 0x55	; 85
  28:	0e 94 00 00 	call	0	; 0x0 <_ZN10W5100Class4initEv>
  2c:	80 e0       	ldi	r24, 0x00	; 0
  2e:	90 e4       	ldi	r25, 0x40	; 64
  30:	99 83       	std	Y+1, r25	; 0x01
  32:	88 83       	st	Y, r24
  34:	80 e0       	ldi	r24, 0x00	; 0
  36:	90 e6       	ldi	r25, 0x60	; 96
  38:	99 87       	std	Y+9, r25	; 0x09
  3a:	88 87       	std	Y+8, r24	; 0x08
  3c:	80 e0       	ldi	r24, 0x00	; 0
  3e:	98 e4       	ldi	r25, 0x48	; 72
  40:	9b 83       	std	Y+3, r25	; 0x03
  42:	8a 83       	std	Y+2, r24	; 0x02
  44:	80 e0       	ldi	r24, 0x00	; 0
  46:	98 e6       	ldi	r25, 0x68	; 104
  48:	9b 87       	std	Y+11, r25	; 0x0b
  4a:	8a 87       	std	Y+10, r24	; 0x0a
  4c:	80 e0       	ldi	r24, 0x00	; 0
  4e:	90 e5       	ldi	r25, 0x50	; 80
  50:	9d 83       	std	Y+5, r25	; 0x05
  52:	8c 83       	std	Y+4, r24	; 0x04
  54:	80 e0       	ldi	r24, 0x00	; 0
  56:	90 e7       	ldi	r25, 0x70	; 112
  58:	9d 87       	std	Y+13, r25	; 0x0d
  5a:	8c 87       	std	Y+12, r24	; 0x0c
  5c:	80 e0       	ldi	r24, 0x00	; 0
  5e:	98 e5       	ldi	r25, 0x58	; 88
  60:	9f 83       	std	Y+7, r25	; 0x07
  62:	8e 83       	std	Y+6, r24	; 0x06
  64:	80 e0       	ldi	r24, 0x00	; 0
  66:	98 e7       	ldi	r25, 0x78	; 120
  68:	9f 87       	std	Y+15, r25	; 0x0f
  6a:	8e 87       	std	Y+14, r24	; 0x0e
  6c:	df 91       	pop	r29
  6e:	cf 91       	pop	r28
  70:	08 95       	ret

Disassembly of section .text._ZN10W5100Class5writeEjPhj:

00000000 <_ZN10W5100Class5writeEjPhj>:
   0:	cf 92       	push	r12
   2:	df 92       	push	r13
   4:	ef 92       	push	r14
   6:	ff 92       	push	r15
   8:	0f 93       	push	r16
   a:	1f 93       	push	r17
   c:	cf 93       	push	r28
   e:	df 93       	push	r29
  10:	6c 01       	movw	r12, r24
  12:	ea 01       	movw	r28, r20
  14:	e6 2e       	mov	r14, r22
  16:	f7 2e       	mov	r15, r23
  18:	00 e0       	ldi	r16, 0x00	; 0
  1a:	10 e0       	ldi	r17, 0x00	; 0
  1c:	00 c0       	rjmp	.+0      	; 0x1e <_ZN10W5100Class5writeEjPhj+0x1e>
  1e:	0e 94 00 00 	call	0	; 0x0 <_ZN10W5100Class5writeEjPhj>
  22:	80 ef       	ldi	r24, 0xF0	; 240
  24:	0e 94 00 00 	call	0	; 0x0 <_ZN10W5100Class5writeEjPhj>
  28:	8d 2d       	mov	r24, r13
  2a:	0e 94 00 00 	call	0	; 0x0 <_ZN10W5100Class5writeEjPhj>
  2e:	8c 2d       	mov	r24, r12
  30:	0e 94 00 00 	call	0	; 0x0 <_ZN10W5100Class5writeEjPhj>
  34:	08 94       	sec
  36:	c1 1c       	adc	r12, r1
  38:	d1 1c       	adc	r13, r1
  3a:	f7 01       	movw	r30, r14
  3c:	81 91       	ld	r24, Z+
  3e:	7f 01       	movw	r14, r30
  40:	0e 94 00 00 	call	0	; 0x0 <_ZN10W5100Class5writeEjPhj>
  44:	0e 94 00 00 	call	0	; 0x0 <_ZN10W5100Class5writeEjPhj>
  48:	0f 5f       	subi	r16, 0xFF	; 255
  4a:	1f 4f       	sbci	r17, 0xFF	; 255
  4c:	0c 17       	cp	r16, r28
  4e:	1d 07       	cpc	r17, r29
  50:	00 f0       	brcs	.+0      	; 0x52 <_ZN10W5100Class5writeEjPhj+0x52>
  52:	ce 01       	movw	r24, r28
  54:	df 91       	pop	r29
  56:	cf 91       	pop	r28
  58:	1f 91       	pop	r17
  5a:	0f 91       	pop	r16
  5c:	ff 90       	pop	r15
  5e:	ef 90       	pop	r14
  60:	df 90       	pop	r13
  62:	cf 90       	pop	r12
  64:	08 95       	ret

Disassembly of section .text._ZN10W5100Class4readEj:

00000000 <_ZN10W5100Class4readEj>:
   0:	1f 93       	push	r17
   2:	df 93       	push	r29
   4:	cf 93       	push	r28
   6:	0f 92       	push	r0
   8:	cd b7       	in	r28, 0x3d	; 61
   a:	de b7       	in	r29, 0x3e	; 62
   c:	18 2f       	mov	r17, r24
   e:	99 83       	std	Y+1, r25	; 0x01
  10:	0e 94 00 00 	call	0	; 0x0 <_ZN10W5100Class4readEj>
  14:	8f e0       	ldi	r24, 0x0F	; 15
  16:	0e 94 00 00 	call	0	; 0x0 <_ZN10W5100Class4readEj>
  1a:	99 81       	ldd	r25, Y+1	; 0x01
  1c:	89 2f       	mov	r24, r25
  1e:	0e 94 00 00 	call	0	; 0x0 <_ZN10W5100Class4readEj>
  22:	81 2f       	mov	r24, r17
  24:	0e 94 00 00 	call	0	; 0x0 <_ZN10W5100Class4readEj>
  28:	80 e0       	ldi	r24, 0x00	; 0
  2a:	0e 94 00 00 	call	0	; 0x0 <_ZN10W5100Class4readEj>
  2e:	89 83       	std	Y+1, r24	; 0x01
  30:	0e 94 00 00 	call	0	; 0x0 <_ZN10W5100Class4readEj>
  34:	89 81       	ldd	r24, Y+1	; 0x01
  36:	0f 90       	pop	r0
  38:	cf 91       	pop	r28
  3a:	df 91       	pop	r29
  3c:	1f 91       	pop	r17
  3e:	08 95       	ret

Disassembly of section .text._ZN10W5100Class6readSnEhj:

00000000 <_ZN10W5100Class6readSnEhj>:
   0:	90 e0       	ldi	r25, 0x00	; 0
   2:	04 96       	adiw	r24, 0x04	; 4
   4:	98 2f       	mov	r25, r24
   6:	88 27       	eor	r24, r24
   8:	86 0f       	add	r24, r22
   a:	97 1f       	adc	r25, r23
   c:	0e 94 00 00 	call	0	; 0x0 <_ZN10W5100Class6readSnEhj>
  10:	08 95       	ret

Disassembly of section .text._ZN10W5100Class8readSnCREh:

00000000 <_ZN10W5100Class8readSnCREh>:
   0:	61 e0       	ldi	r22, 0x01	; 1
   2:	70 e0       	ldi	r23, 0x00	; 0
   4:	0e 94 00 00 	call	0	; 0x0 <_ZN10W5100Class8readSnCREh>
   8:	08 95       	ret

Disassembly of section .text._ZN10W5100Class11readSnRX_RDEh:

00000000 <_ZN10W5100Class11readSnRX_RDEh>:
   0:	ef 92       	push	r14
   2:	ff 92       	push	r15
   4:	1f 93       	push	r17
   6:	cf 93       	push	r28
   8:	df 93       	push	r29
   a:	18 2f       	mov	r17, r24
   c:	68 e2       	ldi	r22, 0x28	; 40
   e:	70 e0       	ldi	r23, 0x00	; 0
  10:	0e 94 00 00 	call	0	; 0x0 <_ZN10W5100Class11readSnRX_RDEh>
  14:	80 e0       	ldi	r24, 0x00	; 0
  16:	ec 01       	movw	r28, r24
  18:	81 2f       	mov	r24, r17
  1a:	69 e2       	ldi	r22, 0x29	; 41
  1c:	70 e0       	ldi	r23, 0x00	; 0
  1e:	0e 94 00 00 	call	0	; 0x0 <_ZN10W5100Class11readSnRX_RDEh>
  22:	c8 0f       	add	r28, r24
  24:	d1 1d       	adc	r29, r1
  26:	ce 01       	movw	r24, r28
  28:	df 91       	pop	r29
  2a:	cf 91       	pop	r28
  2c:	1f 91       	pop	r17
  2e:	ff 90       	pop	r15
  30:	ef 90       	pop	r14
  32:	08 95       	ret

Disassembly of section .text._ZN10W5100Class11readSnTX_WREh:

00000000 <_ZN10W5100Class11readSnTX_WREh>:
   0:	ef 92       	push	r14
   2:	ff 92       	push	r15
   4:	1f 93       	push	r17
   6:	cf 93       	push	r28
   8:	df 93       	push	r29
   a:	18 2f       	mov	r17, r24
   c:	64 e2       	ldi	r22, 0x24	; 36
   e:	70 e0       	ldi	r23, 0x00	; 0
  10:	0e 94 00 00 	call	0	; 0x0 <_ZN10W5100Class11readSnTX_WREh>
  14:	80 e0       	ldi	r24, 0x00	; 0
  16:	ec 01       	movw	r28, r24
  18:	81 2f       	mov	r24, r17
  1a:	65 e2       	ldi	r22, 0x25	; 37
  1c:	70 e0       	ldi	r23, 0x00	; 0
  1e:	0e 94 00 00 	call	0	; 0x0 <_ZN10W5100Class11readSnTX_WREh>
  22:	c8 0f       	add	r28, r24
  24:	d1 1d       	adc	r29, r1
  26:	ce 01       	movw	r24, r28
  28:	df 91       	pop	r29
  2a:	cf 91       	pop	r28
  2c:	1f 91       	pop	r17
  2e:	ff 90       	pop	r15
  30:	ef 90       	pop	r14
  32:	08 95       	ret

Disassembly of section .text._ZN10W5100Class20send_data_processingEhPhj:

00000000 <_ZN10W5100Class20send_data_processingEhPhj>:
   0:	8f 92       	push	r8
   2:	9f 92       	push	r9
   4:	bf 92       	push	r11
   6:	cf 92       	push	r12
   8:	df 92       	push	r13
   a:	ef 92       	push	r14
   c:	ff 92       	push	r15
   e:	0f 93       	push	r16
  10:	1f 93       	push	r17
  12:	cf 93       	push	r28
  14:	df 93       	push	r29
  16:	7c 01       	movw	r14, r24
  18:	b6 2e       	mov	r11, r22
  1a:	6a 01       	movw	r12, r20
  1c:	89 01       	movw	r16, r18
  1e:	86 2f       	mov	r24, r22
  20:	0e 94 00 00 	call	0	; 0x0 <_ZN10W5100Class20send_data_processingEhPhj>
  24:	4c 01       	movw	r8, r24
  26:	9c 01       	movw	r18, r24
  28:	37 70       	andi	r19, 0x07	; 7
  2a:	8b 2d       	mov	r24, r11
  2c:	90 e0       	ldi	r25, 0x00	; 0
  2e:	88 0f       	add	r24, r24
  30:	99 1f       	adc	r25, r25
  32:	e8 0e       	add	r14, r24
  34:	f9 1e       	adc	r15, r25
  36:	f7 01       	movw	r30, r14
  38:	80 81       	ld	r24, Z
  3a:	91 81       	ldd	r25, Z+1	; 0x01
  3c:	82 0f       	add	r24, r18
  3e:	93 1f       	adc	r25, r19
  40:	a9 01       	movw	r20, r18
  42:	40 0f       	add	r20, r16
  44:	51 1f       	adc	r21, r17
  46:	f8 e0       	ldi	r31, 0x08	; 8
  48:	41 30       	cpi	r20, 0x01	; 1
  4a:	5f 07       	cpc	r21, r31
  4c:	00 f0       	brcs	.+0      	; 0x4e <_ZN10W5100Class20send_data_processingEhPhj+0x4e>
  4e:	c0 e0       	ldi	r28, 0x00	; 0
  50:	d8 e0       	ldi	r29, 0x08	; 8
  52:	c2 1b       	sub	r28, r18
  54:	d3 0b       	sbc	r29, r19
  56:	b6 01       	movw	r22, r12
  58:	ae 01       	movw	r20, r28
  5a:	0e 94 00 00 	call	0	; 0x0 <_ZN10W5100Class20send_data_processingEhPhj>
  5e:	b6 01       	movw	r22, r12
  60:	6c 0f       	add	r22, r28
  62:	7d 1f       	adc	r23, r29
  64:	a8 01       	movw	r20, r16
  66:	4c 1b       	sub	r20, r28
  68:	5d 0b       	sbc	r21, r29
  6a:	f7 01       	movw	r30, r14
  6c:	80 81       	ld	r24, Z
  6e:	91 81       	ldd	r25, Z+1	; 0x01
  70:	00 c0       	rjmp	.+0      	; 0x72 <_ZN10W5100Class20send_data_processingEhPhj+0x72>
  72:	b6 01       	movw	r22, r12
  74:	a8 01       	movw	r20, r16
  76:	0e 94 00 00 	call	0	; 0x0 <_ZN10W5100Class20send_data_processingEhPhj>
  7a:	b4 01       	movw	r22, r8
  7c:	60 0f       	add	r22, r16
  7e:	71 1f       	adc	r23, r17
  80:	8b 2d       	mov	r24, r11
  82:	0e 94 00 00 	call	0	; 0x0 <_ZN10W5100Class20send_data_processingEhPhj>
  86:	df 91       	pop	r29
  88:	cf 91       	pop	r28
  8a:	1f 91       	pop	r17
  8c:	0f 91       	pop	r16
  8e:	ff 90       	pop	r15
  90:	ef 90       	pop	r14
  92:	df 90       	pop	r13
  94:	cf 90       	pop	r12
  96:	bf 90       	pop	r11
  98:	9f 90       	pop	r9
  9a:	8f 90       	pop	r8
  9c:	08 95       	ret

Disassembly of section .text._ZN10W5100Class12readSnRX_RSREh:

00000000 <_ZN10W5100Class12readSnRX_RSREh>:
   0:	ef 92       	push	r14
   2:	ff 92       	push	r15
   4:	1f 93       	push	r17
   6:	cf 93       	push	r28
   8:	df 93       	push	r29
   a:	18 2f       	mov	r17, r24
   c:	66 e2       	ldi	r22, 0x26	; 38
   e:	70 e0       	ldi	r23, 0x00	; 0
  10:	0e 94 00 00 	call	0	; 0x0 <_ZN10W5100Class12readSnRX_RSREh>
  14:	80 e0       	ldi	r24, 0x00	; 0
  16:	ec 01       	movw	r28, r24
  18:	81 2f       	mov	r24, r17
  1a:	67 e2       	ldi	r22, 0x27	; 39
  1c:	70 e0       	ldi	r23, 0x00	; 0
  1e:	0e 94 00 00 	call	0	; 0x0 <_ZN10W5100Class12readSnRX_RSREh>
  22:	c8 0f       	add	r28, r24
  24:	d1 1d       	adc	r29, r1
  26:	ce 01       	movw	r24, r28
  28:	df 91       	pop	r29
  2a:	cf 91       	pop	r28
  2c:	1f 91       	pop	r17
  2e:	ff 90       	pop	r15
  30:	ef 90       	pop	r14
  32:	08 95       	ret

Disassembly of section .text._ZN10W5100Class17getRXReceivedSizeEh:

00000000 <_ZN10W5100Class17getRXReceivedSizeEh>:
   0:	ef 92       	push	r14
   2:	ff 92       	push	r15
   4:	0f 93       	push	r16
   6:	1f 93       	push	r17
   8:	cf 93       	push	r28
   a:	df 93       	push	r29
   c:	f6 2e       	mov	r15, r22
   e:	c0 e0       	ldi	r28, 0x00	; 0
  10:	d0 e0       	ldi	r29, 0x00	; 0
  12:	8f 2d       	mov	r24, r15
  14:	0e 94 00 00 	call	0	; 0x0 <_ZN10W5100Class17getRXReceivedSizeEh>
  18:	8c 01       	movw	r16, r24
  1a:	00 97       	sbiw	r24, 0x00	; 0
  1c:	01 f0       	breq	.+0      	; 0x1e <_ZN10W5100Class17getRXReceivedSizeEh+0x1e>
  1e:	8f 2d       	mov	r24, r15
  20:	0e 94 00 00 	call	0	; 0x0 <_ZN10W5100Class17getRXReceivedSizeEh>
  24:	ec 01       	movw	r28, r24
  26:	c0 17       	cp	r28, r16
  28:	d1 07       	cpc	r29, r17
  2a:	01 f4       	brne	.+0      	; 0x2c <_ZN10W5100Class17getRXReceivedSizeEh+0x2c>
  2c:	ce 01       	movw	r24, r28
  2e:	df 91       	pop	r29
  30:	cf 91       	pop	r28
  32:	1f 91       	pop	r17
  34:	0f 91       	pop	r16
  36:	ff 90       	pop	r15
  38:	ef 90       	pop	r14
  3a:	08 95       	ret

Disassembly of section .text._ZN10W5100Class12readSnTX_FSREh:

00000000 <_ZN10W5100Class12readSnTX_FSREh>:
   0:	ef 92       	push	r14
   2:	ff 92       	push	r15
   4:	1f 93       	push	r17
   6:	cf 93       	push	r28
   8:	df 93       	push	r29
   a:	18 2f       	mov	r17, r24
   c:	60 e2       	ldi	r22, 0x20	; 32
   e:	70 e0       	ldi	r23, 0x00	; 0
  10:	0e 94 00 00 	call	0	; 0x0 <_ZN10W5100Class12readSnTX_FSREh>
  14:	80 e0       	ldi	r24, 0x00	; 0
  16:	ec 01       	movw	r28, r24
  18:	81 2f       	mov	r24, r17
  1a:	61 e2       	ldi	r22, 0x21	; 33
  1c:	70 e0       	ldi	r23, 0x00	; 0
  1e:	0e 94 00 00 	call	0	; 0x0 <_ZN10W5100Class12readSnTX_FSREh>
  22:	c8 0f       	add	r28, r24
  24:	d1 1d       	adc	r29, r1
  26:	ce 01       	movw	r24, r28
  28:	df 91       	pop	r29
  2a:	cf 91       	pop	r28
  2c:	1f 91       	pop	r17
  2e:	ff 90       	pop	r15
  30:	ef 90       	pop	r14
  32:	08 95       	ret

Disassembly of section .text._ZN10W5100Class13getTXFreeSizeEh:

00000000 <_ZN10W5100Class13getTXFreeSizeEh>:
   0:	ef 92       	push	r14
   2:	ff 92       	push	r15
   4:	0f 93       	push	r16
   6:	1f 93       	push	r17
   8:	cf 93       	push	r28
   a:	df 93       	push	r29
   c:	f6 2e       	mov	r15, r22
   e:	c0 e0       	ldi	r28, 0x00	; 0
  10:	d0 e0       	ldi	r29, 0x00	; 0
  12:	8f 2d       	mov	r24, r15
  14:	0e 94 00 00 	call	0	; 0x0 <_ZN10W5100Class13getTXFreeSizeEh>
  18:	8c 01       	movw	r16, r24
  1a:	00 97       	sbiw	r24, 0x00	; 0
  1c:	01 f0       	breq	.+0      	; 0x1e <_ZN10W5100Class13getTXFreeSizeEh+0x1e>
  1e:	8f 2d       	mov	r24, r15
  20:	0e 94 00 00 	call	0	; 0x0 <_ZN10W5100Class13getTXFreeSizeEh>
  24:	ec 01       	movw	r28, r24
  26:	c0 17       	cp	r28, r16
  28:	d1 07       	cpc	r29, r17
  2a:	01 f4       	brne	.+0      	; 0x2c <_ZN10W5100Class13getTXFreeSizeEh+0x2c>
  2c:	ce 01       	movw	r24, r28
  2e:	df 91       	pop	r29
  30:	cf 91       	pop	r28
  32:	1f 91       	pop	r17
  34:	0f 91       	pop	r16
  36:	ff 90       	pop	r15
  38:	ef 90       	pop	r14
  3a:	08 95       	ret

Disassembly of section .text._ZN10W5100Class4readEjPhj:

00000000 <_ZN10W5100Class4readEjPhj>:
   0:	cf 92       	push	r12
   2:	df 92       	push	r13
   4:	ef 92       	push	r14
   6:	ff 92       	push	r15
   8:	0f 93       	push	r16
   a:	1f 93       	push	r17
   c:	cf 93       	push	r28
   e:	df 93       	push	r29
  10:	6c 01       	movw	r12, r24
  12:	ea 01       	movw	r28, r20
  14:	e6 2e       	mov	r14, r22
  16:	f7 2e       	mov	r15, r23
  18:	00 e0       	ldi	r16, 0x00	; 0
  1a:	10 e0       	ldi	r17, 0x00	; 0
  1c:	00 c0       	rjmp	.+0      	; 0x1e <_ZN10W5100Class4readEjPhj+0x1e>
  1e:	0e 94 00 00 	call	0	; 0x0 <_ZN10W5100Class4readEjPhj>
  22:	8f e0       	ldi	r24, 0x0F	; 15
  24:	0e 94 00 00 	call	0	; 0x0 <_ZN10W5100Class4readEjPhj>
  28:	8d 2d       	mov	r24, r13
  2a:	0e 94 00 00 	call	0	; 0x0 <_ZN10W5100Class4readEjPhj>
  2e:	8c 2d       	mov	r24, r12
  30:	0e 94 00 00 	call	0	; 0x0 <_ZN10W5100Class4readEjPhj>
  34:	08 94       	sec
  36:	c1 1c       	adc	r12, r1
  38:	d1 1c       	adc	r13, r1
  3a:	80 e0       	ldi	r24, 0x00	; 0
  3c:	0e 94 00 00 	call	0	; 0x0 <_ZN10W5100Class4readEjPhj>
  40:	f7 01       	movw	r30, r14
  42:	81 93       	st	Z+, r24
  44:	7f 01       	movw	r14, r30
  46:	0e 94 00 00 	call	0	; 0x0 <_ZN10W5100Class4readEjPhj>
  4a:	0f 5f       	subi	r16, 0xFF	; 255
  4c:	1f 4f       	sbci	r17, 0xFF	; 255
  4e:	0c 17       	cp	r16, r28
  50:	1d 07       	cpc	r17, r29
  52:	00 f0       	brcs	.+0      	; 0x54 <_ZN10W5100Class4readEjPhj+0x54>
  54:	ce 01       	movw	r24, r28
  56:	df 91       	pop	r29
  58:	cf 91       	pop	r28
  5a:	1f 91       	pop	r17
  5c:	0f 91       	pop	r16
  5e:	ff 90       	pop	r15
  60:	ef 90       	pop	r14
  62:	df 90       	pop	r13
  64:	cf 90       	pop	r12
  66:	08 95       	ret

Disassembly of section .text._ZN10W5100Class9read_dataEhPVhS1_j:

00000000 <_ZN10W5100Class9read_dataEhPVhS1_j>:
   0:	cf 92       	push	r12
   2:	df 92       	push	r13
   4:	ef 92       	push	r14
   6:	ff 92       	push	r15
   8:	0f 93       	push	r16
   a:	1f 93       	push	r17
   c:	cf 93       	push	r28
   e:	df 93       	push	r29
  10:	69 01       	movw	r12, r18
  12:	78 01       	movw	r14, r16
  14:	57 70       	andi	r21, 0x07	; 7
  16:	c6 2f       	mov	r28, r22
  18:	d0 e0       	ldi	r29, 0x00	; 0
  1a:	24 96       	adiw	r28, 0x04	; 4
  1c:	cc 0f       	add	r28, r28
  1e:	dd 1f       	adc	r29, r29
  20:	c8 0f       	add	r28, r24
  22:	d9 1f       	adc	r29, r25
  24:	88 81       	ld	r24, Y
  26:	99 81       	ldd	r25, Y+1	; 0x01
  28:	84 0f       	add	r24, r20
  2a:	95 1f       	adc	r25, r21
  2c:	98 01       	movw	r18, r16
  2e:	24 0f       	add	r18, r20
  30:	35 1f       	adc	r19, r21
  32:	68 e0       	ldi	r22, 0x08	; 8
  34:	21 30       	cpi	r18, 0x01	; 1
  36:	36 07       	cpc	r19, r22
  38:	00 f0       	brcs	.+0      	; 0x3a <_ZN10W5100Class9read_dataEhPVhS1_j+0x3a>
  3a:	00 e0       	ldi	r16, 0x00	; 0
  3c:	18 e0       	ldi	r17, 0x08	; 8
  3e:	04 1b       	sub	r16, r20
  40:	15 0b       	sbc	r17, r21
  42:	b6 01       	movw	r22, r12
  44:	a8 01       	movw	r20, r16
  46:	0e 94 00 00 	call	0	; 0x0 <_ZN10W5100Class9read_dataEhPVhS1_j>
  4a:	b6 01       	movw	r22, r12
  4c:	60 0f       	add	r22, r16
  4e:	71 1f       	adc	r23, r17
  50:	a7 01       	movw	r20, r14
  52:	40 1b       	sub	r20, r16
  54:	51 0b       	sbc	r21, r17
  56:	88 81       	ld	r24, Y
  58:	99 81       	ldd	r25, Y+1	; 0x01
  5a:	00 c0       	rjmp	.+0      	; 0x5c <_ZN10W5100Class9read_dataEhPVhS1_j+0x5c>
  5c:	b6 01       	movw	r22, r12
  5e:	a8 01       	movw	r20, r16
  60:	0e 94 00 00 	call	0	; 0x0 <_ZN10W5100Class9read_dataEhPVhS1_j>
  64:	df 91       	pop	r29
  66:	cf 91       	pop	r28
  68:	1f 91       	pop	r17
  6a:	0f 91       	pop	r16
  6c:	ff 90       	pop	r15
  6e:	ef 90       	pop	r14
  70:	df 90       	pop	r13
  72:	cf 90       	pop	r12
  74:	08 95       	ret

Disassembly of section .text._ZN10W5100Class20recv_data_processingEhPhjh:

00000000 <_ZN10W5100Class20recv_data_processingEhPhjh>:
   0:	8f 92       	push	r8
   2:	9f 92       	push	r9
   4:	af 92       	push	r10
   6:	bf 92       	push	r11
   8:	cf 92       	push	r12
   a:	df 92       	push	r13
   c:	ef 92       	push	r14
   e:	ff 92       	push	r15
  10:	0f 93       	push	r16
  12:	1f 93       	push	r17
  14:	cf 93       	push	r28
  16:	df 93       	push	r29
  18:	5c 01       	movw	r10, r24
  1a:	e6 2e       	mov	r14, r22
  1c:	4a 01       	movw	r8, r20
  1e:	69 01       	movw	r12, r18
  20:	f0 2e       	mov	r15, r16
  22:	86 2f       	mov	r24, r22
  24:	0e 94 00 00 	call	0	; 0x0 <_ZN10W5100Class20recv_data_processingEhPhjh>
  28:	ec 01       	movw	r28, r24
  2a:	c5 01       	movw	r24, r10
  2c:	6e 2d       	mov	r22, r14
  2e:	ae 01       	movw	r20, r28
  30:	94 01       	movw	r18, r8
  32:	86 01       	movw	r16, r12
  34:	0e 94 00 00 	call	0	; 0x0 <_ZN10W5100Class20recv_data_processingEhPhjh>
  38:	ff 20       	and	r15, r15
  3a:	01 f4       	brne	.+0      	; 0x3c <_ZN10W5100Class20recv_data_processingEhPhjh+0x3c>
  3c:	be 01       	movw	r22, r28
  3e:	6c 0d       	add	r22, r12
  40:	7d 1d       	adc	r23, r13
  42:	8e 2d       	mov	r24, r14
  44:	0e 94 00 00 	call	0	; 0x0 <_ZN10W5100Class20recv_data_processingEhPhjh>
  48:	df 91       	pop	r29
  4a:	cf 91       	pop	r28
  4c:	1f 91       	pop	r17
  4e:	0f 91       	pop	r16
  50:	ff 90       	pop	r15
  52:	ef 90       	pop	r14
  54:	df 90       	pop	r13
  56:	cf 90       	pop	r12
  58:	bf 90       	pop	r11
  5a:	af 90       	pop	r10
  5c:	9f 90       	pop	r9
  5e:	8f 90       	pop	r8
  60:	08 95       	ret

Disassembly of section .text._ZN10W5100Class9execCmdSnEh7SockCMD:

00000000 <_ZN10W5100Class9execCmdSnEh7SockCMD>:
   0:	1f 93       	push	r17
   2:	16 2f       	mov	r17, r22
   4:	86 2f       	mov	r24, r22
   6:	64 2f       	mov	r22, r20
   8:	0e 94 00 00 	call	0	; 0x0 <_ZN10W5100Class9execCmdSnEh7SockCMD>
   c:	81 2f       	mov	r24, r17
   e:	0e 94 00 00 	call	0	; 0x0 <_ZN10W5100Class9execCmdSnEh7SockCMD>
  12:	88 23       	and	r24, r24
  14:	01 f4       	brne	.+0      	; 0x16 <_ZN10W5100Class9execCmdSnEh7SockCMD+0x16>
  16:	1f 91       	pop	r17
  18:	08 95       	ret

Client.o:     file format elf32-avr

Sections:
Idx Name          Size      VMA       LMA       File off  Algn
  0 .text         00000000  00000000  00000000  00000034  2**0
                  CONTENTS, ALLOC, LOAD, READONLY, CODE
  1 .data         00000000  00000000  00000000  00000034  2**0
                  CONTENTS, ALLOC, LOAD, DATA
  2 .bss          00000000  00000000  00000000  00000034  2**0
                  ALLOC
  3 .text._ZN6Client5flushEv 0000002e  00000000  00000000  00000034  2**0
                  CONTENTS, ALLOC, LOAD, RELOC, READONLY, CODE
  4 .text._ZN6Client4peekEv 00000048  00000000  00000000  00000062  2**0
                  CONTENTS, ALLOC, LOAD, RELOC, READONLY, CODE
  5 .text._ZN6Client4readEv 0000004c  00000000  00000000  000000aa  2**0
                  CONTENTS, ALLOC, LOAD, RELOC, READONLY, CODE
  6 .text._ZN6Client9availableEv 0000001e  00000000  00000000  000000f6  2**0
                  CONTENTS, ALLOC, LOAD, RELOC, READONLY, CODE
  7 .text._ZN6Client5writeEPKhj 0000000e  00000000  00000000  00000114  2**0
                  CONTENTS, ALLOC, LOAD, RELOC, READONLY, CODE
  8 .text._ZN6Client5writeEh 0000002a  00000000  00000000  00000122  2**0
                  CONTENTS, ALLOC, LOAD, RELOC, READONLY, CODE
  9 .text._ZN6Client5writeEPKc 00000024  00000000  00000000  0000014c  2**0
                  CONTENTS, ALLOC, LOAD, RELOC, READONLY, CODE
 10 .text._ZN10W5100Class6readSnEhj 00000012  00000000  00000000  00000170  2**0
                  CONTENTS, ALLOC, LOAD, RELOC, READONLY, CODE
 11 .text._ZN10W5100Class8readSnSREh 0000000a  00000000  00000000  00000182  2**0
                  CONTENTS, ALLOC, LOAD, RELOC, READONLY, CODE
 12 .text._ZN6ClientC2Eh 0000000e  00000000  00000000  0000018c  2**0
                  CONTENTS, ALLOC, LOAD, RELOC, READONLY, CODE
 13 .text._ZN6ClientC2EPhj 00000018  00000000  00000000  0000019a  2**0
                  CONTENTS, ALLOC, LOAD, RELOC, READONLY, CODE
 14 .text._ZN6Client6statusEv 00000012  00000000  00000000  000001b2  2**0
                  CONTENTS, ALLOC, LOAD, RELOC, READONLY, CODE
 15 .text._ZN6Client9connectedEv 00000048  00000000  00000000  000001c4  2**0
                  CONTENTS, ALLOC, LOAD, RELOC, READONLY, CODE
 16 .text._ZN6Client4stopEv 0000008a  00000000  00000000  0000020c  2**0
                  CONTENTS, ALLOC, LOAD, RELOC, READONLY, CODE
 17 .text._ZN6Client7connectEv 000000ba  00000000  00000000  00000296  2**0
                  CONTENTS, ALLOC, LOAD, RELOC, READONLY, CODE
 18 .text._ZN6ClienteqEi 00000010  00000000  00000000  00000350  2**0
                  CONTENTS, ALLOC, LOAD, RELOC, READONLY, CODE
 19 .text._ZN6ClientneEi 00000010  00000000  00000000  00000360  2**0
                  CONTENTS, ALLOC, LOAD, RELOC, READONLY, CODE
 20 .text._ZN6ClientcvbEv 00000010  00000000  00000000  00000370  2**0
                  CONTENTS, ALLOC, LOAD, RELOC, READONLY, CODE
 21 .data._ZN6Client8_srcportE 00000002  00000000  00000000  00000380  2**0
                  CONTENTS, ALLOC, LOAD, DATA
 22 .rodata._ZTV6Client 00000012  00000000  00000000  00000382  2**0
                  CONTENTS, ALLOC, LOAD, RELOC, READONLY, DATA
 23 .rodata._ZTV6Stream 00000010  00000000  00000000  00000394  2**0
                  CONTENTS, ALLOC, LOAD, RELOC, READONLY, DATA

Disassembly of section .text._ZN6Client5flushEv:

00000000 <_ZN6Client5flushEv>:
   0:	cf 93       	push	r28
   2:	df 93       	push	r29
   4:	ec 01       	movw	r28, r24
   6:	00 c0       	rjmp	.+0      	; 0x8 <_ZN6Client5flushEv+0x8>
   8:	e8 81       	ld	r30, Y
   a:	f9 81       	ldd	r31, Y+1	; 0x01
   c:	00 84       	ldd	r0, Z+8	; 0x08
   e:	f1 85       	ldd	r31, Z+9	; 0x09
  10:	e0 2d       	mov	r30, r0
  12:	ce 01       	movw	r24, r28
  14:	19 95       	eicall
  16:	e8 81       	ld	r30, Y
  18:	f9 81       	ldd	r31, Y+1	; 0x01
  1a:	06 80       	ldd	r0, Z+6	; 0x06
  1c:	f7 81       	ldd	r31, Z+7	; 0x07
  1e:	e0 2d       	mov	r30, r0
  20:	ce 01       	movw	r24, r28
  22:	19 95       	eicall
  24:	00 97       	sbiw	r24, 0x00	; 0
  26:	01 f4       	brne	.+0      	; 0x28 <_ZN6Client5flushEv+0x28>
  28:	df 91       	pop	r29
  2a:	cf 91       	pop	r28
  2c:	08 95       	ret

Disassembly of section .text._ZN6Client4peekEv:

00000000 <_ZN6Client4peekEv>:
   0:	0f 93       	push	r16
   2:	1f 93       	push	r17
   4:	df 93       	push	r29
   6:	cf 93       	push	r28
   8:	0f 92       	push	r0
   a:	cd b7       	in	r28, 0x3d	; 61
   c:	de b7       	in	r29, 0x3e	; 62
   e:	8c 01       	movw	r16, r24
  10:	dc 01       	movw	r26, r24
  12:	ed 91       	ld	r30, X+
  14:	fc 91       	ld	r31, X
  16:	06 80       	ldd	r0, Z+6	; 0x06
  18:	f7 81       	ldd	r31, Z+7	; 0x07
  1a:	e0 2d       	mov	r30, r0
  1c:	19 95       	eicall
  1e:	00 97       	sbiw	r24, 0x00	; 0
  20:	01 f0       	breq	.+0      	; 0x22 <_ZN6Client4peekEv+0x22>
  22:	f8 01       	movw	r30, r16
  24:	82 81       	ldd	r24, Z+2	; 0x02
  26:	be 01       	movw	r22, r28
  28:	6f 5f       	subi	r22, 0xFF	; 255
  2a:	7f 4f       	sbci	r23, 0xFF	; 255
  2c:	0e 94 00 00 	call	0	; 0x0 <_ZN6Client4peekEv>
  30:	29 81       	ldd	r18, Y+1	; 0x01
  32:	30 e0       	ldi	r19, 0x00	; 0
  34:	00 c0       	rjmp	.+0      	; 0x36 <_ZN6Client4peekEv+0x36>
  36:	2f ef       	ldi	r18, 0xFF	; 255
  38:	3f ef       	ldi	r19, 0xFF	; 255
  3a:	c9 01       	movw	r24, r18
  3c:	0f 90       	pop	r0
  3e:	cf 91       	pop	r28
  40:	df 91       	pop	r29
  42:	1f 91       	pop	r17
  44:	0f 91       	pop	r16
  46:	08 95       	ret

Disassembly of section .text._ZN6Client4readEv:

00000000 <_ZN6Client4readEv>:
   0:	0f 93       	push	r16
   2:	1f 93       	push	r17
   4:	df 93       	push	r29
   6:	cf 93       	push	r28
   8:	0f 92       	push	r0
   a:	cd b7       	in	r28, 0x3d	; 61
   c:	de b7       	in	r29, 0x3e	; 62
   e:	8c 01       	movw	r16, r24
  10:	dc 01       	movw	r26, r24
  12:	ed 91       	ld	r30, X+
  14:	fc 91       	ld	r31, X
  16:	06 80       	ldd	r0, Z+6	; 0x06
  18:	f7 81       	ldd	r31, Z+7	; 0x07
  1a:	e0 2d       	mov	r30, r0
  1c:	19 95       	eicall
  1e:	00 97       	sbiw	r24, 0x00	; 0
  20:	01 f0       	breq	.+0      	; 0x22 <_ZN6Client4readEv+0x22>
  22:	f8 01       	movw	r30, r16
  24:	82 81       	ldd	r24, Z+2	; 0x02
  26:	be 01       	movw	r22, r28
  28:	6f 5f       	subi	r22, 0xFF	; 255
  2a:	7f 4f       	sbci	r23, 0xFF	; 255
  2c:	41 e0       	ldi	r20, 0x01	; 1
  2e:	50 e0       	ldi	r21, 0x00	; 0
  30:	0e 94 00 00 	call	0	; 0x0 <_ZN6Client4readEv>
  34:	29 81       	ldd	r18, Y+1	; 0x01
  36:	30 e0       	ldi	r19, 0x00	; 0
  38:	00 c0       	rjmp	.+0      	; 0x3a <_ZN6Client4readEv+0x3a>
  3a:	2f ef       	ldi	r18, 0xFF	; 255
  3c:	3f ef       	ldi	r19, 0xFF	; 255
  3e:	c9 01       	movw	r24, r18
  40:	0f 90       	pop	r0
  42:	cf 91       	pop	r28
  44:	df 91       	pop	r29
  46:	1f 91       	pop	r17
  48:	0f 91       	pop	r16
  4a:	08 95       	ret

Disassembly of section .text._ZN6Client9availableEv:

00000000 <_ZN6Client9availableEv>:
   0:	fc 01       	movw	r30, r24
   2:	62 81       	ldd	r22, Z+2	; 0x02
   4:	64 30       	cpi	r22, 0x04	; 4
   6:	01 f0       	breq	.+0      	; 0x8 <_ZN6Client9availableEv+0x8>
   8:	80 e0       	ldi	r24, 0x00	; 0
   a:	90 e0       	ldi	r25, 0x00	; 0
   c:	0e 94 00 00 	call	0	; 0x0 <_ZN6Client9availableEv>
  10:	28 2f       	mov	r18, r24
  12:	39 2f       	mov	r19, r25
  14:	00 c0       	rjmp	.+0      	; 0x16 <_ZN6Client9availableEv+0x16>
  16:	20 e0       	ldi	r18, 0x00	; 0
  18:	30 e0       	ldi	r19, 0x00	; 0
  1a:	c9 01       	movw	r24, r18
  1c:	08 95       	ret

Disassembly of section .text._ZN6Client5writeEPKhj:

00000000 <_ZN6Client5writeEPKhj>:
   0:	fc 01       	movw	r30, r24
   2:	82 81       	ldd	r24, Z+2	; 0x02
   4:	84 30       	cpi	r24, 0x04	; 4
   6:	01 f0       	breq	.+0      	; 0x8 <_ZN6Client5writeEPKhj+0x8>
   8:	0e 94 00 00 	call	0	; 0x0 <_ZN6Client5writeEPKhj>
   c:	08 95       	ret

Disassembly of section .text._ZN6Client5writeEh:

00000000 <_ZN6Client5writeEh>:
   0:	df 93       	push	r29
   2:	cf 93       	push	r28
   4:	0f 92       	push	r0
   6:	cd b7       	in	r28, 0x3d	; 61
   8:	de b7       	in	r29, 0x3e	; 62
   a:	69 83       	std	Y+1, r22	; 0x01
   c:	fc 01       	movw	r30, r24
   e:	82 81       	ldd	r24, Z+2	; 0x02
  10:	84 30       	cpi	r24, 0x04	; 4
  12:	01 f0       	breq	.+0      	; 0x14 <_ZN6Client5writeEh+0x14>
  14:	be 01       	movw	r22, r28
  16:	6f 5f       	subi	r22, 0xFF	; 255
  18:	7f 4f       	sbci	r23, 0xFF	; 255
  1a:	41 e0       	ldi	r20, 0x01	; 1
  1c:	50 e0       	ldi	r21, 0x00	; 0
  1e:	0e 94 00 00 	call	0	; 0x0 <_ZN6Client5writeEh>
  22:	0f 90       	pop	r0
  24:	cf 91       	pop	r28
  26:	df 91       	pop	r29
  28:	08 95       	ret

Disassembly of section .text._ZN6Client5writeEPKc:

00000000 <_ZN6Client5writeEPKc>:
   0:	dc 01       	movw	r26, r24
   2:	12 96       	adiw	r26, 0x02	; 2
   4:	8c 91       	ld	r24, X
   6:	12 97       	sbiw	r26, 0x02	; 2
   8:	84 30       	cpi	r24, 0x04	; 4
   a:	01 f0       	breq	.+0      	; 0xc <_ZN6Client5writeEPKc+0xc>
   c:	db 01       	movw	r26, r22
   e:	0d 90       	ld	r0, X+
  10:	00 20       	and	r0, r0
  12:	01 f4       	brne	.+0      	; 0x14 <_ZN6Client5writeEPKc+0x14>
  14:	ad 01       	movw	r20, r26
  16:	41 50       	subi	r20, 0x01	; 1
  18:	50 40       	sbci	r21, 0x00	; 0
  1a:	46 1b       	sub	r20, r22
  1c:	57 0b       	sbc	r21, r23
  1e:	0e 94 00 00 	call	0	; 0x0 <_ZN6Client5writeEPKc>
  22:	08 95       	ret

Disassembly of section .text._ZN10W5100Class6readSnEhj:

00000000 <_ZN10W5100Class6readSnEhj>:
   0:	90 e0       	ldi	r25, 0x00	; 0
   2:	04 96       	adiw	r24, 0x04	; 4
   4:	98 2f       	mov	r25, r24
   6:	88 27       	eor	r24, r24
   8:	86 0f       	add	r24, r22
   a:	97 1f       	adc	r25, r23
   c:	0e 94 00 00 	call	0	; 0x0 <_ZN10W5100Class6readSnEhj>
  10:	08 95       	ret

Disassembly of section .text._ZN10W5100Class8readSnSREh:

00000000 <_ZN10W5100Class8readSnSREh>:
   0:	63 e0       	ldi	r22, 0x03	; 3
   2:	70 e0       	ldi	r23, 0x00	; 0
   4:	0e 94 00 00 	call	0	; 0x0 <_ZN10W5100Class8readSnSREh>
   8:	08 95       	ret

Disassembly of section .text._ZN6ClientC2Eh:

00000000 <_ZN6ClientC1Eh>:
   0:	fc 01       	movw	r30, r24
   2:	80 e0       	ldi	r24, 0x00	; 0
   4:	90 e0       	ldi	r25, 0x00	; 0
   6:	91 83       	std	Z+1, r25	; 0x01
   8:	80 83       	st	Z, r24
   a:	62 83       	std	Z+2, r22	; 0x02
   c:	08 95       	ret

Disassembly of section .text._ZN6ClientC2EPhj:

00000000 <_ZN6ClientC1EPhj>:
   0:	fc 01       	movw	r30, r24
   2:	80 e0       	ldi	r24, 0x00	; 0
   4:	90 e0       	ldi	r25, 0x00	; 0
   6:	91 83       	std	Z+1, r25	; 0x01
   8:	80 83       	st	Z, r24
   a:	84 e0       	ldi	r24, 0x04	; 4
   c:	82 83       	std	Z+2, r24	; 0x02
   e:	74 83       	std	Z+4, r23	; 0x04
  10:	63 83       	std	Z+3, r22	; 0x03
  12:	56 83       	std	Z+6, r21	; 0x06
  14:	45 83       	std	Z+5, r20	; 0x05
  16:	08 95       	ret

Disassembly of section .text._ZN6Client6statusEv:

00000000 <_ZN6Client6statusEv>:
   0:	fc 01       	movw	r30, r24
   2:	82 81       	ldd	r24, Z+2	; 0x02
   4:	84 30       	cpi	r24, 0x04	; 4
   6:	01 f0       	breq	.+0      	; 0x8 <_ZN6Client6statusEv+0x8>
   8:	0e 94 00 00 	call	0	; 0x0 <_ZN6Client6statusEv>
   c:	08 95       	ret
   e:	80 e0       	ldi	r24, 0x00	; 0
  10:	08 95       	ret

Disassembly of section .text._ZN6Client9connectedEv:

00000000 <_ZN6Client9connectedEv>:
   0:	cf 93       	push	r28
   2:	df 93       	push	r29
   4:	ec 01       	movw	r28, r24
   6:	8a 81       	ldd	r24, Y+2	; 0x02
   8:	84 30       	cpi	r24, 0x04	; 4
   a:	01 f0       	breq	.+0      	; 0xc <_ZN6Client9connectedEv+0xc>
   c:	ce 01       	movw	r24, r28
   e:	0e 94 00 00 	call	0	; 0x0 <_ZN6Client9connectedEv>
  12:	84 31       	cpi	r24, 0x14	; 20
  14:	01 f0       	breq	.+0      	; 0x16 <_ZN6Client9connectedEv+0x16>
  16:	88 23       	and	r24, r24
  18:	01 f0       	breq	.+0      	; 0x1a <_ZN6Client9connectedEv+0x1a>
  1a:	88 31       	cpi	r24, 0x18	; 24
  1c:	01 f0       	breq	.+0      	; 0x1e <_ZN6Client9connectedEv+0x1e>
  1e:	8c 31       	cpi	r24, 0x1C	; 28
  20:	01 f4       	brne	.+0      	; 0x22 <_ZN6Client9connectedEv+0x22>
  22:	e8 81       	ld	r30, Y
  24:	f9 81       	ldd	r31, Y+1	; 0x01
  26:	06 80       	ldd	r0, Z+6	; 0x06
  28:	f7 81       	ldd	r31, Z+7	; 0x07
  2a:	e0 2d       	mov	r30, r0
  2c:	ce 01       	movw	r24, r28
  2e:	19 95       	eicall
  30:	21 e0       	ldi	r18, 0x01	; 1
  32:	00 97       	sbiw	r24, 0x00	; 0
  34:	01 f4       	brne	.+0      	; 0x36 <_ZN6Client9connectedEv+0x36>
  36:	20 e0       	ldi	r18, 0x00	; 0
  38:	00 c0       	rjmp	.+0      	; 0x3a <_ZN6Client9connectedEv+0x3a>
  3a:	21 e0       	ldi	r18, 0x01	; 1
  3c:	82 2f       	mov	r24, r18
  3e:	00 c0       	rjmp	.+0      	; 0x40 <_ZN6Client9connectedEv+0x40>
  40:	80 e0       	ldi	r24, 0x00	; 0
  42:	df 91       	pop	r29
  44:	cf 91       	pop	r28
  46:	08 95       	ret

Disassembly of section .text._ZN6Client4stopEv:

00000000 <_ZN6Client4stopEv>:
   0:	ef 92       	push	r14
   2:	ff 92       	push	r15
   4:	0f 93       	push	r16
   6:	1f 93       	push	r17
   8:	cf 93       	push	r28
   a:	df 93       	push	r29
   c:	ec 01       	movw	r28, r24
   e:	8a 81       	ldd	r24, Y+2	; 0x02
  10:	84 30       	cpi	r24, 0x04	; 4
  12:	01 f0       	breq	.+0      	; 0x14 <_ZN6Client4stopEv+0x14>
  14:	0e 94 00 00 	call	0	; 0x0 <_ZN6Client4stopEv>
  18:	0e 94 00 00 	call	0	; 0x0 <_ZN6Client4stopEv>
  1c:	7b 01       	movw	r14, r22
  1e:	8c 01       	movw	r16, r24
  20:	ce 01       	movw	r24, r28
  22:	0e 94 00 00 	call	0	; 0x0 <_ZN6Client4stopEv>
  26:	88 23       	and	r24, r24
  28:	01 f0       	breq	.+0      	; 0x2a <_ZN6Client4stopEv+0x2a>
  2a:	0e 94 00 00 	call	0	; 0x0 <_ZN6Client4stopEv>
  2e:	6e 19       	sub	r22, r14
  30:	7f 09       	sbc	r23, r15
  32:	80 0b       	sbc	r24, r16
  34:	91 0b       	sbc	r25, r17
  36:	68 3e       	cpi	r22, 0xE8	; 232
  38:	23 e0       	ldi	r18, 0x03	; 3
  3a:	72 07       	cpc	r23, r18
  3c:	20 e0       	ldi	r18, 0x00	; 0
  3e:	82 07       	cpc	r24, r18
  40:	20 e0       	ldi	r18, 0x00	; 0
  42:	92 07       	cpc	r25, r18
  44:	00 f4       	brcc	.+0      	; 0x46 <_ZN6Client4stopEv+0x46>
  46:	61 e0       	ldi	r22, 0x01	; 1
  48:	70 e0       	ldi	r23, 0x00	; 0
  4a:	80 e0       	ldi	r24, 0x00	; 0
  4c:	90 e0       	ldi	r25, 0x00	; 0
  4e:	0e 94 00 00 	call	0	; 0x0 <_ZN6Client4stopEv>
  52:	00 c0       	rjmp	.+0      	; 0x54 <_ZN6Client4stopEv+0x54>
  54:	8a 81       	ldd	r24, Y+2	; 0x02
  56:	0e 94 00 00 	call	0	; 0x0 <_ZN6Client4stopEv>
  5a:	ea 81       	ldd	r30, Y+2	; 0x02
  5c:	f0 e0       	ldi	r31, 0x00	; 0
  5e:	ee 0f       	add	r30, r30
  60:	ff 1f       	adc	r31, r31
  62:	e0 50       	subi	r30, 0x00	; 0
  64:	f0 40       	sbci	r31, 0x00	; 0
  66:	11 82       	std	Z+1, r1	; 0x01
  68:	10 82       	st	Z, r1
  6a:	84 e0       	ldi	r24, 0x04	; 4
  6c:	8a 83       	std	Y+2, r24	; 0x02
  6e:	00 c0       	rjmp	.+0      	; 0x70 <_ZN6Client4stopEv+0x70>
  70:	ce 01       	movw	r24, r28
  72:	0e 94 00 00 	call	0	; 0x0 <_ZN6Client4stopEv>
  76:	88 23       	and	r24, r24
  78:	01 f0       	breq	.+0      	; 0x7a <_ZN6Client4stopEv+0x7a>
  7a:	00 c0       	rjmp	.+0      	; 0x7c <_ZN6Client4stopEv+0x7c>
  7c:	df 91       	pop	r29
  7e:	cf 91       	pop	r28
  80:	1f 91       	pop	r17
  82:	0f 91       	pop	r16
  84:	ff 90       	pop	r15
  86:	ef 90       	pop	r14
  88:	08 95       	ret

Disassembly of section .text._ZN6Client7connectEv:

00000000 <_ZN6Client7connectEv>:
   0:	ff 92       	push	r15
   2:	0f 93       	push	r16
   4:	1f 93       	push	r17
   6:	cf 93       	push	r28
   8:	df 93       	push	r29
   a:	ec 01       	movw	r28, r24
   c:	8a 81       	ldd	r24, Y+2	; 0x02
   e:	84 30       	cpi	r24, 0x04	; 4
  10:	01 f0       	breq	.+0      	; 0x12 <_ZN6Client7connectEv+0x12>
  12:	00 c0       	rjmp	.+0      	; 0x14 <_ZN6Client7connectEv+0x14>
  14:	00 e0       	ldi	r16, 0x00	; 0
  16:	10 e0       	ldi	r17, 0x00	; 0
  18:	f0 2e       	mov	r15, r16
  1a:	80 2f       	mov	r24, r16
  1c:	0e 94 00 00 	call	0	; 0x0 <_ZN6Client7connectEv>
  20:	88 23       	and	r24, r24
  22:	01 f0       	breq	.+0      	; 0x24 <_ZN6Client7connectEv+0x24>
  24:	88 31       	cpi	r24, 0x18	; 24
  26:	01 f4       	brne	.+0      	; 0x28 <_ZN6Client7connectEv+0x28>
  28:	fa 82       	std	Y+2, r15	; 0x02
  2a:	00 c0       	rjmp	.+0      	; 0x2c <_ZN6Client7connectEv+0x2c>
  2c:	0f 5f       	subi	r16, 0xFF	; 255
  2e:	1f 4f       	sbci	r17, 0xFF	; 255
  30:	04 30       	cpi	r16, 0x04	; 4
  32:	11 05       	cpc	r17, r1
  34:	01 f4       	brne	.+0      	; 0x36 <_ZN6Client7connectEv+0x36>
  36:	8a 81       	ldd	r24, Y+2	; 0x02
  38:	84 30       	cpi	r24, 0x04	; 4
  3a:	01 f0       	breq	.+0      	; 0x3c <_ZN6Client7connectEv+0x3c>
  3c:	20 91 00 00 	lds	r18, 0x0000
  40:	30 91 00 00 	lds	r19, 0x0000
  44:	2f 5f       	subi	r18, 0xFF	; 255
  46:	3f 4f       	sbci	r19, 0xFF	; 255
  48:	30 93 00 00 	sts	0x0000, r19
  4c:	20 93 00 00 	sts	0x0000, r18
  50:	21 15       	cp	r18, r1
  52:	31 05       	cpc	r19, r1
  54:	01 f4       	brne	.+0      	; 0x56 <_ZN6Client7connectEv+0x56>
  56:	20 e0       	ldi	r18, 0x00	; 0
  58:	34 e0       	ldi	r19, 0x04	; 4
  5a:	30 93 00 00 	sts	0x0000, r19
  5e:	20 93 00 00 	sts	0x0000, r18
  62:	40 91 00 00 	lds	r20, 0x0000
  66:	50 91 00 00 	lds	r21, 0x0000
  6a:	61 e0       	ldi	r22, 0x01	; 1
  6c:	20 e0       	ldi	r18, 0x00	; 0
  6e:	0e 94 00 00 	call	0	; 0x0 <_ZN6Client7connectEv>
  72:	6b 81       	ldd	r22, Y+3	; 0x03
  74:	7c 81       	ldd	r23, Y+4	; 0x04
  76:	4d 81       	ldd	r20, Y+5	; 0x05
  78:	5e 81       	ldd	r21, Y+6	; 0x06
  7a:	8a 81       	ldd	r24, Y+2	; 0x02
  7c:	0e 94 00 00 	call	0	; 0x0 <_ZN6Client7connectEv>
  80:	00 c0       	rjmp	.+0      	; 0x82 <_ZN6Client7connectEv+0x82>
  82:	61 e0       	ldi	r22, 0x01	; 1
  84:	70 e0       	ldi	r23, 0x00	; 0
  86:	80 e0       	ldi	r24, 0x00	; 0
  88:	90 e0       	ldi	r25, 0x00	; 0
  8a:	0e 94 00 00 	call	0	; 0x0 <_ZN6Client7connectEv>
  8e:	ce 01       	movw	r24, r28
  90:	0e 94 00 00 	call	0	; 0x0 <_ZN6Client7connectEv>
  94:	88 23       	and	r24, r24
  96:	01 f4       	brne	.+0      	; 0x98 <_ZN6Client7connectEv+0x98>
  98:	84 e0       	ldi	r24, 0x04	; 4
  9a:	8a 83       	std	Y+2, r24	; 0x02
  9c:	00 c0       	rjmp	.+0      	; 0x9e <_ZN6Client7connectEv+0x9e>
  9e:	ce 01       	movw	r24, r28
  a0:	0e 94 00 00 	call	0	; 0x0 <_ZN6Client7connectEv>
  a4:	87 31       	cpi	r24, 0x17	; 23
  a6:	01 f4       	brne	.+0      	; 0xa8 <_ZN6Client7connectEv+0xa8>
  a8:	81 e0       	ldi	r24, 0x01	; 1
  aa:	00 c0       	rjmp	.+0      	; 0xac <_ZN6Client7connectEv+0xac>
  ac:	80 e0       	ldi	r24, 0x00	; 0
  ae:	df 91       	pop	r29
  b0:	cf 91       	pop	r28
  b2:	1f 91       	pop	r17
  b4:	0f 91       	pop	r16
  b6:	ff 90       	pop	r15
  b8:	08 95       	ret

Disassembly of section .text._ZN6ClienteqEi:

00000000 <_ZN6ClienteqEi>:
   0:	21 e0       	ldi	r18, 0x01	; 1
   2:	fc 01       	movw	r30, r24
   4:	82 81       	ldd	r24, Z+2	; 0x02
   6:	84 30       	cpi	r24, 0x04	; 4
   8:	01 f0       	breq	.+0      	; 0xa <_ZN6ClienteqEi+0xa>
   a:	20 e0       	ldi	r18, 0x00	; 0
   c:	82 2f       	mov	r24, r18
   e:	08 95       	ret

Disassembly of section .text._ZN6ClientneEi:

00000000 <_ZN6ClientneEi>:
   0:	21 e0       	ldi	r18, 0x01	; 1
   2:	fc 01       	movw	r30, r24
   4:	82 81       	ldd	r24, Z+2	; 0x02
   6:	84 30       	cpi	r24, 0x04	; 4
   8:	01 f4       	brne	.+0      	; 0xa <_ZN6ClientneEi+0xa>
   a:	20 e0       	ldi	r18, 0x00	; 0
   c:	82 2f       	mov	r24, r18
   e:	08 95       	ret

Disassembly of section .text._ZN6ClientcvbEv:

00000000 <_ZN6ClientcvbEv>:
   0:	21 e0       	ldi	r18, 0x01	; 1
   2:	fc 01       	movw	r30, r24
   4:	82 81       	ldd	r24, Z+2	; 0x02
   6:	84 30       	cpi	r24, 0x04	; 4
   8:	01 f4       	brne	.+0      	; 0xa <_ZN6ClientcvbEv+0xa>
   a:	20 e0       	ldi	r18, 0x00	; 0
   c:	82 2f       	mov	r24, r18
   e:	08 95       	ret

Ethernet.o:     file format elf32-avr

Sections:
Idx Name          Size      VMA       LMA       File off  Algn
  0 .text         00000000  00000000  00000000  00000034  2**0
                  CONTENTS, ALLOC, LOAD, READONLY, CODE
  1 .data         00000000  00000000  00000000  00000034  2**0
                  CONTENTS, ALLOC, LOAD, DATA
  2 .bss          00000000  00000000  00000000  00000034  2**0
                  ALLOC
  3 .text._ZN10W5100Class8writeGAREPh 00000010  00000000  00000000  00000034  2**0
                  CONTENTS, ALLOC, LOAD, RELOC, READONLY, CODE
  4 .text._ZN10W5100Class9writeSUBREPh 00000010  00000000  00000000  00000044  2**0
                  CONTENTS, ALLOC, LOAD, RELOC, READONLY, CODE
  5 .text._ZN10W5100Class9writeSHAREPh 00000010  00000000  00000000  00000054  2**0
                  CONTENTS, ALLOC, LOAD, RELOC, READONLY, CODE
  6 .text._ZN10W5100Class9writeSIPREPh 00000010  00000000  00000000  00000064  2**0
                  CONTENTS, ALLOC, LOAD, RELOC, READONLY, CODE
  7 .text._ZN13EthernetClass5beginEPhS0_S0_S0_ 00000048  00000000  00000000  00000074  2**0
                  CONTENTS, ALLOC, LOAD, RELOC, READONLY, CODE
  8 .text._ZN13EthernetClass5beginEPhS0_S0_ 00000036  00000000  00000000  000000bc  2**0
                  CONTENTS, ALLOC, LOAD, RELOC, READONLY, CODE
  9 .text._ZN13EthernetClass5beginEPhS0_ 00000036  00000000  00000000  000000f2  2**0
                  CONTENTS, ALLOC, LOAD, RELOC, READONLY, CODE
 10 .bss._ZN13EthernetClass6_stateE 00000004  00000000  00000000  00000128  2**0
                  ALLOC
 11 .bss._ZN13EthernetClass12_server_portE 00000008  00000000  00000000  00000128  2**0
                  ALLOC
 12 .bss.Ethernet 00000001  00000000  00000000  00000128  2**0
                  ALLOC

Disassembly of section .text._ZN10W5100Class8writeGAREPh:

00000000 <_ZN10W5100Class8writeGAREPh>:
   0:	bc 01       	movw	r22, r24
   2:	81 e0       	ldi	r24, 0x01	; 1
   4:	90 e0       	ldi	r25, 0x00	; 0
   6:	44 e0       	ldi	r20, 0x04	; 4
   8:	50 e0       	ldi	r21, 0x00	; 0
   a:	0e 94 00 00 	call	0	; 0x0 <_ZN10W5100Class8writeGAREPh>
   e:	08 95       	ret

Disassembly of section .text._ZN10W5100Class9writeSUBREPh:

00000000 <_ZN10W5100Class9writeSUBREPh>:
   0:	bc 01       	movw	r22, r24
   2:	85 e0       	ldi	r24, 0x05	; 5
   4:	90 e0       	ldi	r25, 0x00	; 0
   6:	44 e0       	ldi	r20, 0x04	; 4
   8:	50 e0       	ldi	r21, 0x00	; 0
   a:	0e 94 00 00 	call	0	; 0x0 <_ZN10W5100Class9writeSUBREPh>
   e:	08 95       	ret

Disassembly of section .text._ZN10W5100Class9writeSHAREPh:

00000000 <_ZN10W5100Class9writeSHAREPh>:
   0:	bc 01       	movw	r22, r24
   2:	89 e0       	ldi	r24, 0x09	; 9
   4:	90 e0       	ldi	r25, 0x00	; 0
   6:	46 e0       	ldi	r20, 0x06	; 6
   8:	50 e0       	ldi	r21, 0x00	; 0
   a:	0e 94 00 00 	call	0	; 0x0 <_ZN10W5100Class9writeSHAREPh>
   e:	08 95       	ret

Disassembly of section .text._ZN10W5100Class9writeSIPREPh:

00000000 <_ZN10W5100Class9writeSIPREPh>:
   0:	bc 01       	movw	r22, r24
   2:	8f e0       	ldi	r24, 0x0F	; 15
   4:	90 e0       	ldi	r25, 0x00	; 0
   6:	44 e0       	ldi	r20, 0x04	; 4
   8:	50 e0       	ldi	r21, 0x00	; 0
   a:	0e 94 00 00 	call	0	; 0x0 <_ZN10W5100Class9writeSIPREPh>
   e:	08 95       	ret

Disassembly of section .text._ZN13EthernetClass5beginEPhS0_S0_S0_:

00000000 <_ZN13EthernetClass5beginEPhS0_S0_S0_>:
   0:	cf 92       	push	r12
   2:	df 92       	push	r13
   4:	ef 92       	push	r14
   6:	ff 92       	push	r15
   8:	0f 93       	push	r16
   a:	1f 93       	push	r17
   c:	cf 93       	push	r28
   e:	df 93       	push	r29
  10:	6b 01       	movw	r12, r22
  12:	7a 01       	movw	r14, r20
  14:	e9 01       	movw	r28, r18
  16:	80 e0       	ldi	r24, 0x00	; 0
  18:	90 e0       	ldi	r25, 0x00	; 0
  1a:	0e 94 00 00 	call	0	; 0x0 <_ZN13EthernetClass5beginEPhS0_S0_S0_>
  1e:	c6 01       	movw	r24, r12
  20:	0e 94 00 00 	call	0	; 0x0 <_ZN13EthernetClass5beginEPhS0_S0_S0_>
  24:	c7 01       	movw	r24, r14
  26:	0e 94 00 00 	call	0	; 0x0 <_ZN13EthernetClass5beginEPhS0_S0_S0_>
  2a:	ce 01       	movw	r24, r28
  2c:	0e 94 00 00 	call	0	; 0x0 <_ZN13EthernetClass5beginEPhS0_S0_S0_>
  30:	c8 01       	movw	r24, r16
  32:	0e 94 00 00 	call	0	; 0x0 <_ZN13EthernetClass5beginEPhS0_S0_S0_>
  36:	df 91       	pop	r29
  38:	cf 91       	pop	r28
  3a:	1f 91       	pop	r17
  3c:	0f 91       	pop	r16
  3e:	ff 90       	pop	r15
  40:	ef 90       	pop	r14
  42:	df 90       	pop	r13
  44:	cf 90       	pop	r12
  46:	08 95       	ret

Disassembly of section .text._ZN13EthernetClass5beginEPhS0_S0_:

00000000 <_ZN13EthernetClass5beginEPhS0_S0_>:
   0:	0f 93       	push	r16
   2:	1f 93       	push	r17
   4:	df 93       	push	r29
   6:	cf 93       	push	r28
   8:	00 d0       	rcall	.+0      	; 0xa <_ZN13EthernetClass5beginEPhS0_S0_+0xa>
   a:	0f 92       	push	r0
   c:	cd b7       	in	r28, 0x3d	; 61
   e:	de b7       	in	r29, 0x3e	; 62
  10:	ef ef       	ldi	r30, 0xFF	; 255
  12:	e9 83       	std	Y+1, r30	; 0x01
  14:	ea 83       	std	Y+2, r30	; 0x02
  16:	eb 83       	std	Y+3, r30	; 0x03
  18:	1c 82       	std	Y+4, r1	; 0x04
  1a:	8e 01       	movw	r16, r28
  1c:	0f 5f       	subi	r16, 0xFF	; 255
  1e:	1f 4f       	sbci	r17, 0xFF	; 255
  20:	0e 94 00 00 	call	0	; 0x0 <_ZN13EthernetClass5beginEPhS0_S0_>
  24:	0f 90       	pop	r0
  26:	0f 90       	pop	r0
  28:	0f 90       	pop	r0
  2a:	0f 90       	pop	r0
  2c:	cf 91       	pop	r28
  2e:	df 91       	pop	r29
  30:	1f 91       	pop	r17
  32:	0f 91       	pop	r16
  34:	08 95       	ret

Disassembly of section .text._ZN13EthernetClass5beginEPhS0_:

00000000 <_ZN13EthernetClass5beginEPhS0_>:
   0:	df 93       	push	r29
   2:	cf 93       	push	r28
   4:	00 d0       	rcall	.+0      	; 0x6 <_ZN13EthernetClass5beginEPhS0_+0x6>
   6:	0f 92       	push	r0
   8:	cd b7       	in	r28, 0x3d	; 61
   a:	de b7       	in	r29, 0x3e	; 62
   c:	fa 01       	movw	r30, r20
   e:	20 81       	ld	r18, Z
  10:	29 83       	std	Y+1, r18	; 0x01
  12:	21 81       	ldd	r18, Z+1	; 0x01
  14:	2a 83       	std	Y+2, r18	; 0x02
  16:	22 81       	ldd	r18, Z+2	; 0x02
  18:	2b 83       	std	Y+3, r18	; 0x03
  1a:	21 e0       	ldi	r18, 0x01	; 1
  1c:	2c 83       	std	Y+4, r18	; 0x04
  1e:	9e 01       	movw	r18, r28
  20:	2f 5f       	subi	r18, 0xFF	; 255
  22:	3f 4f       	sbci	r19, 0xFF	; 255
  24:	0e 94 00 00 	call	0	; 0x0 <_ZN13EthernetClass5beginEPhS0_>
  28:	0f 90       	pop	r0
  2a:	0f 90       	pop	r0
  2c:	0f 90       	pop	r0
  2e:	0f 90       	pop	r0
  30:	cf 91       	pop	r28
  32:	df 91       	pop	r29
  34:	08 95       	ret

Server.o:     file format elf32-avr

Sections:
Idx Name          Size      VMA       LMA       File off  Algn
  0 .text         00000000  00000000  00000000  00000034  2**0
                  CONTENTS, ALLOC, LOAD, READONLY, CODE
  1 .data         00000000  00000000  00000000  00000034  2**0
                  CONTENTS, ALLOC, LOAD, DATA
  2 .bss          00000000  00000000  00000000  00000034  2**0
                  ALLOC
  3 .text._ZN6Server5writeEh 0000002c  00000000  00000000  00000034  2**0
                  CONTENTS, ALLOC, LOAD, READONLY, CODE
  4 .text._ZN6Server5writeEPKc 00000022  00000000  00000000  00000060  2**0
                  CONTENTS, ALLOC, LOAD, RELOC, READONLY, CODE
  5 .text._ZN6ServerC2Ej 00000010  00000000  00000000  00000082  2**0
                  CONTENTS, ALLOC, LOAD, RELOC, READONLY, CODE
  6 .text._ZN6Server5beginEv 0000009c  00000000  00000000  00000092  2**0
                  CONTENTS, ALLOC, LOAD, RELOC, READONLY, CODE
  7 .text._ZN6Server6acceptEv 000000c8  00000000  00000000  0000012e  2**0
                  CONTENTS, ALLOC, LOAD, RELOC, READONLY, CODE
  8 .text._ZN6Server5writeEPKhj 000000ae  00000000  00000000  000001f6  2**0
                  CONTENTS, ALLOC, LOAD, RELOC, READONLY, CODE
  9 .text._ZN6Server9availableEv 000000dc  00000000  00000000  000002a4  2**0
                  CONTENTS, ALLOC, LOAD, RELOC, READONLY, CODE
 10 .rodata._ZTV6Server 0000000a  00000000  00000000  00000380  2**0
                  CONTENTS, ALLOC, LOAD, RELOC, READONLY, DATA
 11 .rodata._ZTV6Stream 00000010  00000000  00000000  0000038a  2**0
                  CONTENTS, ALLOC, LOAD, RELOC, READONLY, DATA

Disassembly of section .text._ZN6Server5writeEh:

00000000 <_ZN6Server5writeEh>:
   0:	df 93       	push	r29
   2:	cf 93       	push	r28
   4:	0f 92       	push	r0
   6:	cd b7       	in	r28, 0x3d	; 61
   8:	de b7       	in	r29, 0x3e	; 62
   a:	69 83       	std	Y+1, r22	; 0x01
   c:	dc 01       	movw	r26, r24
   e:	ed 91       	ld	r30, X+
  10:	fc 91       	ld	r31, X
  12:	04 80       	ldd	r0, Z+4	; 0x04
  14:	f5 81       	ldd	r31, Z+5	; 0x05
  16:	e0 2d       	mov	r30, r0
  18:	be 01       	movw	r22, r28
  1a:	6f 5f       	subi	r22, 0xFF	; 255
  1c:	7f 4f       	sbci	r23, 0xFF	; 255
  1e:	41 e0       	ldi	r20, 0x01	; 1
  20:	50 e0       	ldi	r21, 0x00	; 0
  22:	19 95       	eicall
  24:	0f 90       	pop	r0
  26:	cf 91       	pop	r28
  28:	df 91       	pop	r29
  2a:	08 95       	ret

Disassembly of section .text._ZN6Server5writeEPKc:

00000000 <_ZN6Server5writeEPKc>:
   0:	db 01       	movw	r26, r22
   2:	0d 90       	ld	r0, X+
   4:	00 20       	and	r0, r0
   6:	01 f4       	brne	.+0      	; 0x8 <_ZN6Server5writeEPKc+0x8>
   8:	ad 01       	movw	r20, r26
   a:	41 50       	subi	r20, 0x01	; 1
   c:	50 40       	sbci	r21, 0x00	; 0
   e:	46 1b       	sub	r20, r22
  10:	57 0b       	sbc	r21, r23
  12:	dc 01       	movw	r26, r24
  14:	ed 91       	ld	r30, X+
  16:	fc 91       	ld	r31, X
  18:	04 80       	ldd	r0, Z+4	; 0x04
  1a:	f5 81       	ldd	r31, Z+5	; 0x05
  1c:	e0 2d       	mov	r30, r0
  1e:	19 95       	eicall
  20:	08 95       	ret

Disassembly of section .text._ZN6ServerC2Ej:

00000000 <_ZN6ServerC1Ej>:
   0:	fc 01       	movw	r30, r24
   2:	80 e0       	ldi	r24, 0x00	; 0
   4:	90 e0       	ldi	r25, 0x00	; 0
   6:	91 83       	std	Z+1, r25	; 0x01
   8:	80 83       	st	Z, r24
   a:	73 83       	std	Z+3, r23	; 0x03
   c:	62 83       	std	Z+2, r22	; 0x02
   e:	08 95       	ret

Disassembly of section .text._ZN6Server5beginEv:

00000000 <_ZN6Server5beginEv>:
   0:	cf 92       	push	r12
   2:	df 92       	push	r13
   4:	ef 92       	push	r14
   6:	ff 92       	push	r15
   8:	0f 93       	push	r16
   a:	1f 93       	push	r17
   c:	df 93       	push	r29
   e:	cf 93       	push	r28
  10:	cd b7       	in	r28, 0x3d	; 61
  12:	de b7       	in	r29, 0x3e	; 62
  14:	27 97       	sbiw	r28, 0x07	; 7
  16:	0f b6       	in	r0, 0x3f	; 63
  18:	f8 94       	cli
  1a:	de bf       	out	0x3e, r29	; 62
  1c:	0f be       	out	0x3f, r0	; 63
  1e:	cd bf       	out	0x3d, r28	; 61
  20:	6c 01       	movw	r12, r24
  22:	00 e0       	ldi	r16, 0x00	; 0
  24:	10 e0       	ldi	r17, 0x00	; 0
  26:	7e 01       	movw	r14, r28
  28:	08 94       	sec
  2a:	e1 1c       	adc	r14, r1
  2c:	f1 1c       	adc	r15, r1
  2e:	c7 01       	movw	r24, r14
  30:	60 2f       	mov	r22, r16
  32:	0e 94 00 00 	call	0	; 0x0 <_ZN6Server5beginEv>
  36:	c7 01       	movw	r24, r14
  38:	0e 94 00 00 	call	0	; 0x0 <_ZN6Server5beginEv>
  3c:	88 23       	and	r24, r24
  3e:	01 f4       	brne	.+0      	; 0x40 <_ZN6Server5beginEv+0x40>
  40:	d6 01       	movw	r26, r12
  42:	12 96       	adiw	r26, 0x02	; 2
  44:	4d 91       	ld	r20, X+
  46:	5c 91       	ld	r21, X
  48:	13 97       	sbiw	r26, 0x03	; 3
  4a:	80 2f       	mov	r24, r16
  4c:	61 e0       	ldi	r22, 0x01	; 1
  4e:	20 e0       	ldi	r18, 0x00	; 0
  50:	0e 94 00 00 	call	0	; 0x0 <_ZN6Server5beginEv>
  54:	80 2f       	mov	r24, r16
  56:	0e 94 00 00 	call	0	; 0x0 <_ZN6Server5beginEv>
  5a:	f8 01       	movw	r30, r16
  5c:	ee 0f       	add	r30, r30
  5e:	ff 1f       	adc	r31, r31
  60:	e0 50       	subi	r30, 0x00	; 0
  62:	f0 40       	sbci	r31, 0x00	; 0
  64:	d6 01       	movw	r26, r12
  66:	12 96       	adiw	r26, 0x02	; 2
  68:	8d 91       	ld	r24, X+
  6a:	9c 91       	ld	r25, X
  6c:	13 97       	sbiw	r26, 0x03	; 3
  6e:	91 83       	std	Z+1, r25	; 0x01
  70:	80 83       	st	Z, r24
  72:	00 c0       	rjmp	.+0      	; 0x74 <_ZN6Server5beginEv+0x74>
  74:	0f 5f       	subi	r16, 0xFF	; 255
  76:	1f 4f       	sbci	r17, 0xFF	; 255
  78:	04 30       	cpi	r16, 0x04	; 4
  7a:	11 05       	cpc	r17, r1
  7c:	01 f4       	brne	.+0      	; 0x7e <_ZN6Server5beginEv+0x7e>
  7e:	27 96       	adiw	r28, 0x07	; 7
  80:	0f b6       	in	r0, 0x3f	; 63
  82:	f8 94       	cli
  84:	de bf       	out	0x3e, r29	; 62
  86:	0f be       	out	0x3f, r0	; 63
  88:	cd bf       	out	0x3d, r28	; 61
  8a:	cf 91       	pop	r28
  8c:	df 91       	pop	r29
  8e:	1f 91       	pop	r17
  90:	0f 91       	pop	r16
  92:	ff 90       	pop	r15
  94:	ef 90       	pop	r14
  96:	df 90       	pop	r13
  98:	cf 90       	pop	r12
  9a:	08 95       	ret

Disassembly of section .text._ZN6Server6acceptEv:

00000000 <_ZN6Server6acceptEv>:
   0:	8f 92       	push	r8
   2:	9f 92       	push	r9
   4:	af 92       	push	r10
   6:	bf 92       	push	r11
   8:	cf 92       	push	r12
   a:	df 92       	push	r13
   c:	ef 92       	push	r14
   e:	ff 92       	push	r15
  10:	0f 93       	push	r16
  12:	1f 93       	push	r17
  14:	df 93       	push	r29
  16:	cf 93       	push	r28
  18:	cd b7       	in	r28, 0x3d	; 61
  1a:	de b7       	in	r29, 0x3e	; 62
  1c:	27 97       	sbiw	r28, 0x07	; 7
  1e:	0f b6       	in	r0, 0x3f	; 63
  20:	f8 94       	cli
  22:	de bf       	out	0x3e, r29	; 62
  24:	0f be       	out	0x3f, r0	; 63
  26:	cd bf       	out	0x3d, r28	; 61
  28:	4c 01       	movw	r8, r24
  2a:	20 e0       	ldi	r18, 0x00	; 0
  2c:	c2 2e       	mov	r12, r18
  2e:	20 e0       	ldi	r18, 0x00	; 0
  30:	d2 2e       	mov	r13, r18
  32:	ee 24       	eor	r14, r14
  34:	ff 24       	eor	r15, r15
  36:	aa 24       	eor	r10, r10
  38:	bb 24       	eor	r11, r11
  3a:	8e 01       	movw	r16, r28
  3c:	0f 5f       	subi	r16, 0xFF	; 255
  3e:	1f 4f       	sbci	r17, 0xFF	; 255
  40:	c8 01       	movw	r24, r16
  42:	6e 2d       	mov	r22, r14
  44:	0e 94 00 00 	call	0	; 0x0 <_ZN6Server6acceptEv>
  48:	f6 01       	movw	r30, r12
  4a:	21 91       	ld	r18, Z+
  4c:	31 91       	ld	r19, Z+
  4e:	6f 01       	movw	r12, r30
  50:	f4 01       	movw	r30, r8
  52:	82 81       	ldd	r24, Z+2	; 0x02
  54:	93 81       	ldd	r25, Z+3	; 0x03
  56:	28 17       	cp	r18, r24
  58:	39 07       	cpc	r19, r25
  5a:	01 f4       	brne	.+0      	; 0x5c <_ZN6Server6acceptEv+0x5c>
  5c:	c8 01       	movw	r24, r16
  5e:	0e 94 00 00 	call	0	; 0x0 <_ZN6Server6acceptEv>
  62:	84 31       	cpi	r24, 0x14	; 20
  64:	01 f0       	breq	.+0      	; 0x66 <_ZN6Server6acceptEv+0x66>
  66:	c8 01       	movw	r24, r16
  68:	0e 94 00 00 	call	0	; 0x0 <_ZN6Server6acceptEv>
  6c:	8c 31       	cpi	r24, 0x1C	; 28
  6e:	01 f4       	brne	.+0      	; 0x70 <_ZN6Server6acceptEv+0x70>
  70:	c8 01       	movw	r24, r16
  72:	0e 94 00 00 	call	0	; 0x0 <_ZN6Server6acceptEv>
  76:	00 97       	sbiw	r24, 0x00	; 0
  78:	01 f4       	brne	.+0      	; 0x7a <_ZN6Server6acceptEv+0x7a>
  7a:	c8 01       	movw	r24, r16
  7c:	0e 94 00 00 	call	0	; 0x0 <_ZN6Server6acceptEv>
  80:	00 c0       	rjmp	.+0      	; 0x82 <_ZN6Server6acceptEv+0x82>
  82:	91 e0       	ldi	r25, 0x01	; 1
  84:	a9 2e       	mov	r10, r25
  86:	b1 2c       	mov	r11, r1
  88:	08 94       	sec
  8a:	e1 1c       	adc	r14, r1
  8c:	f1 1c       	adc	r15, r1
  8e:	f4 e0       	ldi	r31, 0x04	; 4
  90:	ef 16       	cp	r14, r31
  92:	f1 04       	cpc	r15, r1
  94:	01 f4       	brne	.+0      	; 0x96 <_ZN6Server6acceptEv+0x96>
  96:	a1 14       	cp	r10, r1
  98:	b1 04       	cpc	r11, r1
  9a:	01 f4       	brne	.+0      	; 0x9c <_ZN6Server6acceptEv+0x9c>
  9c:	c4 01       	movw	r24, r8
  9e:	0e 94 00 00 	call	0	; 0x0 <_ZN6Server6acceptEv>
  a2:	27 96       	adiw	r28, 0x07	; 7
  a4:	0f b6       	in	r0, 0x3f	; 63
  a6:	f8 94       	cli
  a8:	de bf       	out	0x3e, r29	; 62
  aa:	0f be       	out	0x3f, r0	; 63
  ac:	cd bf       	out	0x3d, r28	; 61
  ae:	cf 91       	pop	r28
  b0:	df 91       	pop	r29
  b2:	1f 91       	pop	r17
  b4:	0f 91       	pop	r16
  b6:	ff 90       	pop	r15
  b8:	ef 90       	pop	r14
  ba:	df 90       	pop	r13
  bc:	cf 90       	pop	r12
  be:	bf 90       	pop	r11
  c0:	af 90       	pop	r10
  c2:	9f 90       	pop	r9
  c4:	8f 90       	pop	r8
  c6:	08 95       	ret

Disassembly of section .text._ZN6Server5writeEPKhj:

00000000 <_ZN6Server5writeEPKhj>:
   0:	6f 92       	push	r6
   2:	7f 92       	push	r7
   4:	8f 92       	push	r8
   6:	9f 92       	push	r9
   8:	af 92       	push	r10
   a:	bf 92       	push	r11
   c:	cf 92       	push	r12
   e:	df 92       	push	r13
  10:	ef 92       	push	r14
  12:	ff 92       	push	r15
  14:	0f 93       	push	r16
  16:	1f 93       	push	r17
  18:	df 93       	push	r29
  1a:	cf 93       	push	r28
  1c:	cd b7       	in	r28, 0x3d	; 61
  1e:	de b7       	in	r29, 0x3e	; 62
  20:	27 97       	sbiw	r28, 0x07	; 7
  22:	0f b6       	in	r0, 0x3f	; 63
  24:	f8 94       	cli
  26:	de bf       	out	0x3e, r29	; 62
  28:	0f be       	out	0x3f, r0	; 63
  2a:	cd bf       	out	0x3d, r28	; 61
  2c:	6c 01       	movw	r12, r24
  2e:	4b 01       	movw	r8, r22
  30:	3a 01       	movw	r6, r20
  32:	0e 94 00 00 	call	0	; 0x0 <_ZN6Server5writeEPKhj>
  36:	30 e0       	ldi	r19, 0x00	; 0
  38:	a3 2e       	mov	r10, r19
  3a:	30 e0       	ldi	r19, 0x00	; 0
  3c:	b3 2e       	mov	r11, r19
  3e:	00 e0       	ldi	r16, 0x00	; 0
  40:	10 e0       	ldi	r17, 0x00	; 0
  42:	7e 01       	movw	r14, r28
  44:	08 94       	sec
  46:	e1 1c       	adc	r14, r1
  48:	f1 1c       	adc	r15, r1
  4a:	c7 01       	movw	r24, r14
  4c:	60 2f       	mov	r22, r16
  4e:	0e 94 00 00 	call	0	; 0x0 <_ZN6Server5writeEPKhj>
  52:	f5 01       	movw	r30, r10
  54:	21 91       	ld	r18, Z+
  56:	31 91       	ld	r19, Z+
  58:	5f 01       	movw	r10, r30
  5a:	f6 01       	movw	r30, r12
  5c:	82 81       	ldd	r24, Z+2	; 0x02
  5e:	93 81       	ldd	r25, Z+3	; 0x03
  60:	28 17       	cp	r18, r24
  62:	39 07       	cpc	r19, r25
  64:	01 f4       	brne	.+0      	; 0x66 <_ZN6Server5writeEPKhj+0x66>
  66:	c7 01       	movw	r24, r14
  68:	0e 94 00 00 	call	0	; 0x0 <_ZN6Server5writeEPKhj>
  6c:	87 31       	cpi	r24, 0x17	; 23
  6e:	01 f4       	brne	.+0      	; 0x70 <_ZN6Server5writeEPKhj+0x70>
  70:	c7 01       	movw	r24, r14
  72:	b4 01       	movw	r22, r8
  74:	a3 01       	movw	r20, r6
  76:	0e 94 00 00 	call	0	; 0x0 <_ZN6Server5writeEPKhj>
  7a:	0f 5f       	subi	r16, 0xFF	; 255
  7c:	1f 4f       	sbci	r17, 0xFF	; 255
  7e:	04 30       	cpi	r16, 0x04	; 4
  80:	11 05       	cpc	r17, r1
  82:	01 f4       	brne	.+0      	; 0x84 <_ZN6Server5writeEPKhj+0x84>
  84:	27 96       	adiw	r28, 0x07	; 7
  86:	0f b6       	in	r0, 0x3f	; 63
  88:	f8 94       	cli
  8a:	de bf       	out	0x3e, r29	; 62
  8c:	0f be       	out	0x3f, r0	; 63
  8e:	cd bf       	out	0x3d, r28	; 61
  90:	cf 91       	pop	r28
  92:	df 91       	pop	r29
  94:	1f 91       	pop	r17
  96:	0f 91       	pop	r16
  98:	ff 90       	pop	r15
  9a:	ef 90       	pop	r14
  9c:	df 90       	pop	r13
  9e:	cf 90       	pop	r12
  a0:	bf 90       	pop	r11
  a2:	af 90       	pop	r10
  a4:	9f 90       	pop	r9
  a6:	8f 90       	pop	r8
  a8:	7f 90       	pop	r7
  aa:	6f 90       	pop	r6
  ac:	08 95       	ret

Disassembly of section .text._ZN6Server9availableEv:

00000000 <_ZN6Server9availableEv>:
   0:	8f 92       	push	r8
   2:	9f 92       	push	r9
   4:	af 92       	push	r10
   6:	bf 92       	push	r11
   8:	cf 92       	push	r12
   a:	df 92       	push	r13
   c:	ef 92       	push	r14
   e:	ff 92       	push	r15
  10:	0f 93       	push	r16
  12:	1f 93       	push	r17
  14:	df 93       	push	r29
  16:	cf 93       	push	r28
  18:	cd b7       	in	r28, 0x3d	; 61
  1a:	de b7       	in	r29, 0x3e	; 62
  1c:	27 97       	sbiw	r28, 0x07	; 7
  1e:	0f b6       	in	r0, 0x3f	; 63
  20:	f8 94       	cli
  22:	de bf       	out	0x3e, r29	; 62
  24:	0f be       	out	0x3f, r0	; 63
  26:	cd bf       	out	0x3d, r28	; 61
  28:	4c 01       	movw	r8, r24
  2a:	6b 01       	movw	r12, r22
  2c:	cb 01       	movw	r24, r22
  2e:	0e 94 00 00 	call	0	; 0x0 <_ZN6Server9availableEv>
  32:	40 e0       	ldi	r20, 0x00	; 0
  34:	a4 2e       	mov	r10, r20
  36:	40 e0       	ldi	r20, 0x00	; 0
  38:	b4 2e       	mov	r11, r20
  3a:	ee 24       	eor	r14, r14
  3c:	ff 24       	eor	r15, r15
  3e:	8e 01       	movw	r16, r28
  40:	0f 5f       	subi	r16, 0xFF	; 255
  42:	1f 4f       	sbci	r17, 0xFF	; 255
  44:	c8 01       	movw	r24, r16
  46:	6e 2d       	mov	r22, r14
  48:	0e 94 00 00 	call	0	; 0x0 <_ZN6Server9availableEv>
  4c:	f5 01       	movw	r30, r10
  4e:	21 91       	ld	r18, Z+
  50:	31 91       	ld	r19, Z+
  52:	5f 01       	movw	r10, r30
  54:	f6 01       	movw	r30, r12
  56:	82 81       	ldd	r24, Z+2	; 0x02
  58:	93 81       	ldd	r25, Z+3	; 0x03
  5a:	28 17       	cp	r18, r24
  5c:	39 07       	cpc	r19, r25
  5e:	01 f4       	brne	.+0      	; 0x60 <_ZN6Server9availableEv+0x60>
  60:	c8 01       	movw	r24, r16
  62:	0e 94 00 00 	call	0	; 0x0 <_ZN6Server9availableEv>
  66:	87 31       	cpi	r24, 0x17	; 23
  68:	01 f0       	breq	.+0      	; 0x6a <_ZN6Server9availableEv+0x6a>
  6a:	c8 01       	movw	r24, r16
  6c:	0e 94 00 00 	call	0	; 0x0 <_ZN6Server9availableEv>
  70:	8c 31       	cpi	r24, 0x1C	; 28
  72:	01 f4       	brne	.+0      	; 0x74 <_ZN6Server9availableEv+0x74>
  74:	c8 01       	movw	r24, r16
  76:	0e 94 00 00 	call	0	; 0x0 <_ZN6Server9availableEv>
  7a:	00 97       	sbiw	r24, 0x00	; 0
  7c:	01 f0       	breq	.+0      	; 0x7e <_ZN6Server9availableEv+0x7e>
  7e:	f4 01       	movw	r30, r8
  80:	80 e0       	ldi	r24, 0x00	; 0
  82:	90 e0       	ldi	r25, 0x00	; 0
  84:	91 83       	std	Z+1, r25	; 0x01
  86:	80 83       	st	Z, r24
  88:	8b 81       	ldd	r24, Y+3	; 0x03
  8a:	82 83       	std	Z+2, r24	; 0x02
  8c:	8c 81       	ldd	r24, Y+4	; 0x04
  8e:	9d 81       	ldd	r25, Y+5	; 0x05
  90:	94 83       	std	Z+4, r25	; 0x04
  92:	83 83       	std	Z+3, r24	; 0x03
  94:	8e 81       	ldd	r24, Y+6	; 0x06
  96:	9f 81       	ldd	r25, Y+7	; 0x07
  98:	96 83       	std	Z+6, r25	; 0x06
  9a:	85 83       	std	Z+5, r24	; 0x05
  9c:	00 c0       	rjmp	.+0      	; 0x9e <_ZN6Server9availableEv+0x9e>
  9e:	08 94       	sec
  a0:	e1 1c       	adc	r14, r1
  a2:	f1 1c       	adc	r15, r1
  a4:	f4 e0       	ldi	r31, 0x04	; 4
  a6:	ef 16       	cp	r14, r31
  a8:	f1 04       	cpc	r15, r1
  aa:	01 f4       	brne	.+0      	; 0xac <_ZN6Server9availableEv+0xac>
  ac:	c4 01       	movw	r24, r8
  ae:	64 e0       	ldi	r22, 0x04	; 4
  b0:	0e 94 00 00 	call	0	; 0x0 <_ZN6Server9availableEv>
  b4:	c4 01       	movw	r24, r8
  b6:	27 96       	adiw	r28, 0x07	; 7
  b8:	0f b6       	in	r0, 0x3f	; 63
  ba:	f8 94       	cli
  bc:	de bf       	out	0x3e, r29	; 62
  be:	0f be       	out	0x3f, r0	; 63
  c0:	cd bf       	out	0x3d, r28	; 61
  c2:	cf 91       	pop	r28
  c4:	df 91       	pop	r29
  c6:	1f 91       	pop	r17
  c8:	0f 91       	pop	r16
  ca:	ff 90       	pop	r15
  cc:	ef 90       	pop	r14
  ce:	df 90       	pop	r13
  d0:	cf 90       	pop	r12
  d2:	bf 90       	pop	r11
  d4:	af 90       	pop	r10
  d6:	9f 90       	pop	r9
  d8:	8f 90       	pop	r8
  da:	08 95       	ret

Udp.o:     file format elf32-avr

Sections:
Idx Name          Size      VMA       LMA       File off  Algn
  0 .text         00000000  00000000  00000000  00000034  2**0
                  CONTENTS, ALLOC, LOAD, READONLY, CODE
  1 .data         00000000  00000000  00000000  00000034  2**0
                  CONTENTS, ALLOC, LOAD, DATA
  2 .bss          00000000  00000000  00000000  00000034  2**0
                  ALLOC
  3 .text._ZN8UdpClass5beginEj 00000016  00000000  00000000  00000034  2**0
                  CONTENTS, ALLOC, LOAD, RELOC, READONLY, CODE
  4 .text._ZN8UdpClass10sendPacketEPhjS0_j 00000012  00000000  00000000  0000004a  2**0
                  CONTENTS, ALLOC, LOAD, RELOC, READONLY, CODE
  5 .text._ZN8UdpClass10sendPacketEPKcPhj 00000026  00000000  00000000  0000005c  2**0
                  CONTENTS, ALLOC, LOAD, RELOC, READONLY, CODE
  6 .text._ZN8UdpClass9availableEv 0000000e  00000000  00000000  00000082  2**0
                  CONTENTS, ALLOC, LOAD, RELOC, READONLY, CODE
  7 .text._ZN8UdpClass10readPacketEPhjS0_Pj 0000013c  00000000  00000000  00000090  2**0
                  CONTENTS, ALLOC, LOAD, RELOC, READONLY, CODE
  8 .text._ZN8UdpClass10readPacketEPhj 0000003a  00000000  00000000  000001cc  2**0
                  CONTENTS, ALLOC, LOAD, RELOC, READONLY, CODE
  9 .text._ZN8UdpClass10readPacketEPcjPhRj 0000003c  00000000  00000000  00000206  2**0
                  CONTENTS, ALLOC, LOAD, RELOC, READONLY, CODE
 10 .bss.Udp      00000003  00000000  00000000  00000242  2**0
                  ALLOC

Disassembly of section .text._ZN8UdpClass5beginEj:

00000000 <_ZN8UdpClass5beginEj>:
   0:	fc 01       	movw	r30, r24
   2:	ab 01       	movw	r20, r22
   4:	72 83       	std	Z+2, r23	; 0x02
   6:	61 83       	std	Z+1, r22	; 0x01
   8:	10 82       	st	Z, r1
   a:	80 e0       	ldi	r24, 0x00	; 0
   c:	62 e0       	ldi	r22, 0x02	; 2
   e:	20 e0       	ldi	r18, 0x00	; 0
  10:	0e 94 00 00 	call	0	; 0x0 <_ZN8UdpClass5beginEj>
  14:	08 95       	ret

Disassembly of section .text._ZN8UdpClass10sendPacketEPhjS0_j:

00000000 <_ZN8UdpClass10sendPacketEPhjS0_j>:
   0:	0f 93       	push	r16
   2:	1f 93       	push	r17
   4:	fc 01       	movw	r30, r24
   6:	80 81       	ld	r24, Z
   8:	0e 94 00 00 	call	0	; 0x0 <_ZN8UdpClass10sendPacketEPhjS0_j>
   c:	1f 91       	pop	r17
   e:	0f 91       	pop	r16
  10:	08 95       	ret

Disassembly of section .text._ZN8UdpClass10sendPacketEPKcPhj:

00000000 <_ZN8UdpClass10sendPacketEPKcPhj>:
   0:	0f 93       	push	r16
   2:	1f 93       	push	r17
   4:	fa 01       	movw	r30, r20
   6:	89 01       	movw	r16, r18
   8:	db 01       	movw	r26, r22
   a:	ad 01       	movw	r20, r26
   c:	2d 91       	ld	r18, X+
   e:	22 23       	and	r18, r18
  10:	01 f4       	brne	.+0      	; 0x12 <_ZN8UdpClass10sendPacketEPKcPhj+0x12>
  12:	46 1b       	sub	r20, r22
  14:	57 0b       	sbc	r21, r23
  16:	dc 01       	movw	r26, r24
  18:	8c 91       	ld	r24, X
  1a:	9f 01       	movw	r18, r30
  1c:	0e 94 00 00 	call	0	; 0x0 <_ZN8UdpClass10sendPacketEPKcPhj>
  20:	1f 91       	pop	r17
  22:	0f 91       	pop	r16
  24:	08 95       	ret

Disassembly of section .text._ZN8UdpClass9availableEv:

00000000 <_ZN8UdpClass9availableEv>:
   0:	fc 01       	movw	r30, r24
   2:	80 e0       	ldi	r24, 0x00	; 0
   4:	90 e0       	ldi	r25, 0x00	; 0
   6:	60 81       	ld	r22, Z
   8:	0e 94 00 00 	call	0	; 0x0 <_ZN8UdpClass9availableEv>
   c:	08 95       	ret

Disassembly of section .text._ZN8UdpClass10readPacketEPhjS0_Pj:

00000000 <_ZN8UdpClass10readPacketEPhjS0_Pj>:
   0:	4f 92       	push	r4
   2:	5f 92       	push	r5
   4:	6f 92       	push	r6
   6:	7f 92       	push	r7
   8:	8f 92       	push	r8
   a:	9f 92       	push	r9
   c:	af 92       	push	r10
   e:	bf 92       	push	r11
  10:	cf 92       	push	r12
  12:	df 92       	push	r13
  14:	ef 92       	push	r14
  16:	ff 92       	push	r15
  18:	0f 93       	push	r16
  1a:	1f 93       	push	r17
  1c:	df 93       	push	r29
  1e:	cf 93       	push	r28
  20:	cd b7       	in	r28, 0x3d	; 61
  22:	de b7       	in	r29, 0x3e	; 62
  24:	2a 97       	sbiw	r28, 0x0a	; 10
  26:	0f b6       	in	r0, 0x3f	; 63
  28:	f8 94       	cli
  2a:	de bf       	out	0x3e, r29	; 62
  2c:	0f be       	out	0x3f, r0	; 63
  2e:	cd bf       	out	0x3d, r28	; 61
  30:	7c 01       	movw	r14, r24
  32:	56 2e       	mov	r5, r22
  34:	47 2e       	mov	r4, r23
  36:	69 01       	movw	r12, r18
  38:	49 87       	std	Y+9, r20	; 0x09
  3a:	5a 87       	std	Y+10, r21	; 0x0a
  3c:	0e 94 00 00 	call	0	; 0x0 <_ZN8UdpClass10readPacketEPhjS0_Pj>
  40:	28 ef       	ldi	r18, 0xF8	; 248
  42:	a2 2e       	mov	r10, r18
  44:	2f ef       	ldi	r18, 0xFF	; 255
  46:	b2 2e       	mov	r11, r18
  48:	a8 0e       	add	r10, r24
  4a:	b9 1e       	adc	r11, r25
  4c:	49 85       	ldd	r20, Y+9	; 0x09
  4e:	5a 85       	ldd	r21, Y+10	; 0x0a
  50:	b7 fc       	sbrc	r11, 7
  52:	00 c0       	rjmp	.+0      	; 0x54 <_ZN8UdpClass10readPacketEPhjS0_Pj+0x54>
  54:	3a 01       	movw	r6, r20
  56:	6a 14       	cp	r6, r10
  58:	7b 04       	cpc	r7, r11
  5a:	04 f0       	brlt	.+0      	; 0x5c <_ZN8UdpClass10readPacketEPhjS0_Pj+0x5c>
  5c:	00 c0       	rjmp	.+0      	; 0x5e <_ZN8UdpClass10readPacketEPhjS0_Pj+0x5e>
  5e:	f7 01       	movw	r30, r14
  60:	80 81       	ld	r24, Z
  62:	4e 01       	movw	r8, r28
  64:	08 94       	sec
  66:	81 1c       	adc	r8, r1
  68:	91 1c       	adc	r9, r1
  6a:	b4 01       	movw	r22, r8
  6c:	48 e0       	ldi	r20, 0x08	; 8
  6e:	50 e0       	ldi	r21, 0x00	; 0
  70:	0e 94 00 00 	call	0	; 0x0 <_ZN8UdpClass10readPacketEPhjS0_Pj>
  74:	89 81       	ldd	r24, Y+1	; 0x01
  76:	f6 01       	movw	r30, r12
  78:	80 83       	st	Z, r24
  7a:	8a 81       	ldd	r24, Y+2	; 0x02
  7c:	81 83       	std	Z+1, r24	; 0x01
  7e:	8b 81       	ldd	r24, Y+3	; 0x03
  80:	82 83       	std	Z+2, r24	; 0x02
  82:	8c 81       	ldd	r24, Y+4	; 0x04
  84:	83 83       	std	Z+3, r24	; 0x03
  86:	9d 81       	ldd	r25, Y+5	; 0x05
  88:	80 e0       	ldi	r24, 0x00	; 0
  8a:	2e 81       	ldd	r18, Y+6	; 0x06
  8c:	82 0f       	add	r24, r18
  8e:	91 1d       	adc	r25, r1
  90:	f8 01       	movw	r30, r16
  92:	91 83       	std	Z+1, r25	; 0x01
  94:	80 83       	st	Z, r24
  96:	c2 01       	movw	r24, r4
  98:	c9 2e       	mov	r12, r25
  9a:	d8 2e       	mov	r13, r24
  9c:	00 e0       	ldi	r16, 0x00	; 0
  9e:	10 e0       	ldi	r17, 0x00	; 0
  a0:	58 2c       	mov	r5, r8
  a2:	89 2c       	mov	r8, r9
  a4:	00 c0       	rjmp	.+0      	; 0xa6 <_ZN8UdpClass10readPacketEPhjS0_Pj+0xa6>
  a6:	f7 01       	movw	r30, r14
  a8:	80 81       	ld	r24, Z
  aa:	65 2d       	mov	r22, r5
  ac:	78 2d       	mov	r23, r8
  ae:	41 e0       	ldi	r20, 0x01	; 1
  b0:	50 e0       	ldi	r21, 0x00	; 0
  b2:	0e 94 00 00 	call	0	; 0x0 <_ZN8UdpClass10readPacketEPhjS0_Pj>
  b6:	89 81       	ldd	r24, Y+1	; 0x01
  b8:	f6 01       	movw	r30, r12
  ba:	81 93       	st	Z+, r24
  bc:	6f 01       	movw	r12, r30
  be:	0f 5f       	subi	r16, 0xFF	; 255
  c0:	1f 4f       	sbci	r17, 0xFF	; 255
  c2:	06 15       	cp	r16, r6
  c4:	17 05       	cpc	r17, r7
  c6:	04 f0       	brlt	.+0      	; 0xc8 <_ZN8UdpClass10readPacketEPhjS0_Pj+0xc8>
  c8:	00 c0       	rjmp	.+0      	; 0xca <_ZN8UdpClass10readPacketEPhjS0_Pj+0xca>
  ca:	f7 01       	movw	r30, r14
  cc:	80 81       	ld	r24, Z
  ce:	b8 01       	movw	r22, r16
  d0:	41 e0       	ldi	r20, 0x01	; 1
  d2:	50 e0       	ldi	r21, 0x00	; 0
  d4:	0e 94 00 00 	call	0	; 0x0 <_ZN8UdpClass10readPacketEPhjS0_Pj>
  d8:	00 c0       	rjmp	.+0      	; 0xda <_ZN8UdpClass10readPacketEPhjS0_Pj+0xda>
  da:	8e 01       	movw	r16, r28
  dc:	0f 5f       	subi	r16, 0xFF	; 255
  de:	1f 4f       	sbci	r17, 0xFF	; 255
  e0:	c7 01       	movw	r24, r14
  e2:	0e 94 00 00 	call	0	; 0x0 <_ZN8UdpClass10readPacketEPhjS0_Pj>
  e6:	00 97       	sbiw	r24, 0x00	; 0
  e8:	01 f4       	brne	.+0      	; 0xea <_ZN8UdpClass10readPacketEPhjS0_Pj+0xea>
  ea:	22 27       	eor	r18, r18
  ec:	33 27       	eor	r19, r19
  ee:	2a 19       	sub	r18, r10
  f0:	3b 09       	sbc	r19, r11
  f2:	00 c0       	rjmp	.+0      	; 0xf4 <_ZN8UdpClass10readPacketEPhjS0_Pj+0xf4>
  f4:	f7 01       	movw	r30, r14
  f6:	80 81       	ld	r24, Z
  f8:	65 2d       	mov	r22, r5
  fa:	74 2d       	mov	r23, r4
  fc:	96 01       	movw	r18, r12
  fe:	0e 94 00 00 	call	0	; 0x0 <_ZN8UdpClass10readPacketEPhjS0_Pj>
 102:	28 2f       	mov	r18, r24
 104:	39 2f       	mov	r19, r25
 106:	00 c0       	rjmp	.+0      	; 0x108 <_ZN8UdpClass10readPacketEPhjS0_Pj+0x108>
 108:	20 e0       	ldi	r18, 0x00	; 0
 10a:	30 e0       	ldi	r19, 0x00	; 0
 10c:	c9 01       	movw	r24, r18
 10e:	2a 96       	adiw	r28, 0x0a	; 10
 110:	0f b6       	in	r0, 0x3f	; 63
 112:	f8 94       	cli
 114:	de bf       	out	0x3e, r29	; 62
 116:	0f be       	out	0x3f, r0	; 63
 118:	cd bf       	out	0x3d, r28	; 61
 11a:	cf 91       	pop	r28
 11c:	df 91       	pop	r29
 11e:	1f 91       	pop	r17
 120:	0f 91       	pop	r16
 122:	ff 90       	pop	r15
 124:	ef 90       	pop	r14
 126:	df 90       	pop	r13
 128:	cf 90       	pop	r12
 12a:	bf 90       	pop	r11
 12c:	af 90       	pop	r10
 12e:	9f 90       	pop	r9
 130:	8f 90       	pop	r8
 132:	7f 90       	pop	r7
 134:	6f 90       	pop	r6
 136:	5f 90       	pop	r5
 138:	4f 90       	pop	r4
 13a:	08 95       	ret

Disassembly of section .text._ZN8UdpClass10readPacketEPhj:

00000000 <_ZN8UdpClass10readPacketEPhj>:
   0:	0f 93       	push	r16
   2:	1f 93       	push	r17
   4:	df 93       	push	r29
   6:	cf 93       	push	r28
   8:	00 d0       	rcall	.+0      	; 0xa <_ZN8UdpClass10readPacketEPhj+0xa>
   a:	00 d0       	rcall	.+0      	; 0xc <_ZN8UdpClass10readPacketEPhj+0xc>
   c:	cd b7       	in	r28, 0x3d	; 61
   e:	de b7       	in	r29, 0x3e	; 62
  10:	fc 01       	movw	r30, r24
  12:	80 81       	ld	r24, Z
  14:	9e 01       	movw	r18, r28
  16:	2d 5f       	subi	r18, 0xFD	; 253
  18:	3f 4f       	sbci	r19, 0xFF	; 255
  1a:	8e 01       	movw	r16, r28
  1c:	0f 5f       	subi	r16, 0xFF	; 255
  1e:	1f 4f       	sbci	r17, 0xFF	; 255
  20:	0e 94 00 00 	call	0	; 0x0 <_ZN8UdpClass10readPacketEPhj>
  24:	26 96       	adiw	r28, 0x06	; 6
  26:	0f b6       	in	r0, 0x3f	; 63
  28:	f8 94       	cli
  2a:	de bf       	out	0x3e, r29	; 62
  2c:	0f be       	out	0x3f, r0	; 63
  2e:	cd bf       	out	0x3d, r28	; 61
  30:	cf 91       	pop	r28
  32:	df 91       	pop	r29
  34:	1f 91       	pop	r17
  36:	0f 91       	pop	r16
  38:	08 95       	ret

Disassembly of section .text._ZN8UdpClass10readPacketEPcjPhRj:

00000000 <_ZN8UdpClass10readPacketEPcjPhRj>:
   0:	ef 92       	push	r14
   2:	ff 92       	push	r15
   4:	0f 93       	push	r16
   6:	1f 93       	push	r17
   8:	df 93       	push	r29
   a:	cf 93       	push	r28
   c:	0f 92       	push	r0
   e:	0f 92       	push	r0
  10:	cd b7       	in	r28, 0x3d	; 61
  12:	de b7       	in	r29, 0x3e	; 62
  14:	78 01       	movw	r14, r16
  16:	8e 01       	movw	r16, r28
  18:	0f 5f       	subi	r16, 0xFF	; 255
  1a:	1f 4f       	sbci	r17, 0xFF	; 255
  1c:	0e 94 00 00 	call	0	; 0x0 <_ZN8UdpClass10readPacketEPcjPhRj>
  20:	29 81       	ldd	r18, Y+1	; 0x01
  22:	3a 81       	ldd	r19, Y+2	; 0x02
  24:	f7 01       	movw	r30, r14
  26:	31 83       	std	Z+1, r19	; 0x01
  28:	20 83       	st	Z, r18
  2a:	0f 90       	pop	r0
  2c:	0f 90       	pop	r0
  2e:	cf 91       	pop	r28
  30:	df 91       	pop	r29
  32:	1f 91       	pop	r17
  34:	0f 91       	pop	r16
  36:	ff 90       	pop	r15
  38:	ef 90       	pop	r14
  3a:	08 95       	ret

EEPROM.o:     file format elf32-avr

Sections:
Idx Name          Size      VMA       LMA       File off  Algn
  0 .text         00000000  00000000  00000000  00000034  2**0
                  CONTENTS, ALLOC, LOAD, READONLY, CODE
  1 .data         00000000  00000000  00000000  00000034  2**0
                  CONTENTS, ALLOC, LOAD, DATA
  2 .bss          00000000  00000000  00000000  00000034  2**0
                  ALLOC
  3 .text._ZN11EEPROMClass4readEi 00000008  00000000  00000000  00000034  2**0
                  CONTENTS, ALLOC, LOAD, RELOC, READONLY, CODE
  4 .text._ZN11EEPROMClass5writeEih 0000000a  00000000  00000000  0000003c  2**0
                  CONTENTS, ALLOC, LOAD, RELOC, READONLY, CODE
  5 .bss.EEPROM   00000001  00000000  00000000  00000046  2**0
                  ALLOC

Disassembly of section .text._ZN11EEPROMClass4readEi:

00000000 <_ZN11EEPROMClass4readEi>:
   0:	cb 01       	movw	r24, r22
   2:	0e 94 00 00 	call	0	; 0x0 <_ZN11EEPROMClass4readEi>
   6:	08 95       	ret

Disassembly of section .text._ZN11EEPROMClass5writeEih:

00000000 <_ZN11EEPROMClass5writeEih>:
   0:	cb 01       	movw	r24, r22
   2:	64 2f       	mov	r22, r20
   4:	0e 94 00 00 	call	0	; 0x0 <_ZN11EEPROMClass5writeEih>
   8:	08 95       	ret
